SF:[REPO]/internal/src/dirs.rs
FN:136,_RINvNtCs8THTY5tYJNn_18test_fuzz_internal4dirs19path_from_args_typeNtNtCse8wYCkBeBvO_5alloc13target_fuzz__4ArgsEB16_
FN:136,_RINvNtCs8THTY5tYJNn_18test_fuzz_internal4dirs19path_from_args_typeNtNvNtCse8wYCkBeBvO_5alloc13target_fuzz__10write_args4ArgsEB18_
FN:32,_RINvNtCs8THTY5tYJNn_18test_fuzz_internal4dirs31corpus_directory_from_args_typeNtNvNtCse8wYCkBeBvO_5alloc13target_fuzz__10write_args4ArgsEB1k_
FN:22,_RINvNtCs8THTY5tYJNn_18test_fuzz_internal4dirs37generic_args_directory_from_args_typeNtNtCse8wYCkBeBvO_5alloc13target_fuzz__4ArgsEB1o_
FN:12,_RINvNtCs8THTY5tYJNn_18test_fuzz_internal4dirs42impl_generic_args_directory_from_args_typeNtNtCse8wYCkBeBvO_5alloc13target_fuzz__4ArgsEB1t_
FN:140,_RNCINvNtCs8THTY5tYJNn_18test_fuzz_internal4dirs19path_from_args_typeNtNtCse8wYCkBeBvO_5alloc13target_fuzz__4ArgsE0B18_
FN:140,_RNCINvNtCs8THTY5tYJNn_18test_fuzz_internal4dirs19path_from_args_typeNtNvNtCse8wYCkBeBvO_5alloc13target_fuzz__10write_args4ArgsE0B1a_
FN:86,_RNvNtCs8THTY5tYJNn_18test_fuzz_internal4dirs12path_segment
FN:129,_RNvNtCs8THTY5tYJNn_18test_fuzz_internal4dirs14workspace_root
FN:74,_RNvNtCs8THTY5tYJNn_18test_fuzz_internal4dirs16corpus_directory
FN:80,_RNvNtCs8THTY5tYJNn_18test_fuzz_internal4dirs16output_directory
FN:145,_RNvNtCs8THTY5tYJNn_18test_fuzz_internal4dirs16path_from_target
FN:110,_RNvNtCs8THTY5tYJNn_18test_fuzz_internal4dirs16target_directory
FN:68,_RNvNtCs8THTY5tYJNn_18test_fuzz_internal4dirs22generic_args_directory
FN:47,_RNvNtCs8THTY5tYJNn_18test_fuzz_internal4dirs27hangs_directory_from_target
FN:62,_RNvNtCs8THTY5tYJNn_18test_fuzz_internal4dirs27impl_generic_args_directory
FN:52,_RNvNtCs8THTY5tYJNn_18test_fuzz_internal4dirs27queue_directory_from_target
FN:37,_RNvNtCs8THTY5tYJNn_18test_fuzz_internal4dirs28corpus_directory_from_target
FN:57,_RNvNtCs8THTY5tYJNn_18test_fuzz_internal4dirs28output_directory_from_target
FN:42,_RNvNtCs8THTY5tYJNn_18test_fuzz_internal4dirs29crashes_directory_from_target
FN:27,_RNvNtCs8THTY5tYJNn_18test_fuzz_internal4dirs34generic_args_directory_from_target
FN:17,_RNvNtCs8THTY5tYJNn_18test_fuzz_internal4dirs39impl_generic_args_directory_from_target
FN:95,_RNvNtCs8THTY5tYJNn_18test_fuzz_internal4dirs8maybe_id
FN:105,_RNvNtCs8THTY5tYJNn_18test_fuzz_internal4dirs9thread_id
FN:123,_RNvNtCs8THTY5tYJNn_18test_fuzz_internal4dirs9workspace
FN:96,_RNCNvNtCs8THTY5tYJNn_18test_fuzz_internal4dirs8maybe_id0B5_
FN:136,_RINvNtCs8THTY5tYJNn_18test_fuzz_internal4dirs19path_from_args_typepEB4_
FN:32,_RINvNtCs8THTY5tYJNn_18test_fuzz_internal4dirs31corpus_directory_from_args_typepEB4_
FN:22,_RINvNtCs8THTY5tYJNn_18test_fuzz_internal4dirs37generic_args_directory_from_args_typepEB4_
FN:12,_RINvNtCs8THTY5tYJNn_18test_fuzz_internal4dirs42impl_generic_args_directory_from_args_typepEB4_
FN:140,_RNCINvNtCs8THTY5tYJNn_18test_fuzz_internal4dirs19path_from_args_typepE0B6_
FN:136,_RINvNtCs8THTY5tYJNn_18test_fuzz_internal4dirs19path_from_args_typeNtNtCskAhiz3iLhgB_3arc13target_fuzz__4ArgsEB16_
FN:136,_RINvNtCs8THTY5tYJNn_18test_fuzz_internal4dirs19path_from_args_typeNtNvNtCskAhiz3iLhgB_3arc13target_fuzz__10write_args4ArgsEB18_
FN:32,_RINvNtCs8THTY5tYJNn_18test_fuzz_internal4dirs31corpus_directory_from_args_typeNtNvNtCskAhiz3iLhgB_3arc13target_fuzz__10write_args4ArgsEB1k_
FN:22,_RINvNtCs8THTY5tYJNn_18test_fuzz_internal4dirs37generic_args_directory_from_args_typeNtNtCskAhiz3iLhgB_3arc13target_fuzz__4ArgsEB1o_
FN:12,_RINvNtCs8THTY5tYJNn_18test_fuzz_internal4dirs42impl_generic_args_directory_from_args_typeNtNtCskAhiz3iLhgB_3arc13target_fuzz__4ArgsEB1t_
FN:140,_RNCINvNtCs8THTY5tYJNn_18test_fuzz_internal4dirs19path_from_args_typeNtNtCskAhiz3iLhgB_3arc13target_fuzz__4ArgsE0B18_
FN:140,_RNCINvNtCs8THTY5tYJNn_18test_fuzz_internal4dirs19path_from_args_typeNtNvNtCskAhiz3iLhgB_3arc13target_fuzz__10write_args4ArgsE0B1a_
FN:136,_RINvNtCs8THTY5tYJNn_18test_fuzz_internal4dirs19path_from_args_typeNtNtCs3NEe1ZjCvxW_6assert13target_fuzz__4ArgsEB16_
FN:136,_RINvNtCs8THTY5tYJNn_18test_fuzz_internal4dirs19path_from_args_typeNtNvNtCs3NEe1ZjCvxW_6assert13target_fuzz__10write_args4ArgsEB18_
FN:32,_RINvNtCs8THTY5tYJNn_18test_fuzz_internal4dirs31corpus_directory_from_args_typeNtNvNtCs3NEe1ZjCvxW_6assert13target_fuzz__10write_args4ArgsEB1k_
FN:22,_RINvNtCs8THTY5tYJNn_18test_fuzz_internal4dirs37generic_args_directory_from_args_typeNtNtCs3NEe1ZjCvxW_6assert13target_fuzz__4ArgsEB1o_
FN:12,_RINvNtCs8THTY5tYJNn_18test_fuzz_internal4dirs42impl_generic_args_directory_from_args_typeNtNtCs3NEe1ZjCvxW_6assert13target_fuzz__4ArgsEB1t_
FN:140,_RNCINvNtCs8THTY5tYJNn_18test_fuzz_internal4dirs19path_from_args_typeNtNtCs3NEe1ZjCvxW_6assert13target_fuzz__4ArgsE0B18_
FN:140,_RNCINvNtCs8THTY5tYJNn_18test_fuzz_internal4dirs19path_from_args_typeNtNvNtCs3NEe1ZjCvxW_6assert13target_fuzz__10write_args4ArgsE0B1a_
FN:136,_RINvNtCs8THTY5tYJNn_18test_fuzz_internal4dirs19path_from_args_typeINtNtCs6B4TSC9eIAl_15associated_type20serializes_to_fuzz__4ArgsNtB17_7AddressEEB17_
FN:136,_RINvNtCs8THTY5tYJNn_18test_fuzz_internal4dirs19path_from_args_typeINtNvNtCs6B4TSC9eIAl_15associated_type20serializes_to_fuzz__10write_args4ArgsNtB19_7AddressEEB19_
FN:32,_RINvNtCs8THTY5tYJNn_18test_fuzz_internal4dirs31corpus_directory_from_args_typeINtNvNtCs6B4TSC9eIAl_15associated_type20serializes_to_fuzz__10write_args4ArgsNtB1l_7AddressEEB1l_
FN:22,_RINvNtCs8THTY5tYJNn_18test_fuzz_internal4dirs37generic_args_directory_from_args_typeINtNtCs6B4TSC9eIAl_15associated_type20serializes_to_fuzz__4ArgsNtB1p_7AddressEEB1p_
FN:12,_RINvNtCs8THTY5tYJNn_18test_fuzz_internal4dirs42impl_generic_args_directory_from_args_typeINtNtCs6B4TSC9eIAl_15associated_type20serializes_to_fuzz__4ArgsNtB1u_7AddressEEB1u_
FN:140,_RNCINvNtCs8THTY5tYJNn_18test_fuzz_internal4dirs19path_from_args_typeINtNtCs6B4TSC9eIAl_15associated_type20serializes_to_fuzz__4ArgsNtB19_7AddressEE0B19_
FN:140,_RNCINvNtCs8THTY5tYJNn_18test_fuzz_internal4dirs19path_from_args_typeINtNvNtCs6B4TSC9eIAl_15associated_type20serializes_to_fuzz__10write_args4ArgsNtB1b_7AddressEE0B1b_
FN:136,_RINvNtCs8THTY5tYJNn_18test_fuzz_internal4dirs19path_from_args_typeNtNtNtCsgYSNy1dwfGS_13auto_generate6signed13target_fuzz__4ArgsEB18_
FN:136,_RINvNtCs8THTY5tYJNn_18test_fuzz_internal4dirs19path_from_args_typeNtNtNtCsgYSNy1dwfGS_13auto_generate8unsigned13target_fuzz__4ArgsEB18_
FN:136,_RINvNtCs8THTY5tYJNn_18test_fuzz_internal4dirs19path_from_args_typeNtNvNtNtCsgYSNy1dwfGS_13auto_generate6signed13target_fuzz__10write_args4ArgsEB1a_
FN:136,_RINvNtCs8THTY5tYJNn_18test_fuzz_internal4dirs19path_from_args_typeNtNvNtNtCsgYSNy1dwfGS_13auto_generate8unsigned13target_fuzz__10write_args4ArgsEB1a_
FN:32,_RINvNtCs8THTY5tYJNn_18test_fuzz_internal4dirs31corpus_directory_from_args_typeNtNvNtNtCsgYSNy1dwfGS_13auto_generate6signed13target_fuzz__10write_args4ArgsEB1m_
FN:32,_RINvNtCs8THTY5tYJNn_18test_fuzz_internal4dirs31corpus_directory_from_args_typeNtNvNtNtCsgYSNy1dwfGS_13auto_generate8unsigned13target_fuzz__10write_args4ArgsEB1m_
FN:22,_RINvNtCs8THTY5tYJNn_18test_fuzz_internal4dirs37generic_args_directory_from_args_typeNtNtNtCsgYSNy1dwfGS_13auto_generate6signed13target_fuzz__4ArgsEB1q_
FN:22,_RINvNtCs8THTY5tYJNn_18test_fuzz_internal4dirs37generic_args_directory_from_args_typeNtNtNtCsgYSNy1dwfGS_13auto_generate8unsigned13target_fuzz__4ArgsEB1q_
FN:12,_RINvNtCs8THTY5tYJNn_18test_fuzz_internal4dirs42impl_generic_args_directory_from_args_typeNtNtNtCsgYSNy1dwfGS_13auto_generate6signed13target_fuzz__4ArgsEB1v_
FN:12,_RINvNtCs8THTY5tYJNn_18test_fuzz_internal4dirs42impl_generic_args_directory_from_args_typeNtNtNtCsgYSNy1dwfGS_13auto_generate8unsigned13target_fuzz__4ArgsEB1v_
FN:140,_RNCINvNtCs8THTY5tYJNn_18test_fuzz_internal4dirs19path_from_args_typeNtNtNtCsgYSNy1dwfGS_13auto_generate6signed13target_fuzz__4ArgsE0B1a_
FN:140,_RNCINvNtCs8THTY5tYJNn_18test_fuzz_internal4dirs19path_from_args_typeNtNtNtCsgYSNy1dwfGS_13auto_generate8unsigned13target_fuzz__4ArgsE0B1a_
FN:140,_RNCINvNtCs8THTY5tYJNn_18test_fuzz_internal4dirs19path_from_args_typeNtNvNtNtCsgYSNy1dwfGS_13auto_generate6signed13target_fuzz__10write_args4ArgsE0B1c_
FN:140,_RNCINvNtCs8THTY5tYJNn_18test_fuzz_internal4dirs19path_from_args_typeNtNvNtNtCsgYSNy1dwfGS_13auto_generate8unsigned13target_fuzz__10write_args4ArgsE0B1c_
FN:136,_RINvNtCs8THTY5tYJNn_18test_fuzz_internal4dirs19path_from_args_typeNtNtCsc7oPBiV8Upo_16calm_and_panicky11calm_fuzz__4ArgsEB16_
FN:136,_RINvNtCs8THTY5tYJNn_18test_fuzz_internal4dirs19path_from_args_typeNtNtCsc7oPBiV8Upo_16calm_and_panicky14panicky_fuzz__4ArgsEB16_
FN:136,_RINvNtCs8THTY5tYJNn_18test_fuzz_internal4dirs19path_from_args_typeNtNvNtCsc7oPBiV8Upo_16calm_and_panicky11calm_fuzz__10write_args4ArgsEB18_
FN:136,_RINvNtCs8THTY5tYJNn_18test_fuzz_internal4dirs19path_from_args_typeNtNvNtCsc7oPBiV8Upo_16calm_and_panicky14panicky_fuzz__10write_args4ArgsEB18_
FN:32,_RINvNtCs8THTY5tYJNn_18test_fuzz_internal4dirs31corpus_directory_from_args_typeNtNvNtCsc7oPBiV8Upo_16calm_and_panicky11calm_fuzz__10write_args4ArgsEB1k_
FN:32,_RINvNtCs8THTY5tYJNn_18test_fuzz_internal4dirs31corpus_directory_from_args_typeNtNvNtCsc7oPBiV8Upo_16calm_and_panicky14panicky_fuzz__10write_args4ArgsEB1k_
FN:22,_RINvNtCs8THTY5tYJNn_18test_fuzz_internal4dirs37generic_args_directory_from_args_typeNtNtCsc7oPBiV8Upo_16calm_and_panicky11calm_fuzz__4ArgsEB1o_
FN:22,_RINvNtCs8THTY5tYJNn_18test_fuzz_internal4dirs37generic_args_directory_from_args_typeNtNtCsc7oPBiV8Upo_16calm_and_panicky14panicky_fuzz__4ArgsEB1o_
FN:12,_RINvNtCs8THTY5tYJNn_18test_fuzz_internal4dirs42impl_generic_args_directory_from_args_typeNtNtCsc7oPBiV8Upo_16calm_and_panicky11calm_fuzz__4ArgsEB1t_
FN:12,_RINvNtCs8THTY5tYJNn_18test_fuzz_internal4dirs42impl_generic_args_directory_from_args_typeNtNtCsc7oPBiV8Upo_16calm_and_panicky14panicky_fuzz__4ArgsEB1t_
FN:140,_RNCINvNtCs8THTY5tYJNn_18test_fuzz_internal4dirs19path_from_args_typeNtNtCsc7oPBiV8Upo_16calm_and_panicky11calm_fuzz__4ArgsE0B18_
FN:140,_RNCINvNtCs8THTY5tYJNn_18test_fuzz_internal4dirs19path_from_args_typeNtNtCsc7oPBiV8Upo_16calm_and_panicky14panicky_fuzz__4ArgsE0B18_
FN:140,_RNCINvNtCs8THTY5tYJNn_18test_fuzz_internal4dirs19path_from_args_typeNtNvNtCsc7oPBiV8Upo_16calm_and_panicky11calm_fuzz__10write_args4ArgsE0B1a_
FN:140,_RNCINvNtCs8THTY5tYJNn_18test_fuzz_internal4dirs19path_from_args_typeNtNvNtCsc7oPBiV8Upo_16calm_and_panicky14panicky_fuzz__10write_args4ArgsE0B1a_
FN:136,_RINvNtCs8THTY5tYJNn_18test_fuzz_internal4dirs19path_from_args_typeNtNtCsaRhtd4AuyDa_4cast13target_fuzz__4ArgsEB16_
FN:136,_RINvNtCs8THTY5tYJNn_18test_fuzz_internal4dirs19path_from_args_typeNtNvNtCsaRhtd4AuyDa_4cast13target_fuzz__10write_args4ArgsEB18_
FN:32,_RINvNtCs8THTY5tYJNn_18test_fuzz_internal4dirs31corpus_directory_from_args_typeNtNvNtCsaRhtd4AuyDa_4cast13target_fuzz__10write_args4ArgsEB1k_
FN:22,_RINvNtCs8THTY5tYJNn_18test_fuzz_internal4dirs37generic_args_directory_from_args_typeNtNtCsaRhtd4AuyDa_4cast13target_fuzz__4ArgsEB1o_
FN:12,_RINvNtCs8THTY5tYJNn_18test_fuzz_internal4dirs42impl_generic_args_directory_from_args_typeNtNtCsaRhtd4AuyDa_4cast13target_fuzz__4ArgsEB1t_
FN:140,_RNCINvNtCs8THTY5tYJNn_18test_fuzz_internal4dirs19path_from_args_typeNtNtCsaRhtd4AuyDa_4cast13target_fuzz__4ArgsE0B18_
FN:140,_RNCINvNtCs8THTY5tYJNn_18test_fuzz_internal4dirs19path_from_args_typeNtNvNtCsaRhtd4AuyDa_4cast13target_fuzz__10write_args4ArgsE0B1a_
FN:136,_RINvNtCs8THTY5tYJNn_18test_fuzz_internal4dirs19path_from_args_typeNtNtCs4MACR4y78AG_9collision11test_fuzz__4ArgsEB16_
FN:136,_RINvNtCs8THTY5tYJNn_18test_fuzz_internal4dirs19path_from_args_typeNtNvNtCs4MACR4y78AG_9collision11test_fuzz__10write_args4ArgsEB18_
FN:32,_RINvNtCs8THTY5tYJNn_18test_fuzz_internal4dirs31corpus_directory_from_args_typeNtNvNtCs4MACR4y78AG_9collision11test_fuzz__10write_args4ArgsEB1k_
FN:22,_RINvNtCs8THTY5tYJNn_18test_fuzz_internal4dirs37generic_args_directory_from_args_typeNtNtCs4MACR4y78AG_9collision11test_fuzz__4ArgsEB1o_
FN:12,_RINvNtCs8THTY5tYJNn_18test_fuzz_internal4dirs42impl_generic_args_directory_from_args_typeNtNtCs4MACR4y78AG_9collision11test_fuzz__4ArgsEB1t_
FN:140,_RNCINvNtCs8THTY5tYJNn_18test_fuzz_internal4dirs19path_from_args_typeNtNtCs4MACR4y78AG_9collision11test_fuzz__4ArgsE0B18_
FN:140,_RNCINvNtCs8THTY5tYJNn_18test_fuzz_internal4dirs19path_from_args_typeNtNvNtCs4MACR4y78AG_9collision11test_fuzz__10write_args4ArgsE0B1a_
FN:136,_RINvNtCs8THTY5tYJNn_18test_fuzz_internal4dirs19path_from_args_typeNtNtNtCsc4CkkP18Bn1_10conversion11uncloneable13target_fuzz__4ArgsEB18_
FN:136,_RINvNtCs8THTY5tYJNn_18test_fuzz_internal4dirs19path_from_args_typeNtNtNtCsc4CkkP18Bn1_10conversion4path13target_fuzz__4ArgsEB18_
FN:136,_RINvNtCs8THTY5tYJNn_18test_fuzz_internal4dirs19path_from_args_typeNtNtNtCsc4CkkP18Bn1_10conversion5array13target_fuzz__4ArgsEB18_
FN:136,_RINvNtCs8THTY5tYJNn_18test_fuzz_internal4dirs19path_from_args_typeNtNtNtCsc4CkkP18Bn1_10conversion7mutable13target_fuzz__4ArgsEB18_
FN:136,_RINvNtCs8THTY5tYJNn_18test_fuzz_internal4dirs19path_from_args_typeNtNtNtCsc4CkkP18Bn1_10conversion8lifetime13target_fuzz__4ArgsEB18_
FN:136,_RINvNtCs8THTY5tYJNn_18test_fuzz_internal4dirs19path_from_args_typeNtNtNtCsc4CkkP18Bn1_10conversion8receiver20x_target_self_fuzz__4ArgsEB18_
FN:136,_RINvNtCs8THTY5tYJNn_18test_fuzz_internal4dirs19path_from_args_typeNtNtNtCsc4CkkP18Bn1_10conversion8receiver21x_target_other_fuzz__4ArgsEB18_
FN:136,_RINvNtCs8THTY5tYJNn_18test_fuzz_internal4dirs19path_from_args_typeNtNvNtNtCsc4CkkP18Bn1_10conversion11uncloneable13target_fuzz__10write_args4ArgsEB1a_
FN:136,_RINvNtCs8THTY5tYJNn_18test_fuzz_internal4dirs19path_from_args_typeNtNvNtNtCsc4CkkP18Bn1_10conversion4path13target_fuzz__10write_args4ArgsEB1a_
FN:136,_RINvNtCs8THTY5tYJNn_18test_fuzz_internal4dirs19path_from_args_typeNtNvNtNtCsc4CkkP18Bn1_10conversion5array13target_fuzz__10write_args4ArgsEB1a_
FN:136,_RINvNtCs8THTY5tYJNn_18test_fuzz_internal4dirs19path_from_args_typeNtNvNtNtCsc4CkkP18Bn1_10conversion7mutable13target_fuzz__10write_args4ArgsEB1a_
FN:136,_RINvNtCs8THTY5tYJNn_18test_fuzz_internal4dirs19path_from_args_typeNtNvNtNtCsc4CkkP18Bn1_10conversion8lifetime13target_fuzz__10write_args4ArgsEB1a_
FN:136,_RINvNtCs8THTY5tYJNn_18test_fuzz_internal4dirs19path_from_args_typeNtNvNtNtCsc4CkkP18Bn1_10conversion8receiver20x_target_self_fuzz__10write_args4ArgsEB1a_
FN:136,_RINvNtCs8THTY5tYJNn_18test_fuzz_internal4dirs19path_from_args_typeNtNvNtNtCsc4CkkP18Bn1_10conversion8receiver21x_target_other_fuzz__10write_args4ArgsEB1a_
FN:32,_RINvNtCs8THTY5tYJNn_18test_fuzz_internal4dirs31corpus_directory_from_args_typeNtNvNtNtCsc4CkkP18Bn1_10conversion11uncloneable13target_fuzz__10write_args4ArgsEB1m_
FN:32,_RINvNtCs8THTY5tYJNn_18test_fuzz_internal4dirs31corpus_directory_from_args_typeNtNvNtNtCsc4CkkP18Bn1_10conversion4path13target_fuzz__10write_args4ArgsEB1m_
FN:32,_RINvNtCs8THTY5tYJNn_18test_fuzz_internal4dirs31corpus_directory_from_args_typeNtNvNtNtCsc4CkkP18Bn1_10conversion5array13target_fuzz__10write_args4ArgsEB1m_
FN:32,_RINvNtCs8THTY5tYJNn_18test_fuzz_internal4dirs31corpus_directory_from_args_typeNtNvNtNtCsc4CkkP18Bn1_10conversion7mutable13target_fuzz__10write_args4ArgsEB1m_
FN:32,_RINvNtCs8THTY5tYJNn_18test_fuzz_internal4dirs31corpus_directory_from_args_typeNtNvNtNtCsc4CkkP18Bn1_10conversion8lifetime13target_fuzz__10write_args4ArgsEB1m_
FN:32,_RINvNtCs8THTY5tYJNn_18test_fuzz_internal4dirs31corpus_directory_from_args_typeNtNvNtNtCsc4CkkP18Bn1_10conversion8receiver20x_target_self_fuzz__10write_args4ArgsEB1m_
FN:32,_RINvNtCs8THTY5tYJNn_18test_fuzz_internal4dirs31corpus_directory_from_args_typeNtNvNtNtCsc4CkkP18Bn1_10conversion8receiver21x_target_other_fuzz__10write_args4ArgsEB1m_
FN:22,_RINvNtCs8THTY5tYJNn_18test_fuzz_internal4dirs37generic_args_directory_from_args_typeNtNtNtCsc4CkkP18Bn1_10conversion11uncloneable13target_fuzz__4ArgsEB1q_
FN:22,_RINvNtCs8THTY5tYJNn_18test_fuzz_internal4dirs37generic_args_directory_from_args_typeNtNtNtCsc4CkkP18Bn1_10conversion4path13target_fuzz__4ArgsEB1q_
FN:22,_RINvNtCs8THTY5tYJNn_18test_fuzz_internal4dirs37generic_args_directory_from_args_typeNtNtNtCsc4CkkP18Bn1_10conversion5array13target_fuzz__4ArgsEB1q_
FN:22,_RINvNtCs8THTY5tYJNn_18test_fuzz_internal4dirs37generic_args_directory_from_args_typeNtNtNtCsc4CkkP18Bn1_10conversion7mutable13target_fuzz__4ArgsEB1q_
FN:22,_RINvNtCs8THTY5tYJNn_18test_fuzz_internal4dirs37generic_args_directory_from_args_typeNtNtNtCsc4CkkP18Bn1_10conversion8lifetime13target_fuzz__4ArgsEB1q_
FN:22,_RINvNtCs8THTY5tYJNn_18test_fuzz_internal4dirs37generic_args_directory_from_args_typeNtNtNtCsc4CkkP18Bn1_10conversion8receiver20x_target_self_fuzz__4ArgsEB1q_
FN:22,_RINvNtCs8THTY5tYJNn_18test_fuzz_internal4dirs37generic_args_directory_from_args_typeNtNtNtCsc4CkkP18Bn1_10conversion8receiver21x_target_other_fuzz__4ArgsEB1q_
FN:12,_RINvNtCs8THTY5tYJNn_18test_fuzz_internal4dirs42impl_generic_args_directory_from_args_typeNtNtNtCsc4CkkP18Bn1_10conversion11uncloneable13target_fuzz__4ArgsEB1v_
FN:12,_RINvNtCs8THTY5tYJNn_18test_fuzz_internal4dirs42impl_generic_args_directory_from_args_typeNtNtNtCsc4CkkP18Bn1_10conversion4path13target_fuzz__4ArgsEB1v_
FN:12,_RINvNtCs8THTY5tYJNn_18test_fuzz_internal4dirs42impl_generic_args_directory_from_args_typeNtNtNtCsc4CkkP18Bn1_10conversion5array13target_fuzz__4ArgsEB1v_
FN:12,_RINvNtCs8THTY5tYJNn_18test_fuzz_internal4dirs42impl_generic_args_directory_from_args_typeNtNtNtCsc4CkkP18Bn1_10conversion7mutable13target_fuzz__4ArgsEB1v_
FN:12,_RINvNtCs8THTY5tYJNn_18test_fuzz_internal4dirs42impl_generic_args_directory_from_args_typeNtNtNtCsc4CkkP18Bn1_10conversion8lifetime13target_fuzz__4ArgsEB1v_
FN:12,_RINvNtCs8THTY5tYJNn_18test_fuzz_internal4dirs42impl_generic_args_directory_from_args_typeNtNtNtCsc4CkkP18Bn1_10conversion8receiver20x_target_self_fuzz__4ArgsEB1v_
FN:12,_RINvNtCs8THTY5tYJNn_18test_fuzz_internal4dirs42impl_generic_args_directory_from_args_typeNtNtNtCsc4CkkP18Bn1_10conversion8receiver21x_target_other_fuzz__4ArgsEB1v_
FN:140,_RNCINvNtCs8THTY5tYJNn_18test_fuzz_internal4dirs19path_from_args_typeNtNtNtCsc4CkkP18Bn1_10conversion11uncloneable13target_fuzz__4ArgsE0B1a_
FN:140,_RNCINvNtCs8THTY5tYJNn_18test_fuzz_internal4dirs19path_from_args_typeNtNtNtCsc4CkkP18Bn1_10conversion4path13target_fuzz__4ArgsE0B1a_
FN:140,_RNCINvNtCs8THTY5tYJNn_18test_fuzz_internal4dirs19path_from_args_typeNtNtNtCsc4CkkP18Bn1_10conversion5array13target_fuzz__4ArgsE0B1a_
FN:140,_RNCINvNtCs8THTY5tYJNn_18test_fuzz_internal4dirs19path_from_args_typeNtNtNtCsc4CkkP18Bn1_10conversion7mutable13target_fuzz__4ArgsE0B1a_
FN:140,_RNCINvNtCs8THTY5tYJNn_18test_fuzz_internal4dirs19path_from_args_typeNtNtNtCsc4CkkP18Bn1_10conversion8lifetime13target_fuzz__4ArgsE0B1a_
FN:140,_RNCINvNtCs8THTY5tYJNn_18test_fuzz_internal4dirs19path_from_args_typeNtNtNtCsc4CkkP18Bn1_10conversion8receiver20x_target_self_fuzz__4ArgsE0B1a_
FN:140,_RNCINvNtCs8THTY5tYJNn_18test_fuzz_internal4dirs19path_from_args_typeNtNtNtCsc4CkkP18Bn1_10conversion8receiver21x_target_other_fuzz__4ArgsE0B1a_
FN:140,_RNCINvNtCs8THTY5tYJNn_18test_fuzz_internal4dirs19path_from_args_typeNtNvNtNtCsc4CkkP18Bn1_10conversion11uncloneable13target_fuzz__10write_args4ArgsE0B1c_
FN:140,_RNCINvNtCs8THTY5tYJNn_18test_fuzz_internal4dirs19path_from_args_typeNtNvNtNtCsc4CkkP18Bn1_10conversion4path13target_fuzz__10write_args4ArgsE0B1c_
FN:140,_RNCINvNtCs8THTY5tYJNn_18test_fuzz_internal4dirs19path_from_args_typeNtNvNtNtCsc4CkkP18Bn1_10conversion5array13target_fuzz__10write_args4ArgsE0B1c_
FN:140,_RNCINvNtCs8THTY5tYJNn_18test_fuzz_internal4dirs19path_from_args_typeNtNvNtNtCsc4CkkP18Bn1_10conversion7mutable13target_fuzz__10write_args4ArgsE0B1c_
FN:140,_RNCINvNtCs8THTY5tYJNn_18test_fuzz_internal4dirs19path_from_args_typeNtNvNtNtCsc4CkkP18Bn1_10conversion8lifetime13target_fuzz__10write_args4ArgsE0B1c_
FN:140,_RNCINvNtCs8THTY5tYJNn_18test_fuzz_internal4dirs19path_from_args_typeNtNvNtNtCsc4CkkP18Bn1_10conversion8receiver20x_target_self_fuzz__10write_args4ArgsE0B1c_
FN:140,_RNCINvNtCs8THTY5tYJNn_18test_fuzz_internal4dirs19path_from_args_typeNtNvNtNtCsc4CkkP18Bn1_10conversion8receiver21x_target_other_fuzz__10write_args4ArgsE0B1c_
FN:136,_RINvNtCs8THTY5tYJNn_18test_fuzz_internal4dirs19path_from_args_typeNtNtNtCs4WDBbq4FTkN_5debug4hang13target_fuzz__4ArgsEB18_
FN:136,_RINvNtCs8THTY5tYJNn_18test_fuzz_internal4dirs19path_from_args_typeNtNtNtCs4WDBbq4FTkN_5debug5crash13target_fuzz__4ArgsEB18_
FN:136,_RINvNtCs8THTY5tYJNn_18test_fuzz_internal4dirs19path_from_args_typeNtNvNtNtCs4WDBbq4FTkN_5debug4hang13target_fuzz__10write_args4ArgsEB1a_
FN:136,_RINvNtCs8THTY5tYJNn_18test_fuzz_internal4dirs19path_from_args_typeNtNvNtNtCs4WDBbq4FTkN_5debug5crash13target_fuzz__10write_args4ArgsEB1a_
FN:32,_RINvNtCs8THTY5tYJNn_18test_fuzz_internal4dirs31corpus_directory_from_args_typeNtNvNtNtCs4WDBbq4FTkN_5debug4hang13target_fuzz__10write_args4ArgsEB1m_
FN:32,_RINvNtCs8THTY5tYJNn_18test_fuzz_internal4dirs31corpus_directory_from_args_typeNtNvNtNtCs4WDBbq4FTkN_5debug5crash13target_fuzz__10write_args4ArgsEB1m_
FN:22,_RINvNtCs8THTY5tYJNn_18test_fuzz_internal4dirs37generic_args_directory_from_args_typeNtNtNtCs4WDBbq4FTkN_5debug4hang13target_fuzz__4ArgsEB1q_
FN:22,_RINvNtCs8THTY5tYJNn_18test_fuzz_internal4dirs37generic_args_directory_from_args_typeNtNtNtCs4WDBbq4FTkN_5debug5crash13target_fuzz__4ArgsEB1q_
FN:12,_RINvNtCs8THTY5tYJNn_18test_fuzz_internal4dirs42impl_generic_args_directory_from_args_typeNtNtNtCs4WDBbq4FTkN_5debug4hang13target_fuzz__4ArgsEB1v_
FN:12,_RINvNtCs8THTY5tYJNn_18test_fuzz_internal4dirs42impl_generic_args_directory_from_args_typeNtNtNtCs4WDBbq4FTkN_5debug5crash13target_fuzz__4ArgsEB1v_
FN:140,_RNCINvNtCs8THTY5tYJNn_18test_fuzz_internal4dirs19path_from_args_typeNtNtNtCs4WDBbq4FTkN_5debug4hang13target_fuzz__4ArgsE0B1a_
FN:140,_RNCINvNtCs8THTY5tYJNn_18test_fuzz_internal4dirs19path_from_args_typeNtNtNtCs4WDBbq4FTkN_5debug5crash13target_fuzz__4ArgsE0B1a_
FN:140,_RNCINvNtCs8THTY5tYJNn_18test_fuzz_internal4dirs19path_from_args_typeNtNvNtNtCs4WDBbq4FTkN_5debug4hang13target_fuzz__10write_args4ArgsE0B1c_
FN:140,_RNCINvNtCs8THTY5tYJNn_18test_fuzz_internal4dirs19path_from_args_typeNtNvNtNtCs4WDBbq4FTkN_5debug5crash13target_fuzz__10write_args4ArgsE0B1c_
FN:136,_RINvNtCs8THTY5tYJNn_18test_fuzz_internal4dirs19path_from_args_typeNtNtNtCsj0n1mfFpdnC_7default10no_default13target_fuzz__4ArgsEB18_
FN:136,_RINvNtCs8THTY5tYJNn_18test_fuzz_internal4dirs19path_from_args_typeNtNtNtCsj0n1mfFpdnC_7default7default13target_fuzz__4ArgsEB18_
FN:136,_RINvNtCs8THTY5tYJNn_18test_fuzz_internal4dirs19path_from_args_typeNtNvNtNtCsj0n1mfFpdnC_7default10no_default13target_fuzz__10write_args4ArgsEB1a_
FN:136,_RINvNtCs8THTY5tYJNn_18test_fuzz_internal4dirs19path_from_args_typeNtNvNtNtCsj0n1mfFpdnC_7default7default13target_fuzz__10write_args4ArgsEB1a_
FN:32,_RINvNtCs8THTY5tYJNn_18test_fuzz_internal4dirs31corpus_directory_from_args_typeNtNvNtNtCsj0n1mfFpdnC_7default10no_default13target_fuzz__10write_args4ArgsEB1m_
FN:32,_RINvNtCs8THTY5tYJNn_18test_fuzz_internal4dirs31corpus_directory_from_args_typeNtNvNtNtCsj0n1mfFpdnC_7default7default13target_fuzz__10write_args4ArgsEB1m_
FN:22,_RINvNtCs8THTY5tYJNn_18test_fuzz_internal4dirs37generic_args_directory_from_args_typeNtNtNtCsj0n1mfFpdnC_7default10no_default13target_fuzz__4ArgsEB1q_
FN:22,_RINvNtCs8THTY5tYJNn_18test_fuzz_internal4dirs37generic_args_directory_from_args_typeNtNtNtCsj0n1mfFpdnC_7default7default13target_fuzz__4ArgsEB1q_
FN:12,_RINvNtCs8THTY5tYJNn_18test_fuzz_internal4dirs42impl_generic_args_directory_from_args_typeNtNtNtCsj0n1mfFpdnC_7default10no_default13target_fuzz__4ArgsEB1v_
FN:12,_RINvNtCs8THTY5tYJNn_18test_fuzz_internal4dirs42impl_generic_args_directory_from_args_typeNtNtNtCsj0n1mfFpdnC_7default7default13target_fuzz__4ArgsEB1v_
FN:140,_RNCINvNtCs8THTY5tYJNn_18test_fuzz_internal4dirs19path_from_args_typeNtNtNtCsj0n1mfFpdnC_7default10no_default13target_fuzz__4ArgsE0B1a_
FN:140,_RNCINvNtCs8THTY5tYJNn_18test_fuzz_internal4dirs19path_from_args_typeNtNtNtCsj0n1mfFpdnC_7default7default13target_fuzz__4ArgsE0B1a_
FN:140,_RNCINvNtCs8THTY5tYJNn_18test_fuzz_internal4dirs19path_from_args_typeNtNvNtNtCsj0n1mfFpdnC_7default10no_default13target_fuzz__10write_args4ArgsE0B1c_
FN:140,_RNCINvNtCs8THTY5tYJNn_18test_fuzz_internal4dirs19path_from_args_typeNtNvNtNtCsj0n1mfFpdnC_7default7default13target_fuzz__10write_args4ArgsE0B1c_
FN:136,_RINvNtCs8THTY5tYJNn_18test_fuzz_internal4dirs19path_from_args_typeNtNtCsa8u86q4QJJs_4from15bar_from_fuzz__4ArgsEB16_
FN:136,_RINvNtCs8THTY5tYJNn_18test_fuzz_internal4dirs19path_from_args_typeNtNtCsa8u86q4QJJs_4from15baz_into_fuzz__4ArgsEB16_
FN:136,_RINvNtCs8THTY5tYJNn_18test_fuzz_internal4dirs19path_from_args_typeNtNtCsa8u86q4QJJs_4from19baz_try_from_fuzz__4ArgsEB16_
FN:136,_RINvNtCs8THTY5tYJNn_18test_fuzz_internal4dirs19path_from_args_typeNtNvNtCsa8u86q4QJJs_4from15bar_from_fuzz__10write_args4ArgsEB18_
FN:136,_RINvNtCs8THTY5tYJNn_18test_fuzz_internal4dirs19path_from_args_typeNtNvNtCsa8u86q4QJJs_4from15baz_into_fuzz__10write_args4ArgsEB18_
FN:136,_RINvNtCs8THTY5tYJNn_18test_fuzz_internal4dirs19path_from_args_typeNtNvNtCsa8u86q4QJJs_4from19baz_try_from_fuzz__10write_args4ArgsEB18_
FN:32,_RINvNtCs8THTY5tYJNn_18test_fuzz_internal4dirs31corpus_directory_from_args_typeNtNvNtCsa8u86q4QJJs_4from15bar_from_fuzz__10write_args4ArgsEB1k_
FN:32,_RINvNtCs8THTY5tYJNn_18test_fuzz_internal4dirs31corpus_directory_from_args_typeNtNvNtCsa8u86q4QJJs_4from15baz_into_fuzz__10write_args4ArgsEB1k_
FN:32,_RINvNtCs8THTY5tYJNn_18test_fuzz_internal4dirs31corpus_directory_from_args_typeNtNvNtCsa8u86q4QJJs_4from19baz_try_from_fuzz__10write_args4ArgsEB1k_
FN:22,_RINvNtCs8THTY5tYJNn_18test_fuzz_internal4dirs37generic_args_directory_from_args_typeNtNtCsa8u86q4QJJs_4from15bar_from_fuzz__4ArgsEB1o_
FN:22,_RINvNtCs8THTY5tYJNn_18test_fuzz_internal4dirs37generic_args_directory_from_args_typeNtNtCsa8u86q4QJJs_4from15baz_into_fuzz__4ArgsEB1o_
FN:22,_RINvNtCs8THTY5tYJNn_18test_fuzz_internal4dirs37generic_args_directory_from_args_typeNtNtCsa8u86q4QJJs_4from19baz_try_from_fuzz__4ArgsEB1o_
FN:12,_RINvNtCs8THTY5tYJNn_18test_fuzz_internal4dirs42impl_generic_args_directory_from_args_typeNtNtCsa8u86q4QJJs_4from15bar_from_fuzz__4ArgsEB1t_
FN:12,_RINvNtCs8THTY5tYJNn_18test_fuzz_internal4dirs42impl_generic_args_directory_from_args_typeNtNtCsa8u86q4QJJs_4from15baz_into_fuzz__4ArgsEB1t_
FN:12,_RINvNtCs8THTY5tYJNn_18test_fuzz_internal4dirs42impl_generic_args_directory_from_args_typeNtNtCsa8u86q4QJJs_4from19baz_try_from_fuzz__4ArgsEB1t_
FN:140,_RNCINvNtCs8THTY5tYJNn_18test_fuzz_internal4dirs19path_from_args_typeNtNtCsa8u86q4QJJs_4from15bar_from_fuzz__4ArgsE0B18_
FN:140,_RNCINvNtCs8THTY5tYJNn_18test_fuzz_internal4dirs19path_from_args_typeNtNtCsa8u86q4QJJs_4from15baz_into_fuzz__4ArgsE0B18_
FN:140,_RNCINvNtCs8THTY5tYJNn_18test_fuzz_internal4dirs19path_from_args_typeNtNtCsa8u86q4QJJs_4from19baz_try_from_fuzz__4ArgsE0B18_
FN:140,_RNCINvNtCs8THTY5tYJNn_18test_fuzz_internal4dirs19path_from_args_typeNtNvNtCsa8u86q4QJJs_4from15bar_from_fuzz__10write_args4ArgsE0B1a_
FN:140,_RNCINvNtCs8THTY5tYJNn_18test_fuzz_internal4dirs19path_from_args_typeNtNvNtCsa8u86q4QJJs_4from15baz_into_fuzz__10write_args4ArgsE0B1a_
FN:140,_RNCINvNtCs8THTY5tYJNn_18test_fuzz_internal4dirs19path_from_args_typeNtNvNtCsa8u86q4QJJs_4from19baz_try_from_fuzz__10write_args4ArgsE0B1a_
FN:136,_RINvNtCs8THTY5tYJNn_18test_fuzz_internal4dirs19path_from_args_typeINtNtCslo9q2YZ09sG_7generic14baz_qux_fuzz__4ArgsNtB17_3BarEEB17_
FN:136,_RINvNtCs8THTY5tYJNn_18test_fuzz_internal4dirs19path_from_args_typeINtNtCslo9q2YZ09sG_7generic20struct_target_fuzz__4ArgsNtB17_3BarEEB17_
FN:136,_RINvNtCs8THTY5tYJNn_18test_fuzz_internal4dirs19path_from_args_typeINtNtCslo9q2YZ09sG_7generic20struct_target_fuzz__4ArgsNtB17_3FooEEB17_
FN:136,_RINvNtCs8THTY5tYJNn_18test_fuzz_internal4dirs19path_from_args_typeINtNtCslo9q2YZ09sG_7generic26struct_target_bound_fuzz__4ArgsNtB17_3BarINtB17_3BazB20_EEEB17_
FN:136,_RINvNtCs8THTY5tYJNn_18test_fuzz_internal4dirs19path_from_args_typeINtNtCslo9q2YZ09sG_7generic26struct_target_bound_fuzz__4ArgsNtB17_3FooINtB17_3BazB20_EEEB17_
FN:136,_RINvNtCs8THTY5tYJNn_18test_fuzz_internal4dirs19path_from_args_typeINtNtCslo9q2YZ09sG_7generic33struct_target_where_clause_fuzz__4ArgsNtB17_3BarINtB17_3BazB27_EEEB17_
FN:136,_RINvNtCs8THTY5tYJNn_18test_fuzz_internal4dirs19path_from_args_typeINtNtCslo9q2YZ09sG_7generic33struct_target_where_clause_fuzz__4ArgsNtB17_3FooINtB17_3BazB27_EEEB17_
FN:136,_RINvNtCs8THTY5tYJNn_18test_fuzz_internal4dirs19path_from_args_typeINtNtNtCslo9q2YZ09sG_7generic27receiverless_trait_function20struct_target_fuzz__4ArgsNtB19_3BarEEB19_
FN:136,_RINvNtCs8THTY5tYJNn_18test_fuzz_internal4dirs19path_from_args_typeINtNvNtCslo9q2YZ09sG_7generic14baz_qux_fuzz__10write_args4ArgsNtB19_3BarEEB19_
FN:136,_RINvNtCs8THTY5tYJNn_18test_fuzz_internal4dirs19path_from_args_typeINtNvNtCslo9q2YZ09sG_7generic20struct_target_fuzz__10write_args4ArgsNtB19_3BarEEB19_
FN:136,_RINvNtCs8THTY5tYJNn_18test_fuzz_internal4dirs19path_from_args_typeINtNvNtCslo9q2YZ09sG_7generic20struct_target_fuzz__10write_args4ArgsNtB19_3FooEEB19_
FN:136,_RINvNtCs8THTY5tYJNn_18test_fuzz_internal4dirs19path_from_args_typeINtNvNtCslo9q2YZ09sG_7generic26struct_target_bound_fuzz__10write_args4ArgsNtB19_3BarINtB19_3BazB2e_EEEB19_
FN:136,_RINvNtCs8THTY5tYJNn_18test_fuzz_internal4dirs19path_from_args_typeINtNvNtCslo9q2YZ09sG_7generic26struct_target_bound_fuzz__10write_args4ArgsNtB19_3FooINtB19_3BazB2e_EEEB19_
FN:136,_RINvNtCs8THTY5tYJNn_18test_fuzz_internal4dirs19path_from_args_typeINtNvNtCslo9q2YZ09sG_7generic33struct_target_where_clause_fuzz__10write_args4ArgsNtB19_3BarINtB19_3BazB2l_EEEB19_
FN:136,_RINvNtCs8THTY5tYJNn_18test_fuzz_internal4dirs19path_from_args_typeINtNvNtCslo9q2YZ09sG_7generic33struct_target_where_clause_fuzz__10write_args4ArgsNtB19_3FooINtB19_3BazB2l_EEEB19_
FN:136,_RINvNtCs8THTY5tYJNn_18test_fuzz_internal4dirs19path_from_args_typeINtNvNtNtCslo9q2YZ09sG_7generic27receiverless_trait_function20struct_target_fuzz__10write_args4ArgsNtB1b_3BarEEB1b_
FN:136,_RINvNtCs8THTY5tYJNn_18test_fuzz_internal4dirs19path_from_args_typeNtNtCslo9q2YZ09sG_7generic38struct_target_only_generic_args_fuzz__4ArgsEB16_
FN:32,_RINvNtCs8THTY5tYJNn_18test_fuzz_internal4dirs31corpus_directory_from_args_typeINtNvNtCslo9q2YZ09sG_7generic14baz_qux_fuzz__10write_args4ArgsNtB1l_3BarEEB1l_
FN:32,_RINvNtCs8THTY5tYJNn_18test_fuzz_internal4dirs31corpus_directory_from_args_typeINtNvNtCslo9q2YZ09sG_7generic20struct_target_fuzz__10write_args4ArgsNtB1l_3BarEEB1l_
FN:32,_RINvNtCs8THTY5tYJNn_18test_fuzz_internal4dirs31corpus_directory_from_args_typeINtNvNtCslo9q2YZ09sG_7generic20struct_target_fuzz__10write_args4ArgsNtB1l_3FooEEB1l_
FN:32,_RINvNtCs8THTY5tYJNn_18test_fuzz_internal4dirs31corpus_directory_from_args_typeINtNvNtCslo9q2YZ09sG_7generic26struct_target_bound_fuzz__10write_args4ArgsNtB1l_3BarINtB1l_3BazB2q_EEEB1l_
FN:32,_RINvNtCs8THTY5tYJNn_18test_fuzz_internal4dirs31corpus_directory_from_args_typeINtNvNtCslo9q2YZ09sG_7generic26struct_target_bound_fuzz__10write_args4ArgsNtB1l_3FooINtB1l_3BazB2q_EEEB1l_
FN:32,_RINvNtCs8THTY5tYJNn_18test_fuzz_internal4dirs31corpus_directory_from_args_typeINtNvNtCslo9q2YZ09sG_7generic33struct_target_where_clause_fuzz__10write_args4ArgsNtB1l_3BarINtB1l_3BazB2x_EEEB1l_
FN:32,_RINvNtCs8THTY5tYJNn_18test_fuzz_internal4dirs31corpus_directory_from_args_typeINtNvNtCslo9q2YZ09sG_7generic33struct_target_where_clause_fuzz__10write_args4ArgsNtB1l_3FooINtB1l_3BazB2x_EEEB1l_
FN:32,_RINvNtCs8THTY5tYJNn_18test_fuzz_internal4dirs31corpus_directory_from_args_typeINtNvNtNtCslo9q2YZ09sG_7generic27receiverless_trait_function20struct_target_fuzz__10write_args4ArgsNtB1n_3BarEEB1n_
FN:22,_RINvNtCs8THTY5tYJNn_18test_fuzz_internal4dirs37generic_args_directory_from_args_typeINtNtCslo9q2YZ09sG_7generic14baz_qux_fuzz__4ArgsNtB1p_3BarEEB1p_
FN:22,_RINvNtCs8THTY5tYJNn_18test_fuzz_internal4dirs37generic_args_directory_from_args_typeINtNtCslo9q2YZ09sG_7generic20struct_target_fuzz__4ArgsNtB1p_3BarEEB1p_
FN:22,_RINvNtCs8THTY5tYJNn_18test_fuzz_internal4dirs37generic_args_directory_from_args_typeINtNtCslo9q2YZ09sG_7generic20struct_target_fuzz__4ArgsNtB1p_3FooEEB1p_
FN:22,_RINvNtCs8THTY5tYJNn_18test_fuzz_internal4dirs37generic_args_directory_from_args_typeINtNtCslo9q2YZ09sG_7generic26struct_target_bound_fuzz__4ArgsNtB1p_3BarINtB1p_3BazB2i_EEEB1p_
FN:22,_RINvNtCs8THTY5tYJNn_18test_fuzz_internal4dirs37generic_args_directory_from_args_typeINtNtCslo9q2YZ09sG_7generic26struct_target_bound_fuzz__4ArgsNtB1p_3FooINtB1p_3BazB2i_EEEB1p_
FN:22,_RINvNtCs8THTY5tYJNn_18test_fuzz_internal4dirs37generic_args_directory_from_args_typeINtNtCslo9q2YZ09sG_7generic33struct_target_where_clause_fuzz__4ArgsNtB1p_3BarINtB1p_3BazB2p_EEEB1p_
FN:22,_RINvNtCs8THTY5tYJNn_18test_fuzz_internal4dirs37generic_args_directory_from_args_typeINtNtCslo9q2YZ09sG_7generic33struct_target_where_clause_fuzz__4ArgsNtB1p_3FooINtB1p_3BazB2p_EEEB1p_
FN:22,_RINvNtCs8THTY5tYJNn_18test_fuzz_internal4dirs37generic_args_directory_from_args_typeINtNtNtCslo9q2YZ09sG_7generic27receiverless_trait_function20struct_target_fuzz__4ArgsNtB1r_3BarEEB1r_
FN:22,_RINvNtCs8THTY5tYJNn_18test_fuzz_internal4dirs37generic_args_directory_from_args_typeNtNtCslo9q2YZ09sG_7generic38struct_target_only_generic_args_fuzz__4ArgsEB1o_
FN:12,_RINvNtCs8THTY5tYJNn_18test_fuzz_internal4dirs42impl_generic_args_directory_from_args_typeINtNtCslo9q2YZ09sG_7generic14baz_qux_fuzz__4ArgsNtB1u_3BarEEB1u_
FN:12,_RINvNtCs8THTY5tYJNn_18test_fuzz_internal4dirs42impl_generic_args_directory_from_args_typeINtNtCslo9q2YZ09sG_7generic20struct_target_fuzz__4ArgsNtB1u_3BarEEB1u_
FN:12,_RINvNtCs8THTY5tYJNn_18test_fuzz_internal4dirs42impl_generic_args_directory_from_args_typeINtNtCslo9q2YZ09sG_7generic20struct_target_fuzz__4ArgsNtB1u_3FooEEB1u_
FN:12,_RINvNtCs8THTY5tYJNn_18test_fuzz_internal4dirs42impl_generic_args_directory_from_args_typeINtNtCslo9q2YZ09sG_7generic26struct_target_bound_fuzz__4ArgsNtB1u_3BarINtB1u_3BazB2n_EEEB1u_
FN:12,_RINvNtCs8THTY5tYJNn_18test_fuzz_internal4dirs42impl_generic_args_directory_from_args_typeINtNtCslo9q2YZ09sG_7generic26struct_target_bound_fuzz__4ArgsNtB1u_3FooINtB1u_3BazB2n_EEEB1u_
FN:12,_RINvNtCs8THTY5tYJNn_18test_fuzz_internal4dirs42impl_generic_args_directory_from_args_typeINtNtCslo9q2YZ09sG_7generic33struct_target_where_clause_fuzz__4ArgsNtB1u_3BarINtB1u_3BazB2u_EEEB1u_
FN:12,_RINvNtCs8THTY5tYJNn_18test_fuzz_internal4dirs42impl_generic_args_directory_from_args_typeINtNtCslo9q2YZ09sG_7generic33struct_target_where_clause_fuzz__4ArgsNtB1u_3FooINtB1u_3BazB2u_EEEB1u_
FN:12,_RINvNtCs8THTY5tYJNn_18test_fuzz_internal4dirs42impl_generic_args_directory_from_args_typeINtNtNtCslo9q2YZ09sG_7generic27receiverless_trait_function20struct_target_fuzz__4ArgsNtB1w_3BarEEB1w_
FN:12,_RINvNtCs8THTY5tYJNn_18test_fuzz_internal4dirs42impl_generic_args_directory_from_args_typeNtNtCslo9q2YZ09sG_7generic38struct_target_only_generic_args_fuzz__4ArgsEB1t_
FN:140,_RNCINvNtCs8THTY5tYJNn_18test_fuzz_internal4dirs19path_from_args_typeINtNtCslo9q2YZ09sG_7generic14baz_qux_fuzz__4ArgsNtB19_3BarEE0B19_
FN:140,_RNCINvNtCs8THTY5tYJNn_18test_fuzz_internal4dirs19path_from_args_typeINtNtCslo9q2YZ09sG_7generic20struct_target_fuzz__4ArgsNtB19_3BarEE0B19_
FN:140,_RNCINvNtCs8THTY5tYJNn_18test_fuzz_internal4dirs19path_from_args_typeINtNtCslo9q2YZ09sG_7generic20struct_target_fuzz__4ArgsNtB19_3FooEE0B19_
FN:140,_RNCINvNtCs8THTY5tYJNn_18test_fuzz_internal4dirs19path_from_args_typeINtNtCslo9q2YZ09sG_7generic26struct_target_bound_fuzz__4ArgsNtB19_3BarINtB19_3BazB22_EEE0B19_
FN:140,_RNCINvNtCs8THTY5tYJNn_18test_fuzz_internal4dirs19path_from_args_typeINtNtCslo9q2YZ09sG_7generic26struct_target_bound_fuzz__4ArgsNtB19_3FooINtB19_3BazB22_EEE0B19_
FN:140,_RNCINvNtCs8THTY5tYJNn_18test_fuzz_internal4dirs19path_from_args_typeINtNtCslo9q2YZ09sG_7generic33struct_target_where_clause_fuzz__4ArgsNtB19_3BarINtB19_3BazB29_EEE0B19_
FN:140,_RNCINvNtCs8THTY5tYJNn_18test_fuzz_internal4dirs19path_from_args_typeINtNtCslo9q2YZ09sG_7generic33struct_target_where_clause_fuzz__4ArgsNtB19_3FooINtB19_3BazB29_EEE0B19_
FN:140,_RNCINvNtCs8THTY5tYJNn_18test_fuzz_internal4dirs19path_from_args_typeINtNtNtCslo9q2YZ09sG_7generic27receiverless_trait_function20struct_target_fuzz__4ArgsNtB1b_3BarEE0B1b_
FN:140,_RNCINvNtCs8THTY5tYJNn_18test_fuzz_internal4dirs19path_from_args_typeINtNvNtCslo9q2YZ09sG_7generic14baz_qux_fuzz__10write_args4ArgsNtB1b_3BarEE0B1b_
FN:140,_RNCINvNtCs8THTY5tYJNn_18test_fuzz_internal4dirs19path_from_args_typeINtNvNtCslo9q2YZ09sG_7generic20struct_target_fuzz__10write_args4ArgsNtB1b_3BarEE0B1b_
FN:140,_RNCINvNtCs8THTY5tYJNn_18test_fuzz_internal4dirs19path_from_args_typeINtNvNtCslo9q2YZ09sG_7generic20struct_target_fuzz__10write_args4ArgsNtB1b_3FooEE0B1b_
FN:140,_RNCINvNtCs8THTY5tYJNn_18test_fuzz_internal4dirs19path_from_args_typeINtNvNtCslo9q2YZ09sG_7generic26struct_target_bound_fuzz__10write_args4ArgsNtB1b_3BarINtB1b_3BazB2g_EEE0B1b_
FN:140,_RNCINvNtCs8THTY5tYJNn_18test_fuzz_internal4dirs19path_from_args_typeINtNvNtCslo9q2YZ09sG_7generic26struct_target_bound_fuzz__10write_args4ArgsNtB1b_3FooINtB1b_3BazB2g_EEE0B1b_
FN:140,_RNCINvNtCs8THTY5tYJNn_18test_fuzz_internal4dirs19path_from_args_typeINtNvNtCslo9q2YZ09sG_7generic33struct_target_where_clause_fuzz__10write_args4ArgsNtB1b_3BarINtB1b_3BazB2n_EEE0B1b_
FN:140,_RNCINvNtCs8THTY5tYJNn_18test_fuzz_internal4dirs19path_from_args_typeINtNvNtCslo9q2YZ09sG_7generic33struct_target_where_clause_fuzz__10write_args4ArgsNtB1b_3FooINtB1b_3BazB2n_EEE0B1b_
FN:140,_RNCINvNtCs8THTY5tYJNn_18test_fuzz_internal4dirs19path_from_args_typeINtNvNtNtCslo9q2YZ09sG_7generic27receiverless_trait_function20struct_target_fuzz__10write_args4ArgsNtB1d_3BarEE0B1d_
FN:140,_RNCINvNtCs8THTY5tYJNn_18test_fuzz_internal4dirs19path_from_args_typeNtNtCslo9q2YZ09sG_7generic38struct_target_only_generic_args_fuzz__4ArgsE0B18_
FN:136,_RINvNtCs8THTY5tYJNn_18test_fuzz_internal4dirs19path_from_args_typeNtNtCs7rwv8R68fA0_11hello_world13target_fuzz__4ArgsEB16_
FN:136,_RINvNtCs8THTY5tYJNn_18test_fuzz_internal4dirs19path_from_args_typeNtNvNtCs7rwv8R68fA0_11hello_world13target_fuzz__10write_args4ArgsEB18_
FN:32,_RINvNtCs8THTY5tYJNn_18test_fuzz_internal4dirs31corpus_directory_from_args_typeNtNvNtCs7rwv8R68fA0_11hello_world13target_fuzz__10write_args4ArgsEB1k_
FN:22,_RINvNtCs8THTY5tYJNn_18test_fuzz_internal4dirs37generic_args_directory_from_args_typeNtNtCs7rwv8R68fA0_11hello_world13target_fuzz__4ArgsEB1o_
FN:12,_RINvNtCs8THTY5tYJNn_18test_fuzz_internal4dirs42impl_generic_args_directory_from_args_typeNtNtCs7rwv8R68fA0_11hello_world13target_fuzz__4ArgsEB1t_
FN:140,_RNCINvNtCs8THTY5tYJNn_18test_fuzz_internal4dirs19path_from_args_typeNtNtCs7rwv8R68fA0_11hello_world13target_fuzz__4ArgsE0B18_
FN:140,_RNCINvNtCs8THTY5tYJNn_18test_fuzz_internal4dirs19path_from_args_typeNtNvNtCs7rwv8R68fA0_11hello_world13target_fuzz__10write_args4ArgsE0B1a_
FN:136,_RINvNtCs8THTY5tYJNn_18test_fuzz_internal4dirs19path_from_args_typeNtNtCs8wlviv3oqDu_11hello_world13target_fuzz__4ArgsEB16_
FN:136,_RINvNtCs8THTY5tYJNn_18test_fuzz_internal4dirs19path_from_args_typeNtNvNtCs8wlviv3oqDu_11hello_world13target_fuzz__10write_args4ArgsEB18_
FN:32,_RINvNtCs8THTY5tYJNn_18test_fuzz_internal4dirs31corpus_directory_from_args_typeNtNvNtCs8wlviv3oqDu_11hello_world13target_fuzz__10write_args4ArgsEB1k_
FN:22,_RINvNtCs8THTY5tYJNn_18test_fuzz_internal4dirs37generic_args_directory_from_args_typeNtNtCs8wlviv3oqDu_11hello_world13target_fuzz__4ArgsEB1o_
FN:12,_RINvNtCs8THTY5tYJNn_18test_fuzz_internal4dirs42impl_generic_args_directory_from_args_typeNtNtCs8wlviv3oqDu_11hello_world13target_fuzz__4ArgsEB1t_
FN:140,_RNCINvNtCs8THTY5tYJNn_18test_fuzz_internal4dirs19path_from_args_typeNtNtCs8wlviv3oqDu_11hello_world13target_fuzz__4ArgsE0B18_
FN:140,_RNCINvNtCs8THTY5tYJNn_18test_fuzz_internal4dirs19path_from_args_typeNtNvNtCs8wlviv3oqDu_11hello_world13target_fuzz__10write_args4ArgsE0B1a_
FN:136,_RINvNtCsfbtA0fWH35c_18test_fuzz_internal4dirs19path_from_args_typeNtNtCseLM6nJlucij_11hello_world13target_fuzz__4ArgsEB16_
FN:136,_RINvNtCsfbtA0fWH35c_18test_fuzz_internal4dirs19path_from_args_typeNtNvNtCseLM6nJlucij_11hello_world13target_fuzz__10write_args4ArgsEB18_
FN:32,_RINvNtCsfbtA0fWH35c_18test_fuzz_internal4dirs31corpus_directory_from_args_typeNtNvNtCseLM6nJlucij_11hello_world13target_fuzz__10write_args4ArgsEB1k_
FN:22,_RINvNtCsfbtA0fWH35c_18test_fuzz_internal4dirs37generic_args_directory_from_args_typeNtNtCseLM6nJlucij_11hello_world13target_fuzz__4ArgsEB1o_
FN:12,_RINvNtCsfbtA0fWH35c_18test_fuzz_internal4dirs42impl_generic_args_directory_from_args_typeNtNtCseLM6nJlucij_11hello_world13target_fuzz__4ArgsEB1t_
FN:140,_RNCINvNtCsfbtA0fWH35c_18test_fuzz_internal4dirs19path_from_args_typeNtNtCseLM6nJlucij_11hello_world13target_fuzz__4ArgsE0B18_
FN:140,_RNCINvNtCsfbtA0fWH35c_18test_fuzz_internal4dirs19path_from_args_typeNtNvNtCseLM6nJlucij_11hello_world13target_fuzz__10write_args4ArgsE0B1a_
FN:86,_RNvNtCsfbtA0fWH35c_18test_fuzz_internal4dirs12path_segment
FN:129,_RNvNtCsfbtA0fWH35c_18test_fuzz_internal4dirs14workspace_root
FN:74,_RNvNtCsfbtA0fWH35c_18test_fuzz_internal4dirs16corpus_directory
FN:80,_RNvNtCsfbtA0fWH35c_18test_fuzz_internal4dirs16output_directory
FN:145,_RNvNtCsfbtA0fWH35c_18test_fuzz_internal4dirs16path_from_target
FN:110,_RNvNtCsfbtA0fWH35c_18test_fuzz_internal4dirs16target_directory
FN:68,_RNvNtCsfbtA0fWH35c_18test_fuzz_internal4dirs22generic_args_directory
FN:47,_RNvNtCsfbtA0fWH35c_18test_fuzz_internal4dirs27hangs_directory_from_target
FN:62,_RNvNtCsfbtA0fWH35c_18test_fuzz_internal4dirs27impl_generic_args_directory
FN:52,_RNvNtCsfbtA0fWH35c_18test_fuzz_internal4dirs27queue_directory_from_target
FN:37,_RNvNtCsfbtA0fWH35c_18test_fuzz_internal4dirs28corpus_directory_from_target
FN:57,_RNvNtCsfbtA0fWH35c_18test_fuzz_internal4dirs28output_directory_from_target
FN:42,_RNvNtCsfbtA0fWH35c_18test_fuzz_internal4dirs29crashes_directory_from_target
FN:27,_RNvNtCsfbtA0fWH35c_18test_fuzz_internal4dirs34generic_args_directory_from_target
FN:17,_RNvNtCsfbtA0fWH35c_18test_fuzz_internal4dirs39impl_generic_args_directory_from_target
FN:95,_RNvNtCsfbtA0fWH35c_18test_fuzz_internal4dirs8maybe_id
FN:105,_RNvNtCsfbtA0fWH35c_18test_fuzz_internal4dirs9thread_id
FN:123,_RNvNtCsfbtA0fWH35c_18test_fuzz_internal4dirs9workspace
FN:96,_RNCNvNtCsfbtA0fWH35c_18test_fuzz_internal4dirs8maybe_id0B5_
FN:136,_RINvNtCsfbtA0fWH35c_18test_fuzz_internal4dirs19path_from_args_typepEB4_
FN:32,_RINvNtCsfbtA0fWH35c_18test_fuzz_internal4dirs31corpus_directory_from_args_typepEB4_
FN:22,_RINvNtCsfbtA0fWH35c_18test_fuzz_internal4dirs37generic_args_directory_from_args_typepEB4_
FN:12,_RINvNtCsfbtA0fWH35c_18test_fuzz_internal4dirs42impl_generic_args_directory_from_args_typepEB4_
FN:140,_RNCINvNtCsfbtA0fWH35c_18test_fuzz_internal4dirs19path_from_args_typepE0B6_
FN:136,_RINvNtCs8THTY5tYJNn_18test_fuzz_internal4dirs19path_from_args_typeNtNtCscKpcHOujJ8r_8lifetime13target_fuzz__4ArgsEB16_
FN:136,_RINvNtCs8THTY5tYJNn_18test_fuzz_internal4dirs19path_from_args_typeNtNvNtCscKpcHOujJ8r_8lifetime13target_fuzz__10write_args4ArgsEB18_
FN:32,_RINvNtCs8THTY5tYJNn_18test_fuzz_internal4dirs31corpus_directory_from_args_typeNtNvNtCscKpcHOujJ8r_8lifetime13target_fuzz__10write_args4ArgsEB1k_
FN:22,_RINvNtCs8THTY5tYJNn_18test_fuzz_internal4dirs37generic_args_directory_from_args_typeNtNtCscKpcHOujJ8r_8lifetime13target_fuzz__4ArgsEB1o_
FN:12,_RINvNtCs8THTY5tYJNn_18test_fuzz_internal4dirs42impl_generic_args_directory_from_args_typeNtNtCscKpcHOujJ8r_8lifetime13target_fuzz__4ArgsEB1t_
FN:140,_RNCINvNtCs8THTY5tYJNn_18test_fuzz_internal4dirs19path_from_args_typeNtNtCscKpcHOujJ8r_8lifetime13target_fuzz__4ArgsE0B18_
FN:140,_RNCINvNtCs8THTY5tYJNn_18test_fuzz_internal4dirs19path_from_args_typeNtNvNtCscKpcHOujJ8r_8lifetime13target_fuzz__10write_args4ArgsE0B1a_
FN:136,_RINvNtCs8THTY5tYJNn_18test_fuzz_internal4dirs19path_from_args_typeNtNtCsfrdtDoCOCG_11manual_leak23wrapped_key_dump_fuzz__4ArgsEB16_
FN:136,_RINvNtCs8THTY5tYJNn_18test_fuzz_internal4dirs19path_from_args_typeNtNvNtCsfrdtDoCOCG_11manual_leak23wrapped_key_dump_fuzz__10write_args4ArgsEB18_
FN:32,_RINvNtCs8THTY5tYJNn_18test_fuzz_internal4dirs31corpus_directory_from_args_typeNtNvNtCsfrdtDoCOCG_11manual_leak23wrapped_key_dump_fuzz__10write_args4ArgsEB1k_
FN:22,_RINvNtCs8THTY5tYJNn_18test_fuzz_internal4dirs37generic_args_directory_from_args_typeNtNtCsfrdtDoCOCG_11manual_leak23wrapped_key_dump_fuzz__4ArgsEB1o_
FN:12,_RINvNtCs8THTY5tYJNn_18test_fuzz_internal4dirs42impl_generic_args_directory_from_args_typeNtNtCsfrdtDoCOCG_11manual_leak23wrapped_key_dump_fuzz__4ArgsEB1t_
FN:140,_RNCINvNtCs8THTY5tYJNn_18test_fuzz_internal4dirs19path_from_args_typeNtNtCsfrdtDoCOCG_11manual_leak23wrapped_key_dump_fuzz__4ArgsE0B18_
FN:140,_RNCINvNtCs8THTY5tYJNn_18test_fuzz_internal4dirs19path_from_args_typeNtNvNtCsfrdtDoCOCG_11manual_leak23wrapped_key_dump_fuzz__10write_args4ArgsE0B1a_
FN:136,_RINvNtCs8THTY5tYJNn_18test_fuzz_internal4dirs19path_from_args_typeNtNtCsdWpqmKI707b_7mut_ref17target_str_fuzz__4ArgsEB16_
FN:136,_RINvNtCs8THTY5tYJNn_18test_fuzz_internal4dirs19path_from_args_typeNtNtCsdWpqmKI707b_7mut_ref19target_slice_fuzz__4ArgsEB16_
FN:136,_RINvNtCs8THTY5tYJNn_18test_fuzz_internal4dirs19path_from_args_typeNtNvNtCsdWpqmKI707b_7mut_ref17target_str_fuzz__10write_args4ArgsEB18_
FN:136,_RINvNtCs8THTY5tYJNn_18test_fuzz_internal4dirs19path_from_args_typeNtNvNtCsdWpqmKI707b_7mut_ref19target_slice_fuzz__10write_args4ArgsEB18_
FN:32,_RINvNtCs8THTY5tYJNn_18test_fuzz_internal4dirs31corpus_directory_from_args_typeNtNvNtCsdWpqmKI707b_7mut_ref17target_str_fuzz__10write_args4ArgsEB1k_
FN:32,_RINvNtCs8THTY5tYJNn_18test_fuzz_internal4dirs31corpus_directory_from_args_typeNtNvNtCsdWpqmKI707b_7mut_ref19target_slice_fuzz__10write_args4ArgsEB1k_
FN:22,_RINvNtCs8THTY5tYJNn_18test_fuzz_internal4dirs37generic_args_directory_from_args_typeNtNtCsdWpqmKI707b_7mut_ref17target_str_fuzz__4ArgsEB1o_
FN:22,_RINvNtCs8THTY5tYJNn_18test_fuzz_internal4dirs37generic_args_directory_from_args_typeNtNtCsdWpqmKI707b_7mut_ref19target_slice_fuzz__4ArgsEB1o_
FN:12,_RINvNtCs8THTY5tYJNn_18test_fuzz_internal4dirs42impl_generic_args_directory_from_args_typeNtNtCsdWpqmKI707b_7mut_ref17target_str_fuzz__4ArgsEB1t_
FN:12,_RINvNtCs8THTY5tYJNn_18test_fuzz_internal4dirs42impl_generic_args_directory_from_args_typeNtNtCsdWpqmKI707b_7mut_ref19target_slice_fuzz__4ArgsEB1t_
FN:140,_RNCINvNtCs8THTY5tYJNn_18test_fuzz_internal4dirs19path_from_args_typeNtNtCsdWpqmKI707b_7mut_ref17target_str_fuzz__4ArgsE0B18_
FN:140,_RNCINvNtCs8THTY5tYJNn_18test_fuzz_internal4dirs19path_from_args_typeNtNtCsdWpqmKI707b_7mut_ref19target_slice_fuzz__4ArgsE0B18_
FN:140,_RNCINvNtCs8THTY5tYJNn_18test_fuzz_internal4dirs19path_from_args_typeNtNvNtCsdWpqmKI707b_7mut_ref17target_str_fuzz__10write_args4ArgsE0B1a_
FN:140,_RNCINvNtCs8THTY5tYJNn_18test_fuzz_internal4dirs19path_from_args_typeNtNvNtCsdWpqmKI707b_7mut_ref19target_slice_fuzz__10write_args4ArgsE0B1a_
FN:136,_RINvNtCs8THTY5tYJNn_18test_fuzz_internal4dirs19path_from_args_typeNtNtCs2MoilIs07Sx_8parallel15target_0_fuzz__4ArgsEB16_
FN:136,_RINvNtCs8THTY5tYJNn_18test_fuzz_internal4dirs19path_from_args_typeNtNtCs2MoilIs07Sx_8parallel15target_1_fuzz__4ArgsEB16_
FN:136,_RINvNtCs8THTY5tYJNn_18test_fuzz_internal4dirs19path_from_args_typeNtNtCs2MoilIs07Sx_8parallel15target_2_fuzz__4ArgsEB16_
FN:136,_RINvNtCs8THTY5tYJNn_18test_fuzz_internal4dirs19path_from_args_typeNtNtCs2MoilIs07Sx_8parallel15target_3_fuzz__4ArgsEB16_
FN:136,_RINvNtCs8THTY5tYJNn_18test_fuzz_internal4dirs19path_from_args_typeNtNtCs2MoilIs07Sx_8parallel15target_4_fuzz__4ArgsEB16_
FN:136,_RINvNtCs8THTY5tYJNn_18test_fuzz_internal4dirs19path_from_args_typeNtNtCs2MoilIs07Sx_8parallel15target_5_fuzz__4ArgsEB16_
FN:136,_RINvNtCs8THTY5tYJNn_18test_fuzz_internal4dirs19path_from_args_typeNtNvNtCs2MoilIs07Sx_8parallel15target_0_fuzz__10write_args4ArgsEB18_
FN:136,_RINvNtCs8THTY5tYJNn_18test_fuzz_internal4dirs19path_from_args_typeNtNvNtCs2MoilIs07Sx_8parallel15target_1_fuzz__10write_args4ArgsEB18_
FN:136,_RINvNtCs8THTY5tYJNn_18test_fuzz_internal4dirs19path_from_args_typeNtNvNtCs2MoilIs07Sx_8parallel15target_2_fuzz__10write_args4ArgsEB18_
FN:136,_RINvNtCs8THTY5tYJNn_18test_fuzz_internal4dirs19path_from_args_typeNtNvNtCs2MoilIs07Sx_8parallel15target_3_fuzz__10write_args4ArgsEB18_
FN:136,_RINvNtCs8THTY5tYJNn_18test_fuzz_internal4dirs19path_from_args_typeNtNvNtCs2MoilIs07Sx_8parallel15target_4_fuzz__10write_args4ArgsEB18_
FN:136,_RINvNtCs8THTY5tYJNn_18test_fuzz_internal4dirs19path_from_args_typeNtNvNtCs2MoilIs07Sx_8parallel15target_5_fuzz__10write_args4ArgsEB18_
FN:32,_RINvNtCs8THTY5tYJNn_18test_fuzz_internal4dirs31corpus_directory_from_args_typeNtNvNtCs2MoilIs07Sx_8parallel15target_0_fuzz__10write_args4ArgsEB1k_
FN:32,_RINvNtCs8THTY5tYJNn_18test_fuzz_internal4dirs31corpus_directory_from_args_typeNtNvNtCs2MoilIs07Sx_8parallel15target_1_fuzz__10write_args4ArgsEB1k_
FN:32,_RINvNtCs8THTY5tYJNn_18test_fuzz_internal4dirs31corpus_directory_from_args_typeNtNvNtCs2MoilIs07Sx_8parallel15target_2_fuzz__10write_args4ArgsEB1k_
FN:32,_RINvNtCs8THTY5tYJNn_18test_fuzz_internal4dirs31corpus_directory_from_args_typeNtNvNtCs2MoilIs07Sx_8parallel15target_3_fuzz__10write_args4ArgsEB1k_
FN:32,_RINvNtCs8THTY5tYJNn_18test_fuzz_internal4dirs31corpus_directory_from_args_typeNtNvNtCs2MoilIs07Sx_8parallel15target_4_fuzz__10write_args4ArgsEB1k_
FN:32,_RINvNtCs8THTY5tYJNn_18test_fuzz_internal4dirs31corpus_directory_from_args_typeNtNvNtCs2MoilIs07Sx_8parallel15target_5_fuzz__10write_args4ArgsEB1k_
FN:22,_RINvNtCs8THTY5tYJNn_18test_fuzz_internal4dirs37generic_args_directory_from_args_typeNtNtCs2MoilIs07Sx_8parallel15target_0_fuzz__4ArgsEB1o_
FN:22,_RINvNtCs8THTY5tYJNn_18test_fuzz_internal4dirs37generic_args_directory_from_args_typeNtNtCs2MoilIs07Sx_8parallel15target_1_fuzz__4ArgsEB1o_
FN:22,_RINvNtCs8THTY5tYJNn_18test_fuzz_internal4dirs37generic_args_directory_from_args_typeNtNtCs2MoilIs07Sx_8parallel15target_2_fuzz__4ArgsEB1o_
FN:22,_RINvNtCs8THTY5tYJNn_18test_fuzz_internal4dirs37generic_args_directory_from_args_typeNtNtCs2MoilIs07Sx_8parallel15target_3_fuzz__4ArgsEB1o_
FN:22,_RINvNtCs8THTY5tYJNn_18test_fuzz_internal4dirs37generic_args_directory_from_args_typeNtNtCs2MoilIs07Sx_8parallel15target_4_fuzz__4ArgsEB1o_
FN:22,_RINvNtCs8THTY5tYJNn_18test_fuzz_internal4dirs37generic_args_directory_from_args_typeNtNtCs2MoilIs07Sx_8parallel15target_5_fuzz__4ArgsEB1o_
FN:12,_RINvNtCs8THTY5tYJNn_18test_fuzz_internal4dirs42impl_generic_args_directory_from_args_typeNtNtCs2MoilIs07Sx_8parallel15target_0_fuzz__4ArgsEB1t_
FN:12,_RINvNtCs8THTY5tYJNn_18test_fuzz_internal4dirs42impl_generic_args_directory_from_args_typeNtNtCs2MoilIs07Sx_8parallel15target_1_fuzz__4ArgsEB1t_
FN:12,_RINvNtCs8THTY5tYJNn_18test_fuzz_internal4dirs42impl_generic_args_directory_from_args_typeNtNtCs2MoilIs07Sx_8parallel15target_2_fuzz__4ArgsEB1t_
FN:12,_RINvNtCs8THTY5tYJNn_18test_fuzz_internal4dirs42impl_generic_args_directory_from_args_typeNtNtCs2MoilIs07Sx_8parallel15target_3_fuzz__4ArgsEB1t_
FN:12,_RINvNtCs8THTY5tYJNn_18test_fuzz_internal4dirs42impl_generic_args_directory_from_args_typeNtNtCs2MoilIs07Sx_8parallel15target_4_fuzz__4ArgsEB1t_
FN:12,_RINvNtCs8THTY5tYJNn_18test_fuzz_internal4dirs42impl_generic_args_directory_from_args_typeNtNtCs2MoilIs07Sx_8parallel15target_5_fuzz__4ArgsEB1t_
FN:140,_RNCINvNtCs8THTY5tYJNn_18test_fuzz_internal4dirs19path_from_args_typeNtNtCs2MoilIs07Sx_8parallel15target_0_fuzz__4ArgsE0B18_
FN:140,_RNCINvNtCs8THTY5tYJNn_18test_fuzz_internal4dirs19path_from_args_typeNtNtCs2MoilIs07Sx_8parallel15target_1_fuzz__4ArgsE0B18_
FN:140,_RNCINvNtCs8THTY5tYJNn_18test_fuzz_internal4dirs19path_from_args_typeNtNtCs2MoilIs07Sx_8parallel15target_2_fuzz__4ArgsE0B18_
FN:140,_RNCINvNtCs8THTY5tYJNn_18test_fuzz_internal4dirs19path_from_args_typeNtNtCs2MoilIs07Sx_8parallel15target_3_fuzz__4ArgsE0B18_
FN:140,_RNCINvNtCs8THTY5tYJNn_18test_fuzz_internal4dirs19path_from_args_typeNtNtCs2MoilIs07Sx_8parallel15target_4_fuzz__4ArgsE0B18_
FN:140,_RNCINvNtCs8THTY5tYJNn_18test_fuzz_internal4dirs19path_from_args_typeNtNtCs2MoilIs07Sx_8parallel15target_5_fuzz__4ArgsE0B18_
FN:140,_RNCINvNtCs8THTY5tYJNn_18test_fuzz_internal4dirs19path_from_args_typeNtNvNtCs2MoilIs07Sx_8parallel15target_0_fuzz__10write_args4ArgsE0B1a_
FN:140,_RNCINvNtCs8THTY5tYJNn_18test_fuzz_internal4dirs19path_from_args_typeNtNvNtCs2MoilIs07Sx_8parallel15target_1_fuzz__10write_args4ArgsE0B1a_
FN:140,_RNCINvNtCs8THTY5tYJNn_18test_fuzz_internal4dirs19path_from_args_typeNtNvNtCs2MoilIs07Sx_8parallel15target_2_fuzz__10write_args4ArgsE0B1a_
FN:140,_RNCINvNtCs8THTY5tYJNn_18test_fuzz_internal4dirs19path_from_args_typeNtNvNtCs2MoilIs07Sx_8parallel15target_3_fuzz__10write_args4ArgsE0B1a_
FN:140,_RNCINvNtCs8THTY5tYJNn_18test_fuzz_internal4dirs19path_from_args_typeNtNvNtCs2MoilIs07Sx_8parallel15target_4_fuzz__10write_args4ArgsE0B1a_
FN:140,_RNCINvNtCs8THTY5tYJNn_18test_fuzz_internal4dirs19path_from_args_typeNtNvNtCs2MoilIs07Sx_8parallel15target_5_fuzz__10write_args4ArgsE0B1a_
FN:136,_RINvNtCs8THTY5tYJNn_18test_fuzz_internal4dirs19path_from_args_typeNtNtCsiULhbWZWKqL_14parse_duration12parse_fuzz__4ArgsEB16_
FN:136,_RINvNtCs8THTY5tYJNn_18test_fuzz_internal4dirs19path_from_args_typeNtNvNtCsiULhbWZWKqL_14parse_duration12parse_fuzz__10write_args4ArgsEB18_
FN:32,_RINvNtCs8THTY5tYJNn_18test_fuzz_internal4dirs31corpus_directory_from_args_typeNtNvNtCsiULhbWZWKqL_14parse_duration12parse_fuzz__10write_args4ArgsEB1k_
FN:22,_RINvNtCs8THTY5tYJNn_18test_fuzz_internal4dirs37generic_args_directory_from_args_typeNtNtCsiULhbWZWKqL_14parse_duration12parse_fuzz__4ArgsEB1o_
FN:12,_RINvNtCs8THTY5tYJNn_18test_fuzz_internal4dirs42impl_generic_args_directory_from_args_typeNtNtCsiULhbWZWKqL_14parse_duration12parse_fuzz__4ArgsEB1t_
FN:140,_RNCINvNtCs8THTY5tYJNn_18test_fuzz_internal4dirs19path_from_args_typeNtNtCsiULhbWZWKqL_14parse_duration12parse_fuzz__4ArgsE0B18_
FN:140,_RNCINvNtCs8THTY5tYJNn_18test_fuzz_internal4dirs19path_from_args_typeNtNvNtCsiULhbWZWKqL_14parse_duration12parse_fuzz__10write_args4ArgsE0B1a_
FN:136,_RINvNtCs8THTY5tYJNn_18test_fuzz_internal4dirs19path_from_args_typeNtNtCs82vfgwK5nMf_7profile13target_fuzz__4ArgsEB16_
FN:136,_RINvNtCs8THTY5tYJNn_18test_fuzz_internal4dirs19path_from_args_typeNtNvNtCs82vfgwK5nMf_7profile13target_fuzz__10write_args4ArgsEB18_
FN:32,_RINvNtCs8THTY5tYJNn_18test_fuzz_internal4dirs31corpus_directory_from_args_typeNtNvNtCs82vfgwK5nMf_7profile13target_fuzz__10write_args4ArgsEB1k_
FN:22,_RINvNtCs8THTY5tYJNn_18test_fuzz_internal4dirs37generic_args_directory_from_args_typeNtNtCs82vfgwK5nMf_7profile13target_fuzz__4ArgsEB1o_
FN:12,_RINvNtCs8THTY5tYJNn_18test_fuzz_internal4dirs42impl_generic_args_directory_from_args_typeNtNtCs82vfgwK5nMf_7profile13target_fuzz__4ArgsEB1t_
FN:140,_RNCINvNtCs8THTY5tYJNn_18test_fuzz_internal4dirs19path_from_args_typeNtNtCs82vfgwK5nMf_7profile13target_fuzz__4ArgsE0B18_
FN:140,_RNCINvNtCs8THTY5tYJNn_18test_fuzz_internal4dirs19path_from_args_typeNtNvNtCs82vfgwK5nMf_7profile13target_fuzz__10write_args4ArgsE0B1a_
FN:136,_RINvNtCsfbtA0fWH35c_18test_fuzz_internal4dirs19path_from_args_typeNtNtCs1waMD2fLcEp_6qwerty13target_fuzz__4ArgsEB16_
FN:136,_RINvNtCsfbtA0fWH35c_18test_fuzz_internal4dirs19path_from_args_typeNtNvNtCs1waMD2fLcEp_6qwerty13target_fuzz__10write_args4ArgsEB18_
FN:32,_RINvNtCsfbtA0fWH35c_18test_fuzz_internal4dirs31corpus_directory_from_args_typeNtNvNtCs1waMD2fLcEp_6qwerty13target_fuzz__10write_args4ArgsEB1k_
FN:22,_RINvNtCsfbtA0fWH35c_18test_fuzz_internal4dirs37generic_args_directory_from_args_typeNtNtCs1waMD2fLcEp_6qwerty13target_fuzz__4ArgsEB1o_
FN:12,_RINvNtCsfbtA0fWH35c_18test_fuzz_internal4dirs42impl_generic_args_directory_from_args_typeNtNtCs1waMD2fLcEp_6qwerty13target_fuzz__4ArgsEB1t_
FN:140,_RNCINvNtCsfbtA0fWH35c_18test_fuzz_internal4dirs19path_from_args_typeNtNtCs1waMD2fLcEp_6qwerty13target_fuzz__4ArgsE0B18_
FN:140,_RNCINvNtCsfbtA0fWH35c_18test_fuzz_internal4dirs19path_from_args_typeNtNvNtCs1waMD2fLcEp_6qwerty13target_fuzz__10write_args4ArgsE0B1a_
FN:136,_RINvNtCs8THTY5tYJNn_18test_fuzz_internal4dirs19path_from_args_typeNtNtCs2Uuc8eoBrFY_6qwerty13target_fuzz__4ArgsEB16_
FN:136,_RINvNtCs8THTY5tYJNn_18test_fuzz_internal4dirs19path_from_args_typeNtNvNtCs2Uuc8eoBrFY_6qwerty13target_fuzz__10write_args4ArgsEB18_
FN:32,_RINvNtCs8THTY5tYJNn_18test_fuzz_internal4dirs31corpus_directory_from_args_typeNtNvNtCs2Uuc8eoBrFY_6qwerty13target_fuzz__10write_args4ArgsEB1k_
FN:22,_RINvNtCs8THTY5tYJNn_18test_fuzz_internal4dirs37generic_args_directory_from_args_typeNtNtCs2Uuc8eoBrFY_6qwerty13target_fuzz__4ArgsEB1o_
FN:12,_RINvNtCs8THTY5tYJNn_18test_fuzz_internal4dirs42impl_generic_args_directory_from_args_typeNtNtCs2Uuc8eoBrFY_6qwerty13target_fuzz__4ArgsEB1t_
FN:140,_RNCINvNtCs8THTY5tYJNn_18test_fuzz_internal4dirs19path_from_args_typeNtNtCs2Uuc8eoBrFY_6qwerty13target_fuzz__4ArgsE0B18_
FN:140,_RNCINvNtCs8THTY5tYJNn_18test_fuzz_internal4dirs19path_from_args_typeNtNvNtCs2Uuc8eoBrFY_6qwerty13target_fuzz__10write_args4ArgsE0B1a_
FN:136,_RINvNtCs8THTY5tYJNn_18test_fuzz_internal4dirs19path_from_args_typeNtNtCsfC9OA1PP7ap_6rename10bar_fuzz__4ArgsEB16_
FN:136,_RINvNtCs8THTY5tYJNn_18test_fuzz_internal4dirs19path_from_args_typeNtNvNtCsfC9OA1PP7ap_6rename10bar_fuzz__10write_args4ArgsEB18_
FN:32,_RINvNtCs8THTY5tYJNn_18test_fuzz_internal4dirs31corpus_directory_from_args_typeNtNvNtCsfC9OA1PP7ap_6rename10bar_fuzz__10write_args4ArgsEB1k_
FN:22,_RINvNtCs8THTY5tYJNn_18test_fuzz_internal4dirs37generic_args_directory_from_args_typeNtNtCsfC9OA1PP7ap_6rename10bar_fuzz__4ArgsEB1o_
FN:12,_RINvNtCs8THTY5tYJNn_18test_fuzz_internal4dirs42impl_generic_args_directory_from_args_typeNtNtCsfC9OA1PP7ap_6rename10bar_fuzz__4ArgsEB1t_
FN:140,_RNCINvNtCs8THTY5tYJNn_18test_fuzz_internal4dirs19path_from_args_typeNtNtCsfC9OA1PP7ap_6rename10bar_fuzz__4ArgsE0B18_
FN:140,_RNCINvNtCs8THTY5tYJNn_18test_fuzz_internal4dirs19path_from_args_typeNtNvNtCsfC9OA1PP7ap_6rename10bar_fuzz__10write_args4ArgsE0B1a_
FN:136,_RINvNtCs8THTY5tYJNn_18test_fuzz_internal4dirs19path_from_args_typeINtNtCs3hi3ManBPbw_11return_type16swap_swap_fuzz__4ArgsubEEB17_
FN:136,_RINvNtCs8THTY5tYJNn_18test_fuzz_internal4dirs19path_from_args_typeINtNvNtCs3hi3ManBPbw_11return_type16swap_swap_fuzz__10write_args4ArgsubEEB19_
FN:32,_RINvNtCs8THTY5tYJNn_18test_fuzz_internal4dirs31corpus_directory_from_args_typeINtNvNtCs3hi3ManBPbw_11return_type16swap_swap_fuzz__10write_args4ArgsubEEB1l_
FN:22,_RINvNtCs8THTY5tYJNn_18test_fuzz_internal4dirs37generic_args_directory_from_args_typeINtNtCs3hi3ManBPbw_11return_type16swap_swap_fuzz__4ArgsubEEB1p_
FN:12,_RINvNtCs8THTY5tYJNn_18test_fuzz_internal4dirs42impl_generic_args_directory_from_args_typeINtNtCs3hi3ManBPbw_11return_type16swap_swap_fuzz__4ArgsubEEB1u_
FN:140,_RNCINvNtCs8THTY5tYJNn_18test_fuzz_internal4dirs19path_from_args_typeINtNtCs3hi3ManBPbw_11return_type16swap_swap_fuzz__4ArgsubEE0B19_
FN:140,_RNCINvNtCs8THTY5tYJNn_18test_fuzz_internal4dirs19path_from_args_typeINtNvNtCs3hi3ManBPbw_11return_type16swap_swap_fuzz__10write_args4ArgsubEE0B1b_
FN:136,_RINvNtCs8THTY5tYJNn_18test_fuzz_internal4dirs19path_from_args_typeNtNtCs40ThQioJlYI_19self_ty_in_mod_name20struct_target_fuzz__4ArgsEB16_
FN:136,_RINvNtCs8THTY5tYJNn_18test_fuzz_internal4dirs19path_from_args_typeNtNvNtCs40ThQioJlYI_19self_ty_in_mod_name20struct_target_fuzz__10write_args4ArgsEB18_
FN:32,_RINvNtCs8THTY5tYJNn_18test_fuzz_internal4dirs31corpus_directory_from_args_typeNtNvNtCs40ThQioJlYI_19self_ty_in_mod_name20struct_target_fuzz__10write_args4ArgsEB1k_
FN:22,_RINvNtCs8THTY5tYJNn_18test_fuzz_internal4dirs37generic_args_directory_from_args_typeNtNtCs40ThQioJlYI_19self_ty_in_mod_name20struct_target_fuzz__4ArgsEB1o_
FN:12,_RINvNtCs8THTY5tYJNn_18test_fuzz_internal4dirs42impl_generic_args_directory_from_args_typeNtNtCs40ThQioJlYI_19self_ty_in_mod_name20struct_target_fuzz__4ArgsEB1t_
FN:140,_RNCINvNtCs8THTY5tYJNn_18test_fuzz_internal4dirs19path_from_args_typeNtNtCs40ThQioJlYI_19self_ty_in_mod_name20struct_target_fuzz__4ArgsE0B18_
FN:140,_RNCINvNtCs8THTY5tYJNn_18test_fuzz_internal4dirs19path_from_args_typeNtNvNtCs40ThQioJlYI_19self_ty_in_mod_name20struct_target_fuzz__10write_args4ArgsE0B1a_
FN:136,_RINvNtCsfbtA0fWH35c_18test_fuzz_internal4dirs19path_from_args_typeNtNtNtCs2k5fBaaxJWw_5serde10byte_array13target_fuzz__4ArgsEB18_
FN:136,_RINvNtCsfbtA0fWH35c_18test_fuzz_internal4dirs19path_from_args_typeNtNtNtCs2k5fBaaxJWw_5serde11unit_struct13target_fuzz__4ArgsEB18_
FN:136,_RINvNtCsfbtA0fWH35c_18test_fuzz_internal4dirs19path_from_args_typeNtNtNtCs2k5fBaaxJWw_5serde12tuple_struct13target_fuzz__4ArgsEB18_
FN:136,_RINvNtCsfbtA0fWH35c_18test_fuzz_internal4dirs19path_from_args_typeNtNtNtCs2k5fBaaxJWw_5serde12unit_variant13target_fuzz__4ArgsEB18_
FN:136,_RINvNtCsfbtA0fWH35c_18test_fuzz_internal4dirs19path_from_args_typeNtNtNtCs2k5fBaaxJWw_5serde13tuple_variant13target_fuzz__4ArgsEB18_
FN:136,_RINvNtCsfbtA0fWH35c_18test_fuzz_internal4dirs19path_from_args_typeNtNtNtCs2k5fBaaxJWw_5serde14newtype_struct13target_fuzz__4ArgsEB18_
FN:136,_RINvNtCsfbtA0fWH35c_18test_fuzz_internal4dirs19path_from_args_typeNtNtNtCs2k5fBaaxJWw_5serde14struct_variant13target_fuzz__4ArgsEB18_
FN:136,_RINvNtCsfbtA0fWH35c_18test_fuzz_internal4dirs19path_from_args_typeNtNtNtCs2k5fBaaxJWw_5serde15newtype_variant13target_fuzz__4ArgsEB18_
FN:136,_RINvNtCsfbtA0fWH35c_18test_fuzz_internal4dirs19path_from_args_typeNtNtNtCs2k5fBaaxJWw_5serde3map13target_fuzz__4ArgsEB18_
FN:136,_RINvNtCsfbtA0fWH35c_18test_fuzz_internal4dirs19path_from_args_typeNtNtNtCs2k5fBaaxJWw_5serde3seq13target_fuzz__4ArgsEB18_
FN:136,_RINvNtCsfbtA0fWH35c_18test_fuzz_internal4dirs19path_from_args_typeNtNtNtCs2k5fBaaxJWw_5serde4unit13target_fuzz__4ArgsEB18_
FN:136,_RINvNtCsfbtA0fWH35c_18test_fuzz_internal4dirs19path_from_args_typeNtNtNtCs2k5fBaaxJWw_5serde5tuple13target_fuzz__4ArgsEB18_
FN:136,_RINvNtCsfbtA0fWH35c_18test_fuzz_internal4dirs19path_from_args_typeNtNtNtCs2k5fBaaxJWw_5serde6option13target_fuzz__4ArgsEB18_
FN:136,_RINvNtCsfbtA0fWH35c_18test_fuzz_internal4dirs19path_from_args_typeNtNtNtCs2k5fBaaxJWw_5serde6string13target_fuzz__4ArgsEB18_
FN:136,_RINvNtCsfbtA0fWH35c_18test_fuzz_internal4dirs19path_from_args_typeNtNtNtCs2k5fBaaxJWw_5serde6strukt13target_fuzz__4ArgsEB18_
FN:136,_RINvNtCsfbtA0fWH35c_18test_fuzz_internal4dirs19path_from_args_typeNtNvNtNtCs2k5fBaaxJWw_5serde10byte_array13target_fuzz__10write_args4ArgsEB1a_
FN:136,_RINvNtCsfbtA0fWH35c_18test_fuzz_internal4dirs19path_from_args_typeNtNvNtNtCs2k5fBaaxJWw_5serde11unit_struct13target_fuzz__10write_args4ArgsEB1a_
FN:136,_RINvNtCsfbtA0fWH35c_18test_fuzz_internal4dirs19path_from_args_typeNtNvNtNtCs2k5fBaaxJWw_5serde12tuple_struct13target_fuzz__10write_args4ArgsEB1a_
FN:136,_RINvNtCsfbtA0fWH35c_18test_fuzz_internal4dirs19path_from_args_typeNtNvNtNtCs2k5fBaaxJWw_5serde12unit_variant13target_fuzz__10write_args4ArgsEB1a_
FN:136,_RINvNtCsfbtA0fWH35c_18test_fuzz_internal4dirs19path_from_args_typeNtNvNtNtCs2k5fBaaxJWw_5serde13tuple_variant13target_fuzz__10write_args4ArgsEB1a_
FN:136,_RINvNtCsfbtA0fWH35c_18test_fuzz_internal4dirs19path_from_args_typeNtNvNtNtCs2k5fBaaxJWw_5serde14newtype_struct13target_fuzz__10write_args4ArgsEB1a_
FN:136,_RINvNtCsfbtA0fWH35c_18test_fuzz_internal4dirs19path_from_args_typeNtNvNtNtCs2k5fBaaxJWw_5serde14struct_variant13target_fuzz__10write_args4ArgsEB1a_
FN:136,_RINvNtCsfbtA0fWH35c_18test_fuzz_internal4dirs19path_from_args_typeNtNvNtNtCs2k5fBaaxJWw_5serde15newtype_variant13target_fuzz__10write_args4ArgsEB1a_
FN:136,_RINvNtCsfbtA0fWH35c_18test_fuzz_internal4dirs19path_from_args_typeNtNvNtNtCs2k5fBaaxJWw_5serde3map13target_fuzz__10write_args4ArgsEB1a_
FN:136,_RINvNtCsfbtA0fWH35c_18test_fuzz_internal4dirs19path_from_args_typeNtNvNtNtCs2k5fBaaxJWw_5serde3seq13target_fuzz__10write_args4ArgsEB1a_
FN:136,_RINvNtCsfbtA0fWH35c_18test_fuzz_internal4dirs19path_from_args_typeNtNvNtNtCs2k5fBaaxJWw_5serde4unit13target_fuzz__10write_args4ArgsEB1a_
FN:136,_RINvNtCsfbtA0fWH35c_18test_fuzz_internal4dirs19path_from_args_typeNtNvNtNtCs2k5fBaaxJWw_5serde5tuple13target_fuzz__10write_args4ArgsEB1a_
FN:136,_RINvNtCsfbtA0fWH35c_18test_fuzz_internal4dirs19path_from_args_typeNtNvNtNtCs2k5fBaaxJWw_5serde6option13target_fuzz__10write_args4ArgsEB1a_
FN:136,_RINvNtCsfbtA0fWH35c_18test_fuzz_internal4dirs19path_from_args_typeNtNvNtNtCs2k5fBaaxJWw_5serde6string13target_fuzz__10write_args4ArgsEB1a_
FN:136,_RINvNtCsfbtA0fWH35c_18test_fuzz_internal4dirs19path_from_args_typeNtNvNtNtCs2k5fBaaxJWw_5serde6strukt13target_fuzz__10write_args4ArgsEB1a_
FN:32,_RINvNtCsfbtA0fWH35c_18test_fuzz_internal4dirs31corpus_directory_from_args_typeNtNvNtNtCs2k5fBaaxJWw_5serde10byte_array13target_fuzz__10write_args4ArgsEB1m_
FN:32,_RINvNtCsfbtA0fWH35c_18test_fuzz_internal4dirs31corpus_directory_from_args_typeNtNvNtNtCs2k5fBaaxJWw_5serde11unit_struct13target_fuzz__10write_args4ArgsEB1m_
FN:32,_RINvNtCsfbtA0fWH35c_18test_fuzz_internal4dirs31corpus_directory_from_args_typeNtNvNtNtCs2k5fBaaxJWw_5serde12tuple_struct13target_fuzz__10write_args4ArgsEB1m_
FN:32,_RINvNtCsfbtA0fWH35c_18test_fuzz_internal4dirs31corpus_directory_from_args_typeNtNvNtNtCs2k5fBaaxJWw_5serde12unit_variant13target_fuzz__10write_args4ArgsEB1m_
FN:32,_RINvNtCsfbtA0fWH35c_18test_fuzz_internal4dirs31corpus_directory_from_args_typeNtNvNtNtCs2k5fBaaxJWw_5serde13tuple_variant13target_fuzz__10write_args4ArgsEB1m_
FN:32,_RINvNtCsfbtA0fWH35c_18test_fuzz_internal4dirs31corpus_directory_from_args_typeNtNvNtNtCs2k5fBaaxJWw_5serde14newtype_struct13target_fuzz__10write_args4ArgsEB1m_
FN:32,_RINvNtCsfbtA0fWH35c_18test_fuzz_internal4dirs31corpus_directory_from_args_typeNtNvNtNtCs2k5fBaaxJWw_5serde14struct_variant13target_fuzz__10write_args4ArgsEB1m_
FN:32,_RINvNtCsfbtA0fWH35c_18test_fuzz_internal4dirs31corpus_directory_from_args_typeNtNvNtNtCs2k5fBaaxJWw_5serde15newtype_variant13target_fuzz__10write_args4ArgsEB1m_
FN:32,_RINvNtCsfbtA0fWH35c_18test_fuzz_internal4dirs31corpus_directory_from_args_typeNtNvNtNtCs2k5fBaaxJWw_5serde3map13target_fuzz__10write_args4ArgsEB1m_
FN:32,_RINvNtCsfbtA0fWH35c_18test_fuzz_internal4dirs31corpus_directory_from_args_typeNtNvNtNtCs2k5fBaaxJWw_5serde3seq13target_fuzz__10write_args4ArgsEB1m_
FN:32,_RINvNtCsfbtA0fWH35c_18test_fuzz_internal4dirs31corpus_directory_from_args_typeNtNvNtNtCs2k5fBaaxJWw_5serde4unit13target_fuzz__10write_args4ArgsEB1m_
FN:32,_RINvNtCsfbtA0fWH35c_18test_fuzz_internal4dirs31corpus_directory_from_args_typeNtNvNtNtCs2k5fBaaxJWw_5serde5tuple13target_fuzz__10write_args4ArgsEB1m_
FN:32,_RINvNtCsfbtA0fWH35c_18test_fuzz_internal4dirs31corpus_directory_from_args_typeNtNvNtNtCs2k5fBaaxJWw_5serde6option13target_fuzz__10write_args4ArgsEB1m_
FN:32,_RINvNtCsfbtA0fWH35c_18test_fuzz_internal4dirs31corpus_directory_from_args_typeNtNvNtNtCs2k5fBaaxJWw_5serde6string13target_fuzz__10write_args4ArgsEB1m_
FN:32,_RINvNtCsfbtA0fWH35c_18test_fuzz_internal4dirs31corpus_directory_from_args_typeNtNvNtNtCs2k5fBaaxJWw_5serde6strukt13target_fuzz__10write_args4ArgsEB1m_
FN:22,_RINvNtCsfbtA0fWH35c_18test_fuzz_internal4dirs37generic_args_directory_from_args_typeNtNtNtCs2k5fBaaxJWw_5serde10byte_array13target_fuzz__4ArgsEB1q_
FN:22,_RINvNtCsfbtA0fWH35c_18test_fuzz_internal4dirs37generic_args_directory_from_args_typeNtNtNtCs2k5fBaaxJWw_5serde11unit_struct13target_fuzz__4ArgsEB1q_
FN:22,_RINvNtCsfbtA0fWH35c_18test_fuzz_internal4dirs37generic_args_directory_from_args_typeNtNtNtCs2k5fBaaxJWw_5serde12tuple_struct13target_fuzz__4ArgsEB1q_
FN:22,_RINvNtCsfbtA0fWH35c_18test_fuzz_internal4dirs37generic_args_directory_from_args_typeNtNtNtCs2k5fBaaxJWw_5serde12unit_variant13target_fuzz__4ArgsEB1q_
FN:22,_RINvNtCsfbtA0fWH35c_18test_fuzz_internal4dirs37generic_args_directory_from_args_typeNtNtNtCs2k5fBaaxJWw_5serde13tuple_variant13target_fuzz__4ArgsEB1q_
FN:22,_RINvNtCsfbtA0fWH35c_18test_fuzz_internal4dirs37generic_args_directory_from_args_typeNtNtNtCs2k5fBaaxJWw_5serde14newtype_struct13target_fuzz__4ArgsEB1q_
FN:22,_RINvNtCsfbtA0fWH35c_18test_fuzz_internal4dirs37generic_args_directory_from_args_typeNtNtNtCs2k5fBaaxJWw_5serde14struct_variant13target_fuzz__4ArgsEB1q_
FN:22,_RINvNtCsfbtA0fWH35c_18test_fuzz_internal4dirs37generic_args_directory_from_args_typeNtNtNtCs2k5fBaaxJWw_5serde15newtype_variant13target_fuzz__4ArgsEB1q_
FN:22,_RINvNtCsfbtA0fWH35c_18test_fuzz_internal4dirs37generic_args_directory_from_args_typeNtNtNtCs2k5fBaaxJWw_5serde3map13target_fuzz__4ArgsEB1q_
FN:22,_RINvNtCsfbtA0fWH35c_18test_fuzz_internal4dirs37generic_args_directory_from_args_typeNtNtNtCs2k5fBaaxJWw_5serde3seq13target_fuzz__4ArgsEB1q_
FN:22,_RINvNtCsfbtA0fWH35c_18test_fuzz_internal4dirs37generic_args_directory_from_args_typeNtNtNtCs2k5fBaaxJWw_5serde4unit13target_fuzz__4ArgsEB1q_
FN:22,_RINvNtCsfbtA0fWH35c_18test_fuzz_internal4dirs37generic_args_directory_from_args_typeNtNtNtCs2k5fBaaxJWw_5serde5tuple13target_fuzz__4ArgsEB1q_
FN:22,_RINvNtCsfbtA0fWH35c_18test_fuzz_internal4dirs37generic_args_directory_from_args_typeNtNtNtCs2k5fBaaxJWw_5serde6option13target_fuzz__4ArgsEB1q_
FN:22,_RINvNtCsfbtA0fWH35c_18test_fuzz_internal4dirs37generic_args_directory_from_args_typeNtNtNtCs2k5fBaaxJWw_5serde6string13target_fuzz__4ArgsEB1q_
FN:22,_RINvNtCsfbtA0fWH35c_18test_fuzz_internal4dirs37generic_args_directory_from_args_typeNtNtNtCs2k5fBaaxJWw_5serde6strukt13target_fuzz__4ArgsEB1q_
FN:12,_RINvNtCsfbtA0fWH35c_18test_fuzz_internal4dirs42impl_generic_args_directory_from_args_typeNtNtNtCs2k5fBaaxJWw_5serde10byte_array13target_fuzz__4ArgsEB1v_
FN:12,_RINvNtCsfbtA0fWH35c_18test_fuzz_internal4dirs42impl_generic_args_directory_from_args_typeNtNtNtCs2k5fBaaxJWw_5serde11unit_struct13target_fuzz__4ArgsEB1v_
FN:12,_RINvNtCsfbtA0fWH35c_18test_fuzz_internal4dirs42impl_generic_args_directory_from_args_typeNtNtNtCs2k5fBaaxJWw_5serde12tuple_struct13target_fuzz__4ArgsEB1v_
FN:12,_RINvNtCsfbtA0fWH35c_18test_fuzz_internal4dirs42impl_generic_args_directory_from_args_typeNtNtNtCs2k5fBaaxJWw_5serde12unit_variant13target_fuzz__4ArgsEB1v_
FN:12,_RINvNtCsfbtA0fWH35c_18test_fuzz_internal4dirs42impl_generic_args_directory_from_args_typeNtNtNtCs2k5fBaaxJWw_5serde13tuple_variant13target_fuzz__4ArgsEB1v_
FN:12,_RINvNtCsfbtA0fWH35c_18test_fuzz_internal4dirs42impl_generic_args_directory_from_args_typeNtNtNtCs2k5fBaaxJWw_5serde14newtype_struct13target_fuzz__4ArgsEB1v_
FN:12,_RINvNtCsfbtA0fWH35c_18test_fuzz_internal4dirs42impl_generic_args_directory_from_args_typeNtNtNtCs2k5fBaaxJWw_5serde14struct_variant13target_fuzz__4ArgsEB1v_
FN:12,_RINvNtCsfbtA0fWH35c_18test_fuzz_internal4dirs42impl_generic_args_directory_from_args_typeNtNtNtCs2k5fBaaxJWw_5serde15newtype_variant13target_fuzz__4ArgsEB1v_
FN:12,_RINvNtCsfbtA0fWH35c_18test_fuzz_internal4dirs42impl_generic_args_directory_from_args_typeNtNtNtCs2k5fBaaxJWw_5serde3map13target_fuzz__4ArgsEB1v_
FN:12,_RINvNtCsfbtA0fWH35c_18test_fuzz_internal4dirs42impl_generic_args_directory_from_args_typeNtNtNtCs2k5fBaaxJWw_5serde3seq13target_fuzz__4ArgsEB1v_
FN:12,_RINvNtCsfbtA0fWH35c_18test_fuzz_internal4dirs42impl_generic_args_directory_from_args_typeNtNtNtCs2k5fBaaxJWw_5serde4unit13target_fuzz__4ArgsEB1v_
FN:12,_RINvNtCsfbtA0fWH35c_18test_fuzz_internal4dirs42impl_generic_args_directory_from_args_typeNtNtNtCs2k5fBaaxJWw_5serde5tuple13target_fuzz__4ArgsEB1v_
FN:12,_RINvNtCsfbtA0fWH35c_18test_fuzz_internal4dirs42impl_generic_args_directory_from_args_typeNtNtNtCs2k5fBaaxJWw_5serde6option13target_fuzz__4ArgsEB1v_
FN:12,_RINvNtCsfbtA0fWH35c_18test_fuzz_internal4dirs42impl_generic_args_directory_from_args_typeNtNtNtCs2k5fBaaxJWw_5serde6string13target_fuzz__4ArgsEB1v_
FN:12,_RINvNtCsfbtA0fWH35c_18test_fuzz_internal4dirs42impl_generic_args_directory_from_args_typeNtNtNtCs2k5fBaaxJWw_5serde6strukt13target_fuzz__4ArgsEB1v_
FN:140,_RNCINvNtCsfbtA0fWH35c_18test_fuzz_internal4dirs19path_from_args_typeNtNtNtCs2k5fBaaxJWw_5serde10byte_array13target_fuzz__4ArgsE0B1a_
FN:140,_RNCINvNtCsfbtA0fWH35c_18test_fuzz_internal4dirs19path_from_args_typeNtNtNtCs2k5fBaaxJWw_5serde11unit_struct13target_fuzz__4ArgsE0B1a_
FN:140,_RNCINvNtCsfbtA0fWH35c_18test_fuzz_internal4dirs19path_from_args_typeNtNtNtCs2k5fBaaxJWw_5serde12tuple_struct13target_fuzz__4ArgsE0B1a_
FN:140,_RNCINvNtCsfbtA0fWH35c_18test_fuzz_internal4dirs19path_from_args_typeNtNtNtCs2k5fBaaxJWw_5serde12unit_variant13target_fuzz__4ArgsE0B1a_
FN:140,_RNCINvNtCsfbtA0fWH35c_18test_fuzz_internal4dirs19path_from_args_typeNtNtNtCs2k5fBaaxJWw_5serde13tuple_variant13target_fuzz__4ArgsE0B1a_
FN:140,_RNCINvNtCsfbtA0fWH35c_18test_fuzz_internal4dirs19path_from_args_typeNtNtNtCs2k5fBaaxJWw_5serde14newtype_struct13target_fuzz__4ArgsE0B1a_
FN:140,_RNCINvNtCsfbtA0fWH35c_18test_fuzz_internal4dirs19path_from_args_typeNtNtNtCs2k5fBaaxJWw_5serde14struct_variant13target_fuzz__4ArgsE0B1a_
FN:140,_RNCINvNtCsfbtA0fWH35c_18test_fuzz_internal4dirs19path_from_args_typeNtNtNtCs2k5fBaaxJWw_5serde15newtype_variant13target_fuzz__4ArgsE0B1a_
FN:140,_RNCINvNtCsfbtA0fWH35c_18test_fuzz_internal4dirs19path_from_args_typeNtNtNtCs2k5fBaaxJWw_5serde3map13target_fuzz__4ArgsE0B1a_
FN:140,_RNCINvNtCsfbtA0fWH35c_18test_fuzz_internal4dirs19path_from_args_typeNtNtNtCs2k5fBaaxJWw_5serde3seq13target_fuzz__4ArgsE0B1a_
FN:140,_RNCINvNtCsfbtA0fWH35c_18test_fuzz_internal4dirs19path_from_args_typeNtNtNtCs2k5fBaaxJWw_5serde4unit13target_fuzz__4ArgsE0B1a_
FN:140,_RNCINvNtCsfbtA0fWH35c_18test_fuzz_internal4dirs19path_from_args_typeNtNtNtCs2k5fBaaxJWw_5serde5tuple13target_fuzz__4ArgsE0B1a_
FN:140,_RNCINvNtCsfbtA0fWH35c_18test_fuzz_internal4dirs19path_from_args_typeNtNtNtCs2k5fBaaxJWw_5serde6option13target_fuzz__4ArgsE0B1a_
FN:140,_RNCINvNtCsfbtA0fWH35c_18test_fuzz_internal4dirs19path_from_args_typeNtNtNtCs2k5fBaaxJWw_5serde6string13target_fuzz__4ArgsE0B1a_
FN:140,_RNCINvNtCsfbtA0fWH35c_18test_fuzz_internal4dirs19path_from_args_typeNtNtNtCs2k5fBaaxJWw_5serde6strukt13target_fuzz__4ArgsE0B1a_
FN:140,_RNCINvNtCsfbtA0fWH35c_18test_fuzz_internal4dirs19path_from_args_typeNtNvNtNtCs2k5fBaaxJWw_5serde10byte_array13target_fuzz__10write_args4ArgsE0B1c_
FN:140,_RNCINvNtCsfbtA0fWH35c_18test_fuzz_internal4dirs19path_from_args_typeNtNvNtNtCs2k5fBaaxJWw_5serde11unit_struct13target_fuzz__10write_args4ArgsE0B1c_
FN:140,_RNCINvNtCsfbtA0fWH35c_18test_fuzz_internal4dirs19path_from_args_typeNtNvNtNtCs2k5fBaaxJWw_5serde12tuple_struct13target_fuzz__10write_args4ArgsE0B1c_
FN:140,_RNCINvNtCsfbtA0fWH35c_18test_fuzz_internal4dirs19path_from_args_typeNtNvNtNtCs2k5fBaaxJWw_5serde12unit_variant13target_fuzz__10write_args4ArgsE0B1c_
FN:140,_RNCINvNtCsfbtA0fWH35c_18test_fuzz_internal4dirs19path_from_args_typeNtNvNtNtCs2k5fBaaxJWw_5serde13tuple_variant13target_fuzz__10write_args4ArgsE0B1c_
FN:140,_RNCINvNtCsfbtA0fWH35c_18test_fuzz_internal4dirs19path_from_args_typeNtNvNtNtCs2k5fBaaxJWw_5serde14newtype_struct13target_fuzz__10write_args4ArgsE0B1c_
FN:140,_RNCINvNtCsfbtA0fWH35c_18test_fuzz_internal4dirs19path_from_args_typeNtNvNtNtCs2k5fBaaxJWw_5serde14struct_variant13target_fuzz__10write_args4ArgsE0B1c_
FN:140,_RNCINvNtCsfbtA0fWH35c_18test_fuzz_internal4dirs19path_from_args_typeNtNvNtNtCs2k5fBaaxJWw_5serde15newtype_variant13target_fuzz__10write_args4ArgsE0B1c_
FN:140,_RNCINvNtCsfbtA0fWH35c_18test_fuzz_internal4dirs19path_from_args_typeNtNvNtNtCs2k5fBaaxJWw_5serde3map13target_fuzz__10write_args4ArgsE0B1c_
FN:140,_RNCINvNtCsfbtA0fWH35c_18test_fuzz_internal4dirs19path_from_args_typeNtNvNtNtCs2k5fBaaxJWw_5serde3seq13target_fuzz__10write_args4ArgsE0B1c_
FN:140,_RNCINvNtCsfbtA0fWH35c_18test_fuzz_internal4dirs19path_from_args_typeNtNvNtNtCs2k5fBaaxJWw_5serde4unit13target_fuzz__10write_args4ArgsE0B1c_
FN:140,_RNCINvNtCsfbtA0fWH35c_18test_fuzz_internal4dirs19path_from_args_typeNtNvNtNtCs2k5fBaaxJWw_5serde5tuple13target_fuzz__10write_args4ArgsE0B1c_
FN:140,_RNCINvNtCsfbtA0fWH35c_18test_fuzz_internal4dirs19path_from_args_typeNtNvNtNtCs2k5fBaaxJWw_5serde6option13target_fuzz__10write_args4ArgsE0B1c_
FN:140,_RNCINvNtCsfbtA0fWH35c_18test_fuzz_internal4dirs19path_from_args_typeNtNvNtNtCs2k5fBaaxJWw_5serde6string13target_fuzz__10write_args4ArgsE0B1c_
FN:140,_RNCINvNtCsfbtA0fWH35c_18test_fuzz_internal4dirs19path_from_args_typeNtNvNtNtCs2k5fBaaxJWw_5serde6strukt13target_fuzz__10write_args4ArgsE0B1c_
FN:136,_RINvNtCs8THTY5tYJNn_18test_fuzz_internal4dirs19path_from_args_typeNtNtNtCshaKEw7X8Hfl_5serde10byte_array13target_fuzz__4ArgsEB18_
FN:136,_RINvNtCs8THTY5tYJNn_18test_fuzz_internal4dirs19path_from_args_typeNtNtNtCshaKEw7X8Hfl_5serde11unit_struct13target_fuzz__4ArgsEB18_
FN:136,_RINvNtCs8THTY5tYJNn_18test_fuzz_internal4dirs19path_from_args_typeNtNtNtCshaKEw7X8Hfl_5serde12tuple_struct13target_fuzz__4ArgsEB18_
FN:136,_RINvNtCs8THTY5tYJNn_18test_fuzz_internal4dirs19path_from_args_typeNtNtNtCshaKEw7X8Hfl_5serde12unit_variant13target_fuzz__4ArgsEB18_
FN:136,_RINvNtCs8THTY5tYJNn_18test_fuzz_internal4dirs19path_from_args_typeNtNtNtCshaKEw7X8Hfl_5serde13tuple_variant13target_fuzz__4ArgsEB18_
FN:136,_RINvNtCs8THTY5tYJNn_18test_fuzz_internal4dirs19path_from_args_typeNtNtNtCshaKEw7X8Hfl_5serde14newtype_struct13target_fuzz__4ArgsEB18_
FN:136,_RINvNtCs8THTY5tYJNn_18test_fuzz_internal4dirs19path_from_args_typeNtNtNtCshaKEw7X8Hfl_5serde14struct_variant13target_fuzz__4ArgsEB18_
FN:136,_RINvNtCs8THTY5tYJNn_18test_fuzz_internal4dirs19path_from_args_typeNtNtNtCshaKEw7X8Hfl_5serde15newtype_variant13target_fuzz__4ArgsEB18_
FN:136,_RINvNtCs8THTY5tYJNn_18test_fuzz_internal4dirs19path_from_args_typeNtNtNtCshaKEw7X8Hfl_5serde3map13target_fuzz__4ArgsEB18_
FN:136,_RINvNtCs8THTY5tYJNn_18test_fuzz_internal4dirs19path_from_args_typeNtNtNtCshaKEw7X8Hfl_5serde3seq13target_fuzz__4ArgsEB18_
FN:136,_RINvNtCs8THTY5tYJNn_18test_fuzz_internal4dirs19path_from_args_typeNtNtNtCshaKEw7X8Hfl_5serde4unit13target_fuzz__4ArgsEB18_
FN:136,_RINvNtCs8THTY5tYJNn_18test_fuzz_internal4dirs19path_from_args_typeNtNtNtCshaKEw7X8Hfl_5serde5tuple13target_fuzz__4ArgsEB18_
FN:136,_RINvNtCs8THTY5tYJNn_18test_fuzz_internal4dirs19path_from_args_typeNtNtNtCshaKEw7X8Hfl_5serde6option13target_fuzz__4ArgsEB18_
FN:136,_RINvNtCs8THTY5tYJNn_18test_fuzz_internal4dirs19path_from_args_typeNtNtNtCshaKEw7X8Hfl_5serde6string13target_fuzz__4ArgsEB18_
FN:136,_RINvNtCs8THTY5tYJNn_18test_fuzz_internal4dirs19path_from_args_typeNtNtNtCshaKEw7X8Hfl_5serde6strukt13target_fuzz__4ArgsEB18_
FN:136,_RINvNtCs8THTY5tYJNn_18test_fuzz_internal4dirs19path_from_args_typeNtNvNtNtCshaKEw7X8Hfl_5serde10byte_array13target_fuzz__10write_args4ArgsEB1a_
FN:136,_RINvNtCs8THTY5tYJNn_18test_fuzz_internal4dirs19path_from_args_typeNtNvNtNtCshaKEw7X8Hfl_5serde11unit_struct13target_fuzz__10write_args4ArgsEB1a_
FN:136,_RINvNtCs8THTY5tYJNn_18test_fuzz_internal4dirs19path_from_args_typeNtNvNtNtCshaKEw7X8Hfl_5serde12tuple_struct13target_fuzz__10write_args4ArgsEB1a_
FN:136,_RINvNtCs8THTY5tYJNn_18test_fuzz_internal4dirs19path_from_args_typeNtNvNtNtCshaKEw7X8Hfl_5serde12unit_variant13target_fuzz__10write_args4ArgsEB1a_
FN:136,_RINvNtCs8THTY5tYJNn_18test_fuzz_internal4dirs19path_from_args_typeNtNvNtNtCshaKEw7X8Hfl_5serde13tuple_variant13target_fuzz__10write_args4ArgsEB1a_
FN:136,_RINvNtCs8THTY5tYJNn_18test_fuzz_internal4dirs19path_from_args_typeNtNvNtNtCshaKEw7X8Hfl_5serde14newtype_struct13target_fuzz__10write_args4ArgsEB1a_
FN:136,_RINvNtCs8THTY5tYJNn_18test_fuzz_internal4dirs19path_from_args_typeNtNvNtNtCshaKEw7X8Hfl_5serde14struct_variant13target_fuzz__10write_args4ArgsEB1a_
FN:136,_RINvNtCs8THTY5tYJNn_18test_fuzz_internal4dirs19path_from_args_typeNtNvNtNtCshaKEw7X8Hfl_5serde15newtype_variant13target_fuzz__10write_args4ArgsEB1a_
FN:136,_RINvNtCs8THTY5tYJNn_18test_fuzz_internal4dirs19path_from_args_typeNtNvNtNtCshaKEw7X8Hfl_5serde3map13target_fuzz__10write_args4ArgsEB1a_
FN:136,_RINvNtCs8THTY5tYJNn_18test_fuzz_internal4dirs19path_from_args_typeNtNvNtNtCshaKEw7X8Hfl_5serde3seq13target_fuzz__10write_args4ArgsEB1a_
FN:136,_RINvNtCs8THTY5tYJNn_18test_fuzz_internal4dirs19path_from_args_typeNtNvNtNtCshaKEw7X8Hfl_5serde4unit13target_fuzz__10write_args4ArgsEB1a_
FN:136,_RINvNtCs8THTY5tYJNn_18test_fuzz_internal4dirs19path_from_args_typeNtNvNtNtCshaKEw7X8Hfl_5serde5tuple13target_fuzz__10write_args4ArgsEB1a_
FN:136,_RINvNtCs8THTY5tYJNn_18test_fuzz_internal4dirs19path_from_args_typeNtNvNtNtCshaKEw7X8Hfl_5serde6option13target_fuzz__10write_args4ArgsEB1a_
FN:136,_RINvNtCs8THTY5tYJNn_18test_fuzz_internal4dirs19path_from_args_typeNtNvNtNtCshaKEw7X8Hfl_5serde6string13target_fuzz__10write_args4ArgsEB1a_
FN:136,_RINvNtCs8THTY5tYJNn_18test_fuzz_internal4dirs19path_from_args_typeNtNvNtNtCshaKEw7X8Hfl_5serde6strukt13target_fuzz__10write_args4ArgsEB1a_
FN:32,_RINvNtCs8THTY5tYJNn_18test_fuzz_internal4dirs31corpus_directory_from_args_typeNtNvNtNtCshaKEw7X8Hfl_5serde10byte_array13target_fuzz__10write_args4ArgsEB1m_
FN:32,_RINvNtCs8THTY5tYJNn_18test_fuzz_internal4dirs31corpus_directory_from_args_typeNtNvNtNtCshaKEw7X8Hfl_5serde11unit_struct13target_fuzz__10write_args4ArgsEB1m_
FN:32,_RINvNtCs8THTY5tYJNn_18test_fuzz_internal4dirs31corpus_directory_from_args_typeNtNvNtNtCshaKEw7X8Hfl_5serde12tuple_struct13target_fuzz__10write_args4ArgsEB1m_
FN:32,_RINvNtCs8THTY5tYJNn_18test_fuzz_internal4dirs31corpus_directory_from_args_typeNtNvNtNtCshaKEw7X8Hfl_5serde12unit_variant13target_fuzz__10write_args4ArgsEB1m_
FN:32,_RINvNtCs8THTY5tYJNn_18test_fuzz_internal4dirs31corpus_directory_from_args_typeNtNvNtNtCshaKEw7X8Hfl_5serde13tuple_variant13target_fuzz__10write_args4ArgsEB1m_
FN:32,_RINvNtCs8THTY5tYJNn_18test_fuzz_internal4dirs31corpus_directory_from_args_typeNtNvNtNtCshaKEw7X8Hfl_5serde14newtype_struct13target_fuzz__10write_args4ArgsEB1m_
FN:32,_RINvNtCs8THTY5tYJNn_18test_fuzz_internal4dirs31corpus_directory_from_args_typeNtNvNtNtCshaKEw7X8Hfl_5serde14struct_variant13target_fuzz__10write_args4ArgsEB1m_
FN:32,_RINvNtCs8THTY5tYJNn_18test_fuzz_internal4dirs31corpus_directory_from_args_typeNtNvNtNtCshaKEw7X8Hfl_5serde15newtype_variant13target_fuzz__10write_args4ArgsEB1m_
FN:32,_RINvNtCs8THTY5tYJNn_18test_fuzz_internal4dirs31corpus_directory_from_args_typeNtNvNtNtCshaKEw7X8Hfl_5serde3map13target_fuzz__10write_args4ArgsEB1m_
FN:32,_RINvNtCs8THTY5tYJNn_18test_fuzz_internal4dirs31corpus_directory_from_args_typeNtNvNtNtCshaKEw7X8Hfl_5serde3seq13target_fuzz__10write_args4ArgsEB1m_
FN:32,_RINvNtCs8THTY5tYJNn_18test_fuzz_internal4dirs31corpus_directory_from_args_typeNtNvNtNtCshaKEw7X8Hfl_5serde4unit13target_fuzz__10write_args4ArgsEB1m_
FN:32,_RINvNtCs8THTY5tYJNn_18test_fuzz_internal4dirs31corpus_directory_from_args_typeNtNvNtNtCshaKEw7X8Hfl_5serde5tuple13target_fuzz__10write_args4ArgsEB1m_
FN:32,_RINvNtCs8THTY5tYJNn_18test_fuzz_internal4dirs31corpus_directory_from_args_typeNtNvNtNtCshaKEw7X8Hfl_5serde6option13target_fuzz__10write_args4ArgsEB1m_
FN:32,_RINvNtCs8THTY5tYJNn_18test_fuzz_internal4dirs31corpus_directory_from_args_typeNtNvNtNtCshaKEw7X8Hfl_5serde6string13target_fuzz__10write_args4ArgsEB1m_
FN:32,_RINvNtCs8THTY5tYJNn_18test_fuzz_internal4dirs31corpus_directory_from_args_typeNtNvNtNtCshaKEw7X8Hfl_5serde6strukt13target_fuzz__10write_args4ArgsEB1m_
FN:22,_RINvNtCs8THTY5tYJNn_18test_fuzz_internal4dirs37generic_args_directory_from_args_typeNtNtNtCshaKEw7X8Hfl_5serde10byte_array13target_fuzz__4ArgsEB1q_
FN:22,_RINvNtCs8THTY5tYJNn_18test_fuzz_internal4dirs37generic_args_directory_from_args_typeNtNtNtCshaKEw7X8Hfl_5serde11unit_struct13target_fuzz__4ArgsEB1q_
FN:22,_RINvNtCs8THTY5tYJNn_18test_fuzz_internal4dirs37generic_args_directory_from_args_typeNtNtNtCshaKEw7X8Hfl_5serde12tuple_struct13target_fuzz__4ArgsEB1q_
FN:22,_RINvNtCs8THTY5tYJNn_18test_fuzz_internal4dirs37generic_args_directory_from_args_typeNtNtNtCshaKEw7X8Hfl_5serde12unit_variant13target_fuzz__4ArgsEB1q_
FN:22,_RINvNtCs8THTY5tYJNn_18test_fuzz_internal4dirs37generic_args_directory_from_args_typeNtNtNtCshaKEw7X8Hfl_5serde13tuple_variant13target_fuzz__4ArgsEB1q_
FN:22,_RINvNtCs8THTY5tYJNn_18test_fuzz_internal4dirs37generic_args_directory_from_args_typeNtNtNtCshaKEw7X8Hfl_5serde14newtype_struct13target_fuzz__4ArgsEB1q_
FN:22,_RINvNtCs8THTY5tYJNn_18test_fuzz_internal4dirs37generic_args_directory_from_args_typeNtNtNtCshaKEw7X8Hfl_5serde14struct_variant13target_fuzz__4ArgsEB1q_
FN:22,_RINvNtCs8THTY5tYJNn_18test_fuzz_internal4dirs37generic_args_directory_from_args_typeNtNtNtCshaKEw7X8Hfl_5serde15newtype_variant13target_fuzz__4ArgsEB1q_
FN:22,_RINvNtCs8THTY5tYJNn_18test_fuzz_internal4dirs37generic_args_directory_from_args_typeNtNtNtCshaKEw7X8Hfl_5serde3map13target_fuzz__4ArgsEB1q_
FN:22,_RINvNtCs8THTY5tYJNn_18test_fuzz_internal4dirs37generic_args_directory_from_args_typeNtNtNtCshaKEw7X8Hfl_5serde3seq13target_fuzz__4ArgsEB1q_
FN:22,_RINvNtCs8THTY5tYJNn_18test_fuzz_internal4dirs37generic_args_directory_from_args_typeNtNtNtCshaKEw7X8Hfl_5serde4unit13target_fuzz__4ArgsEB1q_
FN:22,_RINvNtCs8THTY5tYJNn_18test_fuzz_internal4dirs37generic_args_directory_from_args_typeNtNtNtCshaKEw7X8Hfl_5serde5tuple13target_fuzz__4ArgsEB1q_
FN:22,_RINvNtCs8THTY5tYJNn_18test_fuzz_internal4dirs37generic_args_directory_from_args_typeNtNtNtCshaKEw7X8Hfl_5serde6option13target_fuzz__4ArgsEB1q_
FN:22,_RINvNtCs8THTY5tYJNn_18test_fuzz_internal4dirs37generic_args_directory_from_args_typeNtNtNtCshaKEw7X8Hfl_5serde6string13target_fuzz__4ArgsEB1q_
FN:22,_RINvNtCs8THTY5tYJNn_18test_fuzz_internal4dirs37generic_args_directory_from_args_typeNtNtNtCshaKEw7X8Hfl_5serde6strukt13target_fuzz__4ArgsEB1q_
FN:12,_RINvNtCs8THTY5tYJNn_18test_fuzz_internal4dirs42impl_generic_args_directory_from_args_typeNtNtNtCshaKEw7X8Hfl_5serde10byte_array13target_fuzz__4ArgsEB1v_
FN:12,_RINvNtCs8THTY5tYJNn_18test_fuzz_internal4dirs42impl_generic_args_directory_from_args_typeNtNtNtCshaKEw7X8Hfl_5serde11unit_struct13target_fuzz__4ArgsEB1v_
FN:12,_RINvNtCs8THTY5tYJNn_18test_fuzz_internal4dirs42impl_generic_args_directory_from_args_typeNtNtNtCshaKEw7X8Hfl_5serde12tuple_struct13target_fuzz__4ArgsEB1v_
FN:12,_RINvNtCs8THTY5tYJNn_18test_fuzz_internal4dirs42impl_generic_args_directory_from_args_typeNtNtNtCshaKEw7X8Hfl_5serde12unit_variant13target_fuzz__4ArgsEB1v_
FN:12,_RINvNtCs8THTY5tYJNn_18test_fuzz_internal4dirs42impl_generic_args_directory_from_args_typeNtNtNtCshaKEw7X8Hfl_5serde13tuple_variant13target_fuzz__4ArgsEB1v_
FN:12,_RINvNtCs8THTY5tYJNn_18test_fuzz_internal4dirs42impl_generic_args_directory_from_args_typeNtNtNtCshaKEw7X8Hfl_5serde14newtype_struct13target_fuzz__4ArgsEB1v_
FN:12,_RINvNtCs8THTY5tYJNn_18test_fuzz_internal4dirs42impl_generic_args_directory_from_args_typeNtNtNtCshaKEw7X8Hfl_5serde14struct_variant13target_fuzz__4ArgsEB1v_
FN:12,_RINvNtCs8THTY5tYJNn_18test_fuzz_internal4dirs42impl_generic_args_directory_from_args_typeNtNtNtCshaKEw7X8Hfl_5serde15newtype_variant13target_fuzz__4ArgsEB1v_
FN:12,_RINvNtCs8THTY5tYJNn_18test_fuzz_internal4dirs42impl_generic_args_directory_from_args_typeNtNtNtCshaKEw7X8Hfl_5serde3map13target_fuzz__4ArgsEB1v_
FN:12,_RINvNtCs8THTY5tYJNn_18test_fuzz_internal4dirs42impl_generic_args_directory_from_args_typeNtNtNtCshaKEw7X8Hfl_5serde3seq13target_fuzz__4ArgsEB1v_
FN:12,_RINvNtCs8THTY5tYJNn_18test_fuzz_internal4dirs42impl_generic_args_directory_from_args_typeNtNtNtCshaKEw7X8Hfl_5serde4unit13target_fuzz__4ArgsEB1v_
FN:12,_RINvNtCs8THTY5tYJNn_18test_fuzz_internal4dirs42impl_generic_args_directory_from_args_typeNtNtNtCshaKEw7X8Hfl_5serde5tuple13target_fuzz__4ArgsEB1v_
FN:12,_RINvNtCs8THTY5tYJNn_18test_fuzz_internal4dirs42impl_generic_args_directory_from_args_typeNtNtNtCshaKEw7X8Hfl_5serde6option13target_fuzz__4ArgsEB1v_
FN:12,_RINvNtCs8THTY5tYJNn_18test_fuzz_internal4dirs42impl_generic_args_directory_from_args_typeNtNtNtCshaKEw7X8Hfl_5serde6string13target_fuzz__4ArgsEB1v_
FN:12,_RINvNtCs8THTY5tYJNn_18test_fuzz_internal4dirs42impl_generic_args_directory_from_args_typeNtNtNtCshaKEw7X8Hfl_5serde6strukt13target_fuzz__4ArgsEB1v_
FN:140,_RNCINvNtCs8THTY5tYJNn_18test_fuzz_internal4dirs19path_from_args_typeNtNtNtCshaKEw7X8Hfl_5serde10byte_array13target_fuzz__4ArgsE0B1a_
FN:140,_RNCINvNtCs8THTY5tYJNn_18test_fuzz_internal4dirs19path_from_args_typeNtNtNtCshaKEw7X8Hfl_5serde11unit_struct13target_fuzz__4ArgsE0B1a_
FN:140,_RNCINvNtCs8THTY5tYJNn_18test_fuzz_internal4dirs19path_from_args_typeNtNtNtCshaKEw7X8Hfl_5serde12tuple_struct13target_fuzz__4ArgsE0B1a_
FN:140,_RNCINvNtCs8THTY5tYJNn_18test_fuzz_internal4dirs19path_from_args_typeNtNtNtCshaKEw7X8Hfl_5serde12unit_variant13target_fuzz__4ArgsE0B1a_
FN:140,_RNCINvNtCs8THTY5tYJNn_18test_fuzz_internal4dirs19path_from_args_typeNtNtNtCshaKEw7X8Hfl_5serde13tuple_variant13target_fuzz__4ArgsE0B1a_
FN:140,_RNCINvNtCs8THTY5tYJNn_18test_fuzz_internal4dirs19path_from_args_typeNtNtNtCshaKEw7X8Hfl_5serde14newtype_struct13target_fuzz__4ArgsE0B1a_
FN:140,_RNCINvNtCs8THTY5tYJNn_18test_fuzz_internal4dirs19path_from_args_typeNtNtNtCshaKEw7X8Hfl_5serde14struct_variant13target_fuzz__4ArgsE0B1a_
FN:140,_RNCINvNtCs8THTY5tYJNn_18test_fuzz_internal4dirs19path_from_args_typeNtNtNtCshaKEw7X8Hfl_5serde15newtype_variant13target_fuzz__4ArgsE0B1a_
FN:140,_RNCINvNtCs8THTY5tYJNn_18test_fuzz_internal4dirs19path_from_args_typeNtNtNtCshaKEw7X8Hfl_5serde3map13target_fuzz__4ArgsE0B1a_
FN:140,_RNCINvNtCs8THTY5tYJNn_18test_fuzz_internal4dirs19path_from_args_typeNtNtNtCshaKEw7X8Hfl_5serde3seq13target_fuzz__4ArgsE0B1a_
FN:140,_RNCINvNtCs8THTY5tYJNn_18test_fuzz_internal4dirs19path_from_args_typeNtNtNtCshaKEw7X8Hfl_5serde4unit13target_fuzz__4ArgsE0B1a_
FN:140,_RNCINvNtCs8THTY5tYJNn_18test_fuzz_internal4dirs19path_from_args_typeNtNtNtCshaKEw7X8Hfl_5serde5tuple13target_fuzz__4ArgsE0B1a_
FN:140,_RNCINvNtCs8THTY5tYJNn_18test_fuzz_internal4dirs19path_from_args_typeNtNtNtCshaKEw7X8Hfl_5serde6option13target_fuzz__4ArgsE0B1a_
FN:140,_RNCINvNtCs8THTY5tYJNn_18test_fuzz_internal4dirs19path_from_args_typeNtNtNtCshaKEw7X8Hfl_5serde6string13target_fuzz__4ArgsE0B1a_
FN:140,_RNCINvNtCs8THTY5tYJNn_18test_fuzz_internal4dirs19path_from_args_typeNtNtNtCshaKEw7X8Hfl_5serde6strukt13target_fuzz__4ArgsE0B1a_
FN:140,_RNCINvNtCs8THTY5tYJNn_18test_fuzz_internal4dirs19path_from_args_typeNtNvNtNtCshaKEw7X8Hfl_5serde10byte_array13target_fuzz__10write_args4ArgsE0B1c_
FN:140,_RNCINvNtCs8THTY5tYJNn_18test_fuzz_internal4dirs19path_from_args_typeNtNvNtNtCshaKEw7X8Hfl_5serde11unit_struct13target_fuzz__10write_args4ArgsE0B1c_
FN:140,_RNCINvNtCs8THTY5tYJNn_18test_fuzz_internal4dirs19path_from_args_typeNtNvNtNtCshaKEw7X8Hfl_5serde12tuple_struct13target_fuzz__10write_args4ArgsE0B1c_
FN:140,_RNCINvNtCs8THTY5tYJNn_18test_fuzz_internal4dirs19path_from_args_typeNtNvNtNtCshaKEw7X8Hfl_5serde12unit_variant13target_fuzz__10write_args4ArgsE0B1c_
FN:140,_RNCINvNtCs8THTY5tYJNn_18test_fuzz_internal4dirs19path_from_args_typeNtNvNtNtCshaKEw7X8Hfl_5serde13tuple_variant13target_fuzz__10write_args4ArgsE0B1c_
FN:140,_RNCINvNtCs8THTY5tYJNn_18test_fuzz_internal4dirs19path_from_args_typeNtNvNtNtCshaKEw7X8Hfl_5serde14newtype_struct13target_fuzz__10write_args4ArgsE0B1c_
FN:140,_RNCINvNtCs8THTY5tYJNn_18test_fuzz_internal4dirs19path_from_args_typeNtNvNtNtCshaKEw7X8Hfl_5serde14struct_variant13target_fuzz__10write_args4ArgsE0B1c_
FN:140,_RNCINvNtCs8THTY5tYJNn_18test_fuzz_internal4dirs19path_from_args_typeNtNvNtNtCshaKEw7X8Hfl_5serde15newtype_variant13target_fuzz__10write_args4ArgsE0B1c_
FN:140,_RNCINvNtCs8THTY5tYJNn_18test_fuzz_internal4dirs19path_from_args_typeNtNvNtNtCshaKEw7X8Hfl_5serde3map13target_fuzz__10write_args4ArgsE0B1c_
FN:140,_RNCINvNtCs8THTY5tYJNn_18test_fuzz_internal4dirs19path_from_args_typeNtNvNtNtCshaKEw7X8Hfl_5serde3seq13target_fuzz__10write_args4ArgsE0B1c_
FN:140,_RNCINvNtCs8THTY5tYJNn_18test_fuzz_internal4dirs19path_from_args_typeNtNvNtNtCshaKEw7X8Hfl_5serde4unit13target_fuzz__10write_args4ArgsE0B1c_
FN:140,_RNCINvNtCs8THTY5tYJNn_18test_fuzz_internal4dirs19path_from_args_typeNtNvNtNtCshaKEw7X8Hfl_5serde5tuple13target_fuzz__10write_args4ArgsE0B1c_
FN:140,_RNCINvNtCs8THTY5tYJNn_18test_fuzz_internal4dirs19path_from_args_typeNtNvNtNtCshaKEw7X8Hfl_5serde6option13target_fuzz__10write_args4ArgsE0B1c_
FN:140,_RNCINvNtCs8THTY5tYJNn_18test_fuzz_internal4dirs19path_from_args_typeNtNvNtNtCshaKEw7X8Hfl_5serde6string13target_fuzz__10write_args4ArgsE0B1c_
FN:140,_RNCINvNtCs8THTY5tYJNn_18test_fuzz_internal4dirs19path_from_args_typeNtNvNtNtCshaKEw7X8Hfl_5serde6strukt13target_fuzz__10write_args4ArgsE0B1c_
FN:136,_RINvNtCs8THTY5tYJNn_18test_fuzz_internal4dirs19path_from_args_typeNtNtCscvb0eOkB4Vu_10serde_attr13target_fuzz__4ArgsEB16_
FN:136,_RINvNtCs8THTY5tYJNn_18test_fuzz_internal4dirs19path_from_args_typeNtNvNtCscvb0eOkB4Vu_10serde_attr13target_fuzz__10write_args4ArgsEB18_
FN:32,_RINvNtCs8THTY5tYJNn_18test_fuzz_internal4dirs31corpus_directory_from_args_typeNtNvNtCscvb0eOkB4Vu_10serde_attr13target_fuzz__10write_args4ArgsEB1k_
FN:22,_RINvNtCs8THTY5tYJNn_18test_fuzz_internal4dirs37generic_args_directory_from_args_typeNtNtCscvb0eOkB4Vu_10serde_attr13target_fuzz__4ArgsEB1o_
FN:12,_RINvNtCs8THTY5tYJNn_18test_fuzz_internal4dirs42impl_generic_args_directory_from_args_typeNtNtCscvb0eOkB4Vu_10serde_attr13target_fuzz__4ArgsEB1t_
FN:140,_RNCINvNtCs8THTY5tYJNn_18test_fuzz_internal4dirs19path_from_args_typeNtNtCscvb0eOkB4Vu_10serde_attr13target_fuzz__4ArgsE0B18_
FN:140,_RNCINvNtCs8THTY5tYJNn_18test_fuzz_internal4dirs19path_from_args_typeNtNvNtCscvb0eOkB4Vu_10serde_attr13target_fuzz__10write_args4ArgsE0B1a_
FN:136,_RINvNtCs8THTY5tYJNn_18test_fuzz_internal4dirs19path_from_args_typeNtNtCslMUiMMXt5So_14test_fuzz_impl17struct_bar_fuzz__4ArgsEB16_
FN:136,_RINvNtCs8THTY5tYJNn_18test_fuzz_internal4dirs19path_from_args_typeNtNtCslMUiMMXt5So_14test_fuzz_impl17struct_foo_fuzz__4ArgsEB16_
FN:136,_RINvNtCs8THTY5tYJNn_18test_fuzz_internal4dirs19path_from_args_typeNtNvNtCslMUiMMXt5So_14test_fuzz_impl17struct_bar_fuzz__10write_args4ArgsEB18_
FN:136,_RINvNtCs8THTY5tYJNn_18test_fuzz_internal4dirs19path_from_args_typeNtNvNtCslMUiMMXt5So_14test_fuzz_impl17struct_foo_fuzz__10write_args4ArgsEB18_
FN:32,_RINvNtCs8THTY5tYJNn_18test_fuzz_internal4dirs31corpus_directory_from_args_typeNtNvNtCslMUiMMXt5So_14test_fuzz_impl17struct_bar_fuzz__10write_args4ArgsEB1k_
FN:32,_RINvNtCs8THTY5tYJNn_18test_fuzz_internal4dirs31corpus_directory_from_args_typeNtNvNtCslMUiMMXt5So_14test_fuzz_impl17struct_foo_fuzz__10write_args4ArgsEB1k_
FN:22,_RINvNtCs8THTY5tYJNn_18test_fuzz_internal4dirs37generic_args_directory_from_args_typeNtNtCslMUiMMXt5So_14test_fuzz_impl17struct_bar_fuzz__4ArgsEB1o_
FN:22,_RINvNtCs8THTY5tYJNn_18test_fuzz_internal4dirs37generic_args_directory_from_args_typeNtNtCslMUiMMXt5So_14test_fuzz_impl17struct_foo_fuzz__4ArgsEB1o_
FN:12,_RINvNtCs8THTY5tYJNn_18test_fuzz_internal4dirs42impl_generic_args_directory_from_args_typeNtNtCslMUiMMXt5So_14test_fuzz_impl17struct_bar_fuzz__4ArgsEB1t_
FN:12,_RINvNtCs8THTY5tYJNn_18test_fuzz_internal4dirs42impl_generic_args_directory_from_args_typeNtNtCslMUiMMXt5So_14test_fuzz_impl17struct_foo_fuzz__4ArgsEB1t_
FN:140,_RNCINvNtCs8THTY5tYJNn_18test_fuzz_internal4dirs19path_from_args_typeNtNtCslMUiMMXt5So_14test_fuzz_impl17struct_bar_fuzz__4ArgsE0B18_
FN:140,_RNCINvNtCs8THTY5tYJNn_18test_fuzz_internal4dirs19path_from_args_typeNtNtCslMUiMMXt5So_14test_fuzz_impl17struct_foo_fuzz__4ArgsE0B18_
FN:140,_RNCINvNtCs8THTY5tYJNn_18test_fuzz_internal4dirs19path_from_args_typeNtNvNtCslMUiMMXt5So_14test_fuzz_impl17struct_bar_fuzz__10write_args4ArgsE0B1a_
FN:140,_RNCINvNtCs8THTY5tYJNn_18test_fuzz_internal4dirs19path_from_args_typeNtNvNtCslMUiMMXt5So_14test_fuzz_impl17struct_foo_fuzz__10write_args4ArgsE0B1a_
FN:136,_RINvNtCs8THTY5tYJNn_18test_fuzz_internal4dirs19path_from_args_typeNtNtCs4g3YnoTPLYz_7unserde13target_fuzz__4ArgsEB16_
FN:136,_RINvNtCs8THTY5tYJNn_18test_fuzz_internal4dirs19path_from_args_typeNtNtCs4g3YnoTPLYz_7unserde27target_in_production_fuzz__4ArgsEB16_
FN:22,_RINvNtCs8THTY5tYJNn_18test_fuzz_internal4dirs37generic_args_directory_from_args_typeNtNtCs4g3YnoTPLYz_7unserde13target_fuzz__4ArgsEB1o_
FN:22,_RINvNtCs8THTY5tYJNn_18test_fuzz_internal4dirs37generic_args_directory_from_args_typeNtNtCs4g3YnoTPLYz_7unserde27target_in_production_fuzz__4ArgsEB1o_
FN:12,_RINvNtCs8THTY5tYJNn_18test_fuzz_internal4dirs42impl_generic_args_directory_from_args_typeNtNtCs4g3YnoTPLYz_7unserde13target_fuzz__4ArgsEB1t_
FN:12,_RINvNtCs8THTY5tYJNn_18test_fuzz_internal4dirs42impl_generic_args_directory_from_args_typeNtNtCs4g3YnoTPLYz_7unserde27target_in_production_fuzz__4ArgsEB1t_
FN:140,_RNCINvNtCs8THTY5tYJNn_18test_fuzz_internal4dirs19path_from_args_typeNtNtCs4g3YnoTPLYz_7unserde13target_fuzz__4ArgsE0B18_
FN:140,_RNCINvNtCs8THTY5tYJNn_18test_fuzz_internal4dirs19path_from_args_typeNtNtCs4g3YnoTPLYz_7unserde27target_in_production_fuzz__4ArgsE0B18_
FNDA:0,_RINvNtCs8THTY5tYJNn_18test_fuzz_internal4dirs19path_from_args_typeNtNtCse8wYCkBeBvO_5alloc13target_fuzz__4ArgsEB16_
FNDA:0,_RINvNtCs8THTY5tYJNn_18test_fuzz_internal4dirs19path_from_args_typeNtNvNtCse8wYCkBeBvO_5alloc13target_fuzz__10write_args4ArgsEB18_
FNDA:0,_RINvNtCs8THTY5tYJNn_18test_fuzz_internal4dirs31corpus_directory_from_args_typeNtNvNtCse8wYCkBeBvO_5alloc13target_fuzz__10write_args4ArgsEB1k_
FNDA:0,_RINvNtCs8THTY5tYJNn_18test_fuzz_internal4dirs37generic_args_directory_from_args_typeNtNtCse8wYCkBeBvO_5alloc13target_fuzz__4ArgsEB1o_
FNDA:0,_RINvNtCs8THTY5tYJNn_18test_fuzz_internal4dirs42impl_generic_args_directory_from_args_typeNtNtCse8wYCkBeBvO_5alloc13target_fuzz__4ArgsEB1t_
FNDA:0,_RNCINvNtCs8THTY5tYJNn_18test_fuzz_internal4dirs19path_from_args_typeNtNtCse8wYCkBeBvO_5alloc13target_fuzz__4ArgsE0B18_
FNDA:0,_RNCINvNtCs8THTY5tYJNn_18test_fuzz_internal4dirs19path_from_args_typeNtNvNtCse8wYCkBeBvO_5alloc13target_fuzz__10write_args4ArgsE0B1a_
FNDA:0,_RNvNtCs8THTY5tYJNn_18test_fuzz_internal4dirs12path_segment
FNDA:0,_RNvNtCs8THTY5tYJNn_18test_fuzz_internal4dirs14workspace_root
FNDA:0,_RNvNtCs8THTY5tYJNn_18test_fuzz_internal4dirs16corpus_directory
FNDA:0,_RNvNtCs8THTY5tYJNn_18test_fuzz_internal4dirs16output_directory
FNDA:0,_RNvNtCs8THTY5tYJNn_18test_fuzz_internal4dirs16path_from_target
FNDA:0,_RNvNtCs8THTY5tYJNn_18test_fuzz_internal4dirs16target_directory
FNDA:0,_RNvNtCs8THTY5tYJNn_18test_fuzz_internal4dirs22generic_args_directory
FNDA:0,_RNvNtCs8THTY5tYJNn_18test_fuzz_internal4dirs27hangs_directory_from_target
FNDA:0,_RNvNtCs8THTY5tYJNn_18test_fuzz_internal4dirs27impl_generic_args_directory
FNDA:0,_RNvNtCs8THTY5tYJNn_18test_fuzz_internal4dirs27queue_directory_from_target
FNDA:0,_RNvNtCs8THTY5tYJNn_18test_fuzz_internal4dirs28corpus_directory_from_target
FNDA:0,_RNvNtCs8THTY5tYJNn_18test_fuzz_internal4dirs28output_directory_from_target
FNDA:0,_RNvNtCs8THTY5tYJNn_18test_fuzz_internal4dirs29crashes_directory_from_target
FNDA:0,_RNvNtCs8THTY5tYJNn_18test_fuzz_internal4dirs34generic_args_directory_from_target
FNDA:0,_RNvNtCs8THTY5tYJNn_18test_fuzz_internal4dirs39impl_generic_args_directory_from_target
FNDA:0,_RNvNtCs8THTY5tYJNn_18test_fuzz_internal4dirs8maybe_id
FNDA:0,_RNvNtCs8THTY5tYJNn_18test_fuzz_internal4dirs9thread_id
FNDA:0,_RNvNtCs8THTY5tYJNn_18test_fuzz_internal4dirs9workspace
FNDA:0,_RNCNvNtCs8THTY5tYJNn_18test_fuzz_internal4dirs8maybe_id0B5_
FNDA:0,_RINvNtCs8THTY5tYJNn_18test_fuzz_internal4dirs19path_from_args_typepEB4_
FNDA:0,_RINvNtCs8THTY5tYJNn_18test_fuzz_internal4dirs31corpus_directory_from_args_typepEB4_
FNDA:0,_RINvNtCs8THTY5tYJNn_18test_fuzz_internal4dirs37generic_args_directory_from_args_typepEB4_
FNDA:0,_RINvNtCs8THTY5tYJNn_18test_fuzz_internal4dirs42impl_generic_args_directory_from_args_typepEB4_
FNDA:0,_RNCINvNtCs8THTY5tYJNn_18test_fuzz_internal4dirs19path_from_args_typepE0B6_
FNDA:0,_RINvNtCs8THTY5tYJNn_18test_fuzz_internal4dirs19path_from_args_typeNtNtCskAhiz3iLhgB_3arc13target_fuzz__4ArgsEB16_
FNDA:0,_RINvNtCs8THTY5tYJNn_18test_fuzz_internal4dirs19path_from_args_typeNtNvNtCskAhiz3iLhgB_3arc13target_fuzz__10write_args4ArgsEB18_
FNDA:0,_RINvNtCs8THTY5tYJNn_18test_fuzz_internal4dirs31corpus_directory_from_args_typeNtNvNtCskAhiz3iLhgB_3arc13target_fuzz__10write_args4ArgsEB1k_
FNDA:0,_RINvNtCs8THTY5tYJNn_18test_fuzz_internal4dirs37generic_args_directory_from_args_typeNtNtCskAhiz3iLhgB_3arc13target_fuzz__4ArgsEB1o_
FNDA:0,_RINvNtCs8THTY5tYJNn_18test_fuzz_internal4dirs42impl_generic_args_directory_from_args_typeNtNtCskAhiz3iLhgB_3arc13target_fuzz__4ArgsEB1t_
FNDA:0,_RNCINvNtCs8THTY5tYJNn_18test_fuzz_internal4dirs19path_from_args_typeNtNtCskAhiz3iLhgB_3arc13target_fuzz__4ArgsE0B18_
FNDA:0,_RNCINvNtCs8THTY5tYJNn_18test_fuzz_internal4dirs19path_from_args_typeNtNvNtCskAhiz3iLhgB_3arc13target_fuzz__10write_args4ArgsE0B1a_
FNDA:0,_RINvNtCs8THTY5tYJNn_18test_fuzz_internal4dirs19path_from_args_typeNtNtCs3NEe1ZjCvxW_6assert13target_fuzz__4ArgsEB16_
FNDA:0,_RINvNtCs8THTY5tYJNn_18test_fuzz_internal4dirs19path_from_args_typeNtNvNtCs3NEe1ZjCvxW_6assert13target_fuzz__10write_args4ArgsEB18_
FNDA:0,_RINvNtCs8THTY5tYJNn_18test_fuzz_internal4dirs31corpus_directory_from_args_typeNtNvNtCs3NEe1ZjCvxW_6assert13target_fuzz__10write_args4ArgsEB1k_
FNDA:0,_RINvNtCs8THTY5tYJNn_18test_fuzz_internal4dirs37generic_args_directory_from_args_typeNtNtCs3NEe1ZjCvxW_6assert13target_fuzz__4ArgsEB1o_
FNDA:0,_RINvNtCs8THTY5tYJNn_18test_fuzz_internal4dirs42impl_generic_args_directory_from_args_typeNtNtCs3NEe1ZjCvxW_6assert13target_fuzz__4ArgsEB1t_
FNDA:0,_RNCINvNtCs8THTY5tYJNn_18test_fuzz_internal4dirs19path_from_args_typeNtNtCs3NEe1ZjCvxW_6assert13target_fuzz__4ArgsE0B18_
FNDA:0,_RNCINvNtCs8THTY5tYJNn_18test_fuzz_internal4dirs19path_from_args_typeNtNvNtCs3NEe1ZjCvxW_6assert13target_fuzz__10write_args4ArgsE0B1a_
FNDA:0,_RINvNtCs8THTY5tYJNn_18test_fuzz_internal4dirs19path_from_args_typeINtNtCs6B4TSC9eIAl_15associated_type20serializes_to_fuzz__4ArgsNtB17_7AddressEEB17_
FNDA:0,_RINvNtCs8THTY5tYJNn_18test_fuzz_internal4dirs19path_from_args_typeINtNvNtCs6B4TSC9eIAl_15associated_type20serializes_to_fuzz__10write_args4ArgsNtB19_7AddressEEB19_
FNDA:0,_RINvNtCs8THTY5tYJNn_18test_fuzz_internal4dirs31corpus_directory_from_args_typeINtNvNtCs6B4TSC9eIAl_15associated_type20serializes_to_fuzz__10write_args4ArgsNtB1l_7AddressEEB1l_
FNDA:0,_RINvNtCs8THTY5tYJNn_18test_fuzz_internal4dirs37generic_args_directory_from_args_typeINtNtCs6B4TSC9eIAl_15associated_type20serializes_to_fuzz__4ArgsNtB1p_7AddressEEB1p_
FNDA:0,_RINvNtCs8THTY5tYJNn_18test_fuzz_internal4dirs42impl_generic_args_directory_from_args_typeINtNtCs6B4TSC9eIAl_15associated_type20serializes_to_fuzz__4ArgsNtB1u_7AddressEEB1u_
FNDA:0,_RNCINvNtCs8THTY5tYJNn_18test_fuzz_internal4dirs19path_from_args_typeINtNtCs6B4TSC9eIAl_15associated_type20serializes_to_fuzz__4ArgsNtB19_7AddressEE0B19_
FNDA:0,_RNCINvNtCs8THTY5tYJNn_18test_fuzz_internal4dirs19path_from_args_typeINtNvNtCs6B4TSC9eIAl_15associated_type20serializes_to_fuzz__10write_args4ArgsNtB1b_7AddressEE0B1b_
FNDA:0,_RINvNtCs8THTY5tYJNn_18test_fuzz_internal4dirs19path_from_args_typeNtNtNtCsgYSNy1dwfGS_13auto_generate6signed13target_fuzz__4ArgsEB18_
FNDA:0,_RINvNtCs8THTY5tYJNn_18test_fuzz_internal4dirs19path_from_args_typeNtNtNtCsgYSNy1dwfGS_13auto_generate8unsigned13target_fuzz__4ArgsEB18_
FNDA:0,_RINvNtCs8THTY5tYJNn_18test_fuzz_internal4dirs19path_from_args_typeNtNvNtNtCsgYSNy1dwfGS_13auto_generate6signed13target_fuzz__10write_args4ArgsEB1a_
FNDA:0,_RINvNtCs8THTY5tYJNn_18test_fuzz_internal4dirs19path_from_args_typeNtNvNtNtCsgYSNy1dwfGS_13auto_generate8unsigned13target_fuzz__10write_args4ArgsEB1a_
FNDA:0,_RINvNtCs8THTY5tYJNn_18test_fuzz_internal4dirs31corpus_directory_from_args_typeNtNvNtNtCsgYSNy1dwfGS_13auto_generate6signed13target_fuzz__10write_args4ArgsEB1m_
FNDA:0,_RINvNtCs8THTY5tYJNn_18test_fuzz_internal4dirs31corpus_directory_from_args_typeNtNvNtNtCsgYSNy1dwfGS_13auto_generate8unsigned13target_fuzz__10write_args4ArgsEB1m_
FNDA:0,_RINvNtCs8THTY5tYJNn_18test_fuzz_internal4dirs37generic_args_directory_from_args_typeNtNtNtCsgYSNy1dwfGS_13auto_generate6signed13target_fuzz__4ArgsEB1q_
FNDA:0,_RINvNtCs8THTY5tYJNn_18test_fuzz_internal4dirs37generic_args_directory_from_args_typeNtNtNtCsgYSNy1dwfGS_13auto_generate8unsigned13target_fuzz__4ArgsEB1q_
FNDA:0,_RINvNtCs8THTY5tYJNn_18test_fuzz_internal4dirs42impl_generic_args_directory_from_args_typeNtNtNtCsgYSNy1dwfGS_13auto_generate6signed13target_fuzz__4ArgsEB1v_
FNDA:0,_RINvNtCs8THTY5tYJNn_18test_fuzz_internal4dirs42impl_generic_args_directory_from_args_typeNtNtNtCsgYSNy1dwfGS_13auto_generate8unsigned13target_fuzz__4ArgsEB1v_
FNDA:0,_RNCINvNtCs8THTY5tYJNn_18test_fuzz_internal4dirs19path_from_args_typeNtNtNtCsgYSNy1dwfGS_13auto_generate6signed13target_fuzz__4ArgsE0B1a_
FNDA:0,_RNCINvNtCs8THTY5tYJNn_18test_fuzz_internal4dirs19path_from_args_typeNtNtNtCsgYSNy1dwfGS_13auto_generate8unsigned13target_fuzz__4ArgsE0B1a_
FNDA:0,_RNCINvNtCs8THTY5tYJNn_18test_fuzz_internal4dirs19path_from_args_typeNtNvNtNtCsgYSNy1dwfGS_13auto_generate6signed13target_fuzz__10write_args4ArgsE0B1c_
FNDA:0,_RNCINvNtCs8THTY5tYJNn_18test_fuzz_internal4dirs19path_from_args_typeNtNvNtNtCsgYSNy1dwfGS_13auto_generate8unsigned13target_fuzz__10write_args4ArgsE0B1c_
FNDA:0,_RINvNtCs8THTY5tYJNn_18test_fuzz_internal4dirs19path_from_args_typeNtNtCsc7oPBiV8Upo_16calm_and_panicky11calm_fuzz__4ArgsEB16_
FNDA:0,_RINvNtCs8THTY5tYJNn_18test_fuzz_internal4dirs19path_from_args_typeNtNtCsc7oPBiV8Upo_16calm_and_panicky14panicky_fuzz__4ArgsEB16_
FNDA:0,_RINvNtCs8THTY5tYJNn_18test_fuzz_internal4dirs19path_from_args_typeNtNvNtCsc7oPBiV8Upo_16calm_and_panicky11calm_fuzz__10write_args4ArgsEB18_
FNDA:0,_RINvNtCs8THTY5tYJNn_18test_fuzz_internal4dirs19path_from_args_typeNtNvNtCsc7oPBiV8Upo_16calm_and_panicky14panicky_fuzz__10write_args4ArgsEB18_
FNDA:0,_RINvNtCs8THTY5tYJNn_18test_fuzz_internal4dirs31corpus_directory_from_args_typeNtNvNtCsc7oPBiV8Upo_16calm_and_panicky11calm_fuzz__10write_args4ArgsEB1k_
FNDA:0,_RINvNtCs8THTY5tYJNn_18test_fuzz_internal4dirs31corpus_directory_from_args_typeNtNvNtCsc7oPBiV8Upo_16calm_and_panicky14panicky_fuzz__10write_args4ArgsEB1k_
FNDA:0,_RINvNtCs8THTY5tYJNn_18test_fuzz_internal4dirs37generic_args_directory_from_args_typeNtNtCsc7oPBiV8Upo_16calm_and_panicky11calm_fuzz__4ArgsEB1o_
FNDA:0,_RINvNtCs8THTY5tYJNn_18test_fuzz_internal4dirs37generic_args_directory_from_args_typeNtNtCsc7oPBiV8Upo_16calm_and_panicky14panicky_fuzz__4ArgsEB1o_
FNDA:0,_RINvNtCs8THTY5tYJNn_18test_fuzz_internal4dirs42impl_generic_args_directory_from_args_typeNtNtCsc7oPBiV8Upo_16calm_and_panicky11calm_fuzz__4ArgsEB1t_
FNDA:0,_RINvNtCs8THTY5tYJNn_18test_fuzz_internal4dirs42impl_generic_args_directory_from_args_typeNtNtCsc7oPBiV8Upo_16calm_and_panicky14panicky_fuzz__4ArgsEB1t_
FNDA:0,_RNCINvNtCs8THTY5tYJNn_18test_fuzz_internal4dirs19path_from_args_typeNtNtCsc7oPBiV8Upo_16calm_and_panicky11calm_fuzz__4ArgsE0B18_
FNDA:0,_RNCINvNtCs8THTY5tYJNn_18test_fuzz_internal4dirs19path_from_args_typeNtNtCsc7oPBiV8Upo_16calm_and_panicky14panicky_fuzz__4ArgsE0B18_
FNDA:0,_RNCINvNtCs8THTY5tYJNn_18test_fuzz_internal4dirs19path_from_args_typeNtNvNtCsc7oPBiV8Upo_16calm_and_panicky11calm_fuzz__10write_args4ArgsE0B1a_
FNDA:0,_RNCINvNtCs8THTY5tYJNn_18test_fuzz_internal4dirs19path_from_args_typeNtNvNtCsc7oPBiV8Upo_16calm_and_panicky14panicky_fuzz__10write_args4ArgsE0B1a_
FNDA:0,_RINvNtCs8THTY5tYJNn_18test_fuzz_internal4dirs19path_from_args_typeNtNtCsaRhtd4AuyDa_4cast13target_fuzz__4ArgsEB16_
FNDA:0,_RINvNtCs8THTY5tYJNn_18test_fuzz_internal4dirs19path_from_args_typeNtNvNtCsaRhtd4AuyDa_4cast13target_fuzz__10write_args4ArgsEB18_
FNDA:0,_RINvNtCs8THTY5tYJNn_18test_fuzz_internal4dirs31corpus_directory_from_args_typeNtNvNtCsaRhtd4AuyDa_4cast13target_fuzz__10write_args4ArgsEB1k_
FNDA:0,_RINvNtCs8THTY5tYJNn_18test_fuzz_internal4dirs37generic_args_directory_from_args_typeNtNtCsaRhtd4AuyDa_4cast13target_fuzz__4ArgsEB1o_
FNDA:0,_RINvNtCs8THTY5tYJNn_18test_fuzz_internal4dirs42impl_generic_args_directory_from_args_typeNtNtCsaRhtd4AuyDa_4cast13target_fuzz__4ArgsEB1t_
FNDA:0,_RNCINvNtCs8THTY5tYJNn_18test_fuzz_internal4dirs19path_from_args_typeNtNtCsaRhtd4AuyDa_4cast13target_fuzz__4ArgsE0B18_
FNDA:0,_RNCINvNtCs8THTY5tYJNn_18test_fuzz_internal4dirs19path_from_args_typeNtNvNtCsaRhtd4AuyDa_4cast13target_fuzz__10write_args4ArgsE0B1a_
FNDA:0,_RINvNtCs8THTY5tYJNn_18test_fuzz_internal4dirs19path_from_args_typeNtNtCs4MACR4y78AG_9collision11test_fuzz__4ArgsEB16_
FNDA:0,_RINvNtCs8THTY5tYJNn_18test_fuzz_internal4dirs19path_from_args_typeNtNvNtCs4MACR4y78AG_9collision11test_fuzz__10write_args4ArgsEB18_
FNDA:0,_RINvNtCs8THTY5tYJNn_18test_fuzz_internal4dirs31corpus_directory_from_args_typeNtNvNtCs4MACR4y78AG_9collision11test_fuzz__10write_args4ArgsEB1k_
FNDA:0,_RINvNtCs8THTY5tYJNn_18test_fuzz_internal4dirs37generic_args_directory_from_args_typeNtNtCs4MACR4y78AG_9collision11test_fuzz__4ArgsEB1o_
FNDA:0,_RINvNtCs8THTY5tYJNn_18test_fuzz_internal4dirs42impl_generic_args_directory_from_args_typeNtNtCs4MACR4y78AG_9collision11test_fuzz__4ArgsEB1t_
FNDA:0,_RNCINvNtCs8THTY5tYJNn_18test_fuzz_internal4dirs19path_from_args_typeNtNtCs4MACR4y78AG_9collision11test_fuzz__4ArgsE0B18_
FNDA:0,_RNCINvNtCs8THTY5tYJNn_18test_fuzz_internal4dirs19path_from_args_typeNtNvNtCs4MACR4y78AG_9collision11test_fuzz__10write_args4ArgsE0B1a_
FNDA:0,_RINvNtCs8THTY5tYJNn_18test_fuzz_internal4dirs19path_from_args_typeNtNtNtCsc4CkkP18Bn1_10conversion11uncloneable13target_fuzz__4ArgsEB18_
FNDA:0,_RINvNtCs8THTY5tYJNn_18test_fuzz_internal4dirs19path_from_args_typeNtNtNtCsc4CkkP18Bn1_10conversion4path13target_fuzz__4ArgsEB18_
FNDA:0,_RINvNtCs8THTY5tYJNn_18test_fuzz_internal4dirs19path_from_args_typeNtNtNtCsc4CkkP18Bn1_10conversion5array13target_fuzz__4ArgsEB18_
FNDA:0,_RINvNtCs8THTY5tYJNn_18test_fuzz_internal4dirs19path_from_args_typeNtNtNtCsc4CkkP18Bn1_10conversion7mutable13target_fuzz__4ArgsEB18_
FNDA:0,_RINvNtCs8THTY5tYJNn_18test_fuzz_internal4dirs19path_from_args_typeNtNtNtCsc4CkkP18Bn1_10conversion8lifetime13target_fuzz__4ArgsEB18_
FNDA:0,_RINvNtCs8THTY5tYJNn_18test_fuzz_internal4dirs19path_from_args_typeNtNtNtCsc4CkkP18Bn1_10conversion8receiver20x_target_self_fuzz__4ArgsEB18_
FNDA:0,_RINvNtCs8THTY5tYJNn_18test_fuzz_internal4dirs19path_from_args_typeNtNtNtCsc4CkkP18Bn1_10conversion8receiver21x_target_other_fuzz__4ArgsEB18_
FNDA:0,_RINvNtCs8THTY5tYJNn_18test_fuzz_internal4dirs19path_from_args_typeNtNvNtNtCsc4CkkP18Bn1_10conversion11uncloneable13target_fuzz__10write_args4ArgsEB1a_
FNDA:0,_RINvNtCs8THTY5tYJNn_18test_fuzz_internal4dirs19path_from_args_typeNtNvNtNtCsc4CkkP18Bn1_10conversion4path13target_fuzz__10write_args4ArgsEB1a_
FNDA:0,_RINvNtCs8THTY5tYJNn_18test_fuzz_internal4dirs19path_from_args_typeNtNvNtNtCsc4CkkP18Bn1_10conversion5array13target_fuzz__10write_args4ArgsEB1a_
FNDA:0,_RINvNtCs8THTY5tYJNn_18test_fuzz_internal4dirs19path_from_args_typeNtNvNtNtCsc4CkkP18Bn1_10conversion7mutable13target_fuzz__10write_args4ArgsEB1a_
FNDA:0,_RINvNtCs8THTY5tYJNn_18test_fuzz_internal4dirs19path_from_args_typeNtNvNtNtCsc4CkkP18Bn1_10conversion8lifetime13target_fuzz__10write_args4ArgsEB1a_
FNDA:0,_RINvNtCs8THTY5tYJNn_18test_fuzz_internal4dirs19path_from_args_typeNtNvNtNtCsc4CkkP18Bn1_10conversion8receiver20x_target_self_fuzz__10write_args4ArgsEB1a_
FNDA:0,_RINvNtCs8THTY5tYJNn_18test_fuzz_internal4dirs19path_from_args_typeNtNvNtNtCsc4CkkP18Bn1_10conversion8receiver21x_target_other_fuzz__10write_args4ArgsEB1a_
FNDA:0,_RINvNtCs8THTY5tYJNn_18test_fuzz_internal4dirs31corpus_directory_from_args_typeNtNvNtNtCsc4CkkP18Bn1_10conversion11uncloneable13target_fuzz__10write_args4ArgsEB1m_
FNDA:0,_RINvNtCs8THTY5tYJNn_18test_fuzz_internal4dirs31corpus_directory_from_args_typeNtNvNtNtCsc4CkkP18Bn1_10conversion4path13target_fuzz__10write_args4ArgsEB1m_
FNDA:0,_RINvNtCs8THTY5tYJNn_18test_fuzz_internal4dirs31corpus_directory_from_args_typeNtNvNtNtCsc4CkkP18Bn1_10conversion5array13target_fuzz__10write_args4ArgsEB1m_
FNDA:0,_RINvNtCs8THTY5tYJNn_18test_fuzz_internal4dirs31corpus_directory_from_args_typeNtNvNtNtCsc4CkkP18Bn1_10conversion7mutable13target_fuzz__10write_args4ArgsEB1m_
FNDA:0,_RINvNtCs8THTY5tYJNn_18test_fuzz_internal4dirs31corpus_directory_from_args_typeNtNvNtNtCsc4CkkP18Bn1_10conversion8lifetime13target_fuzz__10write_args4ArgsEB1m_
FNDA:0,_RINvNtCs8THTY5tYJNn_18test_fuzz_internal4dirs31corpus_directory_from_args_typeNtNvNtNtCsc4CkkP18Bn1_10conversion8receiver20x_target_self_fuzz__10write_args4ArgsEB1m_
FNDA:0,_RINvNtCs8THTY5tYJNn_18test_fuzz_internal4dirs31corpus_directory_from_args_typeNtNvNtNtCsc4CkkP18Bn1_10conversion8receiver21x_target_other_fuzz__10write_args4ArgsEB1m_
FNDA:0,_RINvNtCs8THTY5tYJNn_18test_fuzz_internal4dirs37generic_args_directory_from_args_typeNtNtNtCsc4CkkP18Bn1_10conversion11uncloneable13target_fuzz__4ArgsEB1q_
FNDA:0,_RINvNtCs8THTY5tYJNn_18test_fuzz_internal4dirs37generic_args_directory_from_args_typeNtNtNtCsc4CkkP18Bn1_10conversion4path13target_fuzz__4ArgsEB1q_
FNDA:0,_RINvNtCs8THTY5tYJNn_18test_fuzz_internal4dirs37generic_args_directory_from_args_typeNtNtNtCsc4CkkP18Bn1_10conversion5array13target_fuzz__4ArgsEB1q_
FNDA:0,_RINvNtCs8THTY5tYJNn_18test_fuzz_internal4dirs37generic_args_directory_from_args_typeNtNtNtCsc4CkkP18Bn1_10conversion7mutable13target_fuzz__4ArgsEB1q_
FNDA:0,_RINvNtCs8THTY5tYJNn_18test_fuzz_internal4dirs37generic_args_directory_from_args_typeNtNtNtCsc4CkkP18Bn1_10conversion8lifetime13target_fuzz__4ArgsEB1q_
FNDA:0,_RINvNtCs8THTY5tYJNn_18test_fuzz_internal4dirs37generic_args_directory_from_args_typeNtNtNtCsc4CkkP18Bn1_10conversion8receiver20x_target_self_fuzz__4ArgsEB1q_
FNDA:0,_RINvNtCs8THTY5tYJNn_18test_fuzz_internal4dirs37generic_args_directory_from_args_typeNtNtNtCsc4CkkP18Bn1_10conversion8receiver21x_target_other_fuzz__4ArgsEB1q_
FNDA:0,_RINvNtCs8THTY5tYJNn_18test_fuzz_internal4dirs42impl_generic_args_directory_from_args_typeNtNtNtCsc4CkkP18Bn1_10conversion11uncloneable13target_fuzz__4ArgsEB1v_
FNDA:0,_RINvNtCs8THTY5tYJNn_18test_fuzz_internal4dirs42impl_generic_args_directory_from_args_typeNtNtNtCsc4CkkP18Bn1_10conversion4path13target_fuzz__4ArgsEB1v_
FNDA:0,_RINvNtCs8THTY5tYJNn_18test_fuzz_internal4dirs42impl_generic_args_directory_from_args_typeNtNtNtCsc4CkkP18Bn1_10conversion5array13target_fuzz__4ArgsEB1v_
FNDA:0,_RINvNtCs8THTY5tYJNn_18test_fuzz_internal4dirs42impl_generic_args_directory_from_args_typeNtNtNtCsc4CkkP18Bn1_10conversion7mutable13target_fuzz__4ArgsEB1v_
FNDA:0,_RINvNtCs8THTY5tYJNn_18test_fuzz_internal4dirs42impl_generic_args_directory_from_args_typeNtNtNtCsc4CkkP18Bn1_10conversion8lifetime13target_fuzz__4ArgsEB1v_
FNDA:0,_RINvNtCs8THTY5tYJNn_18test_fuzz_internal4dirs42impl_generic_args_directory_from_args_typeNtNtNtCsc4CkkP18Bn1_10conversion8receiver20x_target_self_fuzz__4ArgsEB1v_
FNDA:0,_RINvNtCs8THTY5tYJNn_18test_fuzz_internal4dirs42impl_generic_args_directory_from_args_typeNtNtNtCsc4CkkP18Bn1_10conversion8receiver21x_target_other_fuzz__4ArgsEB1v_
FNDA:0,_RNCINvNtCs8THTY5tYJNn_18test_fuzz_internal4dirs19path_from_args_typeNtNtNtCsc4CkkP18Bn1_10conversion11uncloneable13target_fuzz__4ArgsE0B1a_
FNDA:0,_RNCINvNtCs8THTY5tYJNn_18test_fuzz_internal4dirs19path_from_args_typeNtNtNtCsc4CkkP18Bn1_10conversion4path13target_fuzz__4ArgsE0B1a_
FNDA:0,_RNCINvNtCs8THTY5tYJNn_18test_fuzz_internal4dirs19path_from_args_typeNtNtNtCsc4CkkP18Bn1_10conversion5array13target_fuzz__4ArgsE0B1a_
FNDA:0,_RNCINvNtCs8THTY5tYJNn_18test_fuzz_internal4dirs19path_from_args_typeNtNtNtCsc4CkkP18Bn1_10conversion7mutable13target_fuzz__4ArgsE0B1a_
FNDA:0,_RNCINvNtCs8THTY5tYJNn_18test_fuzz_internal4dirs19path_from_args_typeNtNtNtCsc4CkkP18Bn1_10conversion8lifetime13target_fuzz__4ArgsE0B1a_
FNDA:0,_RNCINvNtCs8THTY5tYJNn_18test_fuzz_internal4dirs19path_from_args_typeNtNtNtCsc4CkkP18Bn1_10conversion8receiver20x_target_self_fuzz__4ArgsE0B1a_
FNDA:0,_RNCINvNtCs8THTY5tYJNn_18test_fuzz_internal4dirs19path_from_args_typeNtNtNtCsc4CkkP18Bn1_10conversion8receiver21x_target_other_fuzz__4ArgsE0B1a_
FNDA:0,_RNCINvNtCs8THTY5tYJNn_18test_fuzz_internal4dirs19path_from_args_typeNtNvNtNtCsc4CkkP18Bn1_10conversion11uncloneable13target_fuzz__10write_args4ArgsE0B1c_
FNDA:0,_RNCINvNtCs8THTY5tYJNn_18test_fuzz_internal4dirs19path_from_args_typeNtNvNtNtCsc4CkkP18Bn1_10conversion4path13target_fuzz__10write_args4ArgsE0B1c_
FNDA:0,_RNCINvNtCs8THTY5tYJNn_18test_fuzz_internal4dirs19path_from_args_typeNtNvNtNtCsc4CkkP18Bn1_10conversion5array13target_fuzz__10write_args4ArgsE0B1c_
FNDA:0,_RNCINvNtCs8THTY5tYJNn_18test_fuzz_internal4dirs19path_from_args_typeNtNvNtNtCsc4CkkP18Bn1_10conversion7mutable13target_fuzz__10write_args4ArgsE0B1c_
FNDA:0,_RNCINvNtCs8THTY5tYJNn_18test_fuzz_internal4dirs19path_from_args_typeNtNvNtNtCsc4CkkP18Bn1_10conversion8lifetime13target_fuzz__10write_args4ArgsE0B1c_
FNDA:0,_RNCINvNtCs8THTY5tYJNn_18test_fuzz_internal4dirs19path_from_args_typeNtNvNtNtCsc4CkkP18Bn1_10conversion8receiver20x_target_self_fuzz__10write_args4ArgsE0B1c_
FNDA:0,_RNCINvNtCs8THTY5tYJNn_18test_fuzz_internal4dirs19path_from_args_typeNtNvNtNtCsc4CkkP18Bn1_10conversion8receiver21x_target_other_fuzz__10write_args4ArgsE0B1c_
FNDA:0,_RINvNtCs8THTY5tYJNn_18test_fuzz_internal4dirs19path_from_args_typeNtNtNtCs4WDBbq4FTkN_5debug4hang13target_fuzz__4ArgsEB18_
FNDA:0,_RINvNtCs8THTY5tYJNn_18test_fuzz_internal4dirs19path_from_args_typeNtNtNtCs4WDBbq4FTkN_5debug5crash13target_fuzz__4ArgsEB18_
FNDA:0,_RINvNtCs8THTY5tYJNn_18test_fuzz_internal4dirs19path_from_args_typeNtNvNtNtCs4WDBbq4FTkN_5debug4hang13target_fuzz__10write_args4ArgsEB1a_
FNDA:0,_RINvNtCs8THTY5tYJNn_18test_fuzz_internal4dirs19path_from_args_typeNtNvNtNtCs4WDBbq4FTkN_5debug5crash13target_fuzz__10write_args4ArgsEB1a_
FNDA:0,_RINvNtCs8THTY5tYJNn_18test_fuzz_internal4dirs31corpus_directory_from_args_typeNtNvNtNtCs4WDBbq4FTkN_5debug4hang13target_fuzz__10write_args4ArgsEB1m_
FNDA:0,_RINvNtCs8THTY5tYJNn_18test_fuzz_internal4dirs31corpus_directory_from_args_typeNtNvNtNtCs4WDBbq4FTkN_5debug5crash13target_fuzz__10write_args4ArgsEB1m_
FNDA:0,_RINvNtCs8THTY5tYJNn_18test_fuzz_internal4dirs37generic_args_directory_from_args_typeNtNtNtCs4WDBbq4FTkN_5debug4hang13target_fuzz__4ArgsEB1q_
FNDA:0,_RINvNtCs8THTY5tYJNn_18test_fuzz_internal4dirs37generic_args_directory_from_args_typeNtNtNtCs4WDBbq4FTkN_5debug5crash13target_fuzz__4ArgsEB1q_
FNDA:0,_RINvNtCs8THTY5tYJNn_18test_fuzz_internal4dirs42impl_generic_args_directory_from_args_typeNtNtNtCs4WDBbq4FTkN_5debug4hang13target_fuzz__4ArgsEB1v_
FNDA:0,_RINvNtCs8THTY5tYJNn_18test_fuzz_internal4dirs42impl_generic_args_directory_from_args_typeNtNtNtCs4WDBbq4FTkN_5debug5crash13target_fuzz__4ArgsEB1v_
FNDA:0,_RNCINvNtCs8THTY5tYJNn_18test_fuzz_internal4dirs19path_from_args_typeNtNtNtCs4WDBbq4FTkN_5debug4hang13target_fuzz__4ArgsE0B1a_
FNDA:0,_RNCINvNtCs8THTY5tYJNn_18test_fuzz_internal4dirs19path_from_args_typeNtNtNtCs4WDBbq4FTkN_5debug5crash13target_fuzz__4ArgsE0B1a_
FNDA:0,_RNCINvNtCs8THTY5tYJNn_18test_fuzz_internal4dirs19path_from_args_typeNtNvNtNtCs4WDBbq4FTkN_5debug4hang13target_fuzz__10write_args4ArgsE0B1c_
FNDA:0,_RNCINvNtCs8THTY5tYJNn_18test_fuzz_internal4dirs19path_from_args_typeNtNvNtNtCs4WDBbq4FTkN_5debug5crash13target_fuzz__10write_args4ArgsE0B1c_
FNDA:0,_RINvNtCs8THTY5tYJNn_18test_fuzz_internal4dirs19path_from_args_typeNtNtNtCsj0n1mfFpdnC_7default10no_default13target_fuzz__4ArgsEB18_
FNDA:0,_RINvNtCs8THTY5tYJNn_18test_fuzz_internal4dirs19path_from_args_typeNtNtNtCsj0n1mfFpdnC_7default7default13target_fuzz__4ArgsEB18_
FNDA:0,_RINvNtCs8THTY5tYJNn_18test_fuzz_internal4dirs19path_from_args_typeNtNvNtNtCsj0n1mfFpdnC_7default10no_default13target_fuzz__10write_args4ArgsEB1a_
FNDA:0,_RINvNtCs8THTY5tYJNn_18test_fuzz_internal4dirs19path_from_args_typeNtNvNtNtCsj0n1mfFpdnC_7default7default13target_fuzz__10write_args4ArgsEB1a_
FNDA:0,_RINvNtCs8THTY5tYJNn_18test_fuzz_internal4dirs31corpus_directory_from_args_typeNtNvNtNtCsj0n1mfFpdnC_7default10no_default13target_fuzz__10write_args4ArgsEB1m_
FNDA:0,_RINvNtCs8THTY5tYJNn_18test_fuzz_internal4dirs31corpus_directory_from_args_typeNtNvNtNtCsj0n1mfFpdnC_7default7default13target_fuzz__10write_args4ArgsEB1m_
FNDA:0,_RINvNtCs8THTY5tYJNn_18test_fuzz_internal4dirs37generic_args_directory_from_args_typeNtNtNtCsj0n1mfFpdnC_7default10no_default13target_fuzz__4ArgsEB1q_
FNDA:0,_RINvNtCs8THTY5tYJNn_18test_fuzz_internal4dirs37generic_args_directory_from_args_typeNtNtNtCsj0n1mfFpdnC_7default7default13target_fuzz__4ArgsEB1q_
FNDA:0,_RINvNtCs8THTY5tYJNn_18test_fuzz_internal4dirs42impl_generic_args_directory_from_args_typeNtNtNtCsj0n1mfFpdnC_7default10no_default13target_fuzz__4ArgsEB1v_
FNDA:0,_RINvNtCs8THTY5tYJNn_18test_fuzz_internal4dirs42impl_generic_args_directory_from_args_typeNtNtNtCsj0n1mfFpdnC_7default7default13target_fuzz__4ArgsEB1v_
FNDA:0,_RNCINvNtCs8THTY5tYJNn_18test_fuzz_internal4dirs19path_from_args_typeNtNtNtCsj0n1mfFpdnC_7default10no_default13target_fuzz__4ArgsE0B1a_
FNDA:0,_RNCINvNtCs8THTY5tYJNn_18test_fuzz_internal4dirs19path_from_args_typeNtNtNtCsj0n1mfFpdnC_7default7default13target_fuzz__4ArgsE0B1a_
FNDA:0,_RNCINvNtCs8THTY5tYJNn_18test_fuzz_internal4dirs19path_from_args_typeNtNvNtNtCsj0n1mfFpdnC_7default10no_default13target_fuzz__10write_args4ArgsE0B1c_
FNDA:0,_RNCINvNtCs8THTY5tYJNn_18test_fuzz_internal4dirs19path_from_args_typeNtNvNtNtCsj0n1mfFpdnC_7default7default13target_fuzz__10write_args4ArgsE0B1c_
FNDA:0,_RINvNtCs8THTY5tYJNn_18test_fuzz_internal4dirs19path_from_args_typeNtNtCsa8u86q4QJJs_4from15bar_from_fuzz__4ArgsEB16_
FNDA:0,_RINvNtCs8THTY5tYJNn_18test_fuzz_internal4dirs19path_from_args_typeNtNtCsa8u86q4QJJs_4from15baz_into_fuzz__4ArgsEB16_
FNDA:0,_RINvNtCs8THTY5tYJNn_18test_fuzz_internal4dirs19path_from_args_typeNtNtCsa8u86q4QJJs_4from19baz_try_from_fuzz__4ArgsEB16_
FNDA:0,_RINvNtCs8THTY5tYJNn_18test_fuzz_internal4dirs19path_from_args_typeNtNvNtCsa8u86q4QJJs_4from15bar_from_fuzz__10write_args4ArgsEB18_
FNDA:0,_RINvNtCs8THTY5tYJNn_18test_fuzz_internal4dirs19path_from_args_typeNtNvNtCsa8u86q4QJJs_4from15baz_into_fuzz__10write_args4ArgsEB18_
FNDA:0,_RINvNtCs8THTY5tYJNn_18test_fuzz_internal4dirs19path_from_args_typeNtNvNtCsa8u86q4QJJs_4from19baz_try_from_fuzz__10write_args4ArgsEB18_
FNDA:0,_RINvNtCs8THTY5tYJNn_18test_fuzz_internal4dirs31corpus_directory_from_args_typeNtNvNtCsa8u86q4QJJs_4from15bar_from_fuzz__10write_args4ArgsEB1k_
FNDA:0,_RINvNtCs8THTY5tYJNn_18test_fuzz_internal4dirs31corpus_directory_from_args_typeNtNvNtCsa8u86q4QJJs_4from15baz_into_fuzz__10write_args4ArgsEB1k_
FNDA:0,_RINvNtCs8THTY5tYJNn_18test_fuzz_internal4dirs31corpus_directory_from_args_typeNtNvNtCsa8u86q4QJJs_4from19baz_try_from_fuzz__10write_args4ArgsEB1k_
FNDA:0,_RINvNtCs8THTY5tYJNn_18test_fuzz_internal4dirs37generic_args_directory_from_args_typeNtNtCsa8u86q4QJJs_4from15bar_from_fuzz__4ArgsEB1o_
FNDA:0,_RINvNtCs8THTY5tYJNn_18test_fuzz_internal4dirs37generic_args_directory_from_args_typeNtNtCsa8u86q4QJJs_4from15baz_into_fuzz__4ArgsEB1o_
FNDA:0,_RINvNtCs8THTY5tYJNn_18test_fuzz_internal4dirs37generic_args_directory_from_args_typeNtNtCsa8u86q4QJJs_4from19baz_try_from_fuzz__4ArgsEB1o_
FNDA:0,_RINvNtCs8THTY5tYJNn_18test_fuzz_internal4dirs42impl_generic_args_directory_from_args_typeNtNtCsa8u86q4QJJs_4from15bar_from_fuzz__4ArgsEB1t_
FNDA:0,_RINvNtCs8THTY5tYJNn_18test_fuzz_internal4dirs42impl_generic_args_directory_from_args_typeNtNtCsa8u86q4QJJs_4from15baz_into_fuzz__4ArgsEB1t_
FNDA:0,_RINvNtCs8THTY5tYJNn_18test_fuzz_internal4dirs42impl_generic_args_directory_from_args_typeNtNtCsa8u86q4QJJs_4from19baz_try_from_fuzz__4ArgsEB1t_
FNDA:0,_RNCINvNtCs8THTY5tYJNn_18test_fuzz_internal4dirs19path_from_args_typeNtNtCsa8u86q4QJJs_4from15bar_from_fuzz__4ArgsE0B18_
FNDA:0,_RNCINvNtCs8THTY5tYJNn_18test_fuzz_internal4dirs19path_from_args_typeNtNtCsa8u86q4QJJs_4from15baz_into_fuzz__4ArgsE0B18_
FNDA:0,_RNCINvNtCs8THTY5tYJNn_18test_fuzz_internal4dirs19path_from_args_typeNtNtCsa8u86q4QJJs_4from19baz_try_from_fuzz__4ArgsE0B18_
FNDA:0,_RNCINvNtCs8THTY5tYJNn_18test_fuzz_internal4dirs19path_from_args_typeNtNvNtCsa8u86q4QJJs_4from15bar_from_fuzz__10write_args4ArgsE0B1a_
FNDA:0,_RNCINvNtCs8THTY5tYJNn_18test_fuzz_internal4dirs19path_from_args_typeNtNvNtCsa8u86q4QJJs_4from15baz_into_fuzz__10write_args4ArgsE0B1a_
FNDA:0,_RNCINvNtCs8THTY5tYJNn_18test_fuzz_internal4dirs19path_from_args_typeNtNvNtCsa8u86q4QJJs_4from19baz_try_from_fuzz__10write_args4ArgsE0B1a_
FNDA:0,_RINvNtCs8THTY5tYJNn_18test_fuzz_internal4dirs19path_from_args_typeINtNtCslo9q2YZ09sG_7generic14baz_qux_fuzz__4ArgsNtB17_3BarEEB17_
FNDA:0,_RINvNtCs8THTY5tYJNn_18test_fuzz_internal4dirs19path_from_args_typeINtNtCslo9q2YZ09sG_7generic20struct_target_fuzz__4ArgsNtB17_3BarEEB17_
FNDA:0,_RINvNtCs8THTY5tYJNn_18test_fuzz_internal4dirs19path_from_args_typeINtNtCslo9q2YZ09sG_7generic20struct_target_fuzz__4ArgsNtB17_3FooEEB17_
FNDA:0,_RINvNtCs8THTY5tYJNn_18test_fuzz_internal4dirs19path_from_args_typeINtNtCslo9q2YZ09sG_7generic26struct_target_bound_fuzz__4ArgsNtB17_3BarINtB17_3BazB20_EEEB17_
FNDA:0,_RINvNtCs8THTY5tYJNn_18test_fuzz_internal4dirs19path_from_args_typeINtNtCslo9q2YZ09sG_7generic26struct_target_bound_fuzz__4ArgsNtB17_3FooINtB17_3BazB20_EEEB17_
FNDA:0,_RINvNtCs8THTY5tYJNn_18test_fuzz_internal4dirs19path_from_args_typeINtNtCslo9q2YZ09sG_7generic33struct_target_where_clause_fuzz__4ArgsNtB17_3BarINtB17_3BazB27_EEEB17_
FNDA:0,_RINvNtCs8THTY5tYJNn_18test_fuzz_internal4dirs19path_from_args_typeINtNtCslo9q2YZ09sG_7generic33struct_target_where_clause_fuzz__4ArgsNtB17_3FooINtB17_3BazB27_EEEB17_
FNDA:0,_RINvNtCs8THTY5tYJNn_18test_fuzz_internal4dirs19path_from_args_typeINtNtNtCslo9q2YZ09sG_7generic27receiverless_trait_function20struct_target_fuzz__4ArgsNtB19_3BarEEB19_
FNDA:0,_RINvNtCs8THTY5tYJNn_18test_fuzz_internal4dirs19path_from_args_typeINtNvNtCslo9q2YZ09sG_7generic14baz_qux_fuzz__10write_args4ArgsNtB19_3BarEEB19_
FNDA:0,_RINvNtCs8THTY5tYJNn_18test_fuzz_internal4dirs19path_from_args_typeINtNvNtCslo9q2YZ09sG_7generic20struct_target_fuzz__10write_args4ArgsNtB19_3BarEEB19_
FNDA:0,_RINvNtCs8THTY5tYJNn_18test_fuzz_internal4dirs19path_from_args_typeINtNvNtCslo9q2YZ09sG_7generic20struct_target_fuzz__10write_args4ArgsNtB19_3FooEEB19_
FNDA:0,_RINvNtCs8THTY5tYJNn_18test_fuzz_internal4dirs19path_from_args_typeINtNvNtCslo9q2YZ09sG_7generic26struct_target_bound_fuzz__10write_args4ArgsNtB19_3BarINtB19_3BazB2e_EEEB19_
FNDA:0,_RINvNtCs8THTY5tYJNn_18test_fuzz_internal4dirs19path_from_args_typeINtNvNtCslo9q2YZ09sG_7generic26struct_target_bound_fuzz__10write_args4ArgsNtB19_3FooINtB19_3BazB2e_EEEB19_
FNDA:0,_RINvNtCs8THTY5tYJNn_18test_fuzz_internal4dirs19path_from_args_typeINtNvNtCslo9q2YZ09sG_7generic33struct_target_where_clause_fuzz__10write_args4ArgsNtB19_3BarINtB19_3BazB2l_EEEB19_
FNDA:0,_RINvNtCs8THTY5tYJNn_18test_fuzz_internal4dirs19path_from_args_typeINtNvNtCslo9q2YZ09sG_7generic33struct_target_where_clause_fuzz__10write_args4ArgsNtB19_3FooINtB19_3BazB2l_EEEB19_
FNDA:0,_RINvNtCs8THTY5tYJNn_18test_fuzz_internal4dirs19path_from_args_typeINtNvNtNtCslo9q2YZ09sG_7generic27receiverless_trait_function20struct_target_fuzz__10write_args4ArgsNtB1b_3BarEEB1b_
FNDA:0,_RINvNtCs8THTY5tYJNn_18test_fuzz_internal4dirs19path_from_args_typeNtNtCslo9q2YZ09sG_7generic38struct_target_only_generic_args_fuzz__4ArgsEB16_
FNDA:0,_RINvNtCs8THTY5tYJNn_18test_fuzz_internal4dirs31corpus_directory_from_args_typeINtNvNtCslo9q2YZ09sG_7generic14baz_qux_fuzz__10write_args4ArgsNtB1l_3BarEEB1l_
FNDA:0,_RINvNtCs8THTY5tYJNn_18test_fuzz_internal4dirs31corpus_directory_from_args_typeINtNvNtCslo9q2YZ09sG_7generic20struct_target_fuzz__10write_args4ArgsNtB1l_3BarEEB1l_
FNDA:0,_RINvNtCs8THTY5tYJNn_18test_fuzz_internal4dirs31corpus_directory_from_args_typeINtNvNtCslo9q2YZ09sG_7generic20struct_target_fuzz__10write_args4ArgsNtB1l_3FooEEB1l_
FNDA:0,_RINvNtCs8THTY5tYJNn_18test_fuzz_internal4dirs31corpus_directory_from_args_typeINtNvNtCslo9q2YZ09sG_7generic26struct_target_bound_fuzz__10write_args4ArgsNtB1l_3BarINtB1l_3BazB2q_EEEB1l_
FNDA:0,_RINvNtCs8THTY5tYJNn_18test_fuzz_internal4dirs31corpus_directory_from_args_typeINtNvNtCslo9q2YZ09sG_7generic26struct_target_bound_fuzz__10write_args4ArgsNtB1l_3FooINtB1l_3BazB2q_EEEB1l_
FNDA:0,_RINvNtCs8THTY5tYJNn_18test_fuzz_internal4dirs31corpus_directory_from_args_typeINtNvNtCslo9q2YZ09sG_7generic33struct_target_where_clause_fuzz__10write_args4ArgsNtB1l_3BarINtB1l_3BazB2x_EEEB1l_
FNDA:0,_RINvNtCs8THTY5tYJNn_18test_fuzz_internal4dirs31corpus_directory_from_args_typeINtNvNtCslo9q2YZ09sG_7generic33struct_target_where_clause_fuzz__10write_args4ArgsNtB1l_3FooINtB1l_3BazB2x_EEEB1l_
FNDA:0,_RINvNtCs8THTY5tYJNn_18test_fuzz_internal4dirs31corpus_directory_from_args_typeINtNvNtNtCslo9q2YZ09sG_7generic27receiverless_trait_function20struct_target_fuzz__10write_args4ArgsNtB1n_3BarEEB1n_
FNDA:0,_RINvNtCs8THTY5tYJNn_18test_fuzz_internal4dirs37generic_args_directory_from_args_typeINtNtCslo9q2YZ09sG_7generic14baz_qux_fuzz__4ArgsNtB1p_3BarEEB1p_
FNDA:0,_RINvNtCs8THTY5tYJNn_18test_fuzz_internal4dirs37generic_args_directory_from_args_typeINtNtCslo9q2YZ09sG_7generic20struct_target_fuzz__4ArgsNtB1p_3BarEEB1p_
FNDA:0,_RINvNtCs8THTY5tYJNn_18test_fuzz_internal4dirs37generic_args_directory_from_args_typeINtNtCslo9q2YZ09sG_7generic20struct_target_fuzz__4ArgsNtB1p_3FooEEB1p_
FNDA:0,_RINvNtCs8THTY5tYJNn_18test_fuzz_internal4dirs37generic_args_directory_from_args_typeINtNtCslo9q2YZ09sG_7generic26struct_target_bound_fuzz__4ArgsNtB1p_3BarINtB1p_3BazB2i_EEEB1p_
FNDA:0,_RINvNtCs8THTY5tYJNn_18test_fuzz_internal4dirs37generic_args_directory_from_args_typeINtNtCslo9q2YZ09sG_7generic26struct_target_bound_fuzz__4ArgsNtB1p_3FooINtB1p_3BazB2i_EEEB1p_
FNDA:0,_RINvNtCs8THTY5tYJNn_18test_fuzz_internal4dirs37generic_args_directory_from_args_typeINtNtCslo9q2YZ09sG_7generic33struct_target_where_clause_fuzz__4ArgsNtB1p_3BarINtB1p_3BazB2p_EEEB1p_
FNDA:0,_RINvNtCs8THTY5tYJNn_18test_fuzz_internal4dirs37generic_args_directory_from_args_typeINtNtCslo9q2YZ09sG_7generic33struct_target_where_clause_fuzz__4ArgsNtB1p_3FooINtB1p_3BazB2p_EEEB1p_
FNDA:0,_RINvNtCs8THTY5tYJNn_18test_fuzz_internal4dirs37generic_args_directory_from_args_typeINtNtNtCslo9q2YZ09sG_7generic27receiverless_trait_function20struct_target_fuzz__4ArgsNtB1r_3BarEEB1r_
FNDA:0,_RINvNtCs8THTY5tYJNn_18test_fuzz_internal4dirs37generic_args_directory_from_args_typeNtNtCslo9q2YZ09sG_7generic38struct_target_only_generic_args_fuzz__4ArgsEB1o_
FNDA:0,_RINvNtCs8THTY5tYJNn_18test_fuzz_internal4dirs42impl_generic_args_directory_from_args_typeINtNtCslo9q2YZ09sG_7generic14baz_qux_fuzz__4ArgsNtB1u_3BarEEB1u_
FNDA:0,_RINvNtCs8THTY5tYJNn_18test_fuzz_internal4dirs42impl_generic_args_directory_from_args_typeINtNtCslo9q2YZ09sG_7generic20struct_target_fuzz__4ArgsNtB1u_3BarEEB1u_
FNDA:0,_RINvNtCs8THTY5tYJNn_18test_fuzz_internal4dirs42impl_generic_args_directory_from_args_typeINtNtCslo9q2YZ09sG_7generic20struct_target_fuzz__4ArgsNtB1u_3FooEEB1u_
FNDA:0,_RINvNtCs8THTY5tYJNn_18test_fuzz_internal4dirs42impl_generic_args_directory_from_args_typeINtNtCslo9q2YZ09sG_7generic26struct_target_bound_fuzz__4ArgsNtB1u_3BarINtB1u_3BazB2n_EEEB1u_
FNDA:0,_RINvNtCs8THTY5tYJNn_18test_fuzz_internal4dirs42impl_generic_args_directory_from_args_typeINtNtCslo9q2YZ09sG_7generic26struct_target_bound_fuzz__4ArgsNtB1u_3FooINtB1u_3BazB2n_EEEB1u_
FNDA:0,_RINvNtCs8THTY5tYJNn_18test_fuzz_internal4dirs42impl_generic_args_directory_from_args_typeINtNtCslo9q2YZ09sG_7generic33struct_target_where_clause_fuzz__4ArgsNtB1u_3BarINtB1u_3BazB2u_EEEB1u_
FNDA:0,_RINvNtCs8THTY5tYJNn_18test_fuzz_internal4dirs42impl_generic_args_directory_from_args_typeINtNtCslo9q2YZ09sG_7generic33struct_target_where_clause_fuzz__4ArgsNtB1u_3FooINtB1u_3BazB2u_EEEB1u_
FNDA:0,_RINvNtCs8THTY5tYJNn_18test_fuzz_internal4dirs42impl_generic_args_directory_from_args_typeINtNtNtCslo9q2YZ09sG_7generic27receiverless_trait_function20struct_target_fuzz__4ArgsNtB1w_3BarEEB1w_
FNDA:0,_RINvNtCs8THTY5tYJNn_18test_fuzz_internal4dirs42impl_generic_args_directory_from_args_typeNtNtCslo9q2YZ09sG_7generic38struct_target_only_generic_args_fuzz__4ArgsEB1t_
FNDA:0,_RNCINvNtCs8THTY5tYJNn_18test_fuzz_internal4dirs19path_from_args_typeINtNtCslo9q2YZ09sG_7generic14baz_qux_fuzz__4ArgsNtB19_3BarEE0B19_
FNDA:0,_RNCINvNtCs8THTY5tYJNn_18test_fuzz_internal4dirs19path_from_args_typeINtNtCslo9q2YZ09sG_7generic20struct_target_fuzz__4ArgsNtB19_3BarEE0B19_
FNDA:0,_RNCINvNtCs8THTY5tYJNn_18test_fuzz_internal4dirs19path_from_args_typeINtNtCslo9q2YZ09sG_7generic20struct_target_fuzz__4ArgsNtB19_3FooEE0B19_
FNDA:0,_RNCINvNtCs8THTY5tYJNn_18test_fuzz_internal4dirs19path_from_args_typeINtNtCslo9q2YZ09sG_7generic26struct_target_bound_fuzz__4ArgsNtB19_3BarINtB19_3BazB22_EEE0B19_
FNDA:0,_RNCINvNtCs8THTY5tYJNn_18test_fuzz_internal4dirs19path_from_args_typeINtNtCslo9q2YZ09sG_7generic26struct_target_bound_fuzz__4ArgsNtB19_3FooINtB19_3BazB22_EEE0B19_
FNDA:0,_RNCINvNtCs8THTY5tYJNn_18test_fuzz_internal4dirs19path_from_args_typeINtNtCslo9q2YZ09sG_7generic33struct_target_where_clause_fuzz__4ArgsNtB19_3BarINtB19_3BazB29_EEE0B19_
FNDA:0,_RNCINvNtCs8THTY5tYJNn_18test_fuzz_internal4dirs19path_from_args_typeINtNtCslo9q2YZ09sG_7generic33struct_target_where_clause_fuzz__4ArgsNtB19_3FooINtB19_3BazB29_EEE0B19_
FNDA:0,_RNCINvNtCs8THTY5tYJNn_18test_fuzz_internal4dirs19path_from_args_typeINtNtNtCslo9q2YZ09sG_7generic27receiverless_trait_function20struct_target_fuzz__4ArgsNtB1b_3BarEE0B1b_
FNDA:0,_RNCINvNtCs8THTY5tYJNn_18test_fuzz_internal4dirs19path_from_args_typeINtNvNtCslo9q2YZ09sG_7generic14baz_qux_fuzz__10write_args4ArgsNtB1b_3BarEE0B1b_
FNDA:0,_RNCINvNtCs8THTY5tYJNn_18test_fuzz_internal4dirs19path_from_args_typeINtNvNtCslo9q2YZ09sG_7generic20struct_target_fuzz__10write_args4ArgsNtB1b_3BarEE0B1b_
FNDA:0,_RNCINvNtCs8THTY5tYJNn_18test_fuzz_internal4dirs19path_from_args_typeINtNvNtCslo9q2YZ09sG_7generic20struct_target_fuzz__10write_args4ArgsNtB1b_3FooEE0B1b_
FNDA:0,_RNCINvNtCs8THTY5tYJNn_18test_fuzz_internal4dirs19path_from_args_typeINtNvNtCslo9q2YZ09sG_7generic26struct_target_bound_fuzz__10write_args4ArgsNtB1b_3BarINtB1b_3BazB2g_EEE0B1b_
FNDA:0,_RNCINvNtCs8THTY5tYJNn_18test_fuzz_internal4dirs19path_from_args_typeINtNvNtCslo9q2YZ09sG_7generic26struct_target_bound_fuzz__10write_args4ArgsNtB1b_3FooINtB1b_3BazB2g_EEE0B1b_
FNDA:0,_RNCINvNtCs8THTY5tYJNn_18test_fuzz_internal4dirs19path_from_args_typeINtNvNtCslo9q2YZ09sG_7generic33struct_target_where_clause_fuzz__10write_args4ArgsNtB1b_3BarINtB1b_3BazB2n_EEE0B1b_
FNDA:0,_RNCINvNtCs8THTY5tYJNn_18test_fuzz_internal4dirs19path_from_args_typeINtNvNtCslo9q2YZ09sG_7generic33struct_target_where_clause_fuzz__10write_args4ArgsNtB1b_3FooINtB1b_3BazB2n_EEE0B1b_
FNDA:0,_RNCINvNtCs8THTY5tYJNn_18test_fuzz_internal4dirs19path_from_args_typeINtNvNtNtCslo9q2YZ09sG_7generic27receiverless_trait_function20struct_target_fuzz__10write_args4ArgsNtB1d_3BarEE0B1d_
FNDA:0,_RNCINvNtCs8THTY5tYJNn_18test_fuzz_internal4dirs19path_from_args_typeNtNtCslo9q2YZ09sG_7generic38struct_target_only_generic_args_fuzz__4ArgsE0B18_
FNDA:0,_RINvNtCs8THTY5tYJNn_18test_fuzz_internal4dirs19path_from_args_typeNtNtCs7rwv8R68fA0_11hello_world13target_fuzz__4ArgsEB16_
FNDA:0,_RINvNtCs8THTY5tYJNn_18test_fuzz_internal4dirs19path_from_args_typeNtNvNtCs7rwv8R68fA0_11hello_world13target_fuzz__10write_args4ArgsEB18_
FNDA:0,_RINvNtCs8THTY5tYJNn_18test_fuzz_internal4dirs31corpus_directory_from_args_typeNtNvNtCs7rwv8R68fA0_11hello_world13target_fuzz__10write_args4ArgsEB1k_
FNDA:0,_RINvNtCs8THTY5tYJNn_18test_fuzz_internal4dirs37generic_args_directory_from_args_typeNtNtCs7rwv8R68fA0_11hello_world13target_fuzz__4ArgsEB1o_
FNDA:0,_RINvNtCs8THTY5tYJNn_18test_fuzz_internal4dirs42impl_generic_args_directory_from_args_typeNtNtCs7rwv8R68fA0_11hello_world13target_fuzz__4ArgsEB1t_
FNDA:0,_RNCINvNtCs8THTY5tYJNn_18test_fuzz_internal4dirs19path_from_args_typeNtNtCs7rwv8R68fA0_11hello_world13target_fuzz__4ArgsE0B18_
FNDA:0,_RNCINvNtCs8THTY5tYJNn_18test_fuzz_internal4dirs19path_from_args_typeNtNvNtCs7rwv8R68fA0_11hello_world13target_fuzz__10write_args4ArgsE0B1a_
FNDA:0,_RINvNtCs8THTY5tYJNn_18test_fuzz_internal4dirs19path_from_args_typeNtNtCs8wlviv3oqDu_11hello_world13target_fuzz__4ArgsEB16_
FNDA:0,_RINvNtCs8THTY5tYJNn_18test_fuzz_internal4dirs19path_from_args_typeNtNvNtCs8wlviv3oqDu_11hello_world13target_fuzz__10write_args4ArgsEB18_
FNDA:0,_RINvNtCs8THTY5tYJNn_18test_fuzz_internal4dirs31corpus_directory_from_args_typeNtNvNtCs8wlviv3oqDu_11hello_world13target_fuzz__10write_args4ArgsEB1k_
FNDA:0,_RINvNtCs8THTY5tYJNn_18test_fuzz_internal4dirs37generic_args_directory_from_args_typeNtNtCs8wlviv3oqDu_11hello_world13target_fuzz__4ArgsEB1o_
FNDA:0,_RINvNtCs8THTY5tYJNn_18test_fuzz_internal4dirs42impl_generic_args_directory_from_args_typeNtNtCs8wlviv3oqDu_11hello_world13target_fuzz__4ArgsEB1t_
FNDA:0,_RNCINvNtCs8THTY5tYJNn_18test_fuzz_internal4dirs19path_from_args_typeNtNtCs8wlviv3oqDu_11hello_world13target_fuzz__4ArgsE0B18_
FNDA:0,_RNCINvNtCs8THTY5tYJNn_18test_fuzz_internal4dirs19path_from_args_typeNtNvNtCs8wlviv3oqDu_11hello_world13target_fuzz__10write_args4ArgsE0B1a_
FNDA:0,_RINvNtCsfbtA0fWH35c_18test_fuzz_internal4dirs19path_from_args_typeNtNtCseLM6nJlucij_11hello_world13target_fuzz__4ArgsEB16_
FNDA:0,_RINvNtCsfbtA0fWH35c_18test_fuzz_internal4dirs19path_from_args_typeNtNvNtCseLM6nJlucij_11hello_world13target_fuzz__10write_args4ArgsEB18_
FNDA:0,_RINvNtCsfbtA0fWH35c_18test_fuzz_internal4dirs31corpus_directory_from_args_typeNtNvNtCseLM6nJlucij_11hello_world13target_fuzz__10write_args4ArgsEB1k_
FNDA:0,_RINvNtCsfbtA0fWH35c_18test_fuzz_internal4dirs37generic_args_directory_from_args_typeNtNtCseLM6nJlucij_11hello_world13target_fuzz__4ArgsEB1o_
FNDA:0,_RINvNtCsfbtA0fWH35c_18test_fuzz_internal4dirs42impl_generic_args_directory_from_args_typeNtNtCseLM6nJlucij_11hello_world13target_fuzz__4ArgsEB1t_
FNDA:0,_RNCINvNtCsfbtA0fWH35c_18test_fuzz_internal4dirs19path_from_args_typeNtNtCseLM6nJlucij_11hello_world13target_fuzz__4ArgsE0B18_
FNDA:0,_RNCINvNtCsfbtA0fWH35c_18test_fuzz_internal4dirs19path_from_args_typeNtNvNtCseLM6nJlucij_11hello_world13target_fuzz__10write_args4ArgsE0B1a_
FNDA:0,_RNvNtCsfbtA0fWH35c_18test_fuzz_internal4dirs12path_segment
FNDA:0,_RNvNtCsfbtA0fWH35c_18test_fuzz_internal4dirs14workspace_root
FNDA:0,_RNvNtCsfbtA0fWH35c_18test_fuzz_internal4dirs16corpus_directory
FNDA:0,_RNvNtCsfbtA0fWH35c_18test_fuzz_internal4dirs16output_directory
FNDA:0,_RNvNtCsfbtA0fWH35c_18test_fuzz_internal4dirs16path_from_target
FNDA:0,_RNvNtCsfbtA0fWH35c_18test_fuzz_internal4dirs16target_directory
FNDA:0,_RNvNtCsfbtA0fWH35c_18test_fuzz_internal4dirs22generic_args_directory
FNDA:0,_RNvNtCsfbtA0fWH35c_18test_fuzz_internal4dirs27hangs_directory_from_target
FNDA:0,_RNvNtCsfbtA0fWH35c_18test_fuzz_internal4dirs27impl_generic_args_directory
FNDA:0,_RNvNtCsfbtA0fWH35c_18test_fuzz_internal4dirs27queue_directory_from_target
FNDA:0,_RNvNtCsfbtA0fWH35c_18test_fuzz_internal4dirs28corpus_directory_from_target
FNDA:0,_RNvNtCsfbtA0fWH35c_18test_fuzz_internal4dirs28output_directory_from_target
FNDA:0,_RNvNtCsfbtA0fWH35c_18test_fuzz_internal4dirs29crashes_directory_from_target
FNDA:0,_RNvNtCsfbtA0fWH35c_18test_fuzz_internal4dirs34generic_args_directory_from_target
FNDA:0,_RNvNtCsfbtA0fWH35c_18test_fuzz_internal4dirs39impl_generic_args_directory_from_target
FNDA:0,_RNvNtCsfbtA0fWH35c_18test_fuzz_internal4dirs8maybe_id
FNDA:0,_RNvNtCsfbtA0fWH35c_18test_fuzz_internal4dirs9thread_id
FNDA:0,_RNvNtCsfbtA0fWH35c_18test_fuzz_internal4dirs9workspace
FNDA:0,_RNCNvNtCsfbtA0fWH35c_18test_fuzz_internal4dirs8maybe_id0B5_
FNDA:0,_RINvNtCsfbtA0fWH35c_18test_fuzz_internal4dirs19path_from_args_typepEB4_
FNDA:0,_RINvNtCsfbtA0fWH35c_18test_fuzz_internal4dirs31corpus_directory_from_args_typepEB4_
FNDA:0,_RINvNtCsfbtA0fWH35c_18test_fuzz_internal4dirs37generic_args_directory_from_args_typepEB4_
FNDA:0,_RINvNtCsfbtA0fWH35c_18test_fuzz_internal4dirs42impl_generic_args_directory_from_args_typepEB4_
FNDA:0,_RNCINvNtCsfbtA0fWH35c_18test_fuzz_internal4dirs19path_from_args_typepE0B6_
FNDA:0,_RINvNtCs8THTY5tYJNn_18test_fuzz_internal4dirs19path_from_args_typeNtNtCscKpcHOujJ8r_8lifetime13target_fuzz__4ArgsEB16_
FNDA:0,_RINvNtCs8THTY5tYJNn_18test_fuzz_internal4dirs19path_from_args_typeNtNvNtCscKpcHOujJ8r_8lifetime13target_fuzz__10write_args4ArgsEB18_
FNDA:0,_RINvNtCs8THTY5tYJNn_18test_fuzz_internal4dirs31corpus_directory_from_args_typeNtNvNtCscKpcHOujJ8r_8lifetime13target_fuzz__10write_args4ArgsEB1k_
FNDA:0,_RINvNtCs8THTY5tYJNn_18test_fuzz_internal4dirs37generic_args_directory_from_args_typeNtNtCscKpcHOujJ8r_8lifetime13target_fuzz__4ArgsEB1o_
FNDA:0,_RINvNtCs8THTY5tYJNn_18test_fuzz_internal4dirs42impl_generic_args_directory_from_args_typeNtNtCscKpcHOujJ8r_8lifetime13target_fuzz__4ArgsEB1t_
FNDA:0,_RNCINvNtCs8THTY5tYJNn_18test_fuzz_internal4dirs19path_from_args_typeNtNtCscKpcHOujJ8r_8lifetime13target_fuzz__4ArgsE0B18_
FNDA:0,_RNCINvNtCs8THTY5tYJNn_18test_fuzz_internal4dirs19path_from_args_typeNtNvNtCscKpcHOujJ8r_8lifetime13target_fuzz__10write_args4ArgsE0B1a_
FNDA:0,_RINvNtCs8THTY5tYJNn_18test_fuzz_internal4dirs19path_from_args_typeNtNtCsfrdtDoCOCG_11manual_leak23wrapped_key_dump_fuzz__4ArgsEB16_
FNDA:0,_RINvNtCs8THTY5tYJNn_18test_fuzz_internal4dirs19path_from_args_typeNtNvNtCsfrdtDoCOCG_11manual_leak23wrapped_key_dump_fuzz__10write_args4ArgsEB18_
FNDA:0,_RINvNtCs8THTY5tYJNn_18test_fuzz_internal4dirs31corpus_directory_from_args_typeNtNvNtCsfrdtDoCOCG_11manual_leak23wrapped_key_dump_fuzz__10write_args4ArgsEB1k_
FNDA:0,_RINvNtCs8THTY5tYJNn_18test_fuzz_internal4dirs37generic_args_directory_from_args_typeNtNtCsfrdtDoCOCG_11manual_leak23wrapped_key_dump_fuzz__4ArgsEB1o_
FNDA:0,_RINvNtCs8THTY5tYJNn_18test_fuzz_internal4dirs42impl_generic_args_directory_from_args_typeNtNtCsfrdtDoCOCG_11manual_leak23wrapped_key_dump_fuzz__4ArgsEB1t_
FNDA:0,_RNCINvNtCs8THTY5tYJNn_18test_fuzz_internal4dirs19path_from_args_typeNtNtCsfrdtDoCOCG_11manual_leak23wrapped_key_dump_fuzz__4ArgsE0B18_
FNDA:0,_RNCINvNtCs8THTY5tYJNn_18test_fuzz_internal4dirs19path_from_args_typeNtNvNtCsfrdtDoCOCG_11manual_leak23wrapped_key_dump_fuzz__10write_args4ArgsE0B1a_
FNDA:0,_RINvNtCs8THTY5tYJNn_18test_fuzz_internal4dirs19path_from_args_typeNtNtCsdWpqmKI707b_7mut_ref17target_str_fuzz__4ArgsEB16_
FNDA:0,_RINvNtCs8THTY5tYJNn_18test_fuzz_internal4dirs19path_from_args_typeNtNtCsdWpqmKI707b_7mut_ref19target_slice_fuzz__4ArgsEB16_
FNDA:0,_RINvNtCs8THTY5tYJNn_18test_fuzz_internal4dirs19path_from_args_typeNtNvNtCsdWpqmKI707b_7mut_ref17target_str_fuzz__10write_args4ArgsEB18_
FNDA:0,_RINvNtCs8THTY5tYJNn_18test_fuzz_internal4dirs19path_from_args_typeNtNvNtCsdWpqmKI707b_7mut_ref19target_slice_fuzz__10write_args4ArgsEB18_
FNDA:0,_RINvNtCs8THTY5tYJNn_18test_fuzz_internal4dirs31corpus_directory_from_args_typeNtNvNtCsdWpqmKI707b_7mut_ref17target_str_fuzz__10write_args4ArgsEB1k_
FNDA:0,_RINvNtCs8THTY5tYJNn_18test_fuzz_internal4dirs31corpus_directory_from_args_typeNtNvNtCsdWpqmKI707b_7mut_ref19target_slice_fuzz__10write_args4ArgsEB1k_
FNDA:0,_RINvNtCs8THTY5tYJNn_18test_fuzz_internal4dirs37generic_args_directory_from_args_typeNtNtCsdWpqmKI707b_7mut_ref17target_str_fuzz__4ArgsEB1o_
FNDA:0,_RINvNtCs8THTY5tYJNn_18test_fuzz_internal4dirs37generic_args_directory_from_args_typeNtNtCsdWpqmKI707b_7mut_ref19target_slice_fuzz__4ArgsEB1o_
FNDA:0,_RINvNtCs8THTY5tYJNn_18test_fuzz_internal4dirs42impl_generic_args_directory_from_args_typeNtNtCsdWpqmKI707b_7mut_ref17target_str_fuzz__4ArgsEB1t_
FNDA:0,_RINvNtCs8THTY5tYJNn_18test_fuzz_internal4dirs42impl_generic_args_directory_from_args_typeNtNtCsdWpqmKI707b_7mut_ref19target_slice_fuzz__4ArgsEB1t_
FNDA:0,_RNCINvNtCs8THTY5tYJNn_18test_fuzz_internal4dirs19path_from_args_typeNtNtCsdWpqmKI707b_7mut_ref17target_str_fuzz__4ArgsE0B18_
FNDA:0,_RNCINvNtCs8THTY5tYJNn_18test_fuzz_internal4dirs19path_from_args_typeNtNtCsdWpqmKI707b_7mut_ref19target_slice_fuzz__4ArgsE0B18_
FNDA:0,_RNCINvNtCs8THTY5tYJNn_18test_fuzz_internal4dirs19path_from_args_typeNtNvNtCsdWpqmKI707b_7mut_ref17target_str_fuzz__10write_args4ArgsE0B1a_
FNDA:0,_RNCINvNtCs8THTY5tYJNn_18test_fuzz_internal4dirs19path_from_args_typeNtNvNtCsdWpqmKI707b_7mut_ref19target_slice_fuzz__10write_args4ArgsE0B1a_
FNDA:0,_RINvNtCs8THTY5tYJNn_18test_fuzz_internal4dirs19path_from_args_typeNtNtCs2MoilIs07Sx_8parallel15target_0_fuzz__4ArgsEB16_
FNDA:0,_RINvNtCs8THTY5tYJNn_18test_fuzz_internal4dirs19path_from_args_typeNtNtCs2MoilIs07Sx_8parallel15target_1_fuzz__4ArgsEB16_
FNDA:0,_RINvNtCs8THTY5tYJNn_18test_fuzz_internal4dirs19path_from_args_typeNtNtCs2MoilIs07Sx_8parallel15target_2_fuzz__4ArgsEB16_
FNDA:0,_RINvNtCs8THTY5tYJNn_18test_fuzz_internal4dirs19path_from_args_typeNtNtCs2MoilIs07Sx_8parallel15target_3_fuzz__4ArgsEB16_
FNDA:0,_RINvNtCs8THTY5tYJNn_18test_fuzz_internal4dirs19path_from_args_typeNtNtCs2MoilIs07Sx_8parallel15target_4_fuzz__4ArgsEB16_
FNDA:0,_RINvNtCs8THTY5tYJNn_18test_fuzz_internal4dirs19path_from_args_typeNtNtCs2MoilIs07Sx_8parallel15target_5_fuzz__4ArgsEB16_
FNDA:0,_RINvNtCs8THTY5tYJNn_18test_fuzz_internal4dirs19path_from_args_typeNtNvNtCs2MoilIs07Sx_8parallel15target_0_fuzz__10write_args4ArgsEB18_
FNDA:0,_RINvNtCs8THTY5tYJNn_18test_fuzz_internal4dirs19path_from_args_typeNtNvNtCs2MoilIs07Sx_8parallel15target_1_fuzz__10write_args4ArgsEB18_
FNDA:0,_RINvNtCs8THTY5tYJNn_18test_fuzz_internal4dirs19path_from_args_typeNtNvNtCs2MoilIs07Sx_8parallel15target_2_fuzz__10write_args4ArgsEB18_
FNDA:0,_RINvNtCs8THTY5tYJNn_18test_fuzz_internal4dirs19path_from_args_typeNtNvNtCs2MoilIs07Sx_8parallel15target_3_fuzz__10write_args4ArgsEB18_
FNDA:0,_RINvNtCs8THTY5tYJNn_18test_fuzz_internal4dirs19path_from_args_typeNtNvNtCs2MoilIs07Sx_8parallel15target_4_fuzz__10write_args4ArgsEB18_
FNDA:0,_RINvNtCs8THTY5tYJNn_18test_fuzz_internal4dirs19path_from_args_typeNtNvNtCs2MoilIs07Sx_8parallel15target_5_fuzz__10write_args4ArgsEB18_
FNDA:0,_RINvNtCs8THTY5tYJNn_18test_fuzz_internal4dirs31corpus_directory_from_args_typeNtNvNtCs2MoilIs07Sx_8parallel15target_0_fuzz__10write_args4ArgsEB1k_
FNDA:0,_RINvNtCs8THTY5tYJNn_18test_fuzz_internal4dirs31corpus_directory_from_args_typeNtNvNtCs2MoilIs07Sx_8parallel15target_1_fuzz__10write_args4ArgsEB1k_
FNDA:0,_RINvNtCs8THTY5tYJNn_18test_fuzz_internal4dirs31corpus_directory_from_args_typeNtNvNtCs2MoilIs07Sx_8parallel15target_2_fuzz__10write_args4ArgsEB1k_
FNDA:0,_RINvNtCs8THTY5tYJNn_18test_fuzz_internal4dirs31corpus_directory_from_args_typeNtNvNtCs2MoilIs07Sx_8parallel15target_3_fuzz__10write_args4ArgsEB1k_
FNDA:0,_RINvNtCs8THTY5tYJNn_18test_fuzz_internal4dirs31corpus_directory_from_args_typeNtNvNtCs2MoilIs07Sx_8parallel15target_4_fuzz__10write_args4ArgsEB1k_
FNDA:0,_RINvNtCs8THTY5tYJNn_18test_fuzz_internal4dirs31corpus_directory_from_args_typeNtNvNtCs2MoilIs07Sx_8parallel15target_5_fuzz__10write_args4ArgsEB1k_
FNDA:0,_RINvNtCs8THTY5tYJNn_18test_fuzz_internal4dirs37generic_args_directory_from_args_typeNtNtCs2MoilIs07Sx_8parallel15target_0_fuzz__4ArgsEB1o_
FNDA:0,_RINvNtCs8THTY5tYJNn_18test_fuzz_internal4dirs37generic_args_directory_from_args_typeNtNtCs2MoilIs07Sx_8parallel15target_1_fuzz__4ArgsEB1o_
FNDA:0,_RINvNtCs8THTY5tYJNn_18test_fuzz_internal4dirs37generic_args_directory_from_args_typeNtNtCs2MoilIs07Sx_8parallel15target_2_fuzz__4ArgsEB1o_
FNDA:0,_RINvNtCs8THTY5tYJNn_18test_fuzz_internal4dirs37generic_args_directory_from_args_typeNtNtCs2MoilIs07Sx_8parallel15target_3_fuzz__4ArgsEB1o_
FNDA:0,_RINvNtCs8THTY5tYJNn_18test_fuzz_internal4dirs37generic_args_directory_from_args_typeNtNtCs2MoilIs07Sx_8parallel15target_4_fuzz__4ArgsEB1o_
FNDA:0,_RINvNtCs8THTY5tYJNn_18test_fuzz_internal4dirs37generic_args_directory_from_args_typeNtNtCs2MoilIs07Sx_8parallel15target_5_fuzz__4ArgsEB1o_
FNDA:0,_RINvNtCs8THTY5tYJNn_18test_fuzz_internal4dirs42impl_generic_args_directory_from_args_typeNtNtCs2MoilIs07Sx_8parallel15target_0_fuzz__4ArgsEB1t_
FNDA:0,_RINvNtCs8THTY5tYJNn_18test_fuzz_internal4dirs42impl_generic_args_directory_from_args_typeNtNtCs2MoilIs07Sx_8parallel15target_1_fuzz__4ArgsEB1t_
FNDA:0,_RINvNtCs8THTY5tYJNn_18test_fuzz_internal4dirs42impl_generic_args_directory_from_args_typeNtNtCs2MoilIs07Sx_8parallel15target_2_fuzz__4ArgsEB1t_
FNDA:0,_RINvNtCs8THTY5tYJNn_18test_fuzz_internal4dirs42impl_generic_args_directory_from_args_typeNtNtCs2MoilIs07Sx_8parallel15target_3_fuzz__4ArgsEB1t_
FNDA:0,_RINvNtCs8THTY5tYJNn_18test_fuzz_internal4dirs42impl_generic_args_directory_from_args_typeNtNtCs2MoilIs07Sx_8parallel15target_4_fuzz__4ArgsEB1t_
FNDA:0,_RINvNtCs8THTY5tYJNn_18test_fuzz_internal4dirs42impl_generic_args_directory_from_args_typeNtNtCs2MoilIs07Sx_8parallel15target_5_fuzz__4ArgsEB1t_
FNDA:0,_RNCINvNtCs8THTY5tYJNn_18test_fuzz_internal4dirs19path_from_args_typeNtNtCs2MoilIs07Sx_8parallel15target_0_fuzz__4ArgsE0B18_
FNDA:0,_RNCINvNtCs8THTY5tYJNn_18test_fuzz_internal4dirs19path_from_args_typeNtNtCs2MoilIs07Sx_8parallel15target_1_fuzz__4ArgsE0B18_
FNDA:0,_RNCINvNtCs8THTY5tYJNn_18test_fuzz_internal4dirs19path_from_args_typeNtNtCs2MoilIs07Sx_8parallel15target_2_fuzz__4ArgsE0B18_
FNDA:0,_RNCINvNtCs8THTY5tYJNn_18test_fuzz_internal4dirs19path_from_args_typeNtNtCs2MoilIs07Sx_8parallel15target_3_fuzz__4ArgsE0B18_
FNDA:0,_RNCINvNtCs8THTY5tYJNn_18test_fuzz_internal4dirs19path_from_args_typeNtNtCs2MoilIs07Sx_8parallel15target_4_fuzz__4ArgsE0B18_
FNDA:0,_RNCINvNtCs8THTY5tYJNn_18test_fuzz_internal4dirs19path_from_args_typeNtNtCs2MoilIs07Sx_8parallel15target_5_fuzz__4ArgsE0B18_
FNDA:0,_RNCINvNtCs8THTY5tYJNn_18test_fuzz_internal4dirs19path_from_args_typeNtNvNtCs2MoilIs07Sx_8parallel15target_0_fuzz__10write_args4ArgsE0B1a_
FNDA:0,_RNCINvNtCs8THTY5tYJNn_18test_fuzz_internal4dirs19path_from_args_typeNtNvNtCs2MoilIs07Sx_8parallel15target_1_fuzz__10write_args4ArgsE0B1a_
FNDA:0,_RNCINvNtCs8THTY5tYJNn_18test_fuzz_internal4dirs19path_from_args_typeNtNvNtCs2MoilIs07Sx_8parallel15target_2_fuzz__10write_args4ArgsE0B1a_
FNDA:0,_RNCINvNtCs8THTY5tYJNn_18test_fuzz_internal4dirs19path_from_args_typeNtNvNtCs2MoilIs07Sx_8parallel15target_3_fuzz__10write_args4ArgsE0B1a_
FNDA:0,_RNCINvNtCs8THTY5tYJNn_18test_fuzz_internal4dirs19path_from_args_typeNtNvNtCs2MoilIs07Sx_8parallel15target_4_fuzz__10write_args4ArgsE0B1a_
FNDA:0,_RNCINvNtCs8THTY5tYJNn_18test_fuzz_internal4dirs19path_from_args_typeNtNvNtCs2MoilIs07Sx_8parallel15target_5_fuzz__10write_args4ArgsE0B1a_
FNDA:0,_RINvNtCs8THTY5tYJNn_18test_fuzz_internal4dirs19path_from_args_typeNtNtCsiULhbWZWKqL_14parse_duration12parse_fuzz__4ArgsEB16_
FNDA:0,_RINvNtCs8THTY5tYJNn_18test_fuzz_internal4dirs19path_from_args_typeNtNvNtCsiULhbWZWKqL_14parse_duration12parse_fuzz__10write_args4ArgsEB18_
FNDA:0,_RINvNtCs8THTY5tYJNn_18test_fuzz_internal4dirs31corpus_directory_from_args_typeNtNvNtCsiULhbWZWKqL_14parse_duration12parse_fuzz__10write_args4ArgsEB1k_
FNDA:0,_RINvNtCs8THTY5tYJNn_18test_fuzz_internal4dirs37generic_args_directory_from_args_typeNtNtCsiULhbWZWKqL_14parse_duration12parse_fuzz__4ArgsEB1o_
FNDA:0,_RINvNtCs8THTY5tYJNn_18test_fuzz_internal4dirs42impl_generic_args_directory_from_args_typeNtNtCsiULhbWZWKqL_14parse_duration12parse_fuzz__4ArgsEB1t_
FNDA:0,_RNCINvNtCs8THTY5tYJNn_18test_fuzz_internal4dirs19path_from_args_typeNtNtCsiULhbWZWKqL_14parse_duration12parse_fuzz__4ArgsE0B18_
FNDA:0,_RNCINvNtCs8THTY5tYJNn_18test_fuzz_internal4dirs19path_from_args_typeNtNvNtCsiULhbWZWKqL_14parse_duration12parse_fuzz__10write_args4ArgsE0B1a_
FNDA:0,_RINvNtCs8THTY5tYJNn_18test_fuzz_internal4dirs19path_from_args_typeNtNtCs82vfgwK5nMf_7profile13target_fuzz__4ArgsEB16_
FNDA:0,_RINvNtCs8THTY5tYJNn_18test_fuzz_internal4dirs19path_from_args_typeNtNvNtCs82vfgwK5nMf_7profile13target_fuzz__10write_args4ArgsEB18_
FNDA:0,_RINvNtCs8THTY5tYJNn_18test_fuzz_internal4dirs31corpus_directory_from_args_typeNtNvNtCs82vfgwK5nMf_7profile13target_fuzz__10write_args4ArgsEB1k_
FNDA:0,_RINvNtCs8THTY5tYJNn_18test_fuzz_internal4dirs37generic_args_directory_from_args_typeNtNtCs82vfgwK5nMf_7profile13target_fuzz__4ArgsEB1o_
FNDA:0,_RINvNtCs8THTY5tYJNn_18test_fuzz_internal4dirs42impl_generic_args_directory_from_args_typeNtNtCs82vfgwK5nMf_7profile13target_fuzz__4ArgsEB1t_
FNDA:0,_RNCINvNtCs8THTY5tYJNn_18test_fuzz_internal4dirs19path_from_args_typeNtNtCs82vfgwK5nMf_7profile13target_fuzz__4ArgsE0B18_
FNDA:0,_RNCINvNtCs8THTY5tYJNn_18test_fuzz_internal4dirs19path_from_args_typeNtNvNtCs82vfgwK5nMf_7profile13target_fuzz__10write_args4ArgsE0B1a_
FNDA:0,_RINvNtCsfbtA0fWH35c_18test_fuzz_internal4dirs19path_from_args_typeNtNtCs1waMD2fLcEp_6qwerty13target_fuzz__4ArgsEB16_
FNDA:0,_RINvNtCsfbtA0fWH35c_18test_fuzz_internal4dirs19path_from_args_typeNtNvNtCs1waMD2fLcEp_6qwerty13target_fuzz__10write_args4ArgsEB18_
FNDA:0,_RINvNtCsfbtA0fWH35c_18test_fuzz_internal4dirs31corpus_directory_from_args_typeNtNvNtCs1waMD2fLcEp_6qwerty13target_fuzz__10write_args4ArgsEB1k_
FNDA:0,_RINvNtCsfbtA0fWH35c_18test_fuzz_internal4dirs37generic_args_directory_from_args_typeNtNtCs1waMD2fLcEp_6qwerty13target_fuzz__4ArgsEB1o_
FNDA:0,_RINvNtCsfbtA0fWH35c_18test_fuzz_internal4dirs42impl_generic_args_directory_from_args_typeNtNtCs1waMD2fLcEp_6qwerty13target_fuzz__4ArgsEB1t_
FNDA:0,_RNCINvNtCsfbtA0fWH35c_18test_fuzz_internal4dirs19path_from_args_typeNtNtCs1waMD2fLcEp_6qwerty13target_fuzz__4ArgsE0B18_
FNDA:0,_RNCINvNtCsfbtA0fWH35c_18test_fuzz_internal4dirs19path_from_args_typeNtNvNtCs1waMD2fLcEp_6qwerty13target_fuzz__10write_args4ArgsE0B1a_
FNDA:0,_RINvNtCs8THTY5tYJNn_18test_fuzz_internal4dirs19path_from_args_typeNtNtCs2Uuc8eoBrFY_6qwerty13target_fuzz__4ArgsEB16_
FNDA:0,_RINvNtCs8THTY5tYJNn_18test_fuzz_internal4dirs19path_from_args_typeNtNvNtCs2Uuc8eoBrFY_6qwerty13target_fuzz__10write_args4ArgsEB18_
FNDA:0,_RINvNtCs8THTY5tYJNn_18test_fuzz_internal4dirs31corpus_directory_from_args_typeNtNvNtCs2Uuc8eoBrFY_6qwerty13target_fuzz__10write_args4ArgsEB1k_
FNDA:0,_RINvNtCs8THTY5tYJNn_18test_fuzz_internal4dirs37generic_args_directory_from_args_typeNtNtCs2Uuc8eoBrFY_6qwerty13target_fuzz__4ArgsEB1o_
FNDA:0,_RINvNtCs8THTY5tYJNn_18test_fuzz_internal4dirs42impl_generic_args_directory_from_args_typeNtNtCs2Uuc8eoBrFY_6qwerty13target_fuzz__4ArgsEB1t_
FNDA:0,_RNCINvNtCs8THTY5tYJNn_18test_fuzz_internal4dirs19path_from_args_typeNtNtCs2Uuc8eoBrFY_6qwerty13target_fuzz__4ArgsE0B18_
FNDA:0,_RNCINvNtCs8THTY5tYJNn_18test_fuzz_internal4dirs19path_from_args_typeNtNvNtCs2Uuc8eoBrFY_6qwerty13target_fuzz__10write_args4ArgsE0B1a_
FNDA:0,_RINvNtCs8THTY5tYJNn_18test_fuzz_internal4dirs19path_from_args_typeNtNtCsfC9OA1PP7ap_6rename10bar_fuzz__4ArgsEB16_
FNDA:0,_RINvNtCs8THTY5tYJNn_18test_fuzz_internal4dirs19path_from_args_typeNtNvNtCsfC9OA1PP7ap_6rename10bar_fuzz__10write_args4ArgsEB18_
FNDA:0,_RINvNtCs8THTY5tYJNn_18test_fuzz_internal4dirs31corpus_directory_from_args_typeNtNvNtCsfC9OA1PP7ap_6rename10bar_fuzz__10write_args4ArgsEB1k_
FNDA:0,_RINvNtCs8THTY5tYJNn_18test_fuzz_internal4dirs37generic_args_directory_from_args_typeNtNtCsfC9OA1PP7ap_6rename10bar_fuzz__4ArgsEB1o_
FNDA:0,_RINvNtCs8THTY5tYJNn_18test_fuzz_internal4dirs42impl_generic_args_directory_from_args_typeNtNtCsfC9OA1PP7ap_6rename10bar_fuzz__4ArgsEB1t_
FNDA:0,_RNCINvNtCs8THTY5tYJNn_18test_fuzz_internal4dirs19path_from_args_typeNtNtCsfC9OA1PP7ap_6rename10bar_fuzz__4ArgsE0B18_
FNDA:0,_RNCINvNtCs8THTY5tYJNn_18test_fuzz_internal4dirs19path_from_args_typeNtNvNtCsfC9OA1PP7ap_6rename10bar_fuzz__10write_args4ArgsE0B1a_
FNDA:0,_RINvNtCs8THTY5tYJNn_18test_fuzz_internal4dirs19path_from_args_typeINtNtCs3hi3ManBPbw_11return_type16swap_swap_fuzz__4ArgsubEEB17_
FNDA:0,_RINvNtCs8THTY5tYJNn_18test_fuzz_internal4dirs19path_from_args_typeINtNvNtCs3hi3ManBPbw_11return_type16swap_swap_fuzz__10write_args4ArgsubEEB19_
FNDA:0,_RINvNtCs8THTY5tYJNn_18test_fuzz_internal4dirs31corpus_directory_from_args_typeINtNvNtCs3hi3ManBPbw_11return_type16swap_swap_fuzz__10write_args4ArgsubEEB1l_
FNDA:0,_RINvNtCs8THTY5tYJNn_18test_fuzz_internal4dirs37generic_args_directory_from_args_typeINtNtCs3hi3ManBPbw_11return_type16swap_swap_fuzz__4ArgsubEEB1p_
FNDA:0,_RINvNtCs8THTY5tYJNn_18test_fuzz_internal4dirs42impl_generic_args_directory_from_args_typeINtNtCs3hi3ManBPbw_11return_type16swap_swap_fuzz__4ArgsubEEB1u_
FNDA:0,_RNCINvNtCs8THTY5tYJNn_18test_fuzz_internal4dirs19path_from_args_typeINtNtCs3hi3ManBPbw_11return_type16swap_swap_fuzz__4ArgsubEE0B19_
FNDA:0,_RNCINvNtCs8THTY5tYJNn_18test_fuzz_internal4dirs19path_from_args_typeINtNvNtCs3hi3ManBPbw_11return_type16swap_swap_fuzz__10write_args4ArgsubEE0B1b_
FNDA:0,_RINvNtCs8THTY5tYJNn_18test_fuzz_internal4dirs19path_from_args_typeNtNtCs40ThQioJlYI_19self_ty_in_mod_name20struct_target_fuzz__4ArgsEB16_
FNDA:0,_RINvNtCs8THTY5tYJNn_18test_fuzz_internal4dirs19path_from_args_typeNtNvNtCs40ThQioJlYI_19self_ty_in_mod_name20struct_target_fuzz__10write_args4ArgsEB18_
FNDA:0,_RINvNtCs8THTY5tYJNn_18test_fuzz_internal4dirs31corpus_directory_from_args_typeNtNvNtCs40ThQioJlYI_19self_ty_in_mod_name20struct_target_fuzz__10write_args4ArgsEB1k_
FNDA:0,_RINvNtCs8THTY5tYJNn_18test_fuzz_internal4dirs37generic_args_directory_from_args_typeNtNtCs40ThQioJlYI_19self_ty_in_mod_name20struct_target_fuzz__4ArgsEB1o_
FNDA:0,_RINvNtCs8THTY5tYJNn_18test_fuzz_internal4dirs42impl_generic_args_directory_from_args_typeNtNtCs40ThQioJlYI_19self_ty_in_mod_name20struct_target_fuzz__4ArgsEB1t_
FNDA:0,_RNCINvNtCs8THTY5tYJNn_18test_fuzz_internal4dirs19path_from_args_typeNtNtCs40ThQioJlYI_19self_ty_in_mod_name20struct_target_fuzz__4ArgsE0B18_
FNDA:0,_RNCINvNtCs8THTY5tYJNn_18test_fuzz_internal4dirs19path_from_args_typeNtNvNtCs40ThQioJlYI_19self_ty_in_mod_name20struct_target_fuzz__10write_args4ArgsE0B1a_
FNDA:0,_RINvNtCsfbtA0fWH35c_18test_fuzz_internal4dirs19path_from_args_typeNtNtNtCs2k5fBaaxJWw_5serde10byte_array13target_fuzz__4ArgsEB18_
FNDA:0,_RINvNtCsfbtA0fWH35c_18test_fuzz_internal4dirs19path_from_args_typeNtNtNtCs2k5fBaaxJWw_5serde11unit_struct13target_fuzz__4ArgsEB18_
FNDA:0,_RINvNtCsfbtA0fWH35c_18test_fuzz_internal4dirs19path_from_args_typeNtNtNtCs2k5fBaaxJWw_5serde12tuple_struct13target_fuzz__4ArgsEB18_
FNDA:0,_RINvNtCsfbtA0fWH35c_18test_fuzz_internal4dirs19path_from_args_typeNtNtNtCs2k5fBaaxJWw_5serde12unit_variant13target_fuzz__4ArgsEB18_
FNDA:0,_RINvNtCsfbtA0fWH35c_18test_fuzz_internal4dirs19path_from_args_typeNtNtNtCs2k5fBaaxJWw_5serde13tuple_variant13target_fuzz__4ArgsEB18_
FNDA:0,_RINvNtCsfbtA0fWH35c_18test_fuzz_internal4dirs19path_from_args_typeNtNtNtCs2k5fBaaxJWw_5serde14newtype_struct13target_fuzz__4ArgsEB18_
FNDA:0,_RINvNtCsfbtA0fWH35c_18test_fuzz_internal4dirs19path_from_args_typeNtNtNtCs2k5fBaaxJWw_5serde14struct_variant13target_fuzz__4ArgsEB18_
FNDA:0,_RINvNtCsfbtA0fWH35c_18test_fuzz_internal4dirs19path_from_args_typeNtNtNtCs2k5fBaaxJWw_5serde15newtype_variant13target_fuzz__4ArgsEB18_
FNDA:0,_RINvNtCsfbtA0fWH35c_18test_fuzz_internal4dirs19path_from_args_typeNtNtNtCs2k5fBaaxJWw_5serde3map13target_fuzz__4ArgsEB18_
FNDA:0,_RINvNtCsfbtA0fWH35c_18test_fuzz_internal4dirs19path_from_args_typeNtNtNtCs2k5fBaaxJWw_5serde3seq13target_fuzz__4ArgsEB18_
FNDA:0,_RINvNtCsfbtA0fWH35c_18test_fuzz_internal4dirs19path_from_args_typeNtNtNtCs2k5fBaaxJWw_5serde4unit13target_fuzz__4ArgsEB18_
FNDA:0,_RINvNtCsfbtA0fWH35c_18test_fuzz_internal4dirs19path_from_args_typeNtNtNtCs2k5fBaaxJWw_5serde5tuple13target_fuzz__4ArgsEB18_
FNDA:0,_RINvNtCsfbtA0fWH35c_18test_fuzz_internal4dirs19path_from_args_typeNtNtNtCs2k5fBaaxJWw_5serde6option13target_fuzz__4ArgsEB18_
FNDA:0,_RINvNtCsfbtA0fWH35c_18test_fuzz_internal4dirs19path_from_args_typeNtNtNtCs2k5fBaaxJWw_5serde6string13target_fuzz__4ArgsEB18_
FNDA:0,_RINvNtCsfbtA0fWH35c_18test_fuzz_internal4dirs19path_from_args_typeNtNtNtCs2k5fBaaxJWw_5serde6strukt13target_fuzz__4ArgsEB18_
FNDA:0,_RINvNtCsfbtA0fWH35c_18test_fuzz_internal4dirs19path_from_args_typeNtNvNtNtCs2k5fBaaxJWw_5serde10byte_array13target_fuzz__10write_args4ArgsEB1a_
FNDA:0,_RINvNtCsfbtA0fWH35c_18test_fuzz_internal4dirs19path_from_args_typeNtNvNtNtCs2k5fBaaxJWw_5serde11unit_struct13target_fuzz__10write_args4ArgsEB1a_
FNDA:0,_RINvNtCsfbtA0fWH35c_18test_fuzz_internal4dirs19path_from_args_typeNtNvNtNtCs2k5fBaaxJWw_5serde12tuple_struct13target_fuzz__10write_args4ArgsEB1a_
FNDA:0,_RINvNtCsfbtA0fWH35c_18test_fuzz_internal4dirs19path_from_args_typeNtNvNtNtCs2k5fBaaxJWw_5serde12unit_variant13target_fuzz__10write_args4ArgsEB1a_
FNDA:0,_RINvNtCsfbtA0fWH35c_18test_fuzz_internal4dirs19path_from_args_typeNtNvNtNtCs2k5fBaaxJWw_5serde13tuple_variant13target_fuzz__10write_args4ArgsEB1a_
FNDA:0,_RINvNtCsfbtA0fWH35c_18test_fuzz_internal4dirs19path_from_args_typeNtNvNtNtCs2k5fBaaxJWw_5serde14newtype_struct13target_fuzz__10write_args4ArgsEB1a_
FNDA:0,_RINvNtCsfbtA0fWH35c_18test_fuzz_internal4dirs19path_from_args_typeNtNvNtNtCs2k5fBaaxJWw_5serde14struct_variant13target_fuzz__10write_args4ArgsEB1a_
FNDA:0,_RINvNtCsfbtA0fWH35c_18test_fuzz_internal4dirs19path_from_args_typeNtNvNtNtCs2k5fBaaxJWw_5serde15newtype_variant13target_fuzz__10write_args4ArgsEB1a_
FNDA:0,_RINvNtCsfbtA0fWH35c_18test_fuzz_internal4dirs19path_from_args_typeNtNvNtNtCs2k5fBaaxJWw_5serde3map13target_fuzz__10write_args4ArgsEB1a_
FNDA:0,_RINvNtCsfbtA0fWH35c_18test_fuzz_internal4dirs19path_from_args_typeNtNvNtNtCs2k5fBaaxJWw_5serde3seq13target_fuzz__10write_args4ArgsEB1a_
FNDA:0,_RINvNtCsfbtA0fWH35c_18test_fuzz_internal4dirs19path_from_args_typeNtNvNtNtCs2k5fBaaxJWw_5serde4unit13target_fuzz__10write_args4ArgsEB1a_
FNDA:0,_RINvNtCsfbtA0fWH35c_18test_fuzz_internal4dirs19path_from_args_typeNtNvNtNtCs2k5fBaaxJWw_5serde5tuple13target_fuzz__10write_args4ArgsEB1a_
FNDA:0,_RINvNtCsfbtA0fWH35c_18test_fuzz_internal4dirs19path_from_args_typeNtNvNtNtCs2k5fBaaxJWw_5serde6option13target_fuzz__10write_args4ArgsEB1a_
FNDA:0,_RINvNtCsfbtA0fWH35c_18test_fuzz_internal4dirs19path_from_args_typeNtNvNtNtCs2k5fBaaxJWw_5serde6string13target_fuzz__10write_args4ArgsEB1a_
FNDA:0,_RINvNtCsfbtA0fWH35c_18test_fuzz_internal4dirs19path_from_args_typeNtNvNtNtCs2k5fBaaxJWw_5serde6strukt13target_fuzz__10write_args4ArgsEB1a_
FNDA:0,_RINvNtCsfbtA0fWH35c_18test_fuzz_internal4dirs31corpus_directory_from_args_typeNtNvNtNtCs2k5fBaaxJWw_5serde10byte_array13target_fuzz__10write_args4ArgsEB1m_
FNDA:0,_RINvNtCsfbtA0fWH35c_18test_fuzz_internal4dirs31corpus_directory_from_args_typeNtNvNtNtCs2k5fBaaxJWw_5serde11unit_struct13target_fuzz__10write_args4ArgsEB1m_
FNDA:0,_RINvNtCsfbtA0fWH35c_18test_fuzz_internal4dirs31corpus_directory_from_args_typeNtNvNtNtCs2k5fBaaxJWw_5serde12tuple_struct13target_fuzz__10write_args4ArgsEB1m_
FNDA:0,_RINvNtCsfbtA0fWH35c_18test_fuzz_internal4dirs31corpus_directory_from_args_typeNtNvNtNtCs2k5fBaaxJWw_5serde12unit_variant13target_fuzz__10write_args4ArgsEB1m_
FNDA:0,_RINvNtCsfbtA0fWH35c_18test_fuzz_internal4dirs31corpus_directory_from_args_typeNtNvNtNtCs2k5fBaaxJWw_5serde13tuple_variant13target_fuzz__10write_args4ArgsEB1m_
FNDA:0,_RINvNtCsfbtA0fWH35c_18test_fuzz_internal4dirs31corpus_directory_from_args_typeNtNvNtNtCs2k5fBaaxJWw_5serde14newtype_struct13target_fuzz__10write_args4ArgsEB1m_
FNDA:0,_RINvNtCsfbtA0fWH35c_18test_fuzz_internal4dirs31corpus_directory_from_args_typeNtNvNtNtCs2k5fBaaxJWw_5serde14struct_variant13target_fuzz__10write_args4ArgsEB1m_
FNDA:0,_RINvNtCsfbtA0fWH35c_18test_fuzz_internal4dirs31corpus_directory_from_args_typeNtNvNtNtCs2k5fBaaxJWw_5serde15newtype_variant13target_fuzz__10write_args4ArgsEB1m_
FNDA:0,_RINvNtCsfbtA0fWH35c_18test_fuzz_internal4dirs31corpus_directory_from_args_typeNtNvNtNtCs2k5fBaaxJWw_5serde3map13target_fuzz__10write_args4ArgsEB1m_
FNDA:0,_RINvNtCsfbtA0fWH35c_18test_fuzz_internal4dirs31corpus_directory_from_args_typeNtNvNtNtCs2k5fBaaxJWw_5serde3seq13target_fuzz__10write_args4ArgsEB1m_
FNDA:0,_RINvNtCsfbtA0fWH35c_18test_fuzz_internal4dirs31corpus_directory_from_args_typeNtNvNtNtCs2k5fBaaxJWw_5serde4unit13target_fuzz__10write_args4ArgsEB1m_
FNDA:0,_RINvNtCsfbtA0fWH35c_18test_fuzz_internal4dirs31corpus_directory_from_args_typeNtNvNtNtCs2k5fBaaxJWw_5serde5tuple13target_fuzz__10write_args4ArgsEB1m_
FNDA:0,_RINvNtCsfbtA0fWH35c_18test_fuzz_internal4dirs31corpus_directory_from_args_typeNtNvNtNtCs2k5fBaaxJWw_5serde6option13target_fuzz__10write_args4ArgsEB1m_
FNDA:0,_RINvNtCsfbtA0fWH35c_18test_fuzz_internal4dirs31corpus_directory_from_args_typeNtNvNtNtCs2k5fBaaxJWw_5serde6string13target_fuzz__10write_args4ArgsEB1m_
FNDA:0,_RINvNtCsfbtA0fWH35c_18test_fuzz_internal4dirs31corpus_directory_from_args_typeNtNvNtNtCs2k5fBaaxJWw_5serde6strukt13target_fuzz__10write_args4ArgsEB1m_
FNDA:0,_RINvNtCsfbtA0fWH35c_18test_fuzz_internal4dirs37generic_args_directory_from_args_typeNtNtNtCs2k5fBaaxJWw_5serde10byte_array13target_fuzz__4ArgsEB1q_
FNDA:0,_RINvNtCsfbtA0fWH35c_18test_fuzz_internal4dirs37generic_args_directory_from_args_typeNtNtNtCs2k5fBaaxJWw_5serde11unit_struct13target_fuzz__4ArgsEB1q_
FNDA:0,_RINvNtCsfbtA0fWH35c_18test_fuzz_internal4dirs37generic_args_directory_from_args_typeNtNtNtCs2k5fBaaxJWw_5serde12tuple_struct13target_fuzz__4ArgsEB1q_
FNDA:0,_RINvNtCsfbtA0fWH35c_18test_fuzz_internal4dirs37generic_args_directory_from_args_typeNtNtNtCs2k5fBaaxJWw_5serde12unit_variant13target_fuzz__4ArgsEB1q_
FNDA:0,_RINvNtCsfbtA0fWH35c_18test_fuzz_internal4dirs37generic_args_directory_from_args_typeNtNtNtCs2k5fBaaxJWw_5serde13tuple_variant13target_fuzz__4ArgsEB1q_
FNDA:0,_RINvNtCsfbtA0fWH35c_18test_fuzz_internal4dirs37generic_args_directory_from_args_typeNtNtNtCs2k5fBaaxJWw_5serde14newtype_struct13target_fuzz__4ArgsEB1q_
FNDA:0,_RINvNtCsfbtA0fWH35c_18test_fuzz_internal4dirs37generic_args_directory_from_args_typeNtNtNtCs2k5fBaaxJWw_5serde14struct_variant13target_fuzz__4ArgsEB1q_
FNDA:0,_RINvNtCsfbtA0fWH35c_18test_fuzz_internal4dirs37generic_args_directory_from_args_typeNtNtNtCs2k5fBaaxJWw_5serde15newtype_variant13target_fuzz__4ArgsEB1q_
FNDA:0,_RINvNtCsfbtA0fWH35c_18test_fuzz_internal4dirs37generic_args_directory_from_args_typeNtNtNtCs2k5fBaaxJWw_5serde3map13target_fuzz__4ArgsEB1q_
FNDA:0,_RINvNtCsfbtA0fWH35c_18test_fuzz_internal4dirs37generic_args_directory_from_args_typeNtNtNtCs2k5fBaaxJWw_5serde3seq13target_fuzz__4ArgsEB1q_
FNDA:0,_RINvNtCsfbtA0fWH35c_18test_fuzz_internal4dirs37generic_args_directory_from_args_typeNtNtNtCs2k5fBaaxJWw_5serde4unit13target_fuzz__4ArgsEB1q_
FNDA:0,_RINvNtCsfbtA0fWH35c_18test_fuzz_internal4dirs37generic_args_directory_from_args_typeNtNtNtCs2k5fBaaxJWw_5serde5tuple13target_fuzz__4ArgsEB1q_
FNDA:0,_RINvNtCsfbtA0fWH35c_18test_fuzz_internal4dirs37generic_args_directory_from_args_typeNtNtNtCs2k5fBaaxJWw_5serde6option13target_fuzz__4ArgsEB1q_
FNDA:0,_RINvNtCsfbtA0fWH35c_18test_fuzz_internal4dirs37generic_args_directory_from_args_typeNtNtNtCs2k5fBaaxJWw_5serde6string13target_fuzz__4ArgsEB1q_
FNDA:0,_RINvNtCsfbtA0fWH35c_18test_fuzz_internal4dirs37generic_args_directory_from_args_typeNtNtNtCs2k5fBaaxJWw_5serde6strukt13target_fuzz__4ArgsEB1q_
FNDA:0,_RINvNtCsfbtA0fWH35c_18test_fuzz_internal4dirs42impl_generic_args_directory_from_args_typeNtNtNtCs2k5fBaaxJWw_5serde10byte_array13target_fuzz__4ArgsEB1v_
FNDA:0,_RINvNtCsfbtA0fWH35c_18test_fuzz_internal4dirs42impl_generic_args_directory_from_args_typeNtNtNtCs2k5fBaaxJWw_5serde11unit_struct13target_fuzz__4ArgsEB1v_
FNDA:0,_RINvNtCsfbtA0fWH35c_18test_fuzz_internal4dirs42impl_generic_args_directory_from_args_typeNtNtNtCs2k5fBaaxJWw_5serde12tuple_struct13target_fuzz__4ArgsEB1v_
FNDA:0,_RINvNtCsfbtA0fWH35c_18test_fuzz_internal4dirs42impl_generic_args_directory_from_args_typeNtNtNtCs2k5fBaaxJWw_5serde12unit_variant13target_fuzz__4ArgsEB1v_
FNDA:0,_RINvNtCsfbtA0fWH35c_18test_fuzz_internal4dirs42impl_generic_args_directory_from_args_typeNtNtNtCs2k5fBaaxJWw_5serde13tuple_variant13target_fuzz__4ArgsEB1v_
FNDA:0,_RINvNtCsfbtA0fWH35c_18test_fuzz_internal4dirs42impl_generic_args_directory_from_args_typeNtNtNtCs2k5fBaaxJWw_5serde14newtype_struct13target_fuzz__4ArgsEB1v_
FNDA:0,_RINvNtCsfbtA0fWH35c_18test_fuzz_internal4dirs42impl_generic_args_directory_from_args_typeNtNtNtCs2k5fBaaxJWw_5serde14struct_variant13target_fuzz__4ArgsEB1v_
FNDA:0,_RINvNtCsfbtA0fWH35c_18test_fuzz_internal4dirs42impl_generic_args_directory_from_args_typeNtNtNtCs2k5fBaaxJWw_5serde15newtype_variant13target_fuzz__4ArgsEB1v_
FNDA:0,_RINvNtCsfbtA0fWH35c_18test_fuzz_internal4dirs42impl_generic_args_directory_from_args_typeNtNtNtCs2k5fBaaxJWw_5serde3map13target_fuzz__4ArgsEB1v_
FNDA:0,_RINvNtCsfbtA0fWH35c_18test_fuzz_internal4dirs42impl_generic_args_directory_from_args_typeNtNtNtCs2k5fBaaxJWw_5serde3seq13target_fuzz__4ArgsEB1v_
FNDA:0,_RINvNtCsfbtA0fWH35c_18test_fuzz_internal4dirs42impl_generic_args_directory_from_args_typeNtNtNtCs2k5fBaaxJWw_5serde4unit13target_fuzz__4ArgsEB1v_
FNDA:0,_RINvNtCsfbtA0fWH35c_18test_fuzz_internal4dirs42impl_generic_args_directory_from_args_typeNtNtNtCs2k5fBaaxJWw_5serde5tuple13target_fuzz__4ArgsEB1v_
FNDA:0,_RINvNtCsfbtA0fWH35c_18test_fuzz_internal4dirs42impl_generic_args_directory_from_args_typeNtNtNtCs2k5fBaaxJWw_5serde6option13target_fuzz__4ArgsEB1v_
FNDA:0,_RINvNtCsfbtA0fWH35c_18test_fuzz_internal4dirs42impl_generic_args_directory_from_args_typeNtNtNtCs2k5fBaaxJWw_5serde6string13target_fuzz__4ArgsEB1v_
FNDA:0,_RINvNtCsfbtA0fWH35c_18test_fuzz_internal4dirs42impl_generic_args_directory_from_args_typeNtNtNtCs2k5fBaaxJWw_5serde6strukt13target_fuzz__4ArgsEB1v_
FNDA:0,_RNCINvNtCsfbtA0fWH35c_18test_fuzz_internal4dirs19path_from_args_typeNtNtNtCs2k5fBaaxJWw_5serde10byte_array13target_fuzz__4ArgsE0B1a_
FNDA:0,_RNCINvNtCsfbtA0fWH35c_18test_fuzz_internal4dirs19path_from_args_typeNtNtNtCs2k5fBaaxJWw_5serde11unit_struct13target_fuzz__4ArgsE0B1a_
FNDA:0,_RNCINvNtCsfbtA0fWH35c_18test_fuzz_internal4dirs19path_from_args_typeNtNtNtCs2k5fBaaxJWw_5serde12tuple_struct13target_fuzz__4ArgsE0B1a_
FNDA:0,_RNCINvNtCsfbtA0fWH35c_18test_fuzz_internal4dirs19path_from_args_typeNtNtNtCs2k5fBaaxJWw_5serde12unit_variant13target_fuzz__4ArgsE0B1a_
FNDA:0,_RNCINvNtCsfbtA0fWH35c_18test_fuzz_internal4dirs19path_from_args_typeNtNtNtCs2k5fBaaxJWw_5serde13tuple_variant13target_fuzz__4ArgsE0B1a_
FNDA:0,_RNCINvNtCsfbtA0fWH35c_18test_fuzz_internal4dirs19path_from_args_typeNtNtNtCs2k5fBaaxJWw_5serde14newtype_struct13target_fuzz__4ArgsE0B1a_
FNDA:0,_RNCINvNtCsfbtA0fWH35c_18test_fuzz_internal4dirs19path_from_args_typeNtNtNtCs2k5fBaaxJWw_5serde14struct_variant13target_fuzz__4ArgsE0B1a_
FNDA:0,_RNCINvNtCsfbtA0fWH35c_18test_fuzz_internal4dirs19path_from_args_typeNtNtNtCs2k5fBaaxJWw_5serde15newtype_variant13target_fuzz__4ArgsE0B1a_
FNDA:0,_RNCINvNtCsfbtA0fWH35c_18test_fuzz_internal4dirs19path_from_args_typeNtNtNtCs2k5fBaaxJWw_5serde3map13target_fuzz__4ArgsE0B1a_
FNDA:0,_RNCINvNtCsfbtA0fWH35c_18test_fuzz_internal4dirs19path_from_args_typeNtNtNtCs2k5fBaaxJWw_5serde3seq13target_fuzz__4ArgsE0B1a_
FNDA:0,_RNCINvNtCsfbtA0fWH35c_18test_fuzz_internal4dirs19path_from_args_typeNtNtNtCs2k5fBaaxJWw_5serde4unit13target_fuzz__4ArgsE0B1a_
FNDA:0,_RNCINvNtCsfbtA0fWH35c_18test_fuzz_internal4dirs19path_from_args_typeNtNtNtCs2k5fBaaxJWw_5serde5tuple13target_fuzz__4ArgsE0B1a_
FNDA:0,_RNCINvNtCsfbtA0fWH35c_18test_fuzz_internal4dirs19path_from_args_typeNtNtNtCs2k5fBaaxJWw_5serde6option13target_fuzz__4ArgsE0B1a_
FNDA:0,_RNCINvNtCsfbtA0fWH35c_18test_fuzz_internal4dirs19path_from_args_typeNtNtNtCs2k5fBaaxJWw_5serde6string13target_fuzz__4ArgsE0B1a_
FNDA:0,_RNCINvNtCsfbtA0fWH35c_18test_fuzz_internal4dirs19path_from_args_typeNtNtNtCs2k5fBaaxJWw_5serde6strukt13target_fuzz__4ArgsE0B1a_
FNDA:0,_RNCINvNtCsfbtA0fWH35c_18test_fuzz_internal4dirs19path_from_args_typeNtNvNtNtCs2k5fBaaxJWw_5serde10byte_array13target_fuzz__10write_args4ArgsE0B1c_
FNDA:0,_RNCINvNtCsfbtA0fWH35c_18test_fuzz_internal4dirs19path_from_args_typeNtNvNtNtCs2k5fBaaxJWw_5serde11unit_struct13target_fuzz__10write_args4ArgsE0B1c_
FNDA:0,_RNCINvNtCsfbtA0fWH35c_18test_fuzz_internal4dirs19path_from_args_typeNtNvNtNtCs2k5fBaaxJWw_5serde12tuple_struct13target_fuzz__10write_args4ArgsE0B1c_
FNDA:0,_RNCINvNtCsfbtA0fWH35c_18test_fuzz_internal4dirs19path_from_args_typeNtNvNtNtCs2k5fBaaxJWw_5serde12unit_variant13target_fuzz__10write_args4ArgsE0B1c_
FNDA:0,_RNCINvNtCsfbtA0fWH35c_18test_fuzz_internal4dirs19path_from_args_typeNtNvNtNtCs2k5fBaaxJWw_5serde13tuple_variant13target_fuzz__10write_args4ArgsE0B1c_
FNDA:0,_RNCINvNtCsfbtA0fWH35c_18test_fuzz_internal4dirs19path_from_args_typeNtNvNtNtCs2k5fBaaxJWw_5serde14newtype_struct13target_fuzz__10write_args4ArgsE0B1c_
FNDA:0,_RNCINvNtCsfbtA0fWH35c_18test_fuzz_internal4dirs19path_from_args_typeNtNvNtNtCs2k5fBaaxJWw_5serde14struct_variant13target_fuzz__10write_args4ArgsE0B1c_
FNDA:0,_RNCINvNtCsfbtA0fWH35c_18test_fuzz_internal4dirs19path_from_args_typeNtNvNtNtCs2k5fBaaxJWw_5serde15newtype_variant13target_fuzz__10write_args4ArgsE0B1c_
FNDA:0,_RNCINvNtCsfbtA0fWH35c_18test_fuzz_internal4dirs19path_from_args_typeNtNvNtNtCs2k5fBaaxJWw_5serde3map13target_fuzz__10write_args4ArgsE0B1c_
FNDA:0,_RNCINvNtCsfbtA0fWH35c_18test_fuzz_internal4dirs19path_from_args_typeNtNvNtNtCs2k5fBaaxJWw_5serde3seq13target_fuzz__10write_args4ArgsE0B1c_
FNDA:0,_RNCINvNtCsfbtA0fWH35c_18test_fuzz_internal4dirs19path_from_args_typeNtNvNtNtCs2k5fBaaxJWw_5serde4unit13target_fuzz__10write_args4ArgsE0B1c_
FNDA:0,_RNCINvNtCsfbtA0fWH35c_18test_fuzz_internal4dirs19path_from_args_typeNtNvNtNtCs2k5fBaaxJWw_5serde5tuple13target_fuzz__10write_args4ArgsE0B1c_
FNDA:0,_RNCINvNtCsfbtA0fWH35c_18test_fuzz_internal4dirs19path_from_args_typeNtNvNtNtCs2k5fBaaxJWw_5serde6option13target_fuzz__10write_args4ArgsE0B1c_
FNDA:0,_RNCINvNtCsfbtA0fWH35c_18test_fuzz_internal4dirs19path_from_args_typeNtNvNtNtCs2k5fBaaxJWw_5serde6string13target_fuzz__10write_args4ArgsE0B1c_
FNDA:0,_RNCINvNtCsfbtA0fWH35c_18test_fuzz_internal4dirs19path_from_args_typeNtNvNtNtCs2k5fBaaxJWw_5serde6strukt13target_fuzz__10write_args4ArgsE0B1c_
FNDA:0,_RINvNtCs8THTY5tYJNn_18test_fuzz_internal4dirs19path_from_args_typeNtNtNtCshaKEw7X8Hfl_5serde10byte_array13target_fuzz__4ArgsEB18_
FNDA:0,_RINvNtCs8THTY5tYJNn_18test_fuzz_internal4dirs19path_from_args_typeNtNtNtCshaKEw7X8Hfl_5serde11unit_struct13target_fuzz__4ArgsEB18_
FNDA:0,_RINvNtCs8THTY5tYJNn_18test_fuzz_internal4dirs19path_from_args_typeNtNtNtCshaKEw7X8Hfl_5serde12tuple_struct13target_fuzz__4ArgsEB18_
FNDA:0,_RINvNtCs8THTY5tYJNn_18test_fuzz_internal4dirs19path_from_args_typeNtNtNtCshaKEw7X8Hfl_5serde12unit_variant13target_fuzz__4ArgsEB18_
FNDA:0,_RINvNtCs8THTY5tYJNn_18test_fuzz_internal4dirs19path_from_args_typeNtNtNtCshaKEw7X8Hfl_5serde13tuple_variant13target_fuzz__4ArgsEB18_
FNDA:0,_RINvNtCs8THTY5tYJNn_18test_fuzz_internal4dirs19path_from_args_typeNtNtNtCshaKEw7X8Hfl_5serde14newtype_struct13target_fuzz__4ArgsEB18_
FNDA:0,_RINvNtCs8THTY5tYJNn_18test_fuzz_internal4dirs19path_from_args_typeNtNtNtCshaKEw7X8Hfl_5serde14struct_variant13target_fuzz__4ArgsEB18_
FNDA:0,_RINvNtCs8THTY5tYJNn_18test_fuzz_internal4dirs19path_from_args_typeNtNtNtCshaKEw7X8Hfl_5serde15newtype_variant13target_fuzz__4ArgsEB18_
FNDA:0,_RINvNtCs8THTY5tYJNn_18test_fuzz_internal4dirs19path_from_args_typeNtNtNtCshaKEw7X8Hfl_5serde3map13target_fuzz__4ArgsEB18_
FNDA:0,_RINvNtCs8THTY5tYJNn_18test_fuzz_internal4dirs19path_from_args_typeNtNtNtCshaKEw7X8Hfl_5serde3seq13target_fuzz__4ArgsEB18_
FNDA:0,_RINvNtCs8THTY5tYJNn_18test_fuzz_internal4dirs19path_from_args_typeNtNtNtCshaKEw7X8Hfl_5serde4unit13target_fuzz__4ArgsEB18_
FNDA:0,_RINvNtCs8THTY5tYJNn_18test_fuzz_internal4dirs19path_from_args_typeNtNtNtCshaKEw7X8Hfl_5serde5tuple13target_fuzz__4ArgsEB18_
FNDA:0,_RINvNtCs8THTY5tYJNn_18test_fuzz_internal4dirs19path_from_args_typeNtNtNtCshaKEw7X8Hfl_5serde6option13target_fuzz__4ArgsEB18_
FNDA:0,_RINvNtCs8THTY5tYJNn_18test_fuzz_internal4dirs19path_from_args_typeNtNtNtCshaKEw7X8Hfl_5serde6string13target_fuzz__4ArgsEB18_
FNDA:0,_RINvNtCs8THTY5tYJNn_18test_fuzz_internal4dirs19path_from_args_typeNtNtNtCshaKEw7X8Hfl_5serde6strukt13target_fuzz__4ArgsEB18_
FNDA:0,_RINvNtCs8THTY5tYJNn_18test_fuzz_internal4dirs19path_from_args_typeNtNvNtNtCshaKEw7X8Hfl_5serde10byte_array13target_fuzz__10write_args4ArgsEB1a_
FNDA:0,_RINvNtCs8THTY5tYJNn_18test_fuzz_internal4dirs19path_from_args_typeNtNvNtNtCshaKEw7X8Hfl_5serde11unit_struct13target_fuzz__10write_args4ArgsEB1a_
FNDA:0,_RINvNtCs8THTY5tYJNn_18test_fuzz_internal4dirs19path_from_args_typeNtNvNtNtCshaKEw7X8Hfl_5serde12tuple_struct13target_fuzz__10write_args4ArgsEB1a_
FNDA:0,_RINvNtCs8THTY5tYJNn_18test_fuzz_internal4dirs19path_from_args_typeNtNvNtNtCshaKEw7X8Hfl_5serde12unit_variant13target_fuzz__10write_args4ArgsEB1a_
FNDA:0,_RINvNtCs8THTY5tYJNn_18test_fuzz_internal4dirs19path_from_args_typeNtNvNtNtCshaKEw7X8Hfl_5serde13tuple_variant13target_fuzz__10write_args4ArgsEB1a_
FNDA:0,_RINvNtCs8THTY5tYJNn_18test_fuzz_internal4dirs19path_from_args_typeNtNvNtNtCshaKEw7X8Hfl_5serde14newtype_struct13target_fuzz__10write_args4ArgsEB1a_
FNDA:0,_RINvNtCs8THTY5tYJNn_18test_fuzz_internal4dirs19path_from_args_typeNtNvNtNtCshaKEw7X8Hfl_5serde14struct_variant13target_fuzz__10write_args4ArgsEB1a_
FNDA:0,_RINvNtCs8THTY5tYJNn_18test_fuzz_internal4dirs19path_from_args_typeNtNvNtNtCshaKEw7X8Hfl_5serde15newtype_variant13target_fuzz__10write_args4ArgsEB1a_
FNDA:0,_RINvNtCs8THTY5tYJNn_18test_fuzz_internal4dirs19path_from_args_typeNtNvNtNtCshaKEw7X8Hfl_5serde3map13target_fuzz__10write_args4ArgsEB1a_
FNDA:0,_RINvNtCs8THTY5tYJNn_18test_fuzz_internal4dirs19path_from_args_typeNtNvNtNtCshaKEw7X8Hfl_5serde3seq13target_fuzz__10write_args4ArgsEB1a_
FNDA:0,_RINvNtCs8THTY5tYJNn_18test_fuzz_internal4dirs19path_from_args_typeNtNvNtNtCshaKEw7X8Hfl_5serde4unit13target_fuzz__10write_args4ArgsEB1a_
FNDA:0,_RINvNtCs8THTY5tYJNn_18test_fuzz_internal4dirs19path_from_args_typeNtNvNtNtCshaKEw7X8Hfl_5serde5tuple13target_fuzz__10write_args4ArgsEB1a_
FNDA:0,_RINvNtCs8THTY5tYJNn_18test_fuzz_internal4dirs19path_from_args_typeNtNvNtNtCshaKEw7X8Hfl_5serde6option13target_fuzz__10write_args4ArgsEB1a_
FNDA:0,_RINvNtCs8THTY5tYJNn_18test_fuzz_internal4dirs19path_from_args_typeNtNvNtNtCshaKEw7X8Hfl_5serde6string13target_fuzz__10write_args4ArgsEB1a_
FNDA:0,_RINvNtCs8THTY5tYJNn_18test_fuzz_internal4dirs19path_from_args_typeNtNvNtNtCshaKEw7X8Hfl_5serde6strukt13target_fuzz__10write_args4ArgsEB1a_
FNDA:0,_RINvNtCs8THTY5tYJNn_18test_fuzz_internal4dirs31corpus_directory_from_args_typeNtNvNtNtCshaKEw7X8Hfl_5serde10byte_array13target_fuzz__10write_args4ArgsEB1m_
FNDA:0,_RINvNtCs8THTY5tYJNn_18test_fuzz_internal4dirs31corpus_directory_from_args_typeNtNvNtNtCshaKEw7X8Hfl_5serde11unit_struct13target_fuzz__10write_args4ArgsEB1m_
FNDA:0,_RINvNtCs8THTY5tYJNn_18test_fuzz_internal4dirs31corpus_directory_from_args_typeNtNvNtNtCshaKEw7X8Hfl_5serde12tuple_struct13target_fuzz__10write_args4ArgsEB1m_
FNDA:0,_RINvNtCs8THTY5tYJNn_18test_fuzz_internal4dirs31corpus_directory_from_args_typeNtNvNtNtCshaKEw7X8Hfl_5serde12unit_variant13target_fuzz__10write_args4ArgsEB1m_
FNDA:0,_RINvNtCs8THTY5tYJNn_18test_fuzz_internal4dirs31corpus_directory_from_args_typeNtNvNtNtCshaKEw7X8Hfl_5serde13tuple_variant13target_fuzz__10write_args4ArgsEB1m_
FNDA:0,_RINvNtCs8THTY5tYJNn_18test_fuzz_internal4dirs31corpus_directory_from_args_typeNtNvNtNtCshaKEw7X8Hfl_5serde14newtype_struct13target_fuzz__10write_args4ArgsEB1m_
FNDA:0,_RINvNtCs8THTY5tYJNn_18test_fuzz_internal4dirs31corpus_directory_from_args_typeNtNvNtNtCshaKEw7X8Hfl_5serde14struct_variant13target_fuzz__10write_args4ArgsEB1m_
FNDA:0,_RINvNtCs8THTY5tYJNn_18test_fuzz_internal4dirs31corpus_directory_from_args_typeNtNvNtNtCshaKEw7X8Hfl_5serde15newtype_variant13target_fuzz__10write_args4ArgsEB1m_
FNDA:0,_RINvNtCs8THTY5tYJNn_18test_fuzz_internal4dirs31corpus_directory_from_args_typeNtNvNtNtCshaKEw7X8Hfl_5serde3map13target_fuzz__10write_args4ArgsEB1m_
FNDA:0,_RINvNtCs8THTY5tYJNn_18test_fuzz_internal4dirs31corpus_directory_from_args_typeNtNvNtNtCshaKEw7X8Hfl_5serde3seq13target_fuzz__10write_args4ArgsEB1m_
FNDA:0,_RINvNtCs8THTY5tYJNn_18test_fuzz_internal4dirs31corpus_directory_from_args_typeNtNvNtNtCshaKEw7X8Hfl_5serde4unit13target_fuzz__10write_args4ArgsEB1m_
FNDA:0,_RINvNtCs8THTY5tYJNn_18test_fuzz_internal4dirs31corpus_directory_from_args_typeNtNvNtNtCshaKEw7X8Hfl_5serde5tuple13target_fuzz__10write_args4ArgsEB1m_
FNDA:0,_RINvNtCs8THTY5tYJNn_18test_fuzz_internal4dirs31corpus_directory_from_args_typeNtNvNtNtCshaKEw7X8Hfl_5serde6option13target_fuzz__10write_args4ArgsEB1m_
FNDA:0,_RINvNtCs8THTY5tYJNn_18test_fuzz_internal4dirs31corpus_directory_from_args_typeNtNvNtNtCshaKEw7X8Hfl_5serde6string13target_fuzz__10write_args4ArgsEB1m_
FNDA:0,_RINvNtCs8THTY5tYJNn_18test_fuzz_internal4dirs31corpus_directory_from_args_typeNtNvNtNtCshaKEw7X8Hfl_5serde6strukt13target_fuzz__10write_args4ArgsEB1m_
FNDA:0,_RINvNtCs8THTY5tYJNn_18test_fuzz_internal4dirs37generic_args_directory_from_args_typeNtNtNtCshaKEw7X8Hfl_5serde10byte_array13target_fuzz__4ArgsEB1q_
FNDA:0,_RINvNtCs8THTY5tYJNn_18test_fuzz_internal4dirs37generic_args_directory_from_args_typeNtNtNtCshaKEw7X8Hfl_5serde11unit_struct13target_fuzz__4ArgsEB1q_
FNDA:0,_RINvNtCs8THTY5tYJNn_18test_fuzz_internal4dirs37generic_args_directory_from_args_typeNtNtNtCshaKEw7X8Hfl_5serde12tuple_struct13target_fuzz__4ArgsEB1q_
FNDA:0,_RINvNtCs8THTY5tYJNn_18test_fuzz_internal4dirs37generic_args_directory_from_args_typeNtNtNtCshaKEw7X8Hfl_5serde12unit_variant13target_fuzz__4ArgsEB1q_
FNDA:0,_RINvNtCs8THTY5tYJNn_18test_fuzz_internal4dirs37generic_args_directory_from_args_typeNtNtNtCshaKEw7X8Hfl_5serde13tuple_variant13target_fuzz__4ArgsEB1q_
FNDA:0,_RINvNtCs8THTY5tYJNn_18test_fuzz_internal4dirs37generic_args_directory_from_args_typeNtNtNtCshaKEw7X8Hfl_5serde14newtype_struct13target_fuzz__4ArgsEB1q_
FNDA:0,_RINvNtCs8THTY5tYJNn_18test_fuzz_internal4dirs37generic_args_directory_from_args_typeNtNtNtCshaKEw7X8Hfl_5serde14struct_variant13target_fuzz__4ArgsEB1q_
FNDA:0,_RINvNtCs8THTY5tYJNn_18test_fuzz_internal4dirs37generic_args_directory_from_args_typeNtNtNtCshaKEw7X8Hfl_5serde15newtype_variant13target_fuzz__4ArgsEB1q_
FNDA:0,_RINvNtCs8THTY5tYJNn_18test_fuzz_internal4dirs37generic_args_directory_from_args_typeNtNtNtCshaKEw7X8Hfl_5serde3map13target_fuzz__4ArgsEB1q_
FNDA:0,_RINvNtCs8THTY5tYJNn_18test_fuzz_internal4dirs37generic_args_directory_from_args_typeNtNtNtCshaKEw7X8Hfl_5serde3seq13target_fuzz__4ArgsEB1q_
FNDA:0,_RINvNtCs8THTY5tYJNn_18test_fuzz_internal4dirs37generic_args_directory_from_args_typeNtNtNtCshaKEw7X8Hfl_5serde4unit13target_fuzz__4ArgsEB1q_
FNDA:0,_RINvNtCs8THTY5tYJNn_18test_fuzz_internal4dirs37generic_args_directory_from_args_typeNtNtNtCshaKEw7X8Hfl_5serde5tuple13target_fuzz__4ArgsEB1q_
FNDA:0,_RINvNtCs8THTY5tYJNn_18test_fuzz_internal4dirs37generic_args_directory_from_args_typeNtNtNtCshaKEw7X8Hfl_5serde6option13target_fuzz__4ArgsEB1q_
FNDA:0,_RINvNtCs8THTY5tYJNn_18test_fuzz_internal4dirs37generic_args_directory_from_args_typeNtNtNtCshaKEw7X8Hfl_5serde6string13target_fuzz__4ArgsEB1q_
FNDA:0,_RINvNtCs8THTY5tYJNn_18test_fuzz_internal4dirs37generic_args_directory_from_args_typeNtNtNtCshaKEw7X8Hfl_5serde6strukt13target_fuzz__4ArgsEB1q_
FNDA:0,_RINvNtCs8THTY5tYJNn_18test_fuzz_internal4dirs42impl_generic_args_directory_from_args_typeNtNtNtCshaKEw7X8Hfl_5serde10byte_array13target_fuzz__4ArgsEB1v_
FNDA:0,_RINvNtCs8THTY5tYJNn_18test_fuzz_internal4dirs42impl_generic_args_directory_from_args_typeNtNtNtCshaKEw7X8Hfl_5serde11unit_struct13target_fuzz__4ArgsEB1v_
FNDA:0,_RINvNtCs8THTY5tYJNn_18test_fuzz_internal4dirs42impl_generic_args_directory_from_args_typeNtNtNtCshaKEw7X8Hfl_5serde12tuple_struct13target_fuzz__4ArgsEB1v_
FNDA:0,_RINvNtCs8THTY5tYJNn_18test_fuzz_internal4dirs42impl_generic_args_directory_from_args_typeNtNtNtCshaKEw7X8Hfl_5serde12unit_variant13target_fuzz__4ArgsEB1v_
FNDA:0,_RINvNtCs8THTY5tYJNn_18test_fuzz_internal4dirs42impl_generic_args_directory_from_args_typeNtNtNtCshaKEw7X8Hfl_5serde13tuple_variant13target_fuzz__4ArgsEB1v_
FNDA:0,_RINvNtCs8THTY5tYJNn_18test_fuzz_internal4dirs42impl_generic_args_directory_from_args_typeNtNtNtCshaKEw7X8Hfl_5serde14newtype_struct13target_fuzz__4ArgsEB1v_
FNDA:0,_RINvNtCs8THTY5tYJNn_18test_fuzz_internal4dirs42impl_generic_args_directory_from_args_typeNtNtNtCshaKEw7X8Hfl_5serde14struct_variant13target_fuzz__4ArgsEB1v_
FNDA:0,_RINvNtCs8THTY5tYJNn_18test_fuzz_internal4dirs42impl_generic_args_directory_from_args_typeNtNtNtCshaKEw7X8Hfl_5serde15newtype_variant13target_fuzz__4ArgsEB1v_
FNDA:0,_RINvNtCs8THTY5tYJNn_18test_fuzz_internal4dirs42impl_generic_args_directory_from_args_typeNtNtNtCshaKEw7X8Hfl_5serde3map13target_fuzz__4ArgsEB1v_
FNDA:0,_RINvNtCs8THTY5tYJNn_18test_fuzz_internal4dirs42impl_generic_args_directory_from_args_typeNtNtNtCshaKEw7X8Hfl_5serde3seq13target_fuzz__4ArgsEB1v_
FNDA:0,_RINvNtCs8THTY5tYJNn_18test_fuzz_internal4dirs42impl_generic_args_directory_from_args_typeNtNtNtCshaKEw7X8Hfl_5serde4unit13target_fuzz__4ArgsEB1v_
FNDA:0,_RINvNtCs8THTY5tYJNn_18test_fuzz_internal4dirs42impl_generic_args_directory_from_args_typeNtNtNtCshaKEw7X8Hfl_5serde5tuple13target_fuzz__4ArgsEB1v_
FNDA:0,_RINvNtCs8THTY5tYJNn_18test_fuzz_internal4dirs42impl_generic_args_directory_from_args_typeNtNtNtCshaKEw7X8Hfl_5serde6option13target_fuzz__4ArgsEB1v_
FNDA:0,_RINvNtCs8THTY5tYJNn_18test_fuzz_internal4dirs42impl_generic_args_directory_from_args_typeNtNtNtCshaKEw7X8Hfl_5serde6string13target_fuzz__4ArgsEB1v_
FNDA:0,_RINvNtCs8THTY5tYJNn_18test_fuzz_internal4dirs42impl_generic_args_directory_from_args_typeNtNtNtCshaKEw7X8Hfl_5serde6strukt13target_fuzz__4ArgsEB1v_
FNDA:0,_RNCINvNtCs8THTY5tYJNn_18test_fuzz_internal4dirs19path_from_args_typeNtNtNtCshaKEw7X8Hfl_5serde10byte_array13target_fuzz__4ArgsE0B1a_
FNDA:0,_RNCINvNtCs8THTY5tYJNn_18test_fuzz_internal4dirs19path_from_args_typeNtNtNtCshaKEw7X8Hfl_5serde11unit_struct13target_fuzz__4ArgsE0B1a_
FNDA:0,_RNCINvNtCs8THTY5tYJNn_18test_fuzz_internal4dirs19path_from_args_typeNtNtNtCshaKEw7X8Hfl_5serde12tuple_struct13target_fuzz__4ArgsE0B1a_
FNDA:0,_RNCINvNtCs8THTY5tYJNn_18test_fuzz_internal4dirs19path_from_args_typeNtNtNtCshaKEw7X8Hfl_5serde12unit_variant13target_fuzz__4ArgsE0B1a_
FNDA:0,_RNCINvNtCs8THTY5tYJNn_18test_fuzz_internal4dirs19path_from_args_typeNtNtNtCshaKEw7X8Hfl_5serde13tuple_variant13target_fuzz__4ArgsE0B1a_
FNDA:0,_RNCINvNtCs8THTY5tYJNn_18test_fuzz_internal4dirs19path_from_args_typeNtNtNtCshaKEw7X8Hfl_5serde14newtype_struct13target_fuzz__4ArgsE0B1a_
FNDA:0,_RNCINvNtCs8THTY5tYJNn_18test_fuzz_internal4dirs19path_from_args_typeNtNtNtCshaKEw7X8Hfl_5serde14struct_variant13target_fuzz__4ArgsE0B1a_
FNDA:0,_RNCINvNtCs8THTY5tYJNn_18test_fuzz_internal4dirs19path_from_args_typeNtNtNtCshaKEw7X8Hfl_5serde15newtype_variant13target_fuzz__4ArgsE0B1a_
FNDA:0,_RNCINvNtCs8THTY5tYJNn_18test_fuzz_internal4dirs19path_from_args_typeNtNtNtCshaKEw7X8Hfl_5serde3map13target_fuzz__4ArgsE0B1a_
FNDA:0,_RNCINvNtCs8THTY5tYJNn_18test_fuzz_internal4dirs19path_from_args_typeNtNtNtCshaKEw7X8Hfl_5serde3seq13target_fuzz__4ArgsE0B1a_
FNDA:0,_RNCINvNtCs8THTY5tYJNn_18test_fuzz_internal4dirs19path_from_args_typeNtNtNtCshaKEw7X8Hfl_5serde4unit13target_fuzz__4ArgsE0B1a_
FNDA:0,_RNCINvNtCs8THTY5tYJNn_18test_fuzz_internal4dirs19path_from_args_typeNtNtNtCshaKEw7X8Hfl_5serde5tuple13target_fuzz__4ArgsE0B1a_
FNDA:0,_RNCINvNtCs8THTY5tYJNn_18test_fuzz_internal4dirs19path_from_args_typeNtNtNtCshaKEw7X8Hfl_5serde6option13target_fuzz__4ArgsE0B1a_
FNDA:0,_RNCINvNtCs8THTY5tYJNn_18test_fuzz_internal4dirs19path_from_args_typeNtNtNtCshaKEw7X8Hfl_5serde6string13target_fuzz__4ArgsE0B1a_
FNDA:0,_RNCINvNtCs8THTY5tYJNn_18test_fuzz_internal4dirs19path_from_args_typeNtNtNtCshaKEw7X8Hfl_5serde6strukt13target_fuzz__4ArgsE0B1a_
FNDA:0,_RNCINvNtCs8THTY5tYJNn_18test_fuzz_internal4dirs19path_from_args_typeNtNvNtNtCshaKEw7X8Hfl_5serde10byte_array13target_fuzz__10write_args4ArgsE0B1c_
FNDA:0,_RNCINvNtCs8THTY5tYJNn_18test_fuzz_internal4dirs19path_from_args_typeNtNvNtNtCshaKEw7X8Hfl_5serde11unit_struct13target_fuzz__10write_args4ArgsE0B1c_
FNDA:0,_RNCINvNtCs8THTY5tYJNn_18test_fuzz_internal4dirs19path_from_args_typeNtNvNtNtCshaKEw7X8Hfl_5serde12tuple_struct13target_fuzz__10write_args4ArgsE0B1c_
FNDA:0,_RNCINvNtCs8THTY5tYJNn_18test_fuzz_internal4dirs19path_from_args_typeNtNvNtNtCshaKEw7X8Hfl_5serde12unit_variant13target_fuzz__10write_args4ArgsE0B1c_
FNDA:0,_RNCINvNtCs8THTY5tYJNn_18test_fuzz_internal4dirs19path_from_args_typeNtNvNtNtCshaKEw7X8Hfl_5serde13tuple_variant13target_fuzz__10write_args4ArgsE0B1c_
FNDA:0,_RNCINvNtCs8THTY5tYJNn_18test_fuzz_internal4dirs19path_from_args_typeNtNvNtNtCshaKEw7X8Hfl_5serde14newtype_struct13target_fuzz__10write_args4ArgsE0B1c_
FNDA:0,_RNCINvNtCs8THTY5tYJNn_18test_fuzz_internal4dirs19path_from_args_typeNtNvNtNtCshaKEw7X8Hfl_5serde14struct_variant13target_fuzz__10write_args4ArgsE0B1c_
FNDA:0,_RNCINvNtCs8THTY5tYJNn_18test_fuzz_internal4dirs19path_from_args_typeNtNvNtNtCshaKEw7X8Hfl_5serde15newtype_variant13target_fuzz__10write_args4ArgsE0B1c_
FNDA:0,_RNCINvNtCs8THTY5tYJNn_18test_fuzz_internal4dirs19path_from_args_typeNtNvNtNtCshaKEw7X8Hfl_5serde3map13target_fuzz__10write_args4ArgsE0B1c_
FNDA:0,_RNCINvNtCs8THTY5tYJNn_18test_fuzz_internal4dirs19path_from_args_typeNtNvNtNtCshaKEw7X8Hfl_5serde3seq13target_fuzz__10write_args4ArgsE0B1c_
FNDA:0,_RNCINvNtCs8THTY5tYJNn_18test_fuzz_internal4dirs19path_from_args_typeNtNvNtNtCshaKEw7X8Hfl_5serde4unit13target_fuzz__10write_args4ArgsE0B1c_
FNDA:0,_RNCINvNtCs8THTY5tYJNn_18test_fuzz_internal4dirs19path_from_args_typeNtNvNtNtCshaKEw7X8Hfl_5serde5tuple13target_fuzz__10write_args4ArgsE0B1c_
FNDA:0,_RNCINvNtCs8THTY5tYJNn_18test_fuzz_internal4dirs19path_from_args_typeNtNvNtNtCshaKEw7X8Hfl_5serde6option13target_fuzz__10write_args4ArgsE0B1c_
FNDA:0,_RNCINvNtCs8THTY5tYJNn_18test_fuzz_internal4dirs19path_from_args_typeNtNvNtNtCshaKEw7X8Hfl_5serde6string13target_fuzz__10write_args4ArgsE0B1c_
FNDA:0,_RNCINvNtCs8THTY5tYJNn_18test_fuzz_internal4dirs19path_from_args_typeNtNvNtNtCshaKEw7X8Hfl_5serde6strukt13target_fuzz__10write_args4ArgsE0B1c_
FNDA:0,_RINvNtCs8THTY5tYJNn_18test_fuzz_internal4dirs19path_from_args_typeNtNtCscvb0eOkB4Vu_10serde_attr13target_fuzz__4ArgsEB16_
FNDA:0,_RINvNtCs8THTY5tYJNn_18test_fuzz_internal4dirs19path_from_args_typeNtNvNtCscvb0eOkB4Vu_10serde_attr13target_fuzz__10write_args4ArgsEB18_
FNDA:0,_RINvNtCs8THTY5tYJNn_18test_fuzz_internal4dirs31corpus_directory_from_args_typeNtNvNtCscvb0eOkB4Vu_10serde_attr13target_fuzz__10write_args4ArgsEB1k_
FNDA:0,_RINvNtCs8THTY5tYJNn_18test_fuzz_internal4dirs37generic_args_directory_from_args_typeNtNtCscvb0eOkB4Vu_10serde_attr13target_fuzz__4ArgsEB1o_
FNDA:0,_RINvNtCs8THTY5tYJNn_18test_fuzz_internal4dirs42impl_generic_args_directory_from_args_typeNtNtCscvb0eOkB4Vu_10serde_attr13target_fuzz__4ArgsEB1t_
FNDA:0,_RNCINvNtCs8THTY5tYJNn_18test_fuzz_internal4dirs19path_from_args_typeNtNtCscvb0eOkB4Vu_10serde_attr13target_fuzz__4ArgsE0B18_
FNDA:0,_RNCINvNtCs8THTY5tYJNn_18test_fuzz_internal4dirs19path_from_args_typeNtNvNtCscvb0eOkB4Vu_10serde_attr13target_fuzz__10write_args4ArgsE0B1a_
FNDA:0,_RINvNtCs8THTY5tYJNn_18test_fuzz_internal4dirs19path_from_args_typeNtNtCslMUiMMXt5So_14test_fuzz_impl17struct_bar_fuzz__4ArgsEB16_
FNDA:0,_RINvNtCs8THTY5tYJNn_18test_fuzz_internal4dirs19path_from_args_typeNtNtCslMUiMMXt5So_14test_fuzz_impl17struct_foo_fuzz__4ArgsEB16_
FNDA:0,_RINvNtCs8THTY5tYJNn_18test_fuzz_internal4dirs19path_from_args_typeNtNvNtCslMUiMMXt5So_14test_fuzz_impl17struct_bar_fuzz__10write_args4ArgsEB18_
FNDA:0,_RINvNtCs8THTY5tYJNn_18test_fuzz_internal4dirs19path_from_args_typeNtNvNtCslMUiMMXt5So_14test_fuzz_impl17struct_foo_fuzz__10write_args4ArgsEB18_
FNDA:0,_RINvNtCs8THTY5tYJNn_18test_fuzz_internal4dirs31corpus_directory_from_args_typeNtNvNtCslMUiMMXt5So_14test_fuzz_impl17struct_bar_fuzz__10write_args4ArgsEB1k_
FNDA:0,_RINvNtCs8THTY5tYJNn_18test_fuzz_internal4dirs31corpus_directory_from_args_typeNtNvNtCslMUiMMXt5So_14test_fuzz_impl17struct_foo_fuzz__10write_args4ArgsEB1k_
FNDA:0,_RINvNtCs8THTY5tYJNn_18test_fuzz_internal4dirs37generic_args_directory_from_args_typeNtNtCslMUiMMXt5So_14test_fuzz_impl17struct_bar_fuzz__4ArgsEB1o_
FNDA:0,_RINvNtCs8THTY5tYJNn_18test_fuzz_internal4dirs37generic_args_directory_from_args_typeNtNtCslMUiMMXt5So_14test_fuzz_impl17struct_foo_fuzz__4ArgsEB1o_
FNDA:0,_RINvNtCs8THTY5tYJNn_18test_fuzz_internal4dirs42impl_generic_args_directory_from_args_typeNtNtCslMUiMMXt5So_14test_fuzz_impl17struct_bar_fuzz__4ArgsEB1t_
FNDA:0,_RINvNtCs8THTY5tYJNn_18test_fuzz_internal4dirs42impl_generic_args_directory_from_args_typeNtNtCslMUiMMXt5So_14test_fuzz_impl17struct_foo_fuzz__4ArgsEB1t_
FNDA:0,_RNCINvNtCs8THTY5tYJNn_18test_fuzz_internal4dirs19path_from_args_typeNtNtCslMUiMMXt5So_14test_fuzz_impl17struct_bar_fuzz__4ArgsE0B18_
FNDA:0,_RNCINvNtCs8THTY5tYJNn_18test_fuzz_internal4dirs19path_from_args_typeNtNtCslMUiMMXt5So_14test_fuzz_impl17struct_foo_fuzz__4ArgsE0B18_
FNDA:0,_RNCINvNtCs8THTY5tYJNn_18test_fuzz_internal4dirs19path_from_args_typeNtNvNtCslMUiMMXt5So_14test_fuzz_impl17struct_bar_fuzz__10write_args4ArgsE0B1a_
FNDA:0,_RNCINvNtCs8THTY5tYJNn_18test_fuzz_internal4dirs19path_from_args_typeNtNvNtCslMUiMMXt5So_14test_fuzz_impl17struct_foo_fuzz__10write_args4ArgsE0B1a_
FNDA:0,_RINvNtCs8THTY5tYJNn_18test_fuzz_internal4dirs19path_from_args_typeNtNtCs4g3YnoTPLYz_7unserde13target_fuzz__4ArgsEB16_
FNDA:0,_RINvNtCs8THTY5tYJNn_18test_fuzz_internal4dirs19path_from_args_typeNtNtCs4g3YnoTPLYz_7unserde27target_in_production_fuzz__4ArgsEB16_
FNDA:0,_RINvNtCs8THTY5tYJNn_18test_fuzz_internal4dirs37generic_args_directory_from_args_typeNtNtCs4g3YnoTPLYz_7unserde13target_fuzz__4ArgsEB1o_
FNDA:0,_RINvNtCs8THTY5tYJNn_18test_fuzz_internal4dirs37generic_args_directory_from_args_typeNtNtCs4g3YnoTPLYz_7unserde27target_in_production_fuzz__4ArgsEB1o_
FNDA:0,_RINvNtCs8THTY5tYJNn_18test_fuzz_internal4dirs42impl_generic_args_directory_from_args_typeNtNtCs4g3YnoTPLYz_7unserde13target_fuzz__4ArgsEB1t_
FNDA:0,_RINvNtCs8THTY5tYJNn_18test_fuzz_internal4dirs42impl_generic_args_directory_from_args_typeNtNtCs4g3YnoTPLYz_7unserde27target_in_production_fuzz__4ArgsEB1t_
FNDA:0,_RNCINvNtCs8THTY5tYJNn_18test_fuzz_internal4dirs19path_from_args_typeNtNtCs4g3YnoTPLYz_7unserde13target_fuzz__4ArgsE0B18_
FNDA:0,_RNCINvNtCs8THTY5tYJNn_18test_fuzz_internal4dirs19path_from_args_typeNtNtCs4g3YnoTPLYz_7unserde27target_in_production_fuzz__4ArgsE0B18_
FNF:24
FNH:0
DA:12,0
DA:13,0
DA:14,0
DA:17,0
DA:18,0
DA:19,0
DA:22,0
DA:23,0
DA:24,0
DA:27,0
DA:28,0
DA:29,0
DA:32,0
DA:33,0
DA:34,0
DA:37,0
DA:38,0
DA:39,0
DA:42,0
DA:43,0
DA:44,0
DA:47,0
DA:48,0
DA:49,0
DA:52,0
DA:53,0
DA:54,0
DA:57,0
DA:58,0
DA:59,0
DA:62,0
DA:64,0
DA:65,0
DA:68,0
DA:70,0
DA:71,0
DA:74,0
DA:76,0
DA:77,0
DA:80,0
DA:82,0
DA:83,0
DA:86,0
DA:87,0
DA:88,0
DA:89,0
DA:90,0
DA:91,0
DA:93,0
DA:95,0
DA:96,0
DA:97,0
DA:98,0
DA:100,0
DA:102,0
DA:103,0
DA:105,0
DA:106,0
DA:107,0
DA:110,0
DA:111,0
DA:112,0
DA:113,0
DA:114,0
DA:115,0
DA:116,0
DA:117,0
DA:118,0
DA:119,0
DA:120,0
DA:123,0
DA:124,0
DA:125,0
DA:126,0
DA:127,0
DA:129,0
DA:130,0
DA:131,0
DA:132,0
DA:133,0
DA:136,0
DA:137,0
DA:138,0
DA:139,0
DA:140,0
DA:141,0
DA:142,0
DA:145,0
DA:146,0
DA:147,0
BRF:0
BRH:0
LF:92
LH:0
end_of_record
SF:[REPO]/internal/src/serde_format.rs
FN:56,_RINvNtCs8THTY5tYJNn_18test_fuzz_internal12serde_format11deserializeNtNvMNtCse8wYCkBeBvO_5alloc13target_fuzz__INtB18_11UsingReaderpE9read_args4ArgsNtNtNtCsHIej2QEFI5_3std2io5stdio5StdinEB1a_
FN:32,_RINvNtCs8THTY5tYJNn_18test_fuzz_internal12serde_format9serializeNtNvNtCse8wYCkBeBvO_5alloc13target_fuzz__10write_args4ArgsEB16_
FN:56,_RINvNtCs8THTY5tYJNn_18test_fuzz_internal12serde_format11deserializeppEB4_
FN:32,_RINvNtCs8THTY5tYJNn_18test_fuzz_internal12serde_format9serializepEB4_
FN:56,_RINvNtCs8THTY5tYJNn_18test_fuzz_internal12serde_format11deserializeNtNvMNtCskAhiz3iLhgB_3arc13target_fuzz__INtB18_11UsingReaderpE9read_args4ArgsNtNtNtCsHIej2QEFI5_3std2io5stdio5StdinEB1a_
FN:32,_RINvNtCs8THTY5tYJNn_18test_fuzz_internal12serde_format9serializeNtNvNtCskAhiz3iLhgB_3arc13target_fuzz__10write_args4ArgsEB16_
FN:56,_RINvNtCs8THTY5tYJNn_18test_fuzz_internal12serde_format11deserializeNtNvMNtCs3NEe1ZjCvxW_6assert13target_fuzz__INtB18_11UsingReaderpE9read_args4ArgsNtNtNtCsHIej2QEFI5_3std2io5stdio5StdinEB1a_
FN:32,_RINvNtCs8THTY5tYJNn_18test_fuzz_internal12serde_format9serializeNtNvNtCs3NEe1ZjCvxW_6assert13target_fuzz__10write_args4ArgsEB16_
FN:56,_RINvNtCs8THTY5tYJNn_18test_fuzz_internal12serde_format11deserializeINtNvMNtCs6B4TSC9eIAl_15associated_type20serializes_to_fuzz__INtB19_11UsingReaderpE9read_args4ArgsNtB1b_7AddressENtNtNtCsHIej2QEFI5_3std2io5stdio5StdinEB1b_
FN:32,_RINvNtCs8THTY5tYJNn_18test_fuzz_internal12serde_format9serializeINtNvNtCs6B4TSC9eIAl_15associated_type20serializes_to_fuzz__10write_args4ArgsNtB17_7AddressEEB17_
FN:56,_RINvNtCs8THTY5tYJNn_18test_fuzz_internal12serde_format11deserializeNtNvMNtNtCsgYSNy1dwfGS_13auto_generate6signed13target_fuzz__INtB18_11UsingReaderpE9read_args4ArgsNtNtNtCsHIej2QEFI5_3std2io5stdio5StdinEB1c_
FN:56,_RINvNtCs8THTY5tYJNn_18test_fuzz_internal12serde_format11deserializeNtNvMNtNtCsgYSNy1dwfGS_13auto_generate8unsigned13target_fuzz__INtB18_11UsingReaderpE9read_args4ArgsNtNtNtCsHIej2QEFI5_3std2io5stdio5StdinEB1c_
FN:32,_RINvNtCs8THTY5tYJNn_18test_fuzz_internal12serde_format9serializeNtNvNtNtCsgYSNy1dwfGS_13auto_generate6signed13target_fuzz__10write_args4ArgsEB18_
FN:32,_RINvNtCs8THTY5tYJNn_18test_fuzz_internal12serde_format9serializeNtNvNtNtCsgYSNy1dwfGS_13auto_generate8unsigned13target_fuzz__10write_args4ArgsEB18_
FN:56,_RINvNtCs8THTY5tYJNn_18test_fuzz_internal12serde_format11deserializeNtNvMNtCsc7oPBiV8Upo_16calm_and_panicky11calm_fuzz__INtB18_11UsingReaderpE9read_args4ArgsNtNtNtCsHIej2QEFI5_3std2io5stdio5StdinEB1a_
FN:56,_RINvNtCs8THTY5tYJNn_18test_fuzz_internal12serde_format11deserializeNtNvMNtCsc7oPBiV8Upo_16calm_and_panicky14panicky_fuzz__INtB18_11UsingReaderpE9read_args4ArgsNtNtNtCsHIej2QEFI5_3std2io5stdio5StdinEB1a_
FN:32,_RINvNtCs8THTY5tYJNn_18test_fuzz_internal12serde_format9serializeNtNvNtCsc7oPBiV8Upo_16calm_and_panicky11calm_fuzz__10write_args4ArgsEB16_
FN:32,_RINvNtCs8THTY5tYJNn_18test_fuzz_internal12serde_format9serializeNtNvNtCsc7oPBiV8Upo_16calm_and_panicky14panicky_fuzz__10write_args4ArgsEB16_
FN:56,_RINvNtCs8THTY5tYJNn_18test_fuzz_internal12serde_format11deserializeNtNvMNtCsaRhtd4AuyDa_4cast13target_fuzz__INtB18_11UsingReaderpE9read_args4ArgsNtNtNtCsHIej2QEFI5_3std2io5stdio5StdinEB1a_
FN:32,_RINvNtCs8THTY5tYJNn_18test_fuzz_internal12serde_format9serializeNtNvNtCsaRhtd4AuyDa_4cast13target_fuzz__10write_args4ArgsEB16_
FN:56,_RINvNtCs8THTY5tYJNn_18test_fuzz_internal12serde_format11deserializeNtNvMNtCs4MACR4y78AG_9collision11test_fuzz__INtB18_11UsingReaderpE9read_args4ArgsNtNtNtCsHIej2QEFI5_3std2io5stdio5StdinEB1a_
FN:32,_RINvNtCs8THTY5tYJNn_18test_fuzz_internal12serde_format9serializeNtNvNtCs4MACR4y78AG_9collision11test_fuzz__10write_args4ArgsEB16_
FN:56,_RINvNtCs8THTY5tYJNn_18test_fuzz_internal12serde_format11deserializeNtNvMNtNtCsc4CkkP18Bn1_10conversion11uncloneable13target_fuzz__INtB18_11UsingReaderpE9read_args4ArgsNtNtNtCsHIej2QEFI5_3std2io5stdio5StdinEB1c_
FN:56,_RINvNtCs8THTY5tYJNn_18test_fuzz_internal12serde_format11deserializeNtNvMNtNtCsc4CkkP18Bn1_10conversion4path13target_fuzz__INtB18_11UsingReaderpE9read_args4ArgsNtNtNtCsHIej2QEFI5_3std2io5stdio5StdinEB1c_
FN:56,_RINvNtCs8THTY5tYJNn_18test_fuzz_internal12serde_format11deserializeNtNvMNtNtCsc4CkkP18Bn1_10conversion5array13target_fuzz__INtB18_11UsingReaderpE9read_args4ArgsNtNtNtCsHIej2QEFI5_3std2io5stdio5StdinEB1c_
FN:56,_RINvNtCs8THTY5tYJNn_18test_fuzz_internal12serde_format11deserializeNtNvMNtNtCsc4CkkP18Bn1_10conversion7mutable13target_fuzz__INtB18_11UsingReaderpE9read_args4ArgsNtNtNtCsHIej2QEFI5_3std2io5stdio5StdinEB1c_
FN:56,_RINvNtCs8THTY5tYJNn_18test_fuzz_internal12serde_format11deserializeNtNvMNtNtCsc4CkkP18Bn1_10conversion8lifetime13target_fuzz__INtB18_11UsingReaderpE9read_args4ArgsNtNtNtCsHIej2QEFI5_3std2io5stdio5StdinEB1c_
FN:56,_RINvNtCs8THTY5tYJNn_18test_fuzz_internal12serde_format11deserializeNtNvMNtNtCsc4CkkP18Bn1_10conversion8receiver20x_target_self_fuzz__INtB18_11UsingReaderpE9read_args4ArgsNtNtNtCsHIej2QEFI5_3std2io5stdio5StdinEB1c_
FN:56,_RINvNtCs8THTY5tYJNn_18test_fuzz_internal12serde_format11deserializeNtNvMNtNtCsc4CkkP18Bn1_10conversion8receiver21x_target_other_fuzz__INtB18_11UsingReaderpE9read_args4ArgsNtNtNtCsHIej2QEFI5_3std2io5stdio5StdinEB1c_
FN:32,_RINvNtCs8THTY5tYJNn_18test_fuzz_internal12serde_format9serializeNtNvNtNtCsc4CkkP18Bn1_10conversion11uncloneable13target_fuzz__10write_args4ArgsEB18_
FN:32,_RINvNtCs8THTY5tYJNn_18test_fuzz_internal12serde_format9serializeNtNvNtNtCsc4CkkP18Bn1_10conversion4path13target_fuzz__10write_args4ArgsEB18_
FN:32,_RINvNtCs8THTY5tYJNn_18test_fuzz_internal12serde_format9serializeNtNvNtNtCsc4CkkP18Bn1_10conversion5array13target_fuzz__10write_args4ArgsEB18_
FN:32,_RINvNtCs8THTY5tYJNn_18test_fuzz_internal12serde_format9serializeNtNvNtNtCsc4CkkP18Bn1_10conversion7mutable13target_fuzz__10write_args4ArgsEB18_
FN:32,_RINvNtCs8THTY5tYJNn_18test_fuzz_internal12serde_format9serializeNtNvNtNtCsc4CkkP18Bn1_10conversion8lifetime13target_fuzz__10write_args4ArgsEB18_
FN:32,_RINvNtCs8THTY5tYJNn_18test_fuzz_internal12serde_format9serializeNtNvNtNtCsc4CkkP18Bn1_10conversion8receiver20x_target_self_fuzz__10write_args4ArgsEB18_
FN:32,_RINvNtCs8THTY5tYJNn_18test_fuzz_internal12serde_format9serializeNtNvNtNtCsc4CkkP18Bn1_10conversion8receiver21x_target_other_fuzz__10write_args4ArgsEB18_
FN:56,_RINvNtCs8THTY5tYJNn_18test_fuzz_internal12serde_format11deserializeNtNvMNtNtCs4WDBbq4FTkN_5debug4hang13target_fuzz__INtB18_11UsingReaderpE9read_args4ArgsNtNtNtCsHIej2QEFI5_3std2io5stdio5StdinEB1c_
FN:56,_RINvNtCs8THTY5tYJNn_18test_fuzz_internal12serde_format11deserializeNtNvMNtNtCs4WDBbq4FTkN_5debug5crash13target_fuzz__INtB18_11UsingReaderpE9read_args4ArgsNtNtNtCsHIej2QEFI5_3std2io5stdio5StdinEB1c_
FN:32,_RINvNtCs8THTY5tYJNn_18test_fuzz_internal12serde_format9serializeNtNvNtNtCs4WDBbq4FTkN_5debug4hang13target_fuzz__10write_args4ArgsEB18_
FN:32,_RINvNtCs8THTY5tYJNn_18test_fuzz_internal12serde_format9serializeNtNvNtNtCs4WDBbq4FTkN_5debug5crash13target_fuzz__10write_args4ArgsEB18_
FN:56,_RINvNtCs8THTY5tYJNn_18test_fuzz_internal12serde_format11deserializeNtNvMNtNtCsj0n1mfFpdnC_7default10no_default13target_fuzz__INtB18_11UsingReaderpE9read_args4ArgsNtNtNtCsHIej2QEFI5_3std2io5stdio5StdinEB1c_
FN:56,_RINvNtCs8THTY5tYJNn_18test_fuzz_internal12serde_format11deserializeNtNvMNtNtCsj0n1mfFpdnC_7default7default13target_fuzz__INtB18_11UsingReaderpE9read_args4ArgsNtNtNtCsHIej2QEFI5_3std2io5stdio5StdinEB1c_
FN:32,_RINvNtCs8THTY5tYJNn_18test_fuzz_internal12serde_format9serializeNtNvNtNtCsj0n1mfFpdnC_7default10no_default13target_fuzz__10write_args4ArgsEB18_
FN:32,_RINvNtCs8THTY5tYJNn_18test_fuzz_internal12serde_format9serializeNtNvNtNtCsj0n1mfFpdnC_7default7default13target_fuzz__10write_args4ArgsEB18_
FN:56,_RINvNtCs8THTY5tYJNn_18test_fuzz_internal12serde_format11deserializeNtNvMNtCsa8u86q4QJJs_4from15bar_from_fuzz__INtB18_11UsingReaderpE9read_args4ArgsNtNtNtCsHIej2QEFI5_3std2io5stdio5StdinEB1a_
FN:56,_RINvNtCs8THTY5tYJNn_18test_fuzz_internal12serde_format11deserializeNtNvMNtCsa8u86q4QJJs_4from15baz_into_fuzz__INtB18_11UsingReaderpE9read_args4ArgsNtNtNtCsHIej2QEFI5_3std2io5stdio5StdinEB1a_
FN:56,_RINvNtCs8THTY5tYJNn_18test_fuzz_internal12serde_format11deserializeNtNvMNtCsa8u86q4QJJs_4from19baz_try_from_fuzz__INtB18_11UsingReaderpE9read_args4ArgsNtNtNtCsHIej2QEFI5_3std2io5stdio5StdinEB1a_
FN:32,_RINvNtCs8THTY5tYJNn_18test_fuzz_internal12serde_format9serializeNtNvNtCsa8u86q4QJJs_4from15bar_from_fuzz__10write_args4ArgsEB16_
FN:32,_RINvNtCs8THTY5tYJNn_18test_fuzz_internal12serde_format9serializeNtNvNtCsa8u86q4QJJs_4from15baz_into_fuzz__10write_args4ArgsEB16_
FN:32,_RINvNtCs8THTY5tYJNn_18test_fuzz_internal12serde_format9serializeNtNvNtCsa8u86q4QJJs_4from19baz_try_from_fuzz__10write_args4ArgsEB16_
FN:56,_RINvNtCs8THTY5tYJNn_18test_fuzz_internal12serde_format11deserializeINtNvMNtCslo9q2YZ09sG_7generic14baz_qux_fuzz__INtB19_11UsingReaderpE9read_args4ArgsNtB1b_3BarENtNtNtCsHIej2QEFI5_3std2io5stdio5StdinEB1b_
FN:56,_RINvNtCs8THTY5tYJNn_18test_fuzz_internal12serde_format11deserializeINtNvMNtCslo9q2YZ09sG_7generic20struct_target_fuzz__INtB19_11UsingReaderpE9read_args4ArgsNtB1b_3BarENtNtNtCsHIej2QEFI5_3std2io5stdio5StdinEB1b_
FN:56,_RINvNtCs8THTY5tYJNn_18test_fuzz_internal12serde_format11deserializeINtNvMNtCslo9q2YZ09sG_7generic26struct_target_bound_fuzz__INtB19_11UsingReaderpE9read_args4ArgsNtB1b_3BarINtB1b_3BazB2A_EENtNtNtCsHIej2QEFI5_3std2io5stdio5StdinEB1b_
FN:56,_RINvNtCs8THTY5tYJNn_18test_fuzz_internal12serde_format11deserializeINtNvMNtCslo9q2YZ09sG_7generic33struct_target_where_clause_fuzz__INtB19_11UsingReaderpE9read_args4ArgsNtB1b_3BarINtB1b_3BazB2H_EENtNtNtCsHIej2QEFI5_3std2io5stdio5StdinEB1b_
FN:56,_RINvNtCs8THTY5tYJNn_18test_fuzz_internal12serde_format11deserializeINtNvMNtNtCslo9q2YZ09sG_7generic27receiverless_trait_function20struct_target_fuzz__INtB19_11UsingReaderpE9read_args4ArgsNtB1d_3BarENtNtNtCsHIej2QEFI5_3std2io5stdio5StdinEB1d_
FN:32,_RINvNtCs8THTY5tYJNn_18test_fuzz_internal12serde_format9serializeINtNvNtCslo9q2YZ09sG_7generic14baz_qux_fuzz__10write_args4ArgsNtB17_3BarEEB17_
FN:32,_RINvNtCs8THTY5tYJNn_18test_fuzz_internal12serde_format9serializeINtNvNtCslo9q2YZ09sG_7generic20struct_target_fuzz__10write_args4ArgsNtB17_3BarEEB17_
FN:32,_RINvNtCs8THTY5tYJNn_18test_fuzz_internal12serde_format9serializeINtNvNtCslo9q2YZ09sG_7generic20struct_target_fuzz__10write_args4ArgsNtB17_3FooEEB17_
FN:32,_RINvNtCs8THTY5tYJNn_18test_fuzz_internal12serde_format9serializeINtNvNtCslo9q2YZ09sG_7generic26struct_target_bound_fuzz__10write_args4ArgsNtB17_3BarINtB17_3BazB2c_EEEB17_
FN:32,_RINvNtCs8THTY5tYJNn_18test_fuzz_internal12serde_format9serializeINtNvNtCslo9q2YZ09sG_7generic26struct_target_bound_fuzz__10write_args4ArgsNtB17_3FooINtB17_3BazB2c_EEEB17_
FN:32,_RINvNtCs8THTY5tYJNn_18test_fuzz_internal12serde_format9serializeINtNvNtCslo9q2YZ09sG_7generic33struct_target_where_clause_fuzz__10write_args4ArgsNtB17_3BarINtB17_3BazB2j_EEEB17_
FN:32,_RINvNtCs8THTY5tYJNn_18test_fuzz_internal12serde_format9serializeINtNvNtCslo9q2YZ09sG_7generic33struct_target_where_clause_fuzz__10write_args4ArgsNtB17_3FooINtB17_3BazB2j_EEEB17_
FN:32,_RINvNtCs8THTY5tYJNn_18test_fuzz_internal12serde_format9serializeINtNvNtNtCslo9q2YZ09sG_7generic27receiverless_trait_function20struct_target_fuzz__10write_args4ArgsNtB19_3BarEEB19_
FN:32,_RINvNtCs8THTY5tYJNn_18test_fuzz_internal12serde_format9serializeNtNvNtCs7rwv8R68fA0_11hello_world13target_fuzz__10write_args4ArgsEB16_
FN:56,_RINvNtCs8THTY5tYJNn_18test_fuzz_internal12serde_format11deserializeNtNvMNtCs8wlviv3oqDu_11hello_world13target_fuzz__INtB18_11UsingReaderpE9read_args4ArgsNtNtNtCsHIej2QEFI5_3std2io5stdio5StdinEB1a_
FN:32,_RINvNtCs8THTY5tYJNn_18test_fuzz_internal12serde_format9serializeNtNvNtCs8wlviv3oqDu_11hello_world13target_fuzz__10write_args4ArgsEB16_
FN:32,_RINvNtCsfbtA0fWH35c_18test_fuzz_internal12serde_format9serializeNtNvNtCseLM6nJlucij_11hello_world13target_fuzz__10write_args4ArgsEB16_
FN:56,_RINvNtCsfbtA0fWH35c_18test_fuzz_internal12serde_format11deserializeppEB4_
FN:32,_RINvNtCsfbtA0fWH35c_18test_fuzz_internal12serde_format9serializepEB4_
FN:56,_RINvNtCs8THTY5tYJNn_18test_fuzz_internal12serde_format11deserializeNtNvMNtCscKpcHOujJ8r_8lifetime13target_fuzz__INtB18_11UsingReaderpE9read_args4ArgsNtNtNtCsHIej2QEFI5_3std2io5stdio5StdinEB1a_
FN:32,_RINvNtCs8THTY5tYJNn_18test_fuzz_internal12serde_format9serializeNtNvNtCscKpcHOujJ8r_8lifetime13target_fuzz__10write_args4ArgsEB16_
FN:56,_RINvNtCs8THTY5tYJNn_18test_fuzz_internal12serde_format11deserializeNtNvMNtCsfrdtDoCOCG_11manual_leak23wrapped_key_dump_fuzz__INtB18_11UsingReaderpE9read_args4ArgsNtNtNtCsHIej2QEFI5_3std2io5stdio5StdinEB1a_
FN:32,_RINvNtCs8THTY5tYJNn_18test_fuzz_internal12serde_format9serializeNtNvNtCsfrdtDoCOCG_11manual_leak23wrapped_key_dump_fuzz__10write_args4ArgsEB16_
FN:56,_RINvNtCs8THTY5tYJNn_18test_fuzz_internal12serde_format11deserializeNtNvMNtCsdWpqmKI707b_7mut_ref17target_str_fuzz__INtB18_11UsingReaderpE9read_args4ArgsNtNtNtCsHIej2QEFI5_3std2io5stdio5StdinEB1a_
FN:56,_RINvNtCs8THTY5tYJNn_18test_fuzz_internal12serde_format11deserializeNtNvMNtCsdWpqmKI707b_7mut_ref19target_slice_fuzz__INtB18_11UsingReaderpE9read_args4ArgsNtNtNtCsHIej2QEFI5_3std2io5stdio5StdinEB1a_
FN:32,_RINvNtCs8THTY5tYJNn_18test_fuzz_internal12serde_format9serializeNtNvNtCsdWpqmKI707b_7mut_ref17target_str_fuzz__10write_args4ArgsEB16_
FN:32,_RINvNtCs8THTY5tYJNn_18test_fuzz_internal12serde_format9serializeNtNvNtCsdWpqmKI707b_7mut_ref19target_slice_fuzz__10write_args4ArgsEB16_
FN:56,_RINvNtCs8THTY5tYJNn_18test_fuzz_internal12serde_format11deserializeNtNvMNtCs2MoilIs07Sx_8parallel15target_0_fuzz__INtB18_11UsingReaderpE9read_args4ArgsNtNtNtCsHIej2QEFI5_3std2io5stdio5StdinEB1a_
FN:56,_RINvNtCs8THTY5tYJNn_18test_fuzz_internal12serde_format11deserializeNtNvMNtCs2MoilIs07Sx_8parallel15target_1_fuzz__INtB18_11UsingReaderpE9read_args4ArgsNtNtNtCsHIej2QEFI5_3std2io5stdio5StdinEB1a_
FN:56,_RINvNtCs8THTY5tYJNn_18test_fuzz_internal12serde_format11deserializeNtNvMNtCs2MoilIs07Sx_8parallel15target_2_fuzz__INtB18_11UsingReaderpE9read_args4ArgsNtNtNtCsHIej2QEFI5_3std2io5stdio5StdinEB1a_
FN:56,_RINvNtCs8THTY5tYJNn_18test_fuzz_internal12serde_format11deserializeNtNvMNtCs2MoilIs07Sx_8parallel15target_3_fuzz__INtB18_11UsingReaderpE9read_args4ArgsNtNtNtCsHIej2QEFI5_3std2io5stdio5StdinEB1a_
FN:56,_RINvNtCs8THTY5tYJNn_18test_fuzz_internal12serde_format11deserializeNtNvMNtCs2MoilIs07Sx_8parallel15target_4_fuzz__INtB18_11UsingReaderpE9read_args4ArgsNtNtNtCsHIej2QEFI5_3std2io5stdio5StdinEB1a_
FN:56,_RINvNtCs8THTY5tYJNn_18test_fuzz_internal12serde_format11deserializeNtNvMNtCs2MoilIs07Sx_8parallel15target_5_fuzz__INtB18_11UsingReaderpE9read_args4ArgsNtNtNtCsHIej2QEFI5_3std2io5stdio5StdinEB1a_
FN:32,_RINvNtCs8THTY5tYJNn_18test_fuzz_internal12serde_format9serializeNtNvNtCs2MoilIs07Sx_8parallel15target_0_fuzz__10write_args4ArgsEB16_
FN:32,_RINvNtCs8THTY5tYJNn_18test_fuzz_internal12serde_format9serializeNtNvNtCs2MoilIs07Sx_8parallel15target_1_fuzz__10write_args4ArgsEB16_
FN:32,_RINvNtCs8THTY5tYJNn_18test_fuzz_internal12serde_format9serializeNtNvNtCs2MoilIs07Sx_8parallel15target_2_fuzz__10write_args4ArgsEB16_
FN:32,_RINvNtCs8THTY5tYJNn_18test_fuzz_internal12serde_format9serializeNtNvNtCs2MoilIs07Sx_8parallel15target_3_fuzz__10write_args4ArgsEB16_
FN:32,_RINvNtCs8THTY5tYJNn_18test_fuzz_internal12serde_format9serializeNtNvNtCs2MoilIs07Sx_8parallel15target_4_fuzz__10write_args4ArgsEB16_
FN:32,_RINvNtCs8THTY5tYJNn_18test_fuzz_internal12serde_format9serializeNtNvNtCs2MoilIs07Sx_8parallel15target_5_fuzz__10write_args4ArgsEB16_
FN:56,_RINvNtCs8THTY5tYJNn_18test_fuzz_internal12serde_format11deserializeNtNvMNtCsiULhbWZWKqL_14parse_duration12parse_fuzz__INtB18_11UsingReaderpE9read_args4ArgsNtNtNtCsHIej2QEFI5_3std2io5stdio5StdinEB1a_
FN:32,_RINvNtCs8THTY5tYJNn_18test_fuzz_internal12serde_format9serializeNtNvNtCsiULhbWZWKqL_14parse_duration12parse_fuzz__10write_args4ArgsEB16_
FN:56,_RINvNtCs8THTY5tYJNn_18test_fuzz_internal12serde_format11deserializeNtNvMNtCs82vfgwK5nMf_7profile13target_fuzz__INtB18_11UsingReaderpE9read_args4ArgsNtNtNtCsHIej2QEFI5_3std2io5stdio5StdinEB1a_
FN:32,_RINvNtCs8THTY5tYJNn_18test_fuzz_internal12serde_format9serializeNtNvNtCs82vfgwK5nMf_7profile13target_fuzz__10write_args4ArgsEB16_
FN:56,_RINvNtCsfbtA0fWH35c_18test_fuzz_internal12serde_format11deserializeNtNvMNtCs1waMD2fLcEp_6qwerty13target_fuzz__INtB18_11UsingReaderpE9read_args4ArgsNtNtNtCsHIej2QEFI5_3std2io5stdio5StdinEB1a_
FN:32,_RINvNtCsfbtA0fWH35c_18test_fuzz_internal12serde_format9serializeNtNvNtCs1waMD2fLcEp_6qwerty13target_fuzz__10write_args4ArgsEB16_
FN:56,_RINvNtCs8THTY5tYJNn_18test_fuzz_internal12serde_format11deserializeNtNvMNtCs2Uuc8eoBrFY_6qwerty13target_fuzz__INtB18_11UsingReaderpE9read_args4ArgsNtNtNtCsHIej2QEFI5_3std2io5stdio5StdinEB1a_
FN:32,_RINvNtCs8THTY5tYJNn_18test_fuzz_internal12serde_format9serializeNtNvNtCs2Uuc8eoBrFY_6qwerty13target_fuzz__10write_args4ArgsEB16_
FN:56,_RINvNtCs8THTY5tYJNn_18test_fuzz_internal12serde_format11deserializeNtNvMNtCsfC9OA1PP7ap_6rename10bar_fuzz__INtB18_11UsingReaderpE9read_args4ArgsNtNtNtCsHIej2QEFI5_3std2io5stdio5StdinEB1a_
FN:32,_RINvNtCs8THTY5tYJNn_18test_fuzz_internal12serde_format9serializeNtNvNtCsfC9OA1PP7ap_6rename10bar_fuzz__10write_args4ArgsEB16_
FN:56,_RINvNtCs8THTY5tYJNn_18test_fuzz_internal12serde_format11deserializeINtNvMNtCs3hi3ManBPbw_11return_type16swap_swap_fuzz__INtB19_11UsingReaderpE9read_args4ArgsubENtNtNtCsHIej2QEFI5_3std2io5stdio5StdinEB1b_
FN:32,_RINvNtCs8THTY5tYJNn_18test_fuzz_internal12serde_format9serializeINtNvNtCs3hi3ManBPbw_11return_type16swap_swap_fuzz__10write_args4ArgsubEEB17_
FN:56,_RINvNtCs8THTY5tYJNn_18test_fuzz_internal12serde_format11deserializeNtNvMNtCs40ThQioJlYI_19self_ty_in_mod_name20struct_target_fuzz__INtB18_11UsingReaderpE9read_args4ArgsNtNtNtCsHIej2QEFI5_3std2io5stdio5StdinEB1a_
FN:32,_RINvNtCs8THTY5tYJNn_18test_fuzz_internal12serde_format9serializeNtNvNtCs40ThQioJlYI_19self_ty_in_mod_name20struct_target_fuzz__10write_args4ArgsEB16_
FN:56,_RINvNtCsfbtA0fWH35c_18test_fuzz_internal12serde_format11deserializeNtNvMNtNtCs2k5fBaaxJWw_5serde10byte_array13target_fuzz__INtB18_11UsingReaderpE9read_args4ArgsNtNtNtCsHIej2QEFI5_3std2io5stdio5StdinEB1c_
FN:56,_RINvNtCsfbtA0fWH35c_18test_fuzz_internal12serde_format11deserializeNtNvMNtNtCs2k5fBaaxJWw_5serde11unit_struct13target_fuzz__INtB18_11UsingReaderpE9read_args4ArgsNtNtNtCsHIej2QEFI5_3std2io5stdio5StdinEB1c_
FN:56,_RINvNtCsfbtA0fWH35c_18test_fuzz_internal12serde_format11deserializeNtNvMNtNtCs2k5fBaaxJWw_5serde12tuple_struct13target_fuzz__INtB18_11UsingReaderpE9read_args4ArgsNtNtNtCsHIej2QEFI5_3std2io5stdio5StdinEB1c_
FN:56,_RINvNtCsfbtA0fWH35c_18test_fuzz_internal12serde_format11deserializeNtNvMNtNtCs2k5fBaaxJWw_5serde12unit_variant13target_fuzz__INtB18_11UsingReaderpE9read_args4ArgsNtNtNtCsHIej2QEFI5_3std2io5stdio5StdinEB1c_
FN:56,_RINvNtCsfbtA0fWH35c_18test_fuzz_internal12serde_format11deserializeNtNvMNtNtCs2k5fBaaxJWw_5serde13tuple_variant13target_fuzz__INtB18_11UsingReaderpE9read_args4ArgsNtNtNtCsHIej2QEFI5_3std2io5stdio5StdinEB1c_
FN:56,_RINvNtCsfbtA0fWH35c_18test_fuzz_internal12serde_format11deserializeNtNvMNtNtCs2k5fBaaxJWw_5serde14newtype_struct13target_fuzz__INtB18_11UsingReaderpE9read_args4ArgsNtNtNtCsHIej2QEFI5_3std2io5stdio5StdinEB1c_
FN:56,_RINvNtCsfbtA0fWH35c_18test_fuzz_internal12serde_format11deserializeNtNvMNtNtCs2k5fBaaxJWw_5serde14struct_variant13target_fuzz__INtB18_11UsingReaderpE9read_args4ArgsNtNtNtCsHIej2QEFI5_3std2io5stdio5StdinEB1c_
FN:56,_RINvNtCsfbtA0fWH35c_18test_fuzz_internal12serde_format11deserializeNtNvMNtNtCs2k5fBaaxJWw_5serde15newtype_variant13target_fuzz__INtB18_11UsingReaderpE9read_args4ArgsNtNtNtCsHIej2QEFI5_3std2io5stdio5StdinEB1c_
FN:56,_RINvNtCsfbtA0fWH35c_18test_fuzz_internal12serde_format11deserializeNtNvMNtNtCs2k5fBaaxJWw_5serde3map13target_fuzz__INtB18_11UsingReaderpE9read_args4ArgsNtNtNtCsHIej2QEFI5_3std2io5stdio5StdinEB1c_
FN:56,_RINvNtCsfbtA0fWH35c_18test_fuzz_internal12serde_format11deserializeNtNvMNtNtCs2k5fBaaxJWw_5serde3seq13target_fuzz__INtB18_11UsingReaderpE9read_args4ArgsNtNtNtCsHIej2QEFI5_3std2io5stdio5StdinEB1c_
FN:56,_RINvNtCsfbtA0fWH35c_18test_fuzz_internal12serde_format11deserializeNtNvMNtNtCs2k5fBaaxJWw_5serde4unit13target_fuzz__INtB18_11UsingReaderpE9read_args4ArgsNtNtNtCsHIej2QEFI5_3std2io5stdio5StdinEB1c_
FN:56,_RINvNtCsfbtA0fWH35c_18test_fuzz_internal12serde_format11deserializeNtNvMNtNtCs2k5fBaaxJWw_5serde5tuple13target_fuzz__INtB18_11UsingReaderpE9read_args4ArgsNtNtNtCsHIej2QEFI5_3std2io5stdio5StdinEB1c_
FN:56,_RINvNtCsfbtA0fWH35c_18test_fuzz_internal12serde_format11deserializeNtNvMNtNtCs2k5fBaaxJWw_5serde6option13target_fuzz__INtB18_11UsingReaderpE9read_args4ArgsNtNtNtCsHIej2QEFI5_3std2io5stdio5StdinEB1c_
FN:56,_RINvNtCsfbtA0fWH35c_18test_fuzz_internal12serde_format11deserializeNtNvMNtNtCs2k5fBaaxJWw_5serde6string13target_fuzz__INtB18_11UsingReaderpE9read_args4ArgsNtNtNtCsHIej2QEFI5_3std2io5stdio5StdinEB1c_
FN:56,_RINvNtCsfbtA0fWH35c_18test_fuzz_internal12serde_format11deserializeNtNvMNtNtCs2k5fBaaxJWw_5serde6strukt13target_fuzz__INtB18_11UsingReaderpE9read_args4ArgsNtNtNtCsHIej2QEFI5_3std2io5stdio5StdinEB1c_
FN:32,_RINvNtCsfbtA0fWH35c_18test_fuzz_internal12serde_format9serializeNtNvNtNtCs2k5fBaaxJWw_5serde10byte_array13target_fuzz__10write_args4ArgsEB18_
FN:32,_RINvNtCsfbtA0fWH35c_18test_fuzz_internal12serde_format9serializeNtNvNtNtCs2k5fBaaxJWw_5serde11unit_struct13target_fuzz__10write_args4ArgsEB18_
FN:32,_RINvNtCsfbtA0fWH35c_18test_fuzz_internal12serde_format9serializeNtNvNtNtCs2k5fBaaxJWw_5serde12tuple_struct13target_fuzz__10write_args4ArgsEB18_
FN:32,_RINvNtCsfbtA0fWH35c_18test_fuzz_internal12serde_format9serializeNtNvNtNtCs2k5fBaaxJWw_5serde12unit_variant13target_fuzz__10write_args4ArgsEB18_
FN:32,_RINvNtCsfbtA0fWH35c_18test_fuzz_internal12serde_format9serializeNtNvNtNtCs2k5fBaaxJWw_5serde13tuple_variant13target_fuzz__10write_args4ArgsEB18_
FN:32,_RINvNtCsfbtA0fWH35c_18test_fuzz_internal12serde_format9serializeNtNvNtNtCs2k5fBaaxJWw_5serde14newtype_struct13target_fuzz__10write_args4ArgsEB18_
FN:32,_RINvNtCsfbtA0fWH35c_18test_fuzz_internal12serde_format9serializeNtNvNtNtCs2k5fBaaxJWw_5serde14struct_variant13target_fuzz__10write_args4ArgsEB18_
FN:32,_RINvNtCsfbtA0fWH35c_18test_fuzz_internal12serde_format9serializeNtNvNtNtCs2k5fBaaxJWw_5serde15newtype_variant13target_fuzz__10write_args4ArgsEB18_
FN:32,_RINvNtCsfbtA0fWH35c_18test_fuzz_internal12serde_format9serializeNtNvNtNtCs2k5fBaaxJWw_5serde3map13target_fuzz__10write_args4ArgsEB18_
FN:32,_RINvNtCsfbtA0fWH35c_18test_fuzz_internal12serde_format9serializeNtNvNtNtCs2k5fBaaxJWw_5serde3seq13target_fuzz__10write_args4ArgsEB18_
FN:32,_RINvNtCsfbtA0fWH35c_18test_fuzz_internal12serde_format9serializeNtNvNtNtCs2k5fBaaxJWw_5serde4unit13target_fuzz__10write_args4ArgsEB18_
FN:32,_RINvNtCsfbtA0fWH35c_18test_fuzz_internal12serde_format9serializeNtNvNtNtCs2k5fBaaxJWw_5serde5tuple13target_fuzz__10write_args4ArgsEB18_
FN:32,_RINvNtCsfbtA0fWH35c_18test_fuzz_internal12serde_format9serializeNtNvNtNtCs2k5fBaaxJWw_5serde6option13target_fuzz__10write_args4ArgsEB18_
FN:32,_RINvNtCsfbtA0fWH35c_18test_fuzz_internal12serde_format9serializeNtNvNtNtCs2k5fBaaxJWw_5serde6string13target_fuzz__10write_args4ArgsEB18_
FN:32,_RINvNtCsfbtA0fWH35c_18test_fuzz_internal12serde_format9serializeNtNvNtNtCs2k5fBaaxJWw_5serde6strukt13target_fuzz__10write_args4ArgsEB18_
FN:56,_RINvNtCs8THTY5tYJNn_18test_fuzz_internal12serde_format11deserializeNtNvMNtNtCshaKEw7X8Hfl_5serde10byte_array13target_fuzz__INtB18_11UsingReaderpE9read_args4ArgsNtNtNtCsHIej2QEFI5_3std2io5stdio5StdinEB1c_
FN:56,_RINvNtCs8THTY5tYJNn_18test_fuzz_internal12serde_format11deserializeNtNvMNtNtCshaKEw7X8Hfl_5serde11unit_struct13target_fuzz__INtB18_11UsingReaderpE9read_args4ArgsNtNtNtCsHIej2QEFI5_3std2io5stdio5StdinEB1c_
FN:56,_RINvNtCs8THTY5tYJNn_18test_fuzz_internal12serde_format11deserializeNtNvMNtNtCshaKEw7X8Hfl_5serde12tuple_struct13target_fuzz__INtB18_11UsingReaderpE9read_args4ArgsNtNtNtCsHIej2QEFI5_3std2io5stdio5StdinEB1c_
FN:56,_RINvNtCs8THTY5tYJNn_18test_fuzz_internal12serde_format11deserializeNtNvMNtNtCshaKEw7X8Hfl_5serde12unit_variant13target_fuzz__INtB18_11UsingReaderpE9read_args4ArgsNtNtNtCsHIej2QEFI5_3std2io5stdio5StdinEB1c_
FN:56,_RINvNtCs8THTY5tYJNn_18test_fuzz_internal12serde_format11deserializeNtNvMNtNtCshaKEw7X8Hfl_5serde13tuple_variant13target_fuzz__INtB18_11UsingReaderpE9read_args4ArgsNtNtNtCsHIej2QEFI5_3std2io5stdio5StdinEB1c_
FN:56,_RINvNtCs8THTY5tYJNn_18test_fuzz_internal12serde_format11deserializeNtNvMNtNtCshaKEw7X8Hfl_5serde14newtype_struct13target_fuzz__INtB18_11UsingReaderpE9read_args4ArgsNtNtNtCsHIej2QEFI5_3std2io5stdio5StdinEB1c_
FN:56,_RINvNtCs8THTY5tYJNn_18test_fuzz_internal12serde_format11deserializeNtNvMNtNtCshaKEw7X8Hfl_5serde14struct_variant13target_fuzz__INtB18_11UsingReaderpE9read_args4ArgsNtNtNtCsHIej2QEFI5_3std2io5stdio5StdinEB1c_
FN:56,_RINvNtCs8THTY5tYJNn_18test_fuzz_internal12serde_format11deserializeNtNvMNtNtCshaKEw7X8Hfl_5serde15newtype_variant13target_fuzz__INtB18_11UsingReaderpE9read_args4ArgsNtNtNtCsHIej2QEFI5_3std2io5stdio5StdinEB1c_
FN:56,_RINvNtCs8THTY5tYJNn_18test_fuzz_internal12serde_format11deserializeNtNvMNtNtCshaKEw7X8Hfl_5serde3map13target_fuzz__INtB18_11UsingReaderpE9read_args4ArgsNtNtNtCsHIej2QEFI5_3std2io5stdio5StdinEB1c_
FN:56,_RINvNtCs8THTY5tYJNn_18test_fuzz_internal12serde_format11deserializeNtNvMNtNtCshaKEw7X8Hfl_5serde3seq13target_fuzz__INtB18_11UsingReaderpE9read_args4ArgsNtNtNtCsHIej2QEFI5_3std2io5stdio5StdinEB1c_
FN:56,_RINvNtCs8THTY5tYJNn_18test_fuzz_internal12serde_format11deserializeNtNvMNtNtCshaKEw7X8Hfl_5serde4unit13target_fuzz__INtB18_11UsingReaderpE9read_args4ArgsNtNtNtCsHIej2QEFI5_3std2io5stdio5StdinEB1c_
FN:56,_RINvNtCs8THTY5tYJNn_18test_fuzz_internal12serde_format11deserializeNtNvMNtNtCshaKEw7X8Hfl_5serde5tuple13target_fuzz__INtB18_11UsingReaderpE9read_args4ArgsNtNtNtCsHIej2QEFI5_3std2io5stdio5StdinEB1c_
FN:56,_RINvNtCs8THTY5tYJNn_18test_fuzz_internal12serde_format11deserializeNtNvMNtNtCshaKEw7X8Hfl_5serde6option13target_fuzz__INtB18_11UsingReaderpE9read_args4ArgsNtNtNtCsHIej2QEFI5_3std2io5stdio5StdinEB1c_
FN:56,_RINvNtCs8THTY5tYJNn_18test_fuzz_internal12serde_format11deserializeNtNvMNtNtCshaKEw7X8Hfl_5serde6string13target_fuzz__INtB18_11UsingReaderpE9read_args4ArgsNtNtNtCsHIej2QEFI5_3std2io5stdio5StdinEB1c_
FN:56,_RINvNtCs8THTY5tYJNn_18test_fuzz_internal12serde_format11deserializeNtNvMNtNtCshaKEw7X8Hfl_5serde6strukt13target_fuzz__INtB18_11UsingReaderpE9read_args4ArgsNtNtNtCsHIej2QEFI5_3std2io5stdio5StdinEB1c_
FN:32,_RINvNtCs8THTY5tYJNn_18test_fuzz_internal12serde_format9serializeNtNvNtNtCshaKEw7X8Hfl_5serde10byte_array13target_fuzz__10write_args4ArgsEB18_
FN:32,_RINvNtCs8THTY5tYJNn_18test_fuzz_internal12serde_format9serializeNtNvNtNtCshaKEw7X8Hfl_5serde11unit_struct13target_fuzz__10write_args4ArgsEB18_
FN:32,_RINvNtCs8THTY5tYJNn_18test_fuzz_internal12serde_format9serializeNtNvNtNtCshaKEw7X8Hfl_5serde12tuple_struct13target_fuzz__10write_args4ArgsEB18_
FN:32,_RINvNtCs8THTY5tYJNn_18test_fuzz_internal12serde_format9serializeNtNvNtNtCshaKEw7X8Hfl_5serde12unit_variant13target_fuzz__10write_args4ArgsEB18_
FN:32,_RINvNtCs8THTY5tYJNn_18test_fuzz_internal12serde_format9serializeNtNvNtNtCshaKEw7X8Hfl_5serde13tuple_variant13target_fuzz__10write_args4ArgsEB18_
FN:32,_RINvNtCs8THTY5tYJNn_18test_fuzz_internal12serde_format9serializeNtNvNtNtCshaKEw7X8Hfl_5serde14newtype_struct13target_fuzz__10write_args4ArgsEB18_
FN:32,_RINvNtCs8THTY5tYJNn_18test_fuzz_internal12serde_format9serializeNtNvNtNtCshaKEw7X8Hfl_5serde14struct_variant13target_fuzz__10write_args4ArgsEB18_
FN:32,_RINvNtCs8THTY5tYJNn_18test_fuzz_internal12serde_format9serializeNtNvNtNtCshaKEw7X8Hfl_5serde15newtype_variant13target_fuzz__10write_args4ArgsEB18_
FN:32,_RINvNtCs8THTY5tYJNn_18test_fuzz_internal12serde_format9serializeNtNvNtNtCshaKEw7X8Hfl_5serde3map13target_fuzz__10write_args4ArgsEB18_
FN:32,_RINvNtCs8THTY5tYJNn_18test_fuzz_internal12serde_format9serializeNtNvNtNtCshaKEw7X8Hfl_5serde3seq13target_fuzz__10write_args4ArgsEB18_
FN:32,_RINvNtCs8THTY5tYJNn_18test_fuzz_internal12serde_format9serializeNtNvNtNtCshaKEw7X8Hfl_5serde4unit13target_fuzz__10write_args4ArgsEB18_
FN:32,_RINvNtCs8THTY5tYJNn_18test_fuzz_internal12serde_format9serializeNtNvNtNtCshaKEw7X8Hfl_5serde5tuple13target_fuzz__10write_args4ArgsEB18_
FN:32,_RINvNtCs8THTY5tYJNn_18test_fuzz_internal12serde_format9serializeNtNvNtNtCshaKEw7X8Hfl_5serde6option13target_fuzz__10write_args4ArgsEB18_
FN:32,_RINvNtCs8THTY5tYJNn_18test_fuzz_internal12serde_format9serializeNtNvNtNtCshaKEw7X8Hfl_5serde6string13target_fuzz__10write_args4ArgsEB18_
FN:32,_RINvNtCs8THTY5tYJNn_18test_fuzz_internal12serde_format9serializeNtNvNtNtCshaKEw7X8Hfl_5serde6strukt13target_fuzz__10write_args4ArgsEB18_
FN:56,_RINvNtCs8THTY5tYJNn_18test_fuzz_internal12serde_format11deserializeNtNvMNtCscvb0eOkB4Vu_10serde_attr13target_fuzz__INtB18_11UsingReaderpE9read_args4ArgsNtNtNtCsHIej2QEFI5_3std2io5stdio5StdinEB1a_
FN:32,_RINvNtCs8THTY5tYJNn_18test_fuzz_internal12serde_format9serializeNtNvNtCscvb0eOkB4Vu_10serde_attr13target_fuzz__10write_args4ArgsEB16_
FN:56,_RINvNtCs8THTY5tYJNn_18test_fuzz_internal12serde_format11deserializeNtNvMNtCslMUiMMXt5So_14test_fuzz_impl17struct_bar_fuzz__INtB18_11UsingReaderpE9read_args4ArgsNtNtNtCsHIej2QEFI5_3std2io5stdio5StdinEB1a_
FN:56,_RINvNtCs8THTY5tYJNn_18test_fuzz_internal12serde_format11deserializeNtNvMNtCslMUiMMXt5So_14test_fuzz_impl17struct_foo_fuzz__INtB18_11UsingReaderpE9read_args4ArgsNtNtNtCsHIej2QEFI5_3std2io5stdio5StdinEB1a_
FN:32,_RINvNtCs8THTY5tYJNn_18test_fuzz_internal12serde_format9serializeNtNvNtCslMUiMMXt5So_14test_fuzz_impl17struct_bar_fuzz__10write_args4ArgsEB16_
FN:32,_RINvNtCs8THTY5tYJNn_18test_fuzz_internal12serde_format9serializeNtNvNtCslMUiMMXt5So_14test_fuzz_impl17struct_foo_fuzz__10write_args4ArgsEB16_
FNDA:0,_RINvNtCs8THTY5tYJNn_18test_fuzz_internal12serde_format11deserializeNtNvMNtCse8wYCkBeBvO_5alloc13target_fuzz__INtB18_11UsingReaderpE9read_args4ArgsNtNtNtCsHIej2QEFI5_3std2io5stdio5StdinEB1a_
FNDA:0,_RINvNtCs8THTY5tYJNn_18test_fuzz_internal12serde_format9serializeNtNvNtCse8wYCkBeBvO_5alloc13target_fuzz__10write_args4ArgsEB16_
FNDA:0,_RINvNtCs8THTY5tYJNn_18test_fuzz_internal12serde_format11deserializeppEB4_
FNDA:0,_RINvNtCs8THTY5tYJNn_18test_fuzz_internal12serde_format9serializepEB4_
FNDA:0,_RINvNtCs8THTY5tYJNn_18test_fuzz_internal12serde_format11deserializeNtNvMNtCskAhiz3iLhgB_3arc13target_fuzz__INtB18_11UsingReaderpE9read_args4ArgsNtNtNtCsHIej2QEFI5_3std2io5stdio5StdinEB1a_
FNDA:0,_RINvNtCs8THTY5tYJNn_18test_fuzz_internal12serde_format9serializeNtNvNtCskAhiz3iLhgB_3arc13target_fuzz__10write_args4ArgsEB16_
FNDA:0,_RINvNtCs8THTY5tYJNn_18test_fuzz_internal12serde_format11deserializeNtNvMNtCs3NEe1ZjCvxW_6assert13target_fuzz__INtB18_11UsingReaderpE9read_args4ArgsNtNtNtCsHIej2QEFI5_3std2io5stdio5StdinEB1a_
FNDA:0,_RINvNtCs8THTY5tYJNn_18test_fuzz_internal12serde_format9serializeNtNvNtCs3NEe1ZjCvxW_6assert13target_fuzz__10write_args4ArgsEB16_
FNDA:0,_RINvNtCs8THTY5tYJNn_18test_fuzz_internal12serde_format11deserializeINtNvMNtCs6B4TSC9eIAl_15associated_type20serializes_to_fuzz__INtB19_11UsingReaderpE9read_args4ArgsNtB1b_7AddressENtNtNtCsHIej2QEFI5_3std2io5stdio5StdinEB1b_
FNDA:0,_RINvNtCs8THTY5tYJNn_18test_fuzz_internal12serde_format9serializeINtNvNtCs6B4TSC9eIAl_15associated_type20serializes_to_fuzz__10write_args4ArgsNtB17_7AddressEEB17_
FNDA:0,_RINvNtCs8THTY5tYJNn_18test_fuzz_internal12serde_format11deserializeNtNvMNtNtCsgYSNy1dwfGS_13auto_generate6signed13target_fuzz__INtB18_11UsingReaderpE9read_args4ArgsNtNtNtCsHIej2QEFI5_3std2io5stdio5StdinEB1c_
FNDA:0,_RINvNtCs8THTY5tYJNn_18test_fuzz_internal12serde_format11deserializeNtNvMNtNtCsgYSNy1dwfGS_13auto_generate8unsigned13target_fuzz__INtB18_11UsingReaderpE9read_args4ArgsNtNtNtCsHIej2QEFI5_3std2io5stdio5StdinEB1c_
FNDA:0,_RINvNtCs8THTY5tYJNn_18test_fuzz_internal12serde_format9serializeNtNvNtNtCsgYSNy1dwfGS_13auto_generate6signed13target_fuzz__10write_args4ArgsEB18_
FNDA:0,_RINvNtCs8THTY5tYJNn_18test_fuzz_internal12serde_format9serializeNtNvNtNtCsgYSNy1dwfGS_13auto_generate8unsigned13target_fuzz__10write_args4ArgsEB18_
FNDA:0,_RINvNtCs8THTY5tYJNn_18test_fuzz_internal12serde_format11deserializeNtNvMNtCsc7oPBiV8Upo_16calm_and_panicky11calm_fuzz__INtB18_11UsingReaderpE9read_args4ArgsNtNtNtCsHIej2QEFI5_3std2io5stdio5StdinEB1a_
FNDA:0,_RINvNtCs8THTY5tYJNn_18test_fuzz_internal12serde_format11deserializeNtNvMNtCsc7oPBiV8Upo_16calm_and_panicky14panicky_fuzz__INtB18_11UsingReaderpE9read_args4ArgsNtNtNtCsHIej2QEFI5_3std2io5stdio5StdinEB1a_
FNDA:0,_RINvNtCs8THTY5tYJNn_18test_fuzz_internal12serde_format9serializeNtNvNtCsc7oPBiV8Upo_16calm_and_panicky11calm_fuzz__10write_args4ArgsEB16_
FNDA:0,_RINvNtCs8THTY5tYJNn_18test_fuzz_internal12serde_format9serializeNtNvNtCsc7oPBiV8Upo_16calm_and_panicky14panicky_fuzz__10write_args4ArgsEB16_
FNDA:0,_RINvNtCs8THTY5tYJNn_18test_fuzz_internal12serde_format11deserializeNtNvMNtCsaRhtd4AuyDa_4cast13target_fuzz__INtB18_11UsingReaderpE9read_args4ArgsNtNtNtCsHIej2QEFI5_3std2io5stdio5StdinEB1a_
FNDA:0,_RINvNtCs8THTY5tYJNn_18test_fuzz_internal12serde_format9serializeNtNvNtCsaRhtd4AuyDa_4cast13target_fuzz__10write_args4ArgsEB16_
FNDA:0,_RINvNtCs8THTY5tYJNn_18test_fuzz_internal12serde_format11deserializeNtNvMNtCs4MACR4y78AG_9collision11test_fuzz__INtB18_11UsingReaderpE9read_args4ArgsNtNtNtCsHIej2QEFI5_3std2io5stdio5StdinEB1a_
FNDA:0,_RINvNtCs8THTY5tYJNn_18test_fuzz_internal12serde_format9serializeNtNvNtCs4MACR4y78AG_9collision11test_fuzz__10write_args4ArgsEB16_
FNDA:0,_RINvNtCs8THTY5tYJNn_18test_fuzz_internal12serde_format11deserializeNtNvMNtNtCsc4CkkP18Bn1_10conversion11uncloneable13target_fuzz__INtB18_11UsingReaderpE9read_args4ArgsNtNtNtCsHIej2QEFI5_3std2io5stdio5StdinEB1c_
FNDA:0,_RINvNtCs8THTY5tYJNn_18test_fuzz_internal12serde_format11deserializeNtNvMNtNtCsc4CkkP18Bn1_10conversion4path13target_fuzz__INtB18_11UsingReaderpE9read_args4ArgsNtNtNtCsHIej2QEFI5_3std2io5stdio5StdinEB1c_
FNDA:0,_RINvNtCs8THTY5tYJNn_18test_fuzz_internal12serde_format11deserializeNtNvMNtNtCsc4CkkP18Bn1_10conversion5array13target_fuzz__INtB18_11UsingReaderpE9read_args4ArgsNtNtNtCsHIej2QEFI5_3std2io5stdio5StdinEB1c_
FNDA:0,_RINvNtCs8THTY5tYJNn_18test_fuzz_internal12serde_format11deserializeNtNvMNtNtCsc4CkkP18Bn1_10conversion7mutable13target_fuzz__INtB18_11UsingReaderpE9read_args4ArgsNtNtNtCsHIej2QEFI5_3std2io5stdio5StdinEB1c_
FNDA:0,_RINvNtCs8THTY5tYJNn_18test_fuzz_internal12serde_format11deserializeNtNvMNtNtCsc4CkkP18Bn1_10conversion8lifetime13target_fuzz__INtB18_11UsingReaderpE9read_args4ArgsNtNtNtCsHIej2QEFI5_3std2io5stdio5StdinEB1c_
FNDA:0,_RINvNtCs8THTY5tYJNn_18test_fuzz_internal12serde_format11deserializeNtNvMNtNtCsc4CkkP18Bn1_10conversion8receiver20x_target_self_fuzz__INtB18_11UsingReaderpE9read_args4ArgsNtNtNtCsHIej2QEFI5_3std2io5stdio5StdinEB1c_
FNDA:0,_RINvNtCs8THTY5tYJNn_18test_fuzz_internal12serde_format11deserializeNtNvMNtNtCsc4CkkP18Bn1_10conversion8receiver21x_target_other_fuzz__INtB18_11UsingReaderpE9read_args4ArgsNtNtNtCsHIej2QEFI5_3std2io5stdio5StdinEB1c_
FNDA:0,_RINvNtCs8THTY5tYJNn_18test_fuzz_internal12serde_format9serializeNtNvNtNtCsc4CkkP18Bn1_10conversion11uncloneable13target_fuzz__10write_args4ArgsEB18_
FNDA:0,_RINvNtCs8THTY5tYJNn_18test_fuzz_internal12serde_format9serializeNtNvNtNtCsc4CkkP18Bn1_10conversion4path13target_fuzz__10write_args4ArgsEB18_
FNDA:0,_RINvNtCs8THTY5tYJNn_18test_fuzz_internal12serde_format9serializeNtNvNtNtCsc4CkkP18Bn1_10conversion5array13target_fuzz__10write_args4ArgsEB18_
FNDA:0,_RINvNtCs8THTY5tYJNn_18test_fuzz_internal12serde_format9serializeNtNvNtNtCsc4CkkP18Bn1_10conversion7mutable13target_fuzz__10write_args4ArgsEB18_
FNDA:0,_RINvNtCs8THTY5tYJNn_18test_fuzz_internal12serde_format9serializeNtNvNtNtCsc4CkkP18Bn1_10conversion8lifetime13target_fuzz__10write_args4ArgsEB18_
FNDA:0,_RINvNtCs8THTY5tYJNn_18test_fuzz_internal12serde_format9serializeNtNvNtNtCsc4CkkP18Bn1_10conversion8receiver20x_target_self_fuzz__10write_args4ArgsEB18_
FNDA:0,_RINvNtCs8THTY5tYJNn_18test_fuzz_internal12serde_format9serializeNtNvNtNtCsc4CkkP18Bn1_10conversion8receiver21x_target_other_fuzz__10write_args4ArgsEB18_
FNDA:0,_RINvNtCs8THTY5tYJNn_18test_fuzz_internal12serde_format11deserializeNtNvMNtNtCs4WDBbq4FTkN_5debug4hang13target_fuzz__INtB18_11UsingReaderpE9read_args4ArgsNtNtNtCsHIej2QEFI5_3std2io5stdio5StdinEB1c_
FNDA:0,_RINvNtCs8THTY5tYJNn_18test_fuzz_internal12serde_format11deserializeNtNvMNtNtCs4WDBbq4FTkN_5debug5crash13target_fuzz__INtB18_11UsingReaderpE9read_args4ArgsNtNtNtCsHIej2QEFI5_3std2io5stdio5StdinEB1c_
FNDA:0,_RINvNtCs8THTY5tYJNn_18test_fuzz_internal12serde_format9serializeNtNvNtNtCs4WDBbq4FTkN_5debug4hang13target_fuzz__10write_args4ArgsEB18_
FNDA:0,_RINvNtCs8THTY5tYJNn_18test_fuzz_internal12serde_format9serializeNtNvNtNtCs4WDBbq4FTkN_5debug5crash13target_fuzz__10write_args4ArgsEB18_
FNDA:0,_RINvNtCs8THTY5tYJNn_18test_fuzz_internal12serde_format11deserializeNtNvMNtNtCsj0n1mfFpdnC_7default10no_default13target_fuzz__INtB18_11UsingReaderpE9read_args4ArgsNtNtNtCsHIej2QEFI5_3std2io5stdio5StdinEB1c_
FNDA:0,_RINvNtCs8THTY5tYJNn_18test_fuzz_internal12serde_format11deserializeNtNvMNtNtCsj0n1mfFpdnC_7default7default13target_fuzz__INtB18_11UsingReaderpE9read_args4ArgsNtNtNtCsHIej2QEFI5_3std2io5stdio5StdinEB1c_
FNDA:0,_RINvNtCs8THTY5tYJNn_18test_fuzz_internal12serde_format9serializeNtNvNtNtCsj0n1mfFpdnC_7default10no_default13target_fuzz__10write_args4ArgsEB18_
FNDA:0,_RINvNtCs8THTY5tYJNn_18test_fuzz_internal12serde_format9serializeNtNvNtNtCsj0n1mfFpdnC_7default7default13target_fuzz__10write_args4ArgsEB18_
FNDA:0,_RINvNtCs8THTY5tYJNn_18test_fuzz_internal12serde_format11deserializeNtNvMNtCsa8u86q4QJJs_4from15bar_from_fuzz__INtB18_11UsingReaderpE9read_args4ArgsNtNtNtCsHIej2QEFI5_3std2io5stdio5StdinEB1a_
FNDA:0,_RINvNtCs8THTY5tYJNn_18test_fuzz_internal12serde_format11deserializeNtNvMNtCsa8u86q4QJJs_4from15baz_into_fuzz__INtB18_11UsingReaderpE9read_args4ArgsNtNtNtCsHIej2QEFI5_3std2io5stdio5StdinEB1a_
FNDA:0,_RINvNtCs8THTY5tYJNn_18test_fuzz_internal12serde_format11deserializeNtNvMNtCsa8u86q4QJJs_4from19baz_try_from_fuzz__INtB18_11UsingReaderpE9read_args4ArgsNtNtNtCsHIej2QEFI5_3std2io5stdio5StdinEB1a_
FNDA:0,_RINvNtCs8THTY5tYJNn_18test_fuzz_internal12serde_format9serializeNtNvNtCsa8u86q4QJJs_4from15bar_from_fuzz__10write_args4ArgsEB16_
FNDA:0,_RINvNtCs8THTY5tYJNn_18test_fuzz_internal12serde_format9serializeNtNvNtCsa8u86q4QJJs_4from15baz_into_fuzz__10write_args4ArgsEB16_
FNDA:0,_RINvNtCs8THTY5tYJNn_18test_fuzz_internal12serde_format9serializeNtNvNtCsa8u86q4QJJs_4from19baz_try_from_fuzz__10write_args4ArgsEB16_
FNDA:0,_RINvNtCs8THTY5tYJNn_18test_fuzz_internal12serde_format11deserializeINtNvMNtCslo9q2YZ09sG_7generic14baz_qux_fuzz__INtB19_11UsingReaderpE9read_args4ArgsNtB1b_3BarENtNtNtCsHIej2QEFI5_3std2io5stdio5StdinEB1b_
FNDA:0,_RINvNtCs8THTY5tYJNn_18test_fuzz_internal12serde_format11deserializeINtNvMNtCslo9q2YZ09sG_7generic20struct_target_fuzz__INtB19_11UsingReaderpE9read_args4ArgsNtB1b_3BarENtNtNtCsHIej2QEFI5_3std2io5stdio5StdinEB1b_
FNDA:0,_RINvNtCs8THTY5tYJNn_18test_fuzz_internal12serde_format11deserializeINtNvMNtCslo9q2YZ09sG_7generic26struct_target_bound_fuzz__INtB19_11UsingReaderpE9read_args4ArgsNtB1b_3BarINtB1b_3BazB2A_EENtNtNtCsHIej2QEFI5_3std2io5stdio5StdinEB1b_
FNDA:0,_RINvNtCs8THTY5tYJNn_18test_fuzz_internal12serde_format11deserializeINtNvMNtCslo9q2YZ09sG_7generic33struct_target_where_clause_fuzz__INtB19_11UsingReaderpE9read_args4ArgsNtB1b_3BarINtB1b_3BazB2H_EENtNtNtCsHIej2QEFI5_3std2io5stdio5StdinEB1b_
FNDA:0,_RINvNtCs8THTY5tYJNn_18test_fuzz_internal12serde_format11deserializeINtNvMNtNtCslo9q2YZ09sG_7generic27receiverless_trait_function20struct_target_fuzz__INtB19_11UsingReaderpE9read_args4ArgsNtB1d_3BarENtNtNtCsHIej2QEFI5_3std2io5stdio5StdinEB1d_
FNDA:0,_RINvNtCs8THTY5tYJNn_18test_fuzz_internal12serde_format9serializeINtNvNtCslo9q2YZ09sG_7generic14baz_qux_fuzz__10write_args4ArgsNtB17_3BarEEB17_
FNDA:0,_RINvNtCs8THTY5tYJNn_18test_fuzz_internal12serde_format9serializeINtNvNtCslo9q2YZ09sG_7generic20struct_target_fuzz__10write_args4ArgsNtB17_3BarEEB17_
FNDA:0,_RINvNtCs8THTY5tYJNn_18test_fuzz_internal12serde_format9serializeINtNvNtCslo9q2YZ09sG_7generic20struct_target_fuzz__10write_args4ArgsNtB17_3FooEEB17_
FNDA:0,_RINvNtCs8THTY5tYJNn_18test_fuzz_internal12serde_format9serializeINtNvNtCslo9q2YZ09sG_7generic26struct_target_bound_fuzz__10write_args4ArgsNtB17_3BarINtB17_3BazB2c_EEEB17_
FNDA:0,_RINvNtCs8THTY5tYJNn_18test_fuzz_internal12serde_format9serializeINtNvNtCslo9q2YZ09sG_7generic26struct_target_bound_fuzz__10write_args4ArgsNtB17_3FooINtB17_3BazB2c_EEEB17_
FNDA:0,_RINvNtCs8THTY5tYJNn_18test_fuzz_internal12serde_format9serializeINtNvNtCslo9q2YZ09sG_7generic33struct_target_where_clause_fuzz__10write_args4ArgsNtB17_3BarINtB17_3BazB2j_EEEB17_
FNDA:0,_RINvNtCs8THTY5tYJNn_18test_fuzz_internal12serde_format9serializeINtNvNtCslo9q2YZ09sG_7generic33struct_target_where_clause_fuzz__10write_args4ArgsNtB17_3FooINtB17_3BazB2j_EEEB17_
FNDA:0,_RINvNtCs8THTY5tYJNn_18test_fuzz_internal12serde_format9serializeINtNvNtNtCslo9q2YZ09sG_7generic27receiverless_trait_function20struct_target_fuzz__10write_args4ArgsNtB19_3BarEEB19_
FNDA:0,_RINvNtCs8THTY5tYJNn_18test_fuzz_internal12serde_format9serializeNtNvNtCs7rwv8R68fA0_11hello_world13target_fuzz__10write_args4ArgsEB16_
FNDA:0,_RINvNtCs8THTY5tYJNn_18test_fuzz_internal12serde_format11deserializeNtNvMNtCs8wlviv3oqDu_11hello_world13target_fuzz__INtB18_11UsingReaderpE9read_args4ArgsNtNtNtCsHIej2QEFI5_3std2io5stdio5StdinEB1a_
FNDA:0,_RINvNtCs8THTY5tYJNn_18test_fuzz_internal12serde_format9serializeNtNvNtCs8wlviv3oqDu_11hello_world13target_fuzz__10write_args4ArgsEB16_
FNDA:0,_RINvNtCsfbtA0fWH35c_18test_fuzz_internal12serde_format9serializeNtNvNtCseLM6nJlucij_11hello_world13target_fuzz__10write_args4ArgsEB16_
FNDA:0,_RINvNtCsfbtA0fWH35c_18test_fuzz_internal12serde_format11deserializeppEB4_
FNDA:0,_RINvNtCsfbtA0fWH35c_18test_fuzz_internal12serde_format9serializepEB4_
FNDA:0,_RINvNtCs8THTY5tYJNn_18test_fuzz_internal12serde_format11deserializeNtNvMNtCscKpcHOujJ8r_8lifetime13target_fuzz__INtB18_11UsingReaderpE9read_args4ArgsNtNtNtCsHIej2QEFI5_3std2io5stdio5StdinEB1a_
FNDA:0,_RINvNtCs8THTY5tYJNn_18test_fuzz_internal12serde_format9serializeNtNvNtCscKpcHOujJ8r_8lifetime13target_fuzz__10write_args4ArgsEB16_
FNDA:0,_RINvNtCs8THTY5tYJNn_18test_fuzz_internal12serde_format11deserializeNtNvMNtCsfrdtDoCOCG_11manual_leak23wrapped_key_dump_fuzz__INtB18_11UsingReaderpE9read_args4ArgsNtNtNtCsHIej2QEFI5_3std2io5stdio5StdinEB1a_
FNDA:0,_RINvNtCs8THTY5tYJNn_18test_fuzz_internal12serde_format9serializeNtNvNtCsfrdtDoCOCG_11manual_leak23wrapped_key_dump_fuzz__10write_args4ArgsEB16_
FNDA:0,_RINvNtCs8THTY5tYJNn_18test_fuzz_internal12serde_format11deserializeNtNvMNtCsdWpqmKI707b_7mut_ref17target_str_fuzz__INtB18_11UsingReaderpE9read_args4ArgsNtNtNtCsHIej2QEFI5_3std2io5stdio5StdinEB1a_
FNDA:0,_RINvNtCs8THTY5tYJNn_18test_fuzz_internal12serde_format11deserializeNtNvMNtCsdWpqmKI707b_7mut_ref19target_slice_fuzz__INtB18_11UsingReaderpE9read_args4ArgsNtNtNtCsHIej2QEFI5_3std2io5stdio5StdinEB1a_
FNDA:0,_RINvNtCs8THTY5tYJNn_18test_fuzz_internal12serde_format9serializeNtNvNtCsdWpqmKI707b_7mut_ref17target_str_fuzz__10write_args4ArgsEB16_
FNDA:0,_RINvNtCs8THTY5tYJNn_18test_fuzz_internal12serde_format9serializeNtNvNtCsdWpqmKI707b_7mut_ref19target_slice_fuzz__10write_args4ArgsEB16_
FNDA:0,_RINvNtCs8THTY5tYJNn_18test_fuzz_internal12serde_format11deserializeNtNvMNtCs2MoilIs07Sx_8parallel15target_0_fuzz__INtB18_11UsingReaderpE9read_args4ArgsNtNtNtCsHIej2QEFI5_3std2io5stdio5StdinEB1a_
FNDA:0,_RINvNtCs8THTY5tYJNn_18test_fuzz_internal12serde_format11deserializeNtNvMNtCs2MoilIs07Sx_8parallel15target_1_fuzz__INtB18_11UsingReaderpE9read_args4ArgsNtNtNtCsHIej2QEFI5_3std2io5stdio5StdinEB1a_
FNDA:0,_RINvNtCs8THTY5tYJNn_18test_fuzz_internal12serde_format11deserializeNtNvMNtCs2MoilIs07Sx_8parallel15target_2_fuzz__INtB18_11UsingReaderpE9read_args4ArgsNtNtNtCsHIej2QEFI5_3std2io5stdio5StdinEB1a_
FNDA:0,_RINvNtCs8THTY5tYJNn_18test_fuzz_internal12serde_format11deserializeNtNvMNtCs2MoilIs07Sx_8parallel15target_3_fuzz__INtB18_11UsingReaderpE9read_args4ArgsNtNtNtCsHIej2QEFI5_3std2io5stdio5StdinEB1a_
FNDA:0,_RINvNtCs8THTY5tYJNn_18test_fuzz_internal12serde_format11deserializeNtNvMNtCs2MoilIs07Sx_8parallel15target_4_fuzz__INtB18_11UsingReaderpE9read_args4ArgsNtNtNtCsHIej2QEFI5_3std2io5stdio5StdinEB1a_
FNDA:0,_RINvNtCs8THTY5tYJNn_18test_fuzz_internal12serde_format11deserializeNtNvMNtCs2MoilIs07Sx_8parallel15target_5_fuzz__INtB18_11UsingReaderpE9read_args4ArgsNtNtNtCsHIej2QEFI5_3std2io5stdio5StdinEB1a_
FNDA:0,_RINvNtCs8THTY5tYJNn_18test_fuzz_internal12serde_format9serializeNtNvNtCs2MoilIs07Sx_8parallel15target_0_fuzz__10write_args4ArgsEB16_
FNDA:0,_RINvNtCs8THTY5tYJNn_18test_fuzz_internal12serde_format9serializeNtNvNtCs2MoilIs07Sx_8parallel15target_1_fuzz__10write_args4ArgsEB16_
FNDA:0,_RINvNtCs8THTY5tYJNn_18test_fuzz_internal12serde_format9serializeNtNvNtCs2MoilIs07Sx_8parallel15target_2_fuzz__10write_args4ArgsEB16_
FNDA:0,_RINvNtCs8THTY5tYJNn_18test_fuzz_internal12serde_format9serializeNtNvNtCs2MoilIs07Sx_8parallel15target_3_fuzz__10write_args4ArgsEB16_
FNDA:0,_RINvNtCs8THTY5tYJNn_18test_fuzz_internal12serde_format9serializeNtNvNtCs2MoilIs07Sx_8parallel15target_4_fuzz__10write_args4ArgsEB16_
FNDA:0,_RINvNtCs8THTY5tYJNn_18test_fuzz_internal12serde_format9serializeNtNvNtCs2MoilIs07Sx_8parallel15target_5_fuzz__10write_args4ArgsEB16_
FNDA:0,_RINvNtCs8THTY5tYJNn_18test_fuzz_internal12serde_format11deserializeNtNvMNtCsiULhbWZWKqL_14parse_duration12parse_fuzz__INtB18_11UsingReaderpE9read_args4ArgsNtNtNtCsHIej2QEFI5_3std2io5stdio5StdinEB1a_
FNDA:0,_RINvNtCs8THTY5tYJNn_18test_fuzz_internal12serde_format9serializeNtNvNtCsiULhbWZWKqL_14parse_duration12parse_fuzz__10write_args4ArgsEB16_
FNDA:0,_RINvNtCs8THTY5tYJNn_18test_fuzz_internal12serde_format11deserializeNtNvMNtCs82vfgwK5nMf_7profile13target_fuzz__INtB18_11UsingReaderpE9read_args4ArgsNtNtNtCsHIej2QEFI5_3std2io5stdio5StdinEB1a_
FNDA:0,_RINvNtCs8THTY5tYJNn_18test_fuzz_internal12serde_format9serializeNtNvNtCs82vfgwK5nMf_7profile13target_fuzz__10write_args4ArgsEB16_
FNDA:2,_RINvNtCsfbtA0fWH35c_18test_fuzz_internal12serde_format11deserializeNtNvMNtCs1waMD2fLcEp_6qwerty13target_fuzz__INtB18_11UsingReaderpE9read_args4ArgsNtNtNtCsHIej2QEFI5_3std2io5stdio5StdinEB1a_
FNDA:0,_RINvNtCsfbtA0fWH35c_18test_fuzz_internal12serde_format9serializeNtNvNtCs1waMD2fLcEp_6qwerty13target_fuzz__10write_args4ArgsEB16_
FNDA:2,_RINvNtCs8THTY5tYJNn_18test_fuzz_internal12serde_format11deserializeNtNvMNtCs2Uuc8eoBrFY_6qwerty13target_fuzz__INtB18_11UsingReaderpE9read_args4ArgsNtNtNtCsHIej2QEFI5_3std2io5stdio5StdinEB1a_
FNDA:0,_RINvNtCs8THTY5tYJNn_18test_fuzz_internal12serde_format9serializeNtNvNtCs2Uuc8eoBrFY_6qwerty13target_fuzz__10write_args4ArgsEB16_
FNDA:0,_RINvNtCs8THTY5tYJNn_18test_fuzz_internal12serde_format11deserializeNtNvMNtCsfC9OA1PP7ap_6rename10bar_fuzz__INtB18_11UsingReaderpE9read_args4ArgsNtNtNtCsHIej2QEFI5_3std2io5stdio5StdinEB1a_
FNDA:0,_RINvNtCs8THTY5tYJNn_18test_fuzz_internal12serde_format9serializeNtNvNtCsfC9OA1PP7ap_6rename10bar_fuzz__10write_args4ArgsEB16_
FNDA:0,_RINvNtCs8THTY5tYJNn_18test_fuzz_internal12serde_format11deserializeINtNvMNtCs3hi3ManBPbw_11return_type16swap_swap_fuzz__INtB19_11UsingReaderpE9read_args4ArgsubENtNtNtCsHIej2QEFI5_3std2io5stdio5StdinEB1b_
FNDA:0,_RINvNtCs8THTY5tYJNn_18test_fuzz_internal12serde_format9serializeINtNvNtCs3hi3ManBPbw_11return_type16swap_swap_fuzz__10write_args4ArgsubEEB17_
FNDA:0,_RINvNtCs8THTY5tYJNn_18test_fuzz_internal12serde_format11deserializeNtNvMNtCs40ThQioJlYI_19self_ty_in_mod_name20struct_target_fuzz__INtB18_11UsingReaderpE9read_args4ArgsNtNtNtCsHIej2QEFI5_3std2io5stdio5StdinEB1a_
FNDA:0,_RINvNtCs8THTY5tYJNn_18test_fuzz_internal12serde_format9serializeNtNvNtCs40ThQioJlYI_19self_ty_in_mod_name20struct_target_fuzz__10write_args4ArgsEB16_
FNDA:0,_RINvNtCsfbtA0fWH35c_18test_fuzz_internal12serde_format11deserializeNtNvMNtNtCs2k5fBaaxJWw_5serde10byte_array13target_fuzz__INtB18_11UsingReaderpE9read_args4ArgsNtNtNtCsHIej2QEFI5_3std2io5stdio5StdinEB1c_
FNDA:0,_RINvNtCsfbtA0fWH35c_18test_fuzz_internal12serde_format11deserializeNtNvMNtNtCs2k5fBaaxJWw_5serde11unit_struct13target_fuzz__INtB18_11UsingReaderpE9read_args4ArgsNtNtNtCsHIej2QEFI5_3std2io5stdio5StdinEB1c_
FNDA:0,_RINvNtCsfbtA0fWH35c_18test_fuzz_internal12serde_format11deserializeNtNvMNtNtCs2k5fBaaxJWw_5serde12tuple_struct13target_fuzz__INtB18_11UsingReaderpE9read_args4ArgsNtNtNtCsHIej2QEFI5_3std2io5stdio5StdinEB1c_
FNDA:0,_RINvNtCsfbtA0fWH35c_18test_fuzz_internal12serde_format11deserializeNtNvMNtNtCs2k5fBaaxJWw_5serde12unit_variant13target_fuzz__INtB18_11UsingReaderpE9read_args4ArgsNtNtNtCsHIej2QEFI5_3std2io5stdio5StdinEB1c_
FNDA:0,_RINvNtCsfbtA0fWH35c_18test_fuzz_internal12serde_format11deserializeNtNvMNtNtCs2k5fBaaxJWw_5serde13tuple_variant13target_fuzz__INtB18_11UsingReaderpE9read_args4ArgsNtNtNtCsHIej2QEFI5_3std2io5stdio5StdinEB1c_
FNDA:0,_RINvNtCsfbtA0fWH35c_18test_fuzz_internal12serde_format11deserializeNtNvMNtNtCs2k5fBaaxJWw_5serde14newtype_struct13target_fuzz__INtB18_11UsingReaderpE9read_args4ArgsNtNtNtCsHIej2QEFI5_3std2io5stdio5StdinEB1c_
FNDA:0,_RINvNtCsfbtA0fWH35c_18test_fuzz_internal12serde_format11deserializeNtNvMNtNtCs2k5fBaaxJWw_5serde14struct_variant13target_fuzz__INtB18_11UsingReaderpE9read_args4ArgsNtNtNtCsHIej2QEFI5_3std2io5stdio5StdinEB1c_
FNDA:0,_RINvNtCsfbtA0fWH35c_18test_fuzz_internal12serde_format11deserializeNtNvMNtNtCs2k5fBaaxJWw_5serde15newtype_variant13target_fuzz__INtB18_11UsingReaderpE9read_args4ArgsNtNtNtCsHIej2QEFI5_3std2io5stdio5StdinEB1c_
FNDA:0,_RINvNtCsfbtA0fWH35c_18test_fuzz_internal12serde_format11deserializeNtNvMNtNtCs2k5fBaaxJWw_5serde3map13target_fuzz__INtB18_11UsingReaderpE9read_args4ArgsNtNtNtCsHIej2QEFI5_3std2io5stdio5StdinEB1c_
FNDA:0,_RINvNtCsfbtA0fWH35c_18test_fuzz_internal12serde_format11deserializeNtNvMNtNtCs2k5fBaaxJWw_5serde3seq13target_fuzz__INtB18_11UsingReaderpE9read_args4ArgsNtNtNtCsHIej2QEFI5_3std2io5stdio5StdinEB1c_
FNDA:0,_RINvNtCsfbtA0fWH35c_18test_fuzz_internal12serde_format11deserializeNtNvMNtNtCs2k5fBaaxJWw_5serde4unit13target_fuzz__INtB18_11UsingReaderpE9read_args4ArgsNtNtNtCsHIej2QEFI5_3std2io5stdio5StdinEB1c_
FNDA:0,_RINvNtCsfbtA0fWH35c_18test_fuzz_internal12serde_format11deserializeNtNvMNtNtCs2k5fBaaxJWw_5serde5tuple13target_fuzz__INtB18_11UsingReaderpE9read_args4ArgsNtNtNtCsHIej2QEFI5_3std2io5stdio5StdinEB1c_
FNDA:0,_RINvNtCsfbtA0fWH35c_18test_fuzz_internal12serde_format11deserializeNtNvMNtNtCs2k5fBaaxJWw_5serde6option13target_fuzz__INtB18_11UsingReaderpE9read_args4ArgsNtNtNtCsHIej2QEFI5_3std2io5stdio5StdinEB1c_
FNDA:0,_RINvNtCsfbtA0fWH35c_18test_fuzz_internal12serde_format11deserializeNtNvMNtNtCs2k5fBaaxJWw_5serde6string13target_fuzz__INtB18_11UsingReaderpE9read_args4ArgsNtNtNtCsHIej2QEFI5_3std2io5stdio5StdinEB1c_
FNDA:0,_RINvNtCsfbtA0fWH35c_18test_fuzz_internal12serde_format11deserializeNtNvMNtNtCs2k5fBaaxJWw_5serde6strukt13target_fuzz__INtB18_11UsingReaderpE9read_args4ArgsNtNtNtCsHIej2QEFI5_3std2io5stdio5StdinEB1c_
FNDA:0,_RINvNtCsfbtA0fWH35c_18test_fuzz_internal12serde_format9serializeNtNvNtNtCs2k5fBaaxJWw_5serde10byte_array13target_fuzz__10write_args4ArgsEB18_
FNDA:0,_RINvNtCsfbtA0fWH35c_18test_fuzz_internal12serde_format9serializeNtNvNtNtCs2k5fBaaxJWw_5serde11unit_struct13target_fuzz__10write_args4ArgsEB18_
FNDA:0,_RINvNtCsfbtA0fWH35c_18test_fuzz_internal12serde_format9serializeNtNvNtNtCs2k5fBaaxJWw_5serde12tuple_struct13target_fuzz__10write_args4ArgsEB18_
FNDA:0,_RINvNtCsfbtA0fWH35c_18test_fuzz_internal12serde_format9serializeNtNvNtNtCs2k5fBaaxJWw_5serde12unit_variant13target_fuzz__10write_args4ArgsEB18_
FNDA:0,_RINvNtCsfbtA0fWH35c_18test_fuzz_internal12serde_format9serializeNtNvNtNtCs2k5fBaaxJWw_5serde13tuple_variant13target_fuzz__10write_args4ArgsEB18_
FNDA:0,_RINvNtCsfbtA0fWH35c_18test_fuzz_internal12serde_format9serializeNtNvNtNtCs2k5fBaaxJWw_5serde14newtype_struct13target_fuzz__10write_args4ArgsEB18_
FNDA:0,_RINvNtCsfbtA0fWH35c_18test_fuzz_internal12serde_format9serializeNtNvNtNtCs2k5fBaaxJWw_5serde14struct_variant13target_fuzz__10write_args4ArgsEB18_
FNDA:0,_RINvNtCsfbtA0fWH35c_18test_fuzz_internal12serde_format9serializeNtNvNtNtCs2k5fBaaxJWw_5serde15newtype_variant13target_fuzz__10write_args4ArgsEB18_
FNDA:0,_RINvNtCsfbtA0fWH35c_18test_fuzz_internal12serde_format9serializeNtNvNtNtCs2k5fBaaxJWw_5serde3map13target_fuzz__10write_args4ArgsEB18_
FNDA:0,_RINvNtCsfbtA0fWH35c_18test_fuzz_internal12serde_format9serializeNtNvNtNtCs2k5fBaaxJWw_5serde3seq13target_fuzz__10write_args4ArgsEB18_
FNDA:0,_RINvNtCsfbtA0fWH35c_18test_fuzz_internal12serde_format9serializeNtNvNtNtCs2k5fBaaxJWw_5serde4unit13target_fuzz__10write_args4ArgsEB18_
FNDA:0,_RINvNtCsfbtA0fWH35c_18test_fuzz_internal12serde_format9serializeNtNvNtNtCs2k5fBaaxJWw_5serde5tuple13target_fuzz__10write_args4ArgsEB18_
FNDA:0,_RINvNtCsfbtA0fWH35c_18test_fuzz_internal12serde_format9serializeNtNvNtNtCs2k5fBaaxJWw_5serde6option13target_fuzz__10write_args4ArgsEB18_
FNDA:0,_RINvNtCsfbtA0fWH35c_18test_fuzz_internal12serde_format9serializeNtNvNtNtCs2k5fBaaxJWw_5serde6string13target_fuzz__10write_args4ArgsEB18_
FNDA:0,_RINvNtCsfbtA0fWH35c_18test_fuzz_internal12serde_format9serializeNtNvNtNtCs2k5fBaaxJWw_5serde6strukt13target_fuzz__10write_args4ArgsEB18_
FNDA:0,_RINvNtCs8THTY5tYJNn_18test_fuzz_internal12serde_format11deserializeNtNvMNtNtCshaKEw7X8Hfl_5serde10byte_array13target_fuzz__INtB18_11UsingReaderpE9read_args4ArgsNtNtNtCsHIej2QEFI5_3std2io5stdio5StdinEB1c_
FNDA:0,_RINvNtCs8THTY5tYJNn_18test_fuzz_internal12serde_format11deserializeNtNvMNtNtCshaKEw7X8Hfl_5serde11unit_struct13target_fuzz__INtB18_11UsingReaderpE9read_args4ArgsNtNtNtCsHIej2QEFI5_3std2io5stdio5StdinEB1c_
FNDA:0,_RINvNtCs8THTY5tYJNn_18test_fuzz_internal12serde_format11deserializeNtNvMNtNtCshaKEw7X8Hfl_5serde12tuple_struct13target_fuzz__INtB18_11UsingReaderpE9read_args4ArgsNtNtNtCsHIej2QEFI5_3std2io5stdio5StdinEB1c_
FNDA:0,_RINvNtCs8THTY5tYJNn_18test_fuzz_internal12serde_format11deserializeNtNvMNtNtCshaKEw7X8Hfl_5serde12unit_variant13target_fuzz__INtB18_11UsingReaderpE9read_args4ArgsNtNtNtCsHIej2QEFI5_3std2io5stdio5StdinEB1c_
FNDA:0,_RINvNtCs8THTY5tYJNn_18test_fuzz_internal12serde_format11deserializeNtNvMNtNtCshaKEw7X8Hfl_5serde13tuple_variant13target_fuzz__INtB18_11UsingReaderpE9read_args4ArgsNtNtNtCsHIej2QEFI5_3std2io5stdio5StdinEB1c_
FNDA:0,_RINvNtCs8THTY5tYJNn_18test_fuzz_internal12serde_format11deserializeNtNvMNtNtCshaKEw7X8Hfl_5serde14newtype_struct13target_fuzz__INtB18_11UsingReaderpE9read_args4ArgsNtNtNtCsHIej2QEFI5_3std2io5stdio5StdinEB1c_
FNDA:0,_RINvNtCs8THTY5tYJNn_18test_fuzz_internal12serde_format11deserializeNtNvMNtNtCshaKEw7X8Hfl_5serde14struct_variant13target_fuzz__INtB18_11UsingReaderpE9read_args4ArgsNtNtNtCsHIej2QEFI5_3std2io5stdio5StdinEB1c_
FNDA:0,_RINvNtCs8THTY5tYJNn_18test_fuzz_internal12serde_format11deserializeNtNvMNtNtCshaKEw7X8Hfl_5serde15newtype_variant13target_fuzz__INtB18_11UsingReaderpE9read_args4ArgsNtNtNtCsHIej2QEFI5_3std2io5stdio5StdinEB1c_
FNDA:0,_RINvNtCs8THTY5tYJNn_18test_fuzz_internal12serde_format11deserializeNtNvMNtNtCshaKEw7X8Hfl_5serde3map13target_fuzz__INtB18_11UsingReaderpE9read_args4ArgsNtNtNtCsHIej2QEFI5_3std2io5stdio5StdinEB1c_
FNDA:0,_RINvNtCs8THTY5tYJNn_18test_fuzz_internal12serde_format11deserializeNtNvMNtNtCshaKEw7X8Hfl_5serde3seq13target_fuzz__INtB18_11UsingReaderpE9read_args4ArgsNtNtNtCsHIej2QEFI5_3std2io5stdio5StdinEB1c_
FNDA:0,_RINvNtCs8THTY5tYJNn_18test_fuzz_internal12serde_format11deserializeNtNvMNtNtCshaKEw7X8Hfl_5serde4unit13target_fuzz__INtB18_11UsingReaderpE9read_args4ArgsNtNtNtCsHIej2QEFI5_3std2io5stdio5StdinEB1c_
FNDA:0,_RINvNtCs8THTY5tYJNn_18test_fuzz_internal12serde_format11deserializeNtNvMNtNtCshaKEw7X8Hfl_5serde5tuple13target_fuzz__INtB18_11UsingReaderpE9read_args4ArgsNtNtNtCsHIej2QEFI5_3std2io5stdio5StdinEB1c_
FNDA:0,_RINvNtCs8THTY5tYJNn_18test_fuzz_internal12serde_format11deserializeNtNvMNtNtCshaKEw7X8Hfl_5serde6option13target_fuzz__INtB18_11UsingReaderpE9read_args4ArgsNtNtNtCsHIej2QEFI5_3std2io5stdio5StdinEB1c_
FNDA:0,_RINvNtCs8THTY5tYJNn_18test_fuzz_internal12serde_format11deserializeNtNvMNtNtCshaKEw7X8Hfl_5serde6string13target_fuzz__INtB18_11UsingReaderpE9read_args4ArgsNtNtNtCsHIej2QEFI5_3std2io5stdio5StdinEB1c_
FNDA:0,_RINvNtCs8THTY5tYJNn_18test_fuzz_internal12serde_format11deserializeNtNvMNtNtCshaKEw7X8Hfl_5serde6strukt13target_fuzz__INtB18_11UsingReaderpE9read_args4ArgsNtNtNtCsHIej2QEFI5_3std2io5stdio5StdinEB1c_
FNDA:0,_RINvNtCs8THTY5tYJNn_18test_fuzz_internal12serde_format9serializeNtNvNtNtCshaKEw7X8Hfl_5serde10byte_array13target_fuzz__10write_args4ArgsEB18_
FNDA:0,_RINvNtCs8THTY5tYJNn_18test_fuzz_internal12serde_format9serializeNtNvNtNtCshaKEw7X8Hfl_5serde11unit_struct13target_fuzz__10write_args4ArgsEB18_
FNDA:0,_RINvNtCs8THTY5tYJNn_18test_fuzz_internal12serde_format9serializeNtNvNtNtCshaKEw7X8Hfl_5serde12tuple_struct13target_fuzz__10write_args4ArgsEB18_
FNDA:0,_RINvNtCs8THTY5tYJNn_18test_fuzz_internal12serde_format9serializeNtNvNtNtCshaKEw7X8Hfl_5serde12unit_variant13target_fuzz__10write_args4ArgsEB18_
FNDA:0,_RINvNtCs8THTY5tYJNn_18test_fuzz_internal12serde_format9serializeNtNvNtNtCshaKEw7X8Hfl_5serde13tuple_variant13target_fuzz__10write_args4ArgsEB18_
FNDA:0,_RINvNtCs8THTY5tYJNn_18test_fuzz_internal12serde_format9serializeNtNvNtNtCshaKEw7X8Hfl_5serde14newtype_struct13target_fuzz__10write_args4ArgsEB18_
FNDA:0,_RINvNtCs8THTY5tYJNn_18test_fuzz_internal12serde_format9serializeNtNvNtNtCshaKEw7X8Hfl_5serde14struct_variant13target_fuzz__10write_args4ArgsEB18_
FNDA:0,_RINvNtCs8THTY5tYJNn_18test_fuzz_internal12serde_format9serializeNtNvNtNtCshaKEw7X8Hfl_5serde15newtype_variant13target_fuzz__10write_args4ArgsEB18_
FNDA:0,_RINvNtCs8THTY5tYJNn_18test_fuzz_internal12serde_format9serializeNtNvNtNtCshaKEw7X8Hfl_5serde3map13target_fuzz__10write_args4ArgsEB18_
FNDA:0,_RINvNtCs8THTY5tYJNn_18test_fuzz_internal12serde_format9serializeNtNvNtNtCshaKEw7X8Hfl_5serde3seq13target_fuzz__10write_args4ArgsEB18_
FNDA:0,_RINvNtCs8THTY5tYJNn_18test_fuzz_internal12serde_format9serializeNtNvNtNtCshaKEw7X8Hfl_5serde4unit13target_fuzz__10write_args4ArgsEB18_
FNDA:0,_RINvNtCs8THTY5tYJNn_18test_fuzz_internal12serde_format9serializeNtNvNtNtCshaKEw7X8Hfl_5serde5tuple13target_fuzz__10write_args4ArgsEB18_
FNDA:0,_RINvNtCs8THTY5tYJNn_18test_fuzz_internal12serde_format9serializeNtNvNtNtCshaKEw7X8Hfl_5serde6option13target_fuzz__10write_args4ArgsEB18_
FNDA:0,_RINvNtCs8THTY5tYJNn_18test_fuzz_internal12serde_format9serializeNtNvNtNtCshaKEw7X8Hfl_5serde6string13target_fuzz__10write_args4ArgsEB18_
FNDA:0,_RINvNtCs8THTY5tYJNn_18test_fuzz_internal12serde_format9serializeNtNvNtNtCshaKEw7X8Hfl_5serde6strukt13target_fuzz__10write_args4ArgsEB18_
FNDA:0,_RINvNtCs8THTY5tYJNn_18test_fuzz_internal12serde_format11deserializeNtNvMNtCscvb0eOkB4Vu_10serde_attr13target_fuzz__INtB18_11UsingReaderpE9read_args4ArgsNtNtNtCsHIej2QEFI5_3std2io5stdio5StdinEB1a_
FNDA:0,_RINvNtCs8THTY5tYJNn_18test_fuzz_internal12serde_format9serializeNtNvNtCscvb0eOkB4Vu_10serde_attr13target_fuzz__10write_args4ArgsEB16_
FNDA:0,_RINvNtCs8THTY5tYJNn_18test_fuzz_internal12serde_format11deserializeNtNvMNtCslMUiMMXt5So_14test_fuzz_impl17struct_bar_fuzz__INtB18_11UsingReaderpE9read_args4ArgsNtNtNtCsHIej2QEFI5_3std2io5stdio5StdinEB1a_
FNDA:0,_RINvNtCs8THTY5tYJNn_18test_fuzz_internal12serde_format11deserializeNtNvMNtCslMUiMMXt5So_14test_fuzz_impl17struct_foo_fuzz__INtB18_11UsingReaderpE9read_args4ArgsNtNtNtCsHIej2QEFI5_3std2io5stdio5StdinEB1a_
FNDA:0,_RINvNtCs8THTY5tYJNn_18test_fuzz_internal12serde_format9serializeNtNvNtCslMUiMMXt5So_14test_fuzz_impl17struct_bar_fuzz__10write_args4ArgsEB16_
FNDA:0,_RINvNtCs8THTY5tYJNn_18test_fuzz_internal12serde_format9serializeNtNvNtCslMUiMMXt5So_14test_fuzz_impl17struct_foo_fuzz__10write_args4ArgsEB16_
FNF:2
FNH:1
DA:32,0
DA:43,0
DA:44,0
DA:53,0
DA:56,4
DA:59,4
DA:60,4
DA:70,4
BRF:0
BRH:0
LF:8
LH:4
end_of_record
SF:[REPO]/macro/src/lib.rs
FN:1035,_RINvCs25Jd2yMWnvN_15test_fuzz_macro15combine_optionsINtNtCs7RHlYfyMmuY_3syn10punctuated10PunctuatedNtNtBT_4path15GenericArgumentNtNtBT_5token5CommaENCNvB2_16map_method_or_fns3_0EB2_
FN:1035,_RINvCs25Jd2yMWnvN_15test_fuzz_macro15combine_optionsNtNtCs7RHlYfyMmuY_3syn8generics11WhereClauseNCNvB2_16combine_generics0EB2_
FN:793,_RINvCs25Jd2yMWnvN_15test_fuzz_macro8map_argsINtNtCs7RHlYfyMmuY_3syn10punctuated7IterMutNtNtBL_4item5FnArgEEB2_
FN:836,_RNCNCNvCs25Jd2yMWnvN_15test_fuzz_macro7map_arg00B5_
FN:854,_RNCNCNvCs25Jd2yMWnvN_15test_fuzz_macro7map_arg0s0_0B5_
FN:853,_RNCNCNvCs25Jd2yMWnvN_15test_fuzz_macro7map_arg0s_0B5_
FN:1153,_RNCNvCs25Jd2yMWnvN_15test_fuzz_macro11log_enabled0B3_
FN:1005,_RNCNvCs25Jd2yMWnvN_15test_fuzz_macro11type_idents0B3_
FN:979,_RNCNvCs25Jd2yMWnvN_15test_fuzz_macro12is_test_fuzz0B3_
FN:108,_RNCNvCs25Jd2yMWnvN_15test_fuzz_macro13map_impl_item0B3_
FN:966,_RNCNvCs25Jd2yMWnvN_15test_fuzz_macro14opts_from_attr0B3_
FN:967,_RNCNvCs25Jd2yMWnvN_15test_fuzz_macro14opts_from_attrs_0B3_
FN:67,_RNCNvCs25Jd2yMWnvN_15test_fuzz_macro14test_fuzz_impl0B3_
FN:1090,_RNCNvCs25Jd2yMWnvN_15test_fuzz_macro15args_from_autos0B3_
FN:1098,_RNCNvCs25Jd2yMWnvN_15test_fuzz_macro15args_from_autoss_0B3_
FN:37,_RNCNvCs25Jd2yMWnvN_15test_fuzz_macro16CARGO_CRATE_NAME0B3_
FN:1021,_RNCNvCs25Jd2yMWnvN_15test_fuzz_macro16combine_generics0B3_
FN:138,_RNCNvCs25Jd2yMWnvN_15test_fuzz_macro16map_impl_item_fn0B3_
FN:139,_RNCNvCs25Jd2yMWnvN_15test_fuzz_macro16map_impl_item_fns_0B3_
FN:235,_RNCNvCs25Jd2yMWnvN_15test_fuzz_macro16map_method_or_fn0B3_
FN:293,_RNCNvCs25Jd2yMWnvN_15test_fuzz_macro16map_method_or_fns0_0B3_
FN:302,_RNCNvCs25Jd2yMWnvN_15test_fuzz_macro16map_method_or_fns1_0B3_
FN:324,_RNCNvCs25Jd2yMWnvN_15test_fuzz_macro16map_method_or_fns2_0B3_
FN:334,_RNCNvCs25Jd2yMWnvN_15test_fuzz_macro16map_method_or_fns3_0B3_
FN:349,_RNCNvCs25Jd2yMWnvN_15test_fuzz_macro16map_method_or_fns4_0B3_
FN:382,_RNCNvCs25Jd2yMWnvN_15test_fuzz_macro16map_method_or_fns5_0B3_
FN:392,_RNCNvCs25Jd2yMWnvN_15test_fuzz_macro16map_method_or_fns6_0B3_
FN:402,_RNCNvCs25Jd2yMWnvN_15test_fuzz_macro16map_method_or_fns7_0B3_
FN:410,_RNCNvCs25Jd2yMWnvN_15test_fuzz_macro16map_method_or_fns8_0B3_
FN:419,_RNCNvCs25Jd2yMWnvN_15test_fuzz_macro16map_method_or_fns9_0B3_
FN:289,_RNCNvCs25Jd2yMWnvN_15test_fuzz_macro16map_method_or_fns_0B3_
FN:420,_RNCNvCs25Jd2yMWnvN_15test_fuzz_macro16map_method_or_fnsa_0B3_
FN:771,_RNCNvCs25Jd2yMWnvN_15test_fuzz_macro18generic_params_map0B3_
FN:782,_RNCNvCs25Jd2yMWnvN_15test_fuzz_macro18generic_params_maps_0B3_
FN:1048,_RNCNvCs25Jd2yMWnvN_15test_fuzz_macro23restrict_to_deserialize0B3_
FN:1062,_RNCNvCs25Jd2yMWnvN_15test_fuzz_macro37type_generic_phantom_idents_and_types0B3_
FN:824,_RNCNvCs25Jd2yMWnvN_15test_fuzz_macro7map_arg0B3_
FN:1152,_RNvCs25Jd2yMWnvN_15test_fuzz_macro11log_enabled
FN:920,_RNvCs25Jd2yMWnvN_15test_fuzz_macro11map_ref_arg
FN:1001,_RNvCs25Jd2yMWnvN_15test_fuzz_macro11type_idents
FN:975,_RNvCs25Jd2yMWnvN_15test_fuzz_macro12is_test_fuzz
FN:906,_RNvCs25Jd2yMWnvN_15test_fuzz_macro12map_path_arg
FN:101,_RNvCs25Jd2yMWnvN_15test_fuzz_macro13map_impl_item
FN:879,_RNvCs25Jd2yMWnvN_15test_fuzz_macro13map_typed_arg
FN:84,_RNvCs25Jd2yMWnvN_15test_fuzz_macro14map_impl_items
FN:964,_RNvCs25Jd2yMWnvN_15test_fuzz_macro14opts_from_attr
FN:43,_RNvCs25Jd2yMWnvN_15test_fuzz_macro14test_fuzz_impl
FN:1139,_RNvCs25Jd2yMWnvN_15test_fuzz_macro15anonymous_ident
FN:1087,_RNvCs25Jd2yMWnvN_15test_fuzz_macro15args_from_autos
FN:1015,_RNvCs25Jd2yMWnvN_15test_fuzz_macro16combine_generics
FN:121,_RNvCs25Jd2yMWnvN_15test_fuzz_macro16map_impl_item_fn
FN:220,_RNvCs25Jd2yMWnvN_15test_fuzz_macro16map_method_or_fn
FN:1076,_RNvCs25Jd2yMWnvN_15test_fuzz_macro17args_as_turbofish
FN:763,_RNvCs25Jd2yMWnvN_15test_fuzz_macro18generic_params_map
FN:982,_RNvCs25Jd2yMWnvN_15test_fuzz_macro23parse_generic_arguments
FN:1046,_RNvCs25Jd2yMWnvN_15test_fuzz_macro23restrict_to_deserialize
FN:1058,_RNvCs25Jd2yMWnvN_15test_fuzz_macro37type_generic_phantom_idents_and_types
FN:1144,_RNvCs25Jd2yMWnvN_15test_fuzz_macro3log
FN:818,_RNvCs25Jd2yMWnvN_15test_fuzz_macro7map_arg
FN:1120,_RNvCs25Jd2yMWnvN_15test_fuzz_macro9mod_ident
FN:182,_RNvCs25Jd2yMWnvN_15test_fuzz_macro9test_fuzz
FNDA:17,_RINvCs25Jd2yMWnvN_15test_fuzz_macro15combine_optionsINtNtCs7RHlYfyMmuY_3syn10punctuated10PunctuatedNtNtBT_4path15GenericArgumentNtNtBT_5token5CommaENCNvB2_16map_method_or_fns3_0EB2_
FNDA:17,_RINvCs25Jd2yMWnvN_15test_fuzz_macro15combine_optionsNtNtCs7RHlYfyMmuY_3syn8generics11WhereClauseNCNvB2_16combine_generics0EB2_
FNDA:17,_RINvCs25Jd2yMWnvN_15test_fuzz_macro8map_argsINtNtCs7RHlYfyMmuY_3syn10punctuated7IterMutNtNtBL_4item5FnArgEEB2_
FNDA:0,_RNCNCNvCs25Jd2yMWnvN_15test_fuzz_macro7map_arg00B5_
FNDA:0,_RNCNCNvCs25Jd2yMWnvN_15test_fuzz_macro7map_arg0s0_0B5_
FNDA:61,_RNCNCNvCs25Jd2yMWnvN_15test_fuzz_macro7map_arg0s_0B5_
FNDA:0,_RNCNvCs25Jd2yMWnvN_15test_fuzz_macro11log_enabled0B3_
FNDA:0,_RNCNvCs25Jd2yMWnvN_15test_fuzz_macro11type_idents0B3_
FNDA:0,_RNCNvCs25Jd2yMWnvN_15test_fuzz_macro12is_test_fuzz0B3_
FNDA:0,_RNCNvCs25Jd2yMWnvN_15test_fuzz_macro13map_impl_item0B3_
FNDA:0,_RNCNvCs25Jd2yMWnvN_15test_fuzz_macro14opts_from_attr0B3_
FNDA:0,_RNCNvCs25Jd2yMWnvN_15test_fuzz_macro14opts_from_attrs_0B3_
FNDA:0,_RNCNvCs25Jd2yMWnvN_15test_fuzz_macro14test_fuzz_impl0B3_
FNDA:61,_RNCNvCs25Jd2yMWnvN_15test_fuzz_macro15args_from_autos0B3_
FNDA:61,_RNCNvCs25Jd2yMWnvN_15test_fuzz_macro15args_from_autoss_0B3_
FNDA:0,_RNCNvCs25Jd2yMWnvN_15test_fuzz_macro16CARGO_CRATE_NAME0B3_
FNDA:0,_RNCNvCs25Jd2yMWnvN_15test_fuzz_macro16combine_generics0B3_
FNDA:0,_RNCNvCs25Jd2yMWnvN_15test_fuzz_macro16map_impl_item_fn0B3_
FNDA:0,_RNCNvCs25Jd2yMWnvN_15test_fuzz_macro16map_impl_item_fns_0B3_
FNDA:0,_RNCNvCs25Jd2yMWnvN_15test_fuzz_macro16map_method_or_fn0B3_
FNDA:0,_RNCNvCs25Jd2yMWnvN_15test_fuzz_macro16map_method_or_fns0_0B3_
FNDA:0,_RNCNvCs25Jd2yMWnvN_15test_fuzz_macro16map_method_or_fns1_0B3_
FNDA:0,_RNCNvCs25Jd2yMWnvN_15test_fuzz_macro16map_method_or_fns2_0B3_
FNDA:0,_RNCNvCs25Jd2yMWnvN_15test_fuzz_macro16map_method_or_fns3_0B3_
FNDA:0,_RNCNvCs25Jd2yMWnvN_15test_fuzz_macro16map_method_or_fns4_0B3_
FNDA:0,_RNCNvCs25Jd2yMWnvN_15test_fuzz_macro16map_method_or_fns5_0B3_
FNDA:61,_RNCNvCs25Jd2yMWnvN_15test_fuzz_macro16map_method_or_fns6_0B3_
FNDA:61,_RNCNvCs25Jd2yMWnvN_15test_fuzz_macro16map_method_or_fns7_0B3_
FNDA:61,_RNCNvCs25Jd2yMWnvN_15test_fuzz_macro16map_method_or_fns8_0B3_
FNDA:0,_RNCNvCs25Jd2yMWnvN_15test_fuzz_macro16map_method_or_fns9_0B3_
FNDA:0,_RNCNvCs25Jd2yMWnvN_15test_fuzz_macro16map_method_or_fns_0B3_
FNDA:0,_RNCNvCs25Jd2yMWnvN_15test_fuzz_macro16map_method_or_fnsa_0B3_
FNDA:0,_RNCNvCs25Jd2yMWnvN_15test_fuzz_macro18generic_params_map0B3_
FNDA:0,_RNCNvCs25Jd2yMWnvN_15test_fuzz_macro18generic_params_maps_0B3_
FNDA:0,_RNCNvCs25Jd2yMWnvN_15test_fuzz_macro23restrict_to_deserialize0B3_
FNDA:0,_RNCNvCs25Jd2yMWnvN_15test_fuzz_macro37type_generic_phantom_idents_and_types0B3_
FNDA:61,_RNCNvCs25Jd2yMWnvN_15test_fuzz_macro7map_arg0B3_
FNDA:17,_RNvCs25Jd2yMWnvN_15test_fuzz_macro11log_enabled
FNDA:42,_RNvCs25Jd2yMWnvN_15test_fuzz_macro11map_ref_arg
FNDA:34,_RNvCs25Jd2yMWnvN_15test_fuzz_macro11type_idents
FNDA:0,_RNvCs25Jd2yMWnvN_15test_fuzz_macro12is_test_fuzz
FNDA:39,_RNvCs25Jd2yMWnvN_15test_fuzz_macro12map_path_arg
FNDA:0,_RNvCs25Jd2yMWnvN_15test_fuzz_macro13map_impl_item
FNDA:73,_RNvCs25Jd2yMWnvN_15test_fuzz_macro13map_typed_arg
FNDA:0,_RNvCs25Jd2yMWnvN_15test_fuzz_macro14map_impl_items
FNDA:0,_RNvCs25Jd2yMWnvN_15test_fuzz_macro14opts_from_attr
FNDA:0,_RNvCs25Jd2yMWnvN_15test_fuzz_macro14test_fuzz_impl
FNDA:0,_RNvCs25Jd2yMWnvN_15test_fuzz_macro15anonymous_ident
FNDA:17,_RNvCs25Jd2yMWnvN_15test_fuzz_macro15args_from_autos
FNDA:17,_RNvCs25Jd2yMWnvN_15test_fuzz_macro16combine_generics
FNDA:0,_RNvCs25Jd2yMWnvN_15test_fuzz_macro16map_impl_item_fn
FNDA:17,_RNvCs25Jd2yMWnvN_15test_fuzz_macro16map_method_or_fn
FNDA:17,_RNvCs25Jd2yMWnvN_15test_fuzz_macro17args_as_turbofish
FNDA:0,_RNvCs25Jd2yMWnvN_15test_fuzz_macro18generic_params_map
FNDA:0,_RNvCs25Jd2yMWnvN_15test_fuzz_macro23parse_generic_arguments
FNDA:17,_RNvCs25Jd2yMWnvN_15test_fuzz_macro23restrict_to_deserialize
FNDA:17,_RNvCs25Jd2yMWnvN_15test_fuzz_macro37type_generic_phantom_idents_and_types
FNDA:17,_RNvCs25Jd2yMWnvN_15test_fuzz_macro3log
FNDA:17,_RNvCs25Jd2yMWnvN_15test_fuzz_macro7map_arg
FNDA:17,_RNvCs25Jd2yMWnvN_15test_fuzz_macro9mod_ident
FNDA:17,_RNvCs25Jd2yMWnvN_15test_fuzz_macro9test_fuzz
FNF:60
FNH:24
DA:37,0
DA:43,0
DA:44,0
DA:45,0
DA:47,0
DA:49,0
DA:51,0
DA:52,0
DA:53,0
DA:54,0
DA:55,0
DA:56,0
DA:57,0
DA:59,0
DA:60,0
DA:62,0
DA:67,0
DA:68,0
DA:69,0
DA:71,0
DA:73,0
DA:80,0
DA:81,0
DA:82,0
DA:84,0
DA:85,0
DA:86,0
DA:87,0
DA:88,0
DA:89,0
DA:90,0
DA:91,0
DA:92,0
DA:94,0
DA:96,0
DA:98,0
DA:99,0
DA:101,0
DA:102,0
DA:103,0
DA:104,0
DA:105,0
DA:106,0
DA:107,0
DA:108,0
DA:109,0
DA:110,0
DA:112,0
DA:114,0
DA:115,0
DA:121,0
DA:122,0
DA:123,0
DA:124,0
DA:125,0
DA:126,0
DA:128,0
DA:129,0
DA:130,0
DA:131,0
DA:132,0
DA:133,0
DA:135,0
DA:137,0
DA:138,0
DA:139,0
DA:140,0
DA:141,0
DA:142,0
DA:143,0
DA:144,0
DA:145,0
DA:146,0
DA:147,0
DA:148,0
DA:149,0
DA:150,0
DA:151,0
DA:152,0
DA:153,0
DA:154,0
DA:156,0
DA:182,17
DA:183,17
DA:184,17
DA:185,17
DA:187,17
DA:189,17
DA:190,17
DA:191,17
DA:192,17
DA:193,17
DA:194,17
DA:195,17
DA:196,17
DA:197,17
DA:198,17
DA:199,17
DA:200,17
DA:201,17
DA:202,17
DA:203,17
DA:204,17
DA:205,17
DA:209,17
DA:210,17
DA:211,17
DA:220,17
DA:221,17
DA:222,17
DA:223,17
DA:224,17
DA:225,17
DA:226,17
DA:227,17
DA:228,17
DA:229,17
DA:230,17
DA:231,17
DA:232,17
DA:234,17
DA:235,17
DA:236,0
DA:237,0
DA:238,0
DA:239,0
DA:240,0
DA:241,0
DA:242,0
DA:243,0
DA:244,0
DA:246,17
DA:247,17
DA:248,17
DA:249,17
DA:251,17
DA:271,17
DA:272,17
DA:273,0
DA:276,0
DA:280,17
DA:283,17
DA:284,17
DA:285,17
DA:287,17
DA:288,17
DA:289,17
DA:290,17
DA:291,17
DA:292,17
DA:293,17
DA:294,17
DA:296,17
DA:297,17
DA:299,17
DA:300,17
DA:302,17
DA:303,0
DA:304,0
DA:306,0
DA:308,0
DA:309,0
DA:312,0
DA:318,17
DA:319,17
DA:320,17
DA:321,17
DA:322,17
DA:323,17
DA:324,17
DA:325,0
DA:326,0
DA:327,17
DA:329,17
DA:330,17
DA:331,17
DA:332,17
DA:333,17
DA:334,0
DA:335,0
DA:336,0
DA:337,0
DA:339,17
DA:344,17
DA:345,17
DA:346,17
DA:347,17
DA:348,17
DA:349,17
DA:350,17
DA:352,17
DA:353,17
DA:354,17
DA:355,17
DA:356,17
DA:357,17
DA:360,17
DA:362,17
DA:363,17
DA:364,17
DA:365,17
DA:366,17
DA:367,17
DA:368,17
DA:369,17
DA:371,17
DA:372,0
DA:373,0
DA:374,0
DA:376,0
DA:380,17
DA:382,17
DA:383,17
DA:384,17
DA:385,17
DA:386,17
DA:387,17
DA:388,17
DA:389,17
DA:390,17
DA:391,17
DA:392,61
DA:393,61
DA:397,61
DA:398,17
DA:399,17
DA:400,17
DA:401,17
DA:402,61
DA:403,61
DA:406,61
DA:407,17
DA:408,17
DA:409,17
DA:410,61
DA:411,61
DA:414,61
DA:415,17
DA:416,17
DA:417,17
DA:418,0
DA:419,0
DA:420,0
DA:422,17
DA:425,17
DA:426,17
DA:431,17
DA:432,17
DA:433,17
DA:434,17
DA:435,17
DA:436,17
DA:437,17
DA:438,17
DA:439,0
DA:440,0
DA:441,0
DA:442,0
DA:443,0
DA:444,0
DA:447,17
DA:448,17
DA:456,17
DA:466,17
DA:467,0
DA:469,17
DA:475,17
DA:482,17
DA:483,1
DA:484,1
DA:485,1
DA:486,1
DA:487,1
DA:488,1
DA:489,1
DA:490,1
DA:491,1
DA:492,1
DA:494,16
DA:495,16
DA:496,16
DA:497,16
DA:498,16
DA:499,16
DA:501,17
DA:502,0
DA:504,17
DA:511,17
DA:515,17
DA:519,17
DA:523,17
DA:534,17
DA:537,17
DA:538,0
DA:539,0
DA:540,0
DA:541,0
DA:542,0
DA:543,0
DA:544,0
DA:546,0
DA:550,0
DA:552,0
DA:558,17
DA:564,17
DA:565,0
DA:566,0
DA:570,17
DA:572,17
DA:583,17
DA:589,17
DA:596,17
DA:619,17
DA:620,0
DA:622,17
DA:677,17
DA:678,17
DA:679,17
DA:681,0
DA:684,17
DA:726,17
DA:732,17
DA:743,17
DA:761,17
DA:763,0
DA:764,0
DA:765,0
DA:766,0
DA:767,0
DA:768,0
DA:769,0
DA:770,0
DA:771,0
DA:772,0
DA:773,0
DA:777,0
DA:778,0
DA:779,0
DA:780,0
DA:781,0
DA:782,0
DA:783,0
DA:784,0
DA:786,0
DA:788,0
DA:789,0
DA:790,0
DA:793,17
DA:794,17
DA:795,17
DA:796,17
DA:797,17
DA:798,17
DA:799,17
DA:800,17
DA:801,17
DA:802,17
DA:803,17
DA:804,17
DA:805,17
DA:806,17
DA:807,17
DA:808,17
DA:810,17
DA:811,17
DA:812,17
DA:813,17
DA:815,17
DA:816,17
DA:818,17
DA:819,17
DA:820,17
DA:821,17
DA:822,17
DA:823,17
DA:824,61
DA:825,61
DA:827,0
DA:828,0
DA:829,0
DA:832,0
DA:833,0
DA:834,0
DA:835,0
DA:836,0
DA:837,0
DA:838,0
DA:843,0
DA:845,61
DA:846,61
DA:847,61
DA:848,61
DA:849,0
DA:851,61
DA:852,61
DA:853,61
DA:854,0
DA:856,61
DA:857,61
DA:862,61
DA:865,61
DA:866,61
DA:867,61
DA:869,0
DA:870,0
DA:871,0
DA:872,0
DA:873,0
DA:875,61
DA:876,61
DA:877,17
DA:879,73
DA:880,73
DA:881,73
DA:882,73
DA:883,73
DA:884,73
DA:885,73
DA:886,73
DA:887,73
DA:888,0
DA:889,0
DA:890,0
DA:891,0
DA:892,0
DA:893,0
DA:894,73
DA:895,73
DA:896,13
DA:897,42
DA:898,18
DA:899,18
DA:900,18
DA:901,18
DA:902,18
DA:904,73
DA:906,39
DA:907,39
DA:908,39
DA:909,39
DA:910,39
DA:911,39
DA:912,39
DA:913,39
DA:914,39
DA:915,39
DA:916,39
DA:917,39
DA:918,39
DA:920,42
DA:921,42
DA:922,42
DA:923,42
DA:924,42
DA:925,42
DA:926,42
DA:927,42
DA:928,19
DA:930,23
DA:932,42
DA:933,42
DA:934,29
DA:935,29
DA:936,3
DA:937,3
DA:938,3
DA:939,3
DA:940,3
DA:941,3
DA:943,26
DA:944,26
DA:945,26
DA:948,1
DA:949,1
DA:950,1
DA:951,1
DA:952,1
DA:953,1
DA:954,1
DA:957,12
DA:958,12
DA:959,12
DA:962,42
DA:964,0
DA:965,0
DA:966,0
DA:967,0
DA:968,0
DA:969,0
DA:970,0
DA:971,0
DA:973,0
DA:975,0
DA:976,0
DA:977,0
DA:978,0
DA:979,0
DA:980,0
DA:982,0
DA:983,0
DA:984,0
DA:986,0
DA:988,0
DA:989,0
DA:1001,34
DA:1002,34
DA:1003,34
DA:1004,34
DA:1005,34
DA:1006,0
DA:1007,0
DA:1009,0
DA:1011,0
DA:1012,34
DA:1013,34
DA:1015,17
DA:1016,17
DA:1017,17
DA:1018,17
DA:1019,17
DA:1020,17
DA:1021,0
DA:1022,0
DA:1023,0
DA:1024,0
DA:1026,17
DA:1027,17
DA:1035,34
DA:1036,34
DA:1037,34
DA:1039,34
DA:1040,0
DA:1041,34
DA:1042,0
DA:1044,34
DA:1046,17
DA:1047,17
DA:1048,17
DA:1049,0
DA:1050,0
DA:1051,0
DA:1052,0
DA:1053,0
DA:1054,0
DA:1055,17
DA:1056,17
DA:1058,17
DA:1059,17
DA:1060,17
DA:1061,17
DA:1062,17
DA:1063,0
DA:1064,0
DA:1065,0
DA:1066,0
DA:1067,0
DA:1068,0
DA:1069,0
DA:1070,0
DA:1071,0
DA:1072,0
DA:1073,17
DA:1074,17
DA:1076,17
DA:1077,17
DA:1080,17
DA:1087,17
DA:1088,17
DA:1089,17
DA:1090,61
DA:1091,61
DA:1092,61
DA:1095,61
DA:1096,17
DA:1097,17
DA:1098,61
DA:1099,61
DA:1100,61
DA:1101,61
DA:1104,61
DA:1105,17
DA:1106,17
DA:1117,17
DA:1120,17
DA:1121,17
DA:1122,17
DA:1123,0
DA:1124,0
DA:1125,17
DA:1126,0
DA:1127,0
DA:1128,0
DA:1129,0
DA:1130,17
DA:1131,17
DA:1133,17
DA:1134,17
DA:1135,17
DA:1139,0
DA:1140,0
DA:1141,0
DA:1142,0
DA:1144,17
DA:1145,17
DA:1146,0
DA:1147,0
DA:1148,0
DA:1149,17
DA:1150,17
DA:1152,17
DA:1153,17
DA:1154,17
BRF:0
BRH:0
LF:633
LH:376
end_of_record
SF:[REPO]/macro/src/ord_type.rs
FN:27,_RNvXs1_NtCs25Jd2yMWnvN_15test_fuzz_macro8ord_typeNtB5_7OrdTypeNtNtCs3XFJfFEDSOQ_4core3cmp10PartialOrd11partial_cmp
FN:35,_RNvXs3_NtCs25Jd2yMWnvN_15test_fuzz_macro8ord_typeNtB5_7OrdTypeNtNtCs3XFJfFEDSOQ_4core3cmp9PartialEq2eq
FN:9,_RNvXNtCs25Jd2yMWnvN_15test_fuzz_macro8ord_typeNtB2_7OrdTypeNtNtCs3XFJfFEDSOQ_4core3fmt7Display3fmt
FN:21,_RNvXs0_NtCs25Jd2yMWnvN_15test_fuzz_macro8ord_typeNtB5_7OrdTypeNtNtCs3XFJfFEDSOQ_4core3cmp3Ord3cmp
FN:15,_RNvXs_NtCs25Jd2yMWnvN_15test_fuzz_macro8ord_typeNtB4_7OrdTypeNtNtCs3XFJfFEDSOQ_4core3fmt5Debug3fmt
FNDA:0,_RNvXs1_NtCs25Jd2yMWnvN_15test_fuzz_macro8ord_typeNtB5_7OrdTypeNtNtCs3XFJfFEDSOQ_4core3cmp10PartialOrd11partial_cmp
FNDA:0,_RNvXs3_NtCs25Jd2yMWnvN_15test_fuzz_macro8ord_typeNtB5_7OrdTypeNtNtCs3XFJfFEDSOQ_4core3cmp9PartialEq2eq
FNDA:280,_RNvXNtCs25Jd2yMWnvN_15test_fuzz_macro8ord_typeNtB2_7OrdTypeNtNtCs3XFJfFEDSOQ_4core3fmt7Display3fmt
FNDA:140,_RNvXs0_NtCs25Jd2yMWnvN_15test_fuzz_macro8ord_typeNtB5_7OrdTypeNtNtCs3XFJfFEDSOQ_4core3cmp3Ord3cmp
FNDA:0,_RNvXs_NtCs25Jd2yMWnvN_15test_fuzz_macro8ord_typeNtB4_7OrdTypeNtNtCs3XFJfFEDSOQ_4core3fmt5Debug3fmt
FNF:5
FNH:2
DA:9,280
DA:10,280
DA:11,280
DA:15,0
DA:16,0
DA:17,0
DA:21,140
DA:22,140
DA:23,140
DA:27,0
DA:28,0
DA:29,0
DA:35,0
DA:36,0
DA:37,0
BRF:0
BRH:0
LF:15
LH:6
end_of_record
SF:[REPO]/macro/src/pat_utils.rs
FN:19,_RNvNtCs25Jd2yMWnvN_15test_fuzz_macro9pat_utils10pat_idents
FN:11,_RNvXNtCs25Jd2yMWnvN_15test_fuzz_macro9pat_utilsNtB2_10PatVisitorNtNtNtCs7RHlYfyMmuY_3syn3gen5visit5Visit9visit_pat
FNDA:61,_RNvNtCs25Jd2yMWnvN_15test_fuzz_macro9pat_utils10pat_idents
FNDA:61,_RNvXNtCs25Jd2yMWnvN_15test_fuzz_macro9pat_utilsNtB2_10PatVisitorNtNtNtCs7RHlYfyMmuY_3syn3gen5visit5Visit9visit_pat
FNF:2
FNH:2
DA:11,61
DA:12,61
DA:13,61
DA:14,61
DA:15,61
DA:16,61
DA:19,61
DA:20,61
DA:21,61
DA:22,61
DA:23,61
BRF:0
BRH:0
LF:11
LH:11
end_of_record
SF:[REPO]/macro/src/type_utils.rs
FN:100,_RNvNtCs25Jd2yMWnvN_15test_fuzz_macro10type_utils11expand_self
FN:96,_RNvNtCs25Jd2yMWnvN_15test_fuzz_macro10type_utils13token_strings
FN:144,_RNvNtCs25Jd2yMWnvN_15test_fuzz_macro10type_utils15match_type_path
FN:47,_RNvNtCs25Jd2yMWnvN_15test_fuzz_macro10type_utils17path_as_turbofish
FN:54,_RNvNtCs25Jd2yMWnvN_15test_fuzz_macro10type_utils17type_as_turbofish
FN:10,_RNvNtCs25Jd2yMWnvN_15test_fuzz_macro10type_utils23map_path_generic_params
FN:17,_RNvNtCs25Jd2yMWnvN_15test_fuzz_macro10type_utils23map_type_generic_params
FN:169,_RNvNtCs25Jd2yMWnvN_15test_fuzz_macro10type_utils9type_base
FN:29,_RNvXNtCs25Jd2yMWnvN_15test_fuzz_macro10type_utilsNtB2_19GenericParamVisitorNtNtNtCs7RHlYfyMmuY_3syn3gen9visit_mut8VisitMut14visit_type_mut
FN:116,_RNvXs0_NtCs25Jd2yMWnvN_15test_fuzz_macro10type_utilsNtB5_17ExpandSelfVisitorNtNtNtCs7RHlYfyMmuY_3syn3gen9visit_mut8VisitMut14visit_type_mut
FN:66,_RNvXs_NtCs25Jd2yMWnvN_15test_fuzz_macro10type_utilsNtB4_16TurbofishVisitorNtNtNtCs7RHlYfyMmuY_3syn3gen5visit5Visit20visit_path_arguments
FN:146,_RNCNvNtCs25Jd2yMWnvN_15test_fuzz_macro10type_utils15match_type_path0B5_
FN:154,_RNCNvNtCs25Jd2yMWnvN_15test_fuzz_macro10type_utils15match_type_paths_0B5_
FN:128,_RNCNvXs0_NtCs25Jd2yMWnvN_15test_fuzz_macro10type_utilsNtB7_17ExpandSelfVisitorNtNtNtCs7RHlYfyMmuY_3syn3gen9visit_mut8VisitMut14visit_type_mut0B9_
FNDA:0,_RNvNtCs25Jd2yMWnvN_15test_fuzz_macro10type_utils11expand_self
FNDA:0,_RNvNtCs25Jd2yMWnvN_15test_fuzz_macro10type_utils13token_strings
FNDA:29,_RNvNtCs25Jd2yMWnvN_15test_fuzz_macro10type_utils15match_type_path
FNDA:0,_RNvNtCs25Jd2yMWnvN_15test_fuzz_macro10type_utils17path_as_turbofish
FNDA:0,_RNvNtCs25Jd2yMWnvN_15test_fuzz_macro10type_utils17type_as_turbofish
FNDA:0,_RNvNtCs25Jd2yMWnvN_15test_fuzz_macro10type_utils23map_path_generic_params
FNDA:0,_RNvNtCs25Jd2yMWnvN_15test_fuzz_macro10type_utils23map_type_generic_params
FNDA:0,_RNvNtCs25Jd2yMWnvN_15test_fuzz_macro10type_utils9type_base
FNDA:0,_RNvXNtCs25Jd2yMWnvN_15test_fuzz_macro10type_utilsNtB2_19GenericParamVisitorNtNtNtCs7RHlYfyMmuY_3syn3gen9visit_mut8VisitMut14visit_type_mut
FNDA:0,_RNvXs0_NtCs25Jd2yMWnvN_15test_fuzz_macro10type_utilsNtB5_17ExpandSelfVisitorNtNtNtCs7RHlYfyMmuY_3syn3gen9visit_mut8VisitMut14visit_type_mut
FNDA:0,_RNvXs_NtCs25Jd2yMWnvN_15test_fuzz_macro10type_utilsNtB4_16TurbofishVisitorNtNtNtCs7RHlYfyMmuY_3syn3gen5visit5Visit20visit_path_arguments
FNDA:29,_RNCNvNtCs25Jd2yMWnvN_15test_fuzz_macro10type_utils15match_type_path0B5_
FNDA:29,_RNCNvNtCs25Jd2yMWnvN_15test_fuzz_macro10type_utils15match_type_paths_0B5_
FNDA:0,_RNCNvXs0_NtCs25Jd2yMWnvN_15test_fuzz_macro10type_utilsNtB7_17ExpandSelfVisitorNtNtNtCs7RHlYfyMmuY_3syn3gen9visit_mut8VisitMut14visit_type_mut0B9_
FNF:14
FNH:3
DA:10,0
DA:11,0
DA:12,0
DA:13,0
DA:14,0
DA:15,0
DA:17,0
DA:18,0
DA:19,0
DA:20,0
DA:21,0
DA:22,0
DA:29,0
DA:30,0
DA:31,0
DA:32,0
DA:34,0
DA:35,0
DA:36,0
DA:37,0
DA:40,0
DA:41,0
DA:42,0
DA:43,0
DA:44,0
DA:47,0
DA:48,0
DA:49,0
DA:50,0
DA:51,0
DA:52,0
DA:54,0
DA:55,0
DA:56,0
DA:57,0
DA:58,0
DA:59,0
DA:66,0
DA:67,0
DA:68,0
DA:69,0
DA:70,0
DA:71,0
DA:72,0
DA:73,0
DA:74,0
DA:75,0
DA:76,0
DA:77,0
DA:78,0
DA:79,0
DA:80,0
DA:81,0
DA:82,0
DA:83,0
DA:84,0
DA:85,0
DA:86,0
DA:87,0
DA:88,0
DA:89,0
DA:91,0
DA:92,0
DA:93,0
DA:96,0
DA:97,0
DA:98,0
DA:100,0
DA:101,0
DA:102,0
DA:103,0
DA:104,0
DA:105,0
DA:106,0
DA:107,0
DA:108,0
DA:116,0
DA:119,0
DA:120,0
DA:121,0
DA:122,0
DA:123,0
DA:124,0
DA:125,0
DA:126,0
DA:127,0
DA:128,0
DA:130,0
DA:131,0
DA:132,0
DA:133,0
DA:134,0
DA:135,0
DA:136,0
DA:137,0
DA:138,0
DA:139,0
DA:140,0
DA:141,0
DA:144,29
DA:145,29
DA:146,29
DA:147,29
DA:148,29
DA:149,29
DA:150,29
DA:151,29
DA:152,29
DA:153,29
DA:154,29
DA:155,29
DA:156,29
DA:157,29
DA:158,29
DA:159,29
DA:160,29
DA:161,29
DA:162,29
DA:163,3
DA:165,26
DA:167,29
DA:169,0
DA:170,0
DA:171,0
DA:173,0
DA:174,0
DA:176,0
DA:177,0
BRF:0
BRH:0
LF:131
LH:24
end_of_record
SF:[REPO]/runtime/src/lib.rs
FN:85,_RNvMs1_NvMs1_NtCse8wYCkBeBvO_5alloc13target_fuzz__NtBb_4Args13auto_generateINtB5_s_4AutopE4autoBd_
FN:85,_RNvMs3_NvMs1_NtCse8wYCkBeBvO_5alloc13target_fuzz__NtBb_4Args13auto_generateINtB5_s0_4AutopE4autoBd_
FN:85,_RNvMs5_NvMs1_NtCse8wYCkBeBvO_5alloc13target_fuzz__NtBb_4Args13auto_generateINtB5_s1_4AutopE4autoBd_
FN:85,_RNvMs7_NvMs1_NtCse8wYCkBeBvO_5alloc13target_fuzz__NtBb_4Args13auto_generateINtB5_s2_4AutopE4autoBd_
FN:85,_RNvMs_NvMs1_NtCse8wYCkBeBvO_5alloc13target_fuzz__NtBa_4Args13auto_generateINtB4_4AutopE4autoBc_
FN:76,_RNvXININvMs1_NtCse8wYCkBeBvO_5alloc13target_fuzz__NtBb_4Args13auto_generate0ppEpINtB5_12AutoFallbackpE4autoBd_
FN:76,_RNvXININvMs1_NtCse8wYCkBeBvO_5alloc13target_fuzz__NtBb_4Args13auto_generates0_0ppEpINtB5_s_12AutoFallbackpE4autoBd_
FN:76,_RNvXININvMs1_NtCse8wYCkBeBvO_5alloc13target_fuzz__NtBb_4Args13auto_generates2_0ppEpINtB5_s0_12AutoFallbackpE4autoBd_
FN:76,_RNvXININvMs1_NtCse8wYCkBeBvO_5alloc13target_fuzz__NtBb_4Args13auto_generates4_0ppEpINtB5_s1_12AutoFallbackpE4autoBd_
FN:76,_RNvXININvMs1_NtCse8wYCkBeBvO_5alloc13target_fuzz__NtBb_4Args13auto_generates6_0ppEpINtB5_s2_12AutoFallbackpE4autoBd_
FN:178,_RINvCsavtZ3NIYN9z_17test_fuzz_runtime10write_argsNtNvNtCse8wYCkBeBvO_5alloc13target_fuzz__10write_args4ArgsEBR_
FN:172,_RINvCsavtZ3NIYN9z_17test_fuzz_runtime18write_generic_argsNtNtCse8wYCkBeBvO_5alloc13target_fuzz__4ArgsEBX_
FN:166,_RINvCsavtZ3NIYN9z_17test_fuzz_runtime23write_impl_generic_argsNtNtCse8wYCkBeBvO_5alloc13target_fuzz__4ArgsEB12_
FN:194,_RINvCsavtZ3NIYN9z_17test_fuzz_runtime9read_argsNtNvMNtCse8wYCkBeBvO_5alloc13target_fuzz__INtBO_11UsingReaderpE9read_args4ArgsNtNtNtCsHIej2QEFI5_3std2io5stdio5StdinEBQ_
FN:58,_RINvMs0_CsavtZ3NIYN9z_17test_fuzz_runtimeINtB6_8TryDebugjE5applyuECse8wYCkBeBvO_5alloc
FN:58,_RINvMs0_CsavtZ3NIYN9z_17test_fuzz_runtimeINtB6_8TryDebuguE5applyuECse8wYCkBeBvO_5alloc
FN:184,_RNvCsavtZ3NIYN9z_17test_fuzz_runtime10write_data
FN:156,_RNvCsavtZ3NIYN9z_17test_fuzz_runtime13write_enabled
FN:151,_RNvCsavtZ3NIYN9z_17test_fuzz_runtime14replay_enabled
FN:141,_RNvCsavtZ3NIYN9z_17test_fuzz_runtime15display_enabled
FN:136,_RNvCsavtZ3NIYN9z_17test_fuzz_runtime17test_fuzz_enabled
FN:146,_RNvCsavtZ3NIYN9z_17test_fuzz_runtime20pretty_print_enabled
FN:120,_RNvCsavtZ3NIYN9z_17test_fuzz_runtime29warn_if_test_fuzz_not_enabled
FN:161,_RNvCsavtZ3NIYN9z_17test_fuzz_runtime7enabled
FN:122,_RNCNvCsavtZ3NIYN9z_17test_fuzz_runtime29warn_if_test_fuzz_not_enabled0B3_
FN:163,_RNCNvCsavtZ3NIYN9z_17test_fuzz_runtime7enabled0B3_
FN:178,_RINvCsavtZ3NIYN9z_17test_fuzz_runtime10write_argspEB2_
FN:172,_RINvCsavtZ3NIYN9z_17test_fuzz_runtime18write_generic_argspEB2_
FN:166,_RINvCsavtZ3NIYN9z_17test_fuzz_runtime23write_impl_generic_argspEB2_
FN:194,_RINvCsavtZ3NIYN9z_17test_fuzz_runtime9read_argsppEB2_
FN:58,_RINvMs0_CsavtZ3NIYN9z_17test_fuzz_runtimeINtB6_8TryDebugpE5applypEB6_
FN:50,_RINvXINICsavtZ3NIYN9z_17test_fuzz_runtimes_0pEpNtB6_16TryDebugFallback5applypEB6_
FN:33,_RNvXINICsavtZ3NIYN9z_17test_fuzz_runtime0pEINtB5_18DebugUnimplementedpENtNtCs3XFJfFEDSOQ_4core3fmt5Debug3fmtB5_
FN:178,_RINvCsavtZ3NIYN9z_17test_fuzz_runtime10write_argsNtNvNtCskAhiz3iLhgB_3arc13target_fuzz__10write_args4ArgsEBR_
FN:172,_RINvCsavtZ3NIYN9z_17test_fuzz_runtime18write_generic_argsNtNtCskAhiz3iLhgB_3arc13target_fuzz__4ArgsEBX_
FN:166,_RINvCsavtZ3NIYN9z_17test_fuzz_runtime23write_impl_generic_argsNtNtCskAhiz3iLhgB_3arc13target_fuzz__4ArgsEB12_
FN:194,_RINvCsavtZ3NIYN9z_17test_fuzz_runtime9read_argsNtNvMNtCskAhiz3iLhgB_3arc13target_fuzz__INtBO_11UsingReaderpE9read_args4ArgsNtNtNtCsHIej2QEFI5_3std2io5stdio5StdinEBQ_
FN:58,_RINvMs0_CsavtZ3NIYN9z_17test_fuzz_runtimeINtB6_8TryDebugINtNtCsgag4BwXrjBQ_5alloc4sync3ArcINtNtNtNtCsHIej2QEFI5_3std11collections4hash3set7HashSetmEEE5applyuECskAhiz3iLhgB_3arc
FN:58,_RINvMs0_CsavtZ3NIYN9z_17test_fuzz_runtimeINtB6_8TryDebugjE5applyuECskAhiz3iLhgB_3arc
FN:58,_RINvMs0_CsavtZ3NIYN9z_17test_fuzz_runtimeINtB6_8TryDebuguE5applyuECskAhiz3iLhgB_3arc
FN:85,_RNvMs1_NvMs1_NtCskAhiz3iLhgB_3arc13target_fuzz__NtBb_4Args13auto_generateINtB5_s_4AutoINtNtCsgag4BwXrjBQ_5alloc4sync3ArcINtNtNtNtCsHIej2QEFI5_3std11collections4hash3set7HashSetmEEE4autoBd_
FN:85,_RNvMs9_NvMs1_NtCskAhiz3iLhgB_3arc13target_fuzz__NtBb_4Args13auto_generateINtB5_s3_4AutojE4autoBd_
FN:85,_RNvMsb_NvMs1_NtCskAhiz3iLhgB_3arc13target_fuzz__NtBb_4Args13auto_generateINtB5_s4_4AutojE4autoBd_
FN:85,_RNvMsd_NvMs1_NtCskAhiz3iLhgB_3arc13target_fuzz__NtBb_4Args13auto_generateINtB5_s5_4AutojE4autoBd_
FN:85,_RNvMsf_NvMs1_NtCskAhiz3iLhgB_3arc13target_fuzz__NtBb_4Args13auto_generateINtB5_s6_4AutojE4autoBd_
FN:85,_RNvMsh_NvMs1_NtCskAhiz3iLhgB_3arc13target_fuzz__NtBb_4Args13auto_generateINtB5_s7_4AutojE4autoBd_
FN:76,_RNvXNvMs1_NtCskAhiz3iLhgB_3arc13target_fuzz__NtB8_4Args13auto_generateINtB2_4AutoINtNtCsgag4BwXrjBQ_5alloc4sync3ArcINtNtNtNtCsHIej2QEFI5_3std11collections4hash3set7HashSetmEEEINtB2_12AutoFallbackB1h_E4autoBa_
FN:76,_RNvXs2_NvMs1_NtCskAhiz3iLhgB_3arc13target_fuzz__NtBb_4Args13auto_generateINtB5_s0_4AutoINtNtCsgag4BwXrjBQ_5alloc4sync3ArcINtNtNtNtCsHIej2QEFI5_3std11collections4hash3set7HashSetmEEEINtB5_s0_12AutoFallbackB1n_E4autoBd_
FN:76,_RNvXs4_NvMs1_NtCskAhiz3iLhgB_3arc13target_fuzz__NtBb_4Args13auto_generateINtB5_s1_4AutoINtNtCsgag4BwXrjBQ_5alloc4sync3ArcINtNtNtNtCsHIej2QEFI5_3std11collections4hash3set7HashSetmEEEINtB5_s1_12AutoFallbackB1n_E4autoBd_
FN:76,_RNvXs6_NvMs1_NtCskAhiz3iLhgB_3arc13target_fuzz__NtBb_4Args13auto_generateINtB5_s2_4AutoINtNtCsgag4BwXrjBQ_5alloc4sync3ArcINtNtNtNtCsHIej2QEFI5_3std11collections4hash3set7HashSetmEEEINtB5_s2_12AutoFallbackB1n_E4autoBd_
FN:85,_RNvMs3_NvMs1_NtCskAhiz3iLhgB_3arc13target_fuzz__NtBb_4Args13auto_generateINtB5_s0_4AutopE4autoBd_
FN:85,_RNvMs5_NvMs1_NtCskAhiz3iLhgB_3arc13target_fuzz__NtBb_4Args13auto_generateINtB5_s1_4AutopE4autoBd_
FN:85,_RNvMs7_NvMs1_NtCskAhiz3iLhgB_3arc13target_fuzz__NtBb_4Args13auto_generateINtB5_s2_4AutopE4autoBd_
FN:85,_RNvMs_NvMs1_NtCskAhiz3iLhgB_3arc13target_fuzz__NtBa_4Args13auto_generateINtB4_4AutopE4autoBc_
FN:76,_RNvXININvMs1_NtCskAhiz3iLhgB_3arc13target_fuzz__NtBb_4Args13auto_generates0_0ppEpINtB5_s_12AutoFallbackpE4autoBd_
FN:76,_RNvXININvMs1_NtCskAhiz3iLhgB_3arc13target_fuzz__NtBb_4Args13auto_generates8_0ppEpINtB5_s3_12AutoFallbackpE4autoBd_
FN:76,_RNvXININvMs1_NtCskAhiz3iLhgB_3arc13target_fuzz__NtBb_4Args13auto_generatesa_0ppEpINtB5_s4_12AutoFallbackpE4autoBd_
FN:76,_RNvXININvMs1_NtCskAhiz3iLhgB_3arc13target_fuzz__NtBb_4Args13auto_generatesc_0ppEpINtB5_s5_12AutoFallbackpE4autoBd_
FN:76,_RNvXININvMs1_NtCskAhiz3iLhgB_3arc13target_fuzz__NtBb_4Args13auto_generatese_0ppEpINtB5_s6_12AutoFallbackpE4autoBd_
FN:76,_RNvXININvMs1_NtCskAhiz3iLhgB_3arc13target_fuzz__NtBb_4Args13auto_generatesg_0ppEpINtB5_s7_12AutoFallbackpE4autoBd_
FN:85,_RNvMs3_NvMs1_NtCs3NEe1ZjCvxW_6assert13target_fuzz__NtBb_4Args13auto_generateINtB5_s0_4AutopE4autoBd_
FN:85,_RNvMs5_NvMs1_NtCs3NEe1ZjCvxW_6assert13target_fuzz__NtBb_4Args13auto_generateINtB5_s1_4AutopE4autoBd_
FN:85,_RNvMs7_NvMs1_NtCs3NEe1ZjCvxW_6assert13target_fuzz__NtBb_4Args13auto_generateINtB5_s2_4AutopE4autoBd_
FN:85,_RNvMs_NvMs1_NtCs3NEe1ZjCvxW_6assert13target_fuzz__NtBa_4Args13auto_generateINtB4_4AutopE4autoBc_
FN:76,_RNvXININvMs1_NtCs3NEe1ZjCvxW_6assert13target_fuzz__NtBb_4Args13auto_generates0_0ppEpINtB5_s_12AutoFallbackpE4autoBd_
FN:85,_RNvMs1_NvMs1_NtCs3NEe1ZjCvxW_6assert13target_fuzz__NtBb_4Args13auto_generateINtB5_s_4AutobE4autoBd_
FN:76,_RNvXNvMs1_NtCs3NEe1ZjCvxW_6assert13target_fuzz__NtB8_4Args13auto_generateINtB2_4AutobEINtB2_12AutoFallbackbE4autoBa_
FN:76,_RNvXs2_NvMs1_NtCs3NEe1ZjCvxW_6assert13target_fuzz__NtBb_4Args13auto_generateINtB5_s0_4AutobEINtB5_s0_12AutoFallbackbE4autoBd_
FN:76,_RNvXs4_NvMs1_NtCs3NEe1ZjCvxW_6assert13target_fuzz__NtBb_4Args13auto_generateINtB5_s1_4AutobEINtB5_s1_12AutoFallbackbE4autoBd_
FN:76,_RNvXs6_NvMs1_NtCs3NEe1ZjCvxW_6assert13target_fuzz__NtBb_4Args13auto_generateINtB5_s2_4AutobEINtB5_s2_12AutoFallbackbE4autoBd_
FN:178,_RINvCsavtZ3NIYN9z_17test_fuzz_runtime10write_argsNtNvNtCs3NEe1ZjCvxW_6assert13target_fuzz__10write_args4ArgsEBR_
FN:172,_RINvCsavtZ3NIYN9z_17test_fuzz_runtime18write_generic_argsNtNtCs3NEe1ZjCvxW_6assert13target_fuzz__4ArgsEBX_
FN:166,_RINvCsavtZ3NIYN9z_17test_fuzz_runtime23write_impl_generic_argsNtNtCs3NEe1ZjCvxW_6assert13target_fuzz__4ArgsEB12_
FN:194,_RINvCsavtZ3NIYN9z_17test_fuzz_runtime9read_argsNtNvMNtCs3NEe1ZjCvxW_6assert13target_fuzz__INtBO_11UsingReaderpE9read_args4ArgsNtNtNtCsHIej2QEFI5_3std2io5stdio5StdinEBQ_
FN:58,_RINvMs0_CsavtZ3NIYN9z_17test_fuzz_runtimeINtB6_8TryDebugbE5applyuECs3NEe1ZjCvxW_6assert
FN:58,_RINvMs0_CsavtZ3NIYN9z_17test_fuzz_runtimeINtB6_8TryDebuguE5applyuECs3NEe1ZjCvxW_6assert
FN:178,_RINvCsavtZ3NIYN9z_17test_fuzz_runtime10write_argsINtNvNtCs6B4TSC9eIAl_15associated_type20serializes_to_fuzz__10write_args4ArgsNtBS_7AddressEEBS_
FN:172,_RINvCsavtZ3NIYN9z_17test_fuzz_runtime18write_generic_argsINtNtCs6B4TSC9eIAl_15associated_type20serializes_to_fuzz__4ArgsNtBY_7AddressEEBY_
FN:166,_RINvCsavtZ3NIYN9z_17test_fuzz_runtime23write_impl_generic_argsINtNtCs6B4TSC9eIAl_15associated_type20serializes_to_fuzz__4ArgsNtB13_7AddressEEB13_
FN:194,_RINvCsavtZ3NIYN9z_17test_fuzz_runtime9read_argsINtNvMNtCs6B4TSC9eIAl_15associated_type20serializes_to_fuzz__INtBP_11UsingReaderpE9read_args4ArgsNtBR_7AddressENtNtNtCsHIej2QEFI5_3std2io5stdio5StdinEBR_
FN:58,_RINvMs0_CsavtZ3NIYN9z_17test_fuzz_runtimeINtB6_8TryDebugbE5applyuECs6B4TSC9eIAl_15associated_type
FN:50,_RINvXs_CsavtZ3NIYN9z_17test_fuzz_runtimeINtB5_8TryDebugNtCs6B4TSC9eIAl_15associated_type7AddressENtB5_16TryDebugFallback5applyuEBT_
FN:50,_RINvXs_CsavtZ3NIYN9z_17test_fuzz_runtimeINtB5_8TryDebugNtNtCsgag4BwXrjBQ_5alloc6string6StringENtB5_16TryDebugFallback5applyuECs6B4TSC9eIAl_15associated_type
FN:33,_RNvXCsavtZ3NIYN9z_17test_fuzz_runtimeINtB2_18DebugUnimplementedINtB2_8TryDebugNtCs6B4TSC9eIAl_15associated_type7AddressEENtNtCs3XFJfFEDSOQ_4core3fmt5Debug3fmtB1g_
FN:33,_RNvXCsavtZ3NIYN9z_17test_fuzz_runtimeINtB2_18DebugUnimplementedINtB2_8TryDebugNtNtCsgag4BwXrjBQ_5alloc6string6StringEENtNtCs3XFJfFEDSOQ_4core3fmt5Debug3fmtCs6B4TSC9eIAl_15associated_type
FN:85,_RNvMsl_NvMs1_NtCs6B4TSC9eIAl_15associated_type20serializes_to_fuzz__INtBb_4ArgspE13auto_generateINtB5_s9_4AutoINtNtCs3XFJfFEDSOQ_4core6marker11PhantomDataNtBd_7AddressEE4autoBd_
FN:76,_RNvXNvMs1_NtCs6B4TSC9eIAl_15associated_type20serializes_to_fuzz__INtB8_4ArgspE13auto_generateINtB2_4AutoNtBa_7AddressEINtB2_12AutoFallbackB1E_E4autoBa_
FN:76,_RNvXs0_NvMs1_NtCs6B4TSC9eIAl_15associated_type20serializes_to_fuzz__INtBb_4ArgspE13auto_generateINtB5_s_4AutoNtBd_7AddressEINtB5_s_12AutoFallbackB1J_E4autoBd_
FN:76,_RNvXs2_NvMs1_NtCs6B4TSC9eIAl_15associated_type20serializes_to_fuzz__INtBb_4ArgspE13auto_generateINtB5_s0_4AutoNtBd_7AddressEINtB5_s0_12AutoFallbackB1K_E4autoBd_
FN:76,_RNvXs4_NvMs1_NtCs6B4TSC9eIAl_15associated_type20serializes_to_fuzz__INtBb_4ArgspE13auto_generateINtB5_s1_4AutoNtBd_7AddressEINtB5_s1_12AutoFallbackB1K_E4autoBd_
FN:76,_RNvXs6_NvMs1_NtCs6B4TSC9eIAl_15associated_type20serializes_to_fuzz__INtBb_4ArgspE13auto_generateINtB5_s2_4AutoNtBd_7AddressEINtB5_s2_12AutoFallbackB1K_E4autoBd_
FN:76,_RNvXs8_NvMs1_NtCs6B4TSC9eIAl_15associated_type20serializes_to_fuzz__INtBb_4ArgspE13auto_generateINtB5_s3_4AutoNtNtCsgag4BwXrjBQ_5alloc6string6StringEINtB5_s3_12AutoFallbackB1K_E4autoBd_
FN:76,_RNvXsa_NvMs1_NtCs6B4TSC9eIAl_15associated_type20serializes_to_fuzz__INtBb_4ArgspE13auto_generateINtB5_s4_4AutoNtNtCsgag4BwXrjBQ_5alloc6string6StringEINtB5_s4_12AutoFallbackB1K_E4autoBd_
FN:76,_RNvXsc_NvMs1_NtCs6B4TSC9eIAl_15associated_type20serializes_to_fuzz__INtBb_4ArgspE13auto_generateINtB5_s5_4AutoNtNtCsgag4BwXrjBQ_5alloc6string6StringEINtB5_s5_12AutoFallbackB1K_E4autoBd_
FN:76,_RNvXse_NvMs1_NtCs6B4TSC9eIAl_15associated_type20serializes_to_fuzz__INtBb_4ArgspE13auto_generateINtB5_s6_4AutoNtNtCsgag4BwXrjBQ_5alloc6string6StringEINtB5_s6_12AutoFallbackB1K_E4autoBd_
FN:76,_RNvXsg_NvMs1_NtCs6B4TSC9eIAl_15associated_type20serializes_to_fuzz__INtBb_4ArgspE13auto_generateINtB5_s7_4AutoNtNtCsgag4BwXrjBQ_5alloc6string6StringEINtB5_s7_12AutoFallbackB1K_E4autoBd_
FN:76,_RNvXsi_NvMs1_NtCs6B4TSC9eIAl_15associated_type20serializes_to_fuzz__INtBb_4ArgspE13auto_generateINtB5_s8_4AutoINtNtCs3XFJfFEDSOQ_4core6marker11PhantomDataNtBd_7AddressEEINtB5_s8_12AutoFallbackB1K_E4autoBd_
FN:76,_RNvXsm_NvMs1_NtCs6B4TSC9eIAl_15associated_type20serializes_to_fuzz__INtBb_4ArgspE13auto_generateINtB5_sa_4AutoINtNtCs3XFJfFEDSOQ_4core6marker11PhantomDataNtBd_7AddressEEINtB5_sa_12AutoFallbackB1K_E4autoBd_
FN:76,_RNvXso_NvMs1_NtCs6B4TSC9eIAl_15associated_type20serializes_to_fuzz__INtBb_4ArgspE13auto_generateINtB5_sb_4AutoINtNtCs3XFJfFEDSOQ_4core6marker11PhantomDataNtBd_7AddressEEINtB5_sb_12AutoFallbackB1K_E4autoBd_
FN:76,_RNvXsq_NvMs1_NtCs6B4TSC9eIAl_15associated_type20serializes_to_fuzz__INtBb_4ArgspE13auto_generateINtB5_sc_4AutoINtNtCs3XFJfFEDSOQ_4core6marker11PhantomDataNtBd_7AddressEEINtB5_sc_12AutoFallbackB1K_E4autoBd_
FN:85,_RNvMs1_NvMs1_NtCs6B4TSC9eIAl_15associated_type20serializes_to_fuzz__INtBb_4ArgspE13auto_generateINtB5_s_4AutopE4autoBd_
FN:85,_RNvMs3_NvMs1_NtCs6B4TSC9eIAl_15associated_type20serializes_to_fuzz__INtBb_4ArgspE13auto_generateINtB5_s0_4AutopE4autoBd_
FN:85,_RNvMs5_NvMs1_NtCs6B4TSC9eIAl_15associated_type20serializes_to_fuzz__INtBb_4ArgspE13auto_generateINtB5_s1_4AutopE4autoBd_
FN:85,_RNvMs7_NvMs1_NtCs6B4TSC9eIAl_15associated_type20serializes_to_fuzz__INtBb_4ArgspE13auto_generateINtB5_s2_4AutopE4autoBd_
FN:85,_RNvMs9_NvMs1_NtCs6B4TSC9eIAl_15associated_type20serializes_to_fuzz__INtBb_4ArgspE13auto_generateINtB5_s3_4AutopE4autoBd_
FN:85,_RNvMs_NvMs1_NtCs6B4TSC9eIAl_15associated_type20serializes_to_fuzz__INtBa_4ArgspE13auto_generateINtB4_4AutopE4autoBc_
FN:85,_RNvMsb_NvMs1_NtCs6B4TSC9eIAl_15associated_type20serializes_to_fuzz__INtBb_4ArgspE13auto_generateINtB5_s4_4AutopE4autoBd_
FN:85,_RNvMsd_NvMs1_NtCs6B4TSC9eIAl_15associated_type20serializes_to_fuzz__INtBb_4ArgspE13auto_generateINtB5_s5_4AutopE4autoBd_
FN:85,_RNvMsf_NvMs1_NtCs6B4TSC9eIAl_15associated_type20serializes_to_fuzz__INtBb_4ArgspE13auto_generateINtB5_s6_4AutopE4autoBd_
FN:85,_RNvMsh_NvMs1_NtCs6B4TSC9eIAl_15associated_type20serializes_to_fuzz__INtBb_4ArgspE13auto_generateINtB5_s7_4AutopE4autoBd_
FN:85,_RNvMsj_NvMs1_NtCs6B4TSC9eIAl_15associated_type20serializes_to_fuzz__INtBb_4ArgspE13auto_generateINtB5_s8_4AutopE4autoBd_
FN:85,_RNvMsn_NvMs1_NtCs6B4TSC9eIAl_15associated_type20serializes_to_fuzz__INtBb_4ArgspE13auto_generateINtB5_sa_4AutopE4autoBd_
FN:85,_RNvMsp_NvMs1_NtCs6B4TSC9eIAl_15associated_type20serializes_to_fuzz__INtBb_4ArgspE13auto_generateINtB5_sb_4AutopE4autoBd_
FN:85,_RNvMsr_NvMs1_NtCs6B4TSC9eIAl_15associated_type20serializes_to_fuzz__INtBb_4ArgspE13auto_generateINtB5_sc_4AutopE4autoBd_
FN:76,_RNvXININvMs1_NtCs6B4TSC9eIAl_15associated_type20serializes_to_fuzz__INtBb_4ArgspE13auto_generatesk_0ppEpINtB5_s9_12AutoFallbackpE4autoBd_
FN:85,_RNvMs1_NvMs1_NtNtCsgYSNy1dwfGS_13auto_generate6signed13target_fuzz__NtBb_4Args13auto_generateINtB5_s_4AutoxE4autoBf_
FN:85,_RNvMs3_NvMs1_NtNtCsgYSNy1dwfGS_13auto_generate6signed13target_fuzz__NtBb_4Args13auto_generateINtB5_s0_4AutoxE4autoBf_
FN:85,_RNvMs5_NvMs1_NtNtCsgYSNy1dwfGS_13auto_generate6signed13target_fuzz__NtBb_4Args13auto_generateINtB5_s1_4AutoxE4autoBf_
FN:85,_RNvMs7_NvMs1_NtNtCsgYSNy1dwfGS_13auto_generate6signed13target_fuzz__NtBb_4Args13auto_generateINtB5_s2_4AutoxE4autoBf_
FN:85,_RNvMs_NvMs1_NtNtCsgYSNy1dwfGS_13auto_generate6signed13target_fuzz__NtBa_4Args13auto_generateINtB4_4AutoxE4autoBe_
FN:85,_RNvMs1_NvMs1_NtNtCsgYSNy1dwfGS_13auto_generate8unsigned13target_fuzz__NtBb_4Args13auto_generateINtB5_s_4AutoyE4autoBf_
FN:85,_RNvMs3_NvMs1_NtNtCsgYSNy1dwfGS_13auto_generate8unsigned13target_fuzz__NtBb_4Args13auto_generateINtB5_s0_4AutoyE4autoBf_
FN:85,_RNvMs5_NvMs1_NtNtCsgYSNy1dwfGS_13auto_generate8unsigned13target_fuzz__NtBb_4Args13auto_generateINtB5_s1_4AutoyE4autoBf_
FN:85,_RNvMs7_NvMs1_NtNtCsgYSNy1dwfGS_13auto_generate8unsigned13target_fuzz__NtBb_4Args13auto_generateINtB5_s2_4AutoyE4autoBf_
FN:85,_RNvMs_NvMs1_NtNtCsgYSNy1dwfGS_13auto_generate8unsigned13target_fuzz__NtBa_4Args13auto_generateINtB4_4AutoyE4autoBe_
FN:76,_RNvXININvMs1_NtNtCsgYSNy1dwfGS_13auto_generate6signed13target_fuzz__NtBb_4Args13auto_generate0ppEpINtB5_12AutoFallbackpE4autoBf_
FN:76,_RNvXININvMs1_NtNtCsgYSNy1dwfGS_13auto_generate6signed13target_fuzz__NtBb_4Args13auto_generates0_0ppEpINtB5_s_12AutoFallbackpE4autoBf_
FN:76,_RNvXININvMs1_NtNtCsgYSNy1dwfGS_13auto_generate6signed13target_fuzz__NtBb_4Args13auto_generates2_0ppEpINtB5_s0_12AutoFallbackpE4autoBf_
FN:76,_RNvXININvMs1_NtNtCsgYSNy1dwfGS_13auto_generate6signed13target_fuzz__NtBb_4Args13auto_generates4_0ppEpINtB5_s1_12AutoFallbackpE4autoBf_
FN:76,_RNvXININvMs1_NtNtCsgYSNy1dwfGS_13auto_generate6signed13target_fuzz__NtBb_4Args13auto_generates6_0ppEpINtB5_s2_12AutoFallbackpE4autoBf_
FN:76,_RNvXININvMs1_NtNtCsgYSNy1dwfGS_13auto_generate8unsigned13target_fuzz__NtBb_4Args13auto_generate0ppEpINtB5_12AutoFallbackpE4autoBf_
FN:76,_RNvXININvMs1_NtNtCsgYSNy1dwfGS_13auto_generate8unsigned13target_fuzz__NtBb_4Args13auto_generates0_0ppEpINtB5_s_12AutoFallbackpE4autoBf_
FN:76,_RNvXININvMs1_NtNtCsgYSNy1dwfGS_13auto_generate8unsigned13target_fuzz__NtBb_4Args13auto_generates2_0ppEpINtB5_s0_12AutoFallbackpE4autoBf_
FN:76,_RNvXININvMs1_NtNtCsgYSNy1dwfGS_13auto_generate8unsigned13target_fuzz__NtBb_4Args13auto_generates4_0ppEpINtB5_s1_12AutoFallbackpE4autoBf_
FN:76,_RNvXININvMs1_NtNtCsgYSNy1dwfGS_13auto_generate8unsigned13target_fuzz__NtBb_4Args13auto_generates6_0ppEpINtB5_s2_12AutoFallbackpE4autoBf_
FN:178,_RINvCsavtZ3NIYN9z_17test_fuzz_runtime10write_argsNtNvNtNtCsgYSNy1dwfGS_13auto_generate6signed13target_fuzz__10write_args4ArgsEBT_
FN:178,_RINvCsavtZ3NIYN9z_17test_fuzz_runtime10write_argsNtNvNtNtCsgYSNy1dwfGS_13auto_generate8unsigned13target_fuzz__10write_args4ArgsEBT_
FN:172,_RINvCsavtZ3NIYN9z_17test_fuzz_runtime18write_generic_argsNtNtNtCsgYSNy1dwfGS_13auto_generate6signed13target_fuzz__4ArgsEBZ_
FN:172,_RINvCsavtZ3NIYN9z_17test_fuzz_runtime18write_generic_argsNtNtNtCsgYSNy1dwfGS_13auto_generate8unsigned13target_fuzz__4ArgsEBZ_
FN:166,_RINvCsavtZ3NIYN9z_17test_fuzz_runtime23write_impl_generic_argsNtNtNtCsgYSNy1dwfGS_13auto_generate6signed13target_fuzz__4ArgsEB14_
FN:166,_RINvCsavtZ3NIYN9z_17test_fuzz_runtime23write_impl_generic_argsNtNtNtCsgYSNy1dwfGS_13auto_generate8unsigned13target_fuzz__4ArgsEB14_
FN:194,_RINvCsavtZ3NIYN9z_17test_fuzz_runtime9read_argsNtNvMNtNtCsgYSNy1dwfGS_13auto_generate6signed13target_fuzz__INtBO_11UsingReaderpE9read_args4ArgsNtNtNtCsHIej2QEFI5_3std2io5stdio5StdinEBS_
FN:194,_RINvCsavtZ3NIYN9z_17test_fuzz_runtime9read_argsNtNvMNtNtCsgYSNy1dwfGS_13auto_generate8unsigned13target_fuzz__INtBO_11UsingReaderpE9read_args4ArgsNtNtNtCsHIej2QEFI5_3std2io5stdio5StdinEBS_
FN:58,_RINvMs0_CsavtZ3NIYN9z_17test_fuzz_runtimeINtB6_8TryDebuguE5applyuECsgYSNy1dwfGS_13auto_generate
FN:58,_RINvMs0_CsavtZ3NIYN9z_17test_fuzz_runtimeINtB6_8TryDebugxE5applyuECsgYSNy1dwfGS_13auto_generate
FN:58,_RINvMs0_CsavtZ3NIYN9z_17test_fuzz_runtimeINtB6_8TryDebugyE5applyuECsgYSNy1dwfGS_13auto_generate
FN:178,_RINvCsavtZ3NIYN9z_17test_fuzz_runtime10write_argsNtNvNtCsc7oPBiV8Upo_16calm_and_panicky11calm_fuzz__10write_args4ArgsEBR_
FN:178,_RINvCsavtZ3NIYN9z_17test_fuzz_runtime10write_argsNtNvNtCsc7oPBiV8Upo_16calm_and_panicky14panicky_fuzz__10write_args4ArgsEBR_
FN:172,_RINvCsavtZ3NIYN9z_17test_fuzz_runtime18write_generic_argsNtNtCsc7oPBiV8Upo_16calm_and_panicky11calm_fuzz__4ArgsEBX_
FN:172,_RINvCsavtZ3NIYN9z_17test_fuzz_runtime18write_generic_argsNtNtCsc7oPBiV8Upo_16calm_and_panicky14panicky_fuzz__4ArgsEBX_
FN:166,_RINvCsavtZ3NIYN9z_17test_fuzz_runtime23write_impl_generic_argsNtNtCsc7oPBiV8Upo_16calm_and_panicky11calm_fuzz__4ArgsEB12_
FN:166,_RINvCsavtZ3NIYN9z_17test_fuzz_runtime23write_impl_generic_argsNtNtCsc7oPBiV8Upo_16calm_and_panicky14panicky_fuzz__4ArgsEB12_
FN:194,_RINvCsavtZ3NIYN9z_17test_fuzz_runtime9read_argsNtNvMNtCsc7oPBiV8Upo_16calm_and_panicky11calm_fuzz__INtBO_11UsingReaderpE9read_args4ArgsNtNtNtCsHIej2QEFI5_3std2io5stdio5StdinEBQ_
FN:194,_RINvCsavtZ3NIYN9z_17test_fuzz_runtime9read_argsNtNvMNtCsc7oPBiV8Upo_16calm_and_panicky14panicky_fuzz__INtBO_11UsingReaderpE9read_args4ArgsNtNtNtCsHIej2QEFI5_3std2io5stdio5StdinEBQ_
FN:58,_RINvMs0_CsavtZ3NIYN9z_17test_fuzz_runtimeINtB6_8TryDebuguE5applyuECsc7oPBiV8Upo_16calm_and_panicky
FN:50,_RINvXs_CsavtZ3NIYN9z_17test_fuzz_runtimeINtB5_8TryDebugNtCsc7oPBiV8Upo_16calm_and_panicky4CalmENtB5_16TryDebugFallback5applyuEBT_
FN:50,_RINvXs_CsavtZ3NIYN9z_17test_fuzz_runtimeINtB5_8TryDebugNtCsc7oPBiV8Upo_16calm_and_panicky7PanickyENtB5_16TryDebugFallback5applyuEBT_
FN:33,_RNvXCsavtZ3NIYN9z_17test_fuzz_runtimeINtB2_18DebugUnimplementedINtB2_8TryDebugNtCsc7oPBiV8Upo_16calm_and_panicky4CalmEENtNtCs3XFJfFEDSOQ_4core3fmt5Debug3fmtB1g_
FN:33,_RNvXCsavtZ3NIYN9z_17test_fuzz_runtimeINtB2_18DebugUnimplementedINtB2_8TryDebugNtCsc7oPBiV8Upo_16calm_and_panicky7PanickyEENtNtCs3XFJfFEDSOQ_4core3fmt5Debug3fmtB1g_
FN:85,_RNvMs1_NvMs1_NtCsc7oPBiV8Upo_16calm_and_panicky11calm_fuzz__NtBb_4Args13auto_generateINtB5_s_4AutopE4autoBd_
FN:85,_RNvMs1_NvMs1_NtCsc7oPBiV8Upo_16calm_and_panicky14panicky_fuzz__NtBb_4Args13auto_generateINtB5_s_4AutopE4autoBd_
FN:85,_RNvMs3_NvMs1_NtCsc7oPBiV8Upo_16calm_and_panicky11calm_fuzz__NtBb_4Args13auto_generateINtB5_s0_4AutopE4autoBd_
FN:85,_RNvMs3_NvMs1_NtCsc7oPBiV8Upo_16calm_and_panicky14panicky_fuzz__NtBb_4Args13auto_generateINtB5_s0_4AutopE4autoBd_
FN:85,_RNvMs5_NvMs1_NtCsc7oPBiV8Upo_16calm_and_panicky11calm_fuzz__NtBb_4Args13auto_generateINtB5_s1_4AutopE4autoBd_
FN:85,_RNvMs5_NvMs1_NtCsc7oPBiV8Upo_16calm_and_panicky14panicky_fuzz__NtBb_4Args13auto_generateINtB5_s1_4AutopE4autoBd_
FN:85,_RNvMs7_NvMs1_NtCsc7oPBiV8Upo_16calm_and_panicky11calm_fuzz__NtBb_4Args13auto_generateINtB5_s2_4AutopE4autoBd_
FN:85,_RNvMs7_NvMs1_NtCsc7oPBiV8Upo_16calm_and_panicky14panicky_fuzz__NtBb_4Args13auto_generateINtB5_s2_4AutopE4autoBd_
FN:85,_RNvMs_NvMs1_NtCsc7oPBiV8Upo_16calm_and_panicky11calm_fuzz__NtBa_4Args13auto_generateINtB4_4AutopE4autoBc_
FN:85,_RNvMs_NvMs1_NtCsc7oPBiV8Upo_16calm_and_panicky14panicky_fuzz__NtBa_4Args13auto_generateINtB4_4AutopE4autoBc_
FN:76,_RNvXNvMs1_NtCsc7oPBiV8Upo_16calm_and_panicky11calm_fuzz__NtB8_4Args13auto_generateINtB2_4AutoNtBa_4CalmEINtB2_12AutoFallbackB1t_E4autoBa_
FN:76,_RNvXs0_NvMs1_NtCsc7oPBiV8Upo_16calm_and_panicky11calm_fuzz__NtBb_4Args13auto_generateINtB5_s_4AutoNtBd_4CalmEINtB5_s_12AutoFallbackB1y_E4autoBd_
FN:76,_RNvXs2_NvMs1_NtCsc7oPBiV8Upo_16calm_and_panicky11calm_fuzz__NtBb_4Args13auto_generateINtB5_s0_4AutoNtBd_4CalmEINtB5_s0_12AutoFallbackB1z_E4autoBd_
FN:76,_RNvXs4_NvMs1_NtCsc7oPBiV8Upo_16calm_and_panicky11calm_fuzz__NtBb_4Args13auto_generateINtB5_s1_4AutoNtBd_4CalmEINtB5_s1_12AutoFallbackB1z_E4autoBd_
FN:76,_RNvXs6_NvMs1_NtCsc7oPBiV8Upo_16calm_and_panicky11calm_fuzz__NtBb_4Args13auto_generateINtB5_s2_4AutoNtBd_4CalmEINtB5_s2_12AutoFallbackB1z_E4autoBd_
FN:76,_RNvXNvMs1_NtCsc7oPBiV8Upo_16calm_and_panicky14panicky_fuzz__NtB8_4Args13auto_generateINtB2_4AutoNtBa_7PanickyEINtB2_12AutoFallbackB1w_E4autoBa_
FN:76,_RNvXs0_NvMs1_NtCsc7oPBiV8Upo_16calm_and_panicky14panicky_fuzz__NtBb_4Args13auto_generateINtB5_s_4AutoNtBd_7PanickyEINtB5_s_12AutoFallbackB1B_E4autoBd_
FN:76,_RNvXs2_NvMs1_NtCsc7oPBiV8Upo_16calm_and_panicky14panicky_fuzz__NtBb_4Args13auto_generateINtB5_s0_4AutoNtBd_7PanickyEINtB5_s0_12AutoFallbackB1C_E4autoBd_
FN:76,_RNvXs4_NvMs1_NtCsc7oPBiV8Upo_16calm_and_panicky14panicky_fuzz__NtBb_4Args13auto_generateINtB5_s1_4AutoNtBd_7PanickyEINtB5_s1_12AutoFallbackB1C_E4autoBd_
FN:76,_RNvXs6_NvMs1_NtCsc7oPBiV8Upo_16calm_and_panicky14panicky_fuzz__NtBb_4Args13auto_generateINtB5_s2_4AutoNtBd_7PanickyEINtB5_s2_12AutoFallbackB1C_E4autoBd_
FN:76,_RNvXININvMs1_NtCsaRhtd4AuyDa_4cast13target_fuzz__NtBb_4Args13auto_generate0ppEpINtB5_12AutoFallbackpE4autoBd_
FN:76,_RNvXININvMs1_NtCsaRhtd4AuyDa_4cast13target_fuzz__NtBb_4Args13auto_generates0_0ppEpINtB5_s_12AutoFallbackpE4autoBd_
FN:76,_RNvXININvMs1_NtCsaRhtd4AuyDa_4cast13target_fuzz__NtBb_4Args13auto_generates2_0ppEpINtB5_s0_12AutoFallbackpE4autoBd_
FN:76,_RNvXININvMs1_NtCsaRhtd4AuyDa_4cast13target_fuzz__NtBb_4Args13auto_generates4_0ppEpINtB5_s1_12AutoFallbackpE4autoBd_
FN:76,_RNvXININvMs1_NtCsaRhtd4AuyDa_4cast13target_fuzz__NtBb_4Args13auto_generates6_0ppEpINtB5_s2_12AutoFallbackpE4autoBd_
FN:85,_RNvMs1_NvMs1_NtCsaRhtd4AuyDa_4cast13target_fuzz__NtBb_4Args13auto_generateINtB5_s_4AutoyE4autoBd_
FN:85,_RNvMs3_NvMs1_NtCsaRhtd4AuyDa_4cast13target_fuzz__NtBb_4Args13auto_generateINtB5_s0_4AutoyE4autoBd_
FN:85,_RNvMs5_NvMs1_NtCsaRhtd4AuyDa_4cast13target_fuzz__NtBb_4Args13auto_generateINtB5_s1_4AutoyE4autoBd_
FN:85,_RNvMs7_NvMs1_NtCsaRhtd4AuyDa_4cast13target_fuzz__NtBb_4Args13auto_generateINtB5_s2_4AutoyE4autoBd_
FN:85,_RNvMs_NvMs1_NtCsaRhtd4AuyDa_4cast13target_fuzz__NtBa_4Args13auto_generateINtB4_4AutoyE4autoBc_
FN:178,_RINvCsavtZ3NIYN9z_17test_fuzz_runtime10write_argsNtNvNtCsaRhtd4AuyDa_4cast13target_fuzz__10write_args4ArgsEBR_
FN:172,_RINvCsavtZ3NIYN9z_17test_fuzz_runtime18write_generic_argsNtNtCsaRhtd4AuyDa_4cast13target_fuzz__4ArgsEBX_
FN:166,_RINvCsavtZ3NIYN9z_17test_fuzz_runtime23write_impl_generic_argsNtNtCsaRhtd4AuyDa_4cast13target_fuzz__4ArgsEB12_
FN:194,_RINvCsavtZ3NIYN9z_17test_fuzz_runtime9read_argsNtNvMNtCsaRhtd4AuyDa_4cast13target_fuzz__INtBO_11UsingReaderpE9read_args4ArgsNtNtNtCsHIej2QEFI5_3std2io5stdio5StdinEBQ_
FN:58,_RINvMs0_CsavtZ3NIYN9z_17test_fuzz_runtimeINtB6_8TryDebuguE5applyuECsaRhtd4AuyDa_4cast
FN:58,_RINvMs0_CsavtZ3NIYN9z_17test_fuzz_runtimeINtB6_8TryDebugyE5applyuECsaRhtd4AuyDa_4cast
FN:178,_RINvCsavtZ3NIYN9z_17test_fuzz_runtime10write_argsNtNvNtCs4MACR4y78AG_9collision11test_fuzz__10write_args4ArgsEBR_
FN:172,_RINvCsavtZ3NIYN9z_17test_fuzz_runtime18write_generic_argsNtNtCs4MACR4y78AG_9collision11test_fuzz__4ArgsEBX_
FN:166,_RINvCsavtZ3NIYN9z_17test_fuzz_runtime23write_impl_generic_argsNtNtCs4MACR4y78AG_9collision11test_fuzz__4ArgsEB12_
FN:194,_RINvCsavtZ3NIYN9z_17test_fuzz_runtime9read_argsNtNvMNtCs4MACR4y78AG_9collision11test_fuzz__INtBO_11UsingReaderpE9read_args4ArgsNtNtNtCsHIej2QEFI5_3std2io5stdio5StdinEBQ_
FN:58,_RINvMs0_CsavtZ3NIYN9z_17test_fuzz_runtimeINtB6_8TryDebuguE5applyuECs4MACR4y78AG_9collision
FN:76,_RNvXNvMs1_NtNtCsc4CkkP18Bn1_10conversion8receiver20x_target_self_fuzz__NtB8_4Args13auto_generateINtB2_4AutoNtBa_1YEINtB2_12AutoFallbackB1H_E4autoBc_
FN:76,_RNvXs0_NvMs1_NtNtCsc4CkkP18Bn1_10conversion8receiver20x_target_self_fuzz__NtBb_4Args13auto_generateINtB5_s_4AutoNtBd_1YEINtB5_s_12AutoFallbackB1M_E4autoBf_
FN:76,_RNvXs2_NvMs1_NtNtCsc4CkkP18Bn1_10conversion8receiver20x_target_self_fuzz__NtBb_4Args13auto_generateINtB5_s0_4AutoNtBd_1YEINtB5_s0_12AutoFallbackB1N_E4autoBf_
FN:76,_RNvXs4_NvMs1_NtNtCsc4CkkP18Bn1_10conversion8receiver20x_target_self_fuzz__NtBb_4Args13auto_generateINtB5_s1_4AutoNtBd_1YEINtB5_s1_12AutoFallbackB1N_E4autoBf_
FN:76,_RNvXs6_NvMs1_NtNtCsc4CkkP18Bn1_10conversion8receiver20x_target_self_fuzz__NtBb_4Args13auto_generateINtB5_s2_4AutoNtBd_1YEINtB5_s2_12AutoFallbackB1N_E4autoBf_
FN:76,_RNvXNvMs1_NtNtCsc4CkkP18Bn1_10conversion8receiver21x_target_other_fuzz__NtB8_4Args13auto_generateINtB2_4AutoNtBa_1YEINtB2_12AutoFallbackB1I_E4autoBc_
FN:76,_RNvXs0_NvMs1_NtNtCsc4CkkP18Bn1_10conversion8receiver21x_target_other_fuzz__NtBb_4Args13auto_generateINtB5_s_4AutoNtBd_1YEINtB5_s_12AutoFallbackB1N_E4autoBf_
FN:76,_RNvXs2_NvMs1_NtNtCsc4CkkP18Bn1_10conversion8receiver21x_target_other_fuzz__NtBb_4Args13auto_generateINtB5_s0_4AutoNtBd_1YEINtB5_s0_12AutoFallbackB1O_E4autoBf_
FN:76,_RNvXs4_NvMs1_NtNtCsc4CkkP18Bn1_10conversion8receiver21x_target_other_fuzz__NtBb_4Args13auto_generateINtB5_s1_4AutoNtBd_1YEINtB5_s1_12AutoFallbackB1O_E4autoBf_
FN:76,_RNvXs6_NvMs1_NtNtCsc4CkkP18Bn1_10conversion8receiver21x_target_other_fuzz__NtBb_4Args13auto_generateINtB5_s2_4AutoNtBd_1YEINtB5_s2_12AutoFallbackB1O_E4autoBf_
FN:178,_RINvCsavtZ3NIYN9z_17test_fuzz_runtime10write_argsNtNvNtNtCsc4CkkP18Bn1_10conversion11uncloneable13target_fuzz__10write_args4ArgsEBT_
FN:178,_RINvCsavtZ3NIYN9z_17test_fuzz_runtime10write_argsNtNvNtNtCsc4CkkP18Bn1_10conversion4path13target_fuzz__10write_args4ArgsEBT_
FN:178,_RINvCsavtZ3NIYN9z_17test_fuzz_runtime10write_argsNtNvNtNtCsc4CkkP18Bn1_10conversion5array13target_fuzz__10write_args4ArgsEBT_
FN:178,_RINvCsavtZ3NIYN9z_17test_fuzz_runtime10write_argsNtNvNtNtCsc4CkkP18Bn1_10conversion7mutable13target_fuzz__10write_args4ArgsEBT_
FN:178,_RINvCsavtZ3NIYN9z_17test_fuzz_runtime10write_argsNtNvNtNtCsc4CkkP18Bn1_10conversion8lifetime13target_fuzz__10write_args4ArgsEBT_
FN:178,_RINvCsavtZ3NIYN9z_17test_fuzz_runtime10write_argsNtNvNtNtCsc4CkkP18Bn1_10conversion8receiver20x_target_self_fuzz__10write_args4ArgsEBT_
FN:178,_RINvCsavtZ3NIYN9z_17test_fuzz_runtime10write_argsNtNvNtNtCsc4CkkP18Bn1_10conversion8receiver21x_target_other_fuzz__10write_args4ArgsEBT_
FN:172,_RINvCsavtZ3NIYN9z_17test_fuzz_runtime18write_generic_argsNtNtNtCsc4CkkP18Bn1_10conversion11uncloneable13target_fuzz__4ArgsEBZ_
FN:172,_RINvCsavtZ3NIYN9z_17test_fuzz_runtime18write_generic_argsNtNtNtCsc4CkkP18Bn1_10conversion4path13target_fuzz__4ArgsEBZ_
FN:172,_RINvCsavtZ3NIYN9z_17test_fuzz_runtime18write_generic_argsNtNtNtCsc4CkkP18Bn1_10conversion5array13target_fuzz__4ArgsEBZ_
FN:172,_RINvCsavtZ3NIYN9z_17test_fuzz_runtime18write_generic_argsNtNtNtCsc4CkkP18Bn1_10conversion7mutable13target_fuzz__4ArgsEBZ_
FN:172,_RINvCsavtZ3NIYN9z_17test_fuzz_runtime18write_generic_argsNtNtNtCsc4CkkP18Bn1_10conversion8lifetime13target_fuzz__4ArgsEBZ_
FN:172,_RINvCsavtZ3NIYN9z_17test_fuzz_runtime18write_generic_argsNtNtNtCsc4CkkP18Bn1_10conversion8receiver20x_target_self_fuzz__4ArgsEBZ_
FN:172,_RINvCsavtZ3NIYN9z_17test_fuzz_runtime18write_generic_argsNtNtNtCsc4CkkP18Bn1_10conversion8receiver21x_target_other_fuzz__4ArgsEBZ_
FN:166,_RINvCsavtZ3NIYN9z_17test_fuzz_runtime23write_impl_generic_argsNtNtNtCsc4CkkP18Bn1_10conversion11uncloneable13target_fuzz__4ArgsEB14_
FN:166,_RINvCsavtZ3NIYN9z_17test_fuzz_runtime23write_impl_generic_argsNtNtNtCsc4CkkP18Bn1_10conversion4path13target_fuzz__4ArgsEB14_
FN:166,_RINvCsavtZ3NIYN9z_17test_fuzz_runtime23write_impl_generic_argsNtNtNtCsc4CkkP18Bn1_10conversion5array13target_fuzz__4ArgsEB14_
FN:166,_RINvCsavtZ3NIYN9z_17test_fuzz_runtime23write_impl_generic_argsNtNtNtCsc4CkkP18Bn1_10conversion7mutable13target_fuzz__4ArgsEB14_
FN:166,_RINvCsavtZ3NIYN9z_17test_fuzz_runtime23write_impl_generic_argsNtNtNtCsc4CkkP18Bn1_10conversion8lifetime13target_fuzz__4ArgsEB14_
FN:166,_RINvCsavtZ3NIYN9z_17test_fuzz_runtime23write_impl_generic_argsNtNtNtCsc4CkkP18Bn1_10conversion8receiver20x_target_self_fuzz__4ArgsEB14_
FN:166,_RINvCsavtZ3NIYN9z_17test_fuzz_runtime23write_impl_generic_argsNtNtNtCsc4CkkP18Bn1_10conversion8receiver21x_target_other_fuzz__4ArgsEB14_
FN:194,_RINvCsavtZ3NIYN9z_17test_fuzz_runtime9read_argsNtNvMNtNtCsc4CkkP18Bn1_10conversion11uncloneable13target_fuzz__INtBO_11UsingReaderpE9read_args4ArgsNtNtNtCsHIej2QEFI5_3std2io5stdio5StdinEBS_
FN:194,_RINvCsavtZ3NIYN9z_17test_fuzz_runtime9read_argsNtNvMNtNtCsc4CkkP18Bn1_10conversion4path13target_fuzz__INtBO_11UsingReaderpE9read_args4ArgsNtNtNtCsHIej2QEFI5_3std2io5stdio5StdinEBS_
FN:194,_RINvCsavtZ3NIYN9z_17test_fuzz_runtime9read_argsNtNvMNtNtCsc4CkkP18Bn1_10conversion5array13target_fuzz__INtBO_11UsingReaderpE9read_args4ArgsNtNtNtCsHIej2QEFI5_3std2io5stdio5StdinEBS_
FN:194,_RINvCsavtZ3NIYN9z_17test_fuzz_runtime9read_argsNtNvMNtNtCsc4CkkP18Bn1_10conversion7mutable13target_fuzz__INtBO_11UsingReaderpE9read_args4ArgsNtNtNtCsHIej2QEFI5_3std2io5stdio5StdinEBS_
FN:194,_RINvCsavtZ3NIYN9z_17test_fuzz_runtime9read_argsNtNvMNtNtCsc4CkkP18Bn1_10conversion8lifetime13target_fuzz__INtBO_11UsingReaderpE9read_args4ArgsNtNtNtCsHIej2QEFI5_3std2io5stdio5StdinEBS_
FN:194,_RINvCsavtZ3NIYN9z_17test_fuzz_runtime9read_argsNtNvMNtNtCsc4CkkP18Bn1_10conversion8receiver20x_target_self_fuzz__INtBO_11UsingReaderpE9read_args4ArgsNtNtNtCsHIej2QEFI5_3std2io5stdio5StdinEBS_
FN:194,_RINvCsavtZ3NIYN9z_17test_fuzz_runtime9read_argsNtNvMNtNtCsc4CkkP18Bn1_10conversion8receiver21x_target_other_fuzz__INtBO_11UsingReaderpE9read_args4ArgsNtNtNtCsHIej2QEFI5_3std2io5stdio5StdinEBS_
FN:58,_RINvMs0_CsavtZ3NIYN9z_17test_fuzz_runtimeINtB6_8TryDebugNtNtCsc4CkkP18Bn1_10conversion4path10LeakedPathE5applyuEBW_
FN:58,_RINvMs0_CsavtZ3NIYN9z_17test_fuzz_runtimeINtB6_8TryDebugNtNtCsc4CkkP18Bn1_10conversion5array11LeakedArrayE5applyuEBW_
FN:58,_RINvMs0_CsavtZ3NIYN9z_17test_fuzz_runtimeINtB6_8TryDebuguE5applyuECsc4CkkP18Bn1_10conversion
FN:50,_RINvXs_CsavtZ3NIYN9z_17test_fuzz_runtimeINtB5_8TryDebugNtNtCsc4CkkP18Bn1_10conversion11uncloneable1YENtB5_16TryDebugFallback5applyuEBV_
FN:50,_RINvXs_CsavtZ3NIYN9z_17test_fuzz_runtimeINtB5_8TryDebugNtNtCsc4CkkP18Bn1_10conversion7mutable1YENtB5_16TryDebugFallback5applyuEBV_
FN:50,_RINvXs_CsavtZ3NIYN9z_17test_fuzz_runtimeINtB5_8TryDebugNtNtCsc4CkkP18Bn1_10conversion8lifetime1YENtB5_16TryDebugFallback5applyuEBV_
FN:50,_RINvXs_CsavtZ3NIYN9z_17test_fuzz_runtimeINtB5_8TryDebugNtNtCsc4CkkP18Bn1_10conversion8receiver1YENtB5_16TryDebugFallback5applyuEBV_
FN:33,_RNvXCsavtZ3NIYN9z_17test_fuzz_runtimeINtB2_18DebugUnimplementedINtB2_8TryDebugNtNtCsc4CkkP18Bn1_10conversion11uncloneable1YEENtNtCs3XFJfFEDSOQ_4core3fmt5Debug3fmtB1i_
FN:33,_RNvXCsavtZ3NIYN9z_17test_fuzz_runtimeINtB2_18DebugUnimplementedINtB2_8TryDebugNtNtCsc4CkkP18Bn1_10conversion7mutable1YEENtNtCs3XFJfFEDSOQ_4core3fmt5Debug3fmtB1i_
FN:33,_RNvXCsavtZ3NIYN9z_17test_fuzz_runtimeINtB2_18DebugUnimplementedINtB2_8TryDebugNtNtCsc4CkkP18Bn1_10conversion8lifetime1YEENtNtCs3XFJfFEDSOQ_4core3fmt5Debug3fmtB1i_
FN:33,_RNvXCsavtZ3NIYN9z_17test_fuzz_runtimeINtB2_18DebugUnimplementedINtB2_8TryDebugNtNtCsc4CkkP18Bn1_10conversion8receiver1YEENtNtCs3XFJfFEDSOQ_4core3fmt5Debug3fmtB1i_
FN:85,_RNvMsb_NvMs1_NtNtCsc4CkkP18Bn1_10conversion8lifetime13target_fuzz__NtBb_4Args13auto_generateINtB5_s4_4AutoINtNtCs3XFJfFEDSOQ_4core6marker11PhantomDataRuEE4autoBf_
FN:76,_RNvXNvMs1_NtNtCsc4CkkP18Bn1_10conversion8lifetime13target_fuzz__NtB8_4Args13auto_generateINtB2_4AutoNtBa_1YEINtB2_12AutoFallbackB1A_E4autoBc_
FN:76,_RNvXs0_NvMs1_NtNtCsc4CkkP18Bn1_10conversion8lifetime13target_fuzz__NtBb_4Args13auto_generateINtB5_s_4AutoNtBd_1YEINtB5_s_12AutoFallbackB1F_E4autoBf_
FN:76,_RNvXs2_NvMs1_NtNtCsc4CkkP18Bn1_10conversion8lifetime13target_fuzz__NtBb_4Args13auto_generateINtB5_s0_4AutoNtBd_1YEINtB5_s0_12AutoFallbackB1G_E4autoBf_
FN:76,_RNvXs4_NvMs1_NtNtCsc4CkkP18Bn1_10conversion8lifetime13target_fuzz__NtBb_4Args13auto_generateINtB5_s1_4AutoNtBd_1YEINtB5_s1_12AutoFallbackB1G_E4autoBf_
FN:76,_RNvXs6_NvMs1_NtNtCsc4CkkP18Bn1_10conversion8lifetime13target_fuzz__NtBb_4Args13auto_generateINtB5_s2_4AutoNtBd_1YEINtB5_s2_12AutoFallbackB1G_E4autoBf_
FN:76,_RNvXs8_NvMs1_NtNtCsc4CkkP18Bn1_10conversion8lifetime13target_fuzz__NtBb_4Args13auto_generateINtB5_s3_4AutoINtNtCs3XFJfFEDSOQ_4core6marker11PhantomDataRuEEINtB5_s3_12AutoFallbackB1G_E4autoBf_
FN:76,_RNvXsc_NvMs1_NtNtCsc4CkkP18Bn1_10conversion8lifetime13target_fuzz__NtBb_4Args13auto_generateINtB5_s5_4AutoINtNtCs3XFJfFEDSOQ_4core6marker11PhantomDataRuEEINtB5_s5_12AutoFallbackB1G_E4autoBf_
FN:76,_RNvXse_NvMs1_NtNtCsc4CkkP18Bn1_10conversion8lifetime13target_fuzz__NtBb_4Args13auto_generateINtB5_s6_4AutoINtNtCs3XFJfFEDSOQ_4core6marker11PhantomDataRuEEINtB5_s6_12AutoFallbackB1G_E4autoBf_
FN:76,_RNvXsg_NvMs1_NtNtCsc4CkkP18Bn1_10conversion8lifetime13target_fuzz__NtBb_4Args13auto_generateINtB5_s7_4AutoINtNtCs3XFJfFEDSOQ_4core6marker11PhantomDataRuEEINtB5_s7_12AutoFallbackB1G_E4autoBf_
FN:76,_RNvXNvMs1_NtNtCsc4CkkP18Bn1_10conversion7mutable13target_fuzz__NtB8_4Args13auto_generateINtB2_4AutoNtBa_1YEINtB2_12AutoFallbackB1z_E4autoBc_
FN:76,_RNvXs0_NvMs1_NtNtCsc4CkkP18Bn1_10conversion7mutable13target_fuzz__NtBb_4Args13auto_generateINtB5_s_4AutoNtBd_1YEINtB5_s_12AutoFallbackB1E_E4autoBf_
FN:76,_RNvXs2_NvMs1_NtNtCsc4CkkP18Bn1_10conversion7mutable13target_fuzz__NtBb_4Args13auto_generateINtB5_s0_4AutoNtBd_1YEINtB5_s0_12AutoFallbackB1F_E4autoBf_
FN:76,_RNvXs4_NvMs1_NtNtCsc4CkkP18Bn1_10conversion7mutable13target_fuzz__NtBb_4Args13auto_generateINtB5_s1_4AutoNtBd_1YEINtB5_s1_12AutoFallbackB1F_E4autoBf_
FN:76,_RNvXs6_NvMs1_NtNtCsc4CkkP18Bn1_10conversion7mutable13target_fuzz__NtBb_4Args13auto_generateINtB5_s2_4AutoNtBd_1YEINtB5_s2_12AutoFallbackB1F_E4autoBf_
FN:76,_RNvXNvMs1_NtNtCsc4CkkP18Bn1_10conversion11uncloneable13target_fuzz__NtB8_4Args13auto_generateINtB2_4AutoNtBa_1YEINtB2_12AutoFallbackB1E_E4autoBc_
FN:76,_RNvXs0_NvMs1_NtNtCsc4CkkP18Bn1_10conversion11uncloneable13target_fuzz__NtBb_4Args13auto_generateINtB5_s_4AutoNtBd_1YEINtB5_s_12AutoFallbackB1J_E4autoBf_
FN:76,_RNvXs2_NvMs1_NtNtCsc4CkkP18Bn1_10conversion11uncloneable13target_fuzz__NtBb_4Args13auto_generateINtB5_s0_4AutoNtBd_1YEINtB5_s0_12AutoFallbackB1K_E4autoBf_
FN:76,_RNvXs4_NvMs1_NtNtCsc4CkkP18Bn1_10conversion11uncloneable13target_fuzz__NtBb_4Args13auto_generateINtB5_s1_4AutoNtBd_1YEINtB5_s1_12AutoFallbackB1K_E4autoBf_
FN:76,_RNvXs6_NvMs1_NtNtCsc4CkkP18Bn1_10conversion11uncloneable13target_fuzz__NtBb_4Args13auto_generateINtB5_s2_4AutoNtBd_1YEINtB5_s2_12AutoFallbackB1K_E4autoBf_
FN:76,_RNvXNvMs1_NtNtCsc4CkkP18Bn1_10conversion5array13target_fuzz__NtB8_4Args13auto_generateINtB2_4AutoNtBa_11LeakedArrayEINtB2_12AutoFallbackB1x_E4autoBc_
FN:76,_RNvXs0_NvMs1_NtNtCsc4CkkP18Bn1_10conversion5array13target_fuzz__NtBb_4Args13auto_generateINtB5_s_4AutoNtBd_11LeakedArrayEINtB5_s_12AutoFallbackB1C_E4autoBf_
FN:76,_RNvXs2_NvMs1_NtNtCsc4CkkP18Bn1_10conversion5array13target_fuzz__NtBb_4Args13auto_generateINtB5_s0_4AutoNtBd_11LeakedArrayEINtB5_s0_12AutoFallbackB1D_E4autoBf_
FN:76,_RNvXs4_NvMs1_NtNtCsc4CkkP18Bn1_10conversion5array13target_fuzz__NtBb_4Args13auto_generateINtB5_s1_4AutoNtBd_11LeakedArrayEINtB5_s1_12AutoFallbackB1D_E4autoBf_
FN:76,_RNvXs6_NvMs1_NtNtCsc4CkkP18Bn1_10conversion5array13target_fuzz__NtBb_4Args13auto_generateINtB5_s2_4AutoNtBd_11LeakedArrayEINtB5_s2_12AutoFallbackB1D_E4autoBf_
FN:85,_RNvMs1_NvMs1_NtNtCsc4CkkP18Bn1_10conversion11uncloneable13target_fuzz__NtBb_4Args13auto_generateINtB5_s_4AutopE4autoBf_
FN:85,_RNvMs1_NvMs1_NtNtCsc4CkkP18Bn1_10conversion4path13target_fuzz__NtBb_4Args13auto_generateINtB5_s_4AutopE4autoBf_
FN:85,_RNvMs1_NvMs1_NtNtCsc4CkkP18Bn1_10conversion5array13target_fuzz__NtBb_4Args13auto_generateINtB5_s_4AutopE4autoBf_
FN:85,_RNvMs1_NvMs1_NtNtCsc4CkkP18Bn1_10conversion7mutable13target_fuzz__NtBb_4Args13auto_generateINtB5_s_4AutopE4autoBf_
FN:85,_RNvMs1_NvMs1_NtNtCsc4CkkP18Bn1_10conversion8lifetime13target_fuzz__NtBb_4Args13auto_generateINtB5_s_4AutopE4autoBf_
FN:85,_RNvMs1_NvMs1_NtNtCsc4CkkP18Bn1_10conversion8receiver20x_target_self_fuzz__NtBb_4Args13auto_generateINtB5_s_4AutopE4autoBf_
FN:85,_RNvMs1_NvMs1_NtNtCsc4CkkP18Bn1_10conversion8receiver21x_target_other_fuzz__NtBb_4Args13auto_generateINtB5_s_4AutopE4autoBf_
FN:85,_RNvMs3_NvMs1_NtNtCsc4CkkP18Bn1_10conversion11uncloneable13target_fuzz__NtBb_4Args13auto_generateINtB5_s0_4AutopE4autoBf_
FN:85,_RNvMs3_NvMs1_NtNtCsc4CkkP18Bn1_10conversion4path13target_fuzz__NtBb_4Args13auto_generateINtB5_s0_4AutopE4autoBf_
FN:85,_RNvMs3_NvMs1_NtNtCsc4CkkP18Bn1_10conversion5array13target_fuzz__NtBb_4Args13auto_generateINtB5_s0_4AutopE4autoBf_
FN:85,_RNvMs3_NvMs1_NtNtCsc4CkkP18Bn1_10conversion7mutable13target_fuzz__NtBb_4Args13auto_generateINtB5_s0_4AutopE4autoBf_
FN:85,_RNvMs3_NvMs1_NtNtCsc4CkkP18Bn1_10conversion8lifetime13target_fuzz__NtBb_4Args13auto_generateINtB5_s0_4AutopE4autoBf_
FN:85,_RNvMs3_NvMs1_NtNtCsc4CkkP18Bn1_10conversion8receiver20x_target_self_fuzz__NtBb_4Args13auto_generateINtB5_s0_4AutopE4autoBf_
FN:85,_RNvMs3_NvMs1_NtNtCsc4CkkP18Bn1_10conversion8receiver21x_target_other_fuzz__NtBb_4Args13auto_generateINtB5_s0_4AutopE4autoBf_
FN:85,_RNvMs5_NvMs1_NtNtCsc4CkkP18Bn1_10conversion11uncloneable13target_fuzz__NtBb_4Args13auto_generateINtB5_s1_4AutopE4autoBf_
FN:85,_RNvMs5_NvMs1_NtNtCsc4CkkP18Bn1_10conversion4path13target_fuzz__NtBb_4Args13auto_generateINtB5_s1_4AutopE4autoBf_
FN:85,_RNvMs5_NvMs1_NtNtCsc4CkkP18Bn1_10conversion5array13target_fuzz__NtBb_4Args13auto_generateINtB5_s1_4AutopE4autoBf_
FN:85,_RNvMs5_NvMs1_NtNtCsc4CkkP18Bn1_10conversion7mutable13target_fuzz__NtBb_4Args13auto_generateINtB5_s1_4AutopE4autoBf_
FN:85,_RNvMs5_NvMs1_NtNtCsc4CkkP18Bn1_10conversion8lifetime13target_fuzz__NtBb_4Args13auto_generateINtB5_s1_4AutopE4autoBf_
FN:85,_RNvMs5_NvMs1_NtNtCsc4CkkP18Bn1_10conversion8receiver20x_target_self_fuzz__NtBb_4Args13auto_generateINtB5_s1_4AutopE4autoBf_
FN:85,_RNvMs5_NvMs1_NtNtCsc4CkkP18Bn1_10conversion8receiver21x_target_other_fuzz__NtBb_4Args13auto_generateINtB5_s1_4AutopE4autoBf_
FN:85,_RNvMs7_NvMs1_NtNtCsc4CkkP18Bn1_10conversion11uncloneable13target_fuzz__NtBb_4Args13auto_generateINtB5_s2_4AutopE4autoBf_
FN:85,_RNvMs7_NvMs1_NtNtCsc4CkkP18Bn1_10conversion4path13target_fuzz__NtBb_4Args13auto_generateINtB5_s2_4AutopE4autoBf_
FN:85,_RNvMs7_NvMs1_NtNtCsc4CkkP18Bn1_10conversion5array13target_fuzz__NtBb_4Args13auto_generateINtB5_s2_4AutopE4autoBf_
FN:85,_RNvMs7_NvMs1_NtNtCsc4CkkP18Bn1_10conversion7mutable13target_fuzz__NtBb_4Args13auto_generateINtB5_s2_4AutopE4autoBf_
FN:85,_RNvMs7_NvMs1_NtNtCsc4CkkP18Bn1_10conversion8lifetime13target_fuzz__NtBb_4Args13auto_generateINtB5_s2_4AutopE4autoBf_
FN:85,_RNvMs7_NvMs1_NtNtCsc4CkkP18Bn1_10conversion8receiver20x_target_self_fuzz__NtBb_4Args13auto_generateINtB5_s2_4AutopE4autoBf_
FN:85,_RNvMs7_NvMs1_NtNtCsc4CkkP18Bn1_10conversion8receiver21x_target_other_fuzz__NtBb_4Args13auto_generateINtB5_s2_4AutopE4autoBf_
FN:85,_RNvMs9_NvMs1_NtNtCsc4CkkP18Bn1_10conversion8lifetime13target_fuzz__NtBb_4Args13auto_generateINtB5_s3_4AutopE4autoBf_
FN:85,_RNvMs_NvMs1_NtNtCsc4CkkP18Bn1_10conversion11uncloneable13target_fuzz__NtBa_4Args13auto_generateINtB4_4AutopE4autoBe_
FN:85,_RNvMs_NvMs1_NtNtCsc4CkkP18Bn1_10conversion4path13target_fuzz__NtBa_4Args13auto_generateINtB4_4AutopE4autoBe_
FN:85,_RNvMs_NvMs1_NtNtCsc4CkkP18Bn1_10conversion5array13target_fuzz__NtBa_4Args13auto_generateINtB4_4AutopE4autoBe_
FN:85,_RNvMs_NvMs1_NtNtCsc4CkkP18Bn1_10conversion7mutable13target_fuzz__NtBa_4Args13auto_generateINtB4_4AutopE4autoBe_
FN:85,_RNvMs_NvMs1_NtNtCsc4CkkP18Bn1_10conversion8lifetime13target_fuzz__NtBa_4Args13auto_generateINtB4_4AutopE4autoBe_
FN:85,_RNvMs_NvMs1_NtNtCsc4CkkP18Bn1_10conversion8receiver20x_target_self_fuzz__NtBa_4Args13auto_generateINtB4_4AutopE4autoBe_
FN:85,_RNvMs_NvMs1_NtNtCsc4CkkP18Bn1_10conversion8receiver21x_target_other_fuzz__NtBa_4Args13auto_generateINtB4_4AutopE4autoBe_
FN:85,_RNvMsd_NvMs1_NtNtCsc4CkkP18Bn1_10conversion8lifetime13target_fuzz__NtBb_4Args13auto_generateINtB5_s5_4AutopE4autoBf_
FN:85,_RNvMsf_NvMs1_NtNtCsc4CkkP18Bn1_10conversion8lifetime13target_fuzz__NtBb_4Args13auto_generateINtB5_s6_4AutopE4autoBf_
FN:85,_RNvMsh_NvMs1_NtNtCsc4CkkP18Bn1_10conversion8lifetime13target_fuzz__NtBb_4Args13auto_generateINtB5_s7_4AutopE4autoBf_
FN:76,_RNvXININvMs1_NtNtCsc4CkkP18Bn1_10conversion8lifetime13target_fuzz__NtBb_4Args13auto_generatesa_0ppEpINtB5_s4_12AutoFallbackpE4autoBf_
FN:76,_RNvXNvMs1_NtNtCsc4CkkP18Bn1_10conversion4path13target_fuzz__NtB8_4Args13auto_generateINtB2_4AutoNtBa_10LeakedPathEINtB2_12AutoFallbackB1w_E4autoBc_
FN:76,_RNvXs0_NvMs1_NtNtCsc4CkkP18Bn1_10conversion4path13target_fuzz__NtBb_4Args13auto_generateINtB5_s_4AutoNtBd_10LeakedPathEINtB5_s_12AutoFallbackB1B_E4autoBf_
FN:76,_RNvXs2_NvMs1_NtNtCsc4CkkP18Bn1_10conversion4path13target_fuzz__NtBb_4Args13auto_generateINtB5_s0_4AutoNtBd_10LeakedPathEINtB5_s0_12AutoFallbackB1C_E4autoBf_
FN:76,_RNvXs4_NvMs1_NtNtCsc4CkkP18Bn1_10conversion4path13target_fuzz__NtBb_4Args13auto_generateINtB5_s1_4AutoNtBd_10LeakedPathEINtB5_s1_12AutoFallbackB1C_E4autoBf_
FN:76,_RNvXs6_NvMs1_NtNtCsc4CkkP18Bn1_10conversion4path13target_fuzz__NtBb_4Args13auto_generateINtB5_s2_4AutoNtBd_10LeakedPathEINtB5_s2_12AutoFallbackB1C_E4autoBf_
FN:85,_RNvMs1_NvMs1_NtNtCs4WDBbq4FTkN_5debug4hang13target_fuzz__NtBb_4Args13auto_generateINtB5_s_4AutoNtBd_6StructE4autoBf_
FN:76,_RNvXNvMs1_NtNtCs4WDBbq4FTkN_5debug4hang13target_fuzz__NtB8_4Args13auto_generateINtB2_4AutoNtBa_6StructEINtB2_12AutoFallbackB1q_E4autoBc_
FN:76,_RNvXs2_NvMs1_NtNtCs4WDBbq4FTkN_5debug4hang13target_fuzz__NtBb_4Args13auto_generateINtB5_s0_4AutoNtBd_6StructEINtB5_s0_12AutoFallbackB1w_E4autoBf_
FN:76,_RNvXs4_NvMs1_NtNtCs4WDBbq4FTkN_5debug4hang13target_fuzz__NtBb_4Args13auto_generateINtB5_s1_4AutoNtBd_6StructEINtB5_s1_12AutoFallbackB1w_E4autoBf_
FN:76,_RNvXs6_NvMs1_NtNtCs4WDBbq4FTkN_5debug4hang13target_fuzz__NtBb_4Args13auto_generateINtB5_s2_4AutoNtBd_6StructEINtB5_s2_12AutoFallbackB1w_E4autoBf_
FN:178,_RINvCsavtZ3NIYN9z_17test_fuzz_runtime10write_argsNtNvNtNtCs4WDBbq4FTkN_5debug4hang13target_fuzz__10write_args4ArgsEBT_
FN:178,_RINvCsavtZ3NIYN9z_17test_fuzz_runtime10write_argsNtNvNtNtCs4WDBbq4FTkN_5debug5crash13target_fuzz__10write_args4ArgsEBT_
FN:172,_RINvCsavtZ3NIYN9z_17test_fuzz_runtime18write_generic_argsNtNtNtCs4WDBbq4FTkN_5debug4hang13target_fuzz__4ArgsEBZ_
FN:172,_RINvCsavtZ3NIYN9z_17test_fuzz_runtime18write_generic_argsNtNtNtCs4WDBbq4FTkN_5debug5crash13target_fuzz__4ArgsEBZ_
FN:166,_RINvCsavtZ3NIYN9z_17test_fuzz_runtime23write_impl_generic_argsNtNtNtCs4WDBbq4FTkN_5debug4hang13target_fuzz__4ArgsEB14_
FN:166,_RINvCsavtZ3NIYN9z_17test_fuzz_runtime23write_impl_generic_argsNtNtNtCs4WDBbq4FTkN_5debug5crash13target_fuzz__4ArgsEB14_
FN:194,_RINvCsavtZ3NIYN9z_17test_fuzz_runtime9read_argsNtNvMNtNtCs4WDBbq4FTkN_5debug4hang13target_fuzz__INtBO_11UsingReaderpE9read_args4ArgsNtNtNtCsHIej2QEFI5_3std2io5stdio5StdinEBS_
FN:194,_RINvCsavtZ3NIYN9z_17test_fuzz_runtime9read_argsNtNvMNtNtCs4WDBbq4FTkN_5debug5crash13target_fuzz__INtBO_11UsingReaderpE9read_args4ArgsNtNtNtCsHIej2QEFI5_3std2io5stdio5StdinEBS_
FN:58,_RINvMs0_CsavtZ3NIYN9z_17test_fuzz_runtimeINtB6_8TryDebugNtNtCs4WDBbq4FTkN_5debug4hang6StructE5applyuEBW_
FN:58,_RINvMs0_CsavtZ3NIYN9z_17test_fuzz_runtimeINtB6_8TryDebugNtNtCs4WDBbq4FTkN_5debug5crash6StructE5applyuEBW_
FN:58,_RINvMs0_CsavtZ3NIYN9z_17test_fuzz_runtimeINtB6_8TryDebuguE5applyuECs4WDBbq4FTkN_5debug
FN:85,_RNvMs1_NvMs1_NtNtCs4WDBbq4FTkN_5debug5crash13target_fuzz__NtBb_4Args13auto_generateINtB5_s_4AutoNtBd_6StructE4autoBf_
FN:76,_RNvXNvMs1_NtNtCs4WDBbq4FTkN_5debug5crash13target_fuzz__NtB8_4Args13auto_generateINtB2_4AutoNtBa_6StructEINtB2_12AutoFallbackB1r_E4autoBc_
FN:76,_RNvXs2_NvMs1_NtNtCs4WDBbq4FTkN_5debug5crash13target_fuzz__NtBb_4Args13auto_generateINtB5_s0_4AutoNtBd_6StructEINtB5_s0_12AutoFallbackB1x_E4autoBf_
FN:76,_RNvXs4_NvMs1_NtNtCs4WDBbq4FTkN_5debug5crash13target_fuzz__NtBb_4Args13auto_generateINtB5_s1_4AutoNtBd_6StructEINtB5_s1_12AutoFallbackB1x_E4autoBf_
FN:76,_RNvXs6_NvMs1_NtNtCs4WDBbq4FTkN_5debug5crash13target_fuzz__NtBb_4Args13auto_generateINtB5_s2_4AutoNtBd_6StructEINtB5_s2_12AutoFallbackB1x_E4autoBf_
FN:85,_RNvMs3_NvMs1_NtNtCs4WDBbq4FTkN_5debug4hang13target_fuzz__NtBb_4Args13auto_generateINtB5_s0_4AutopE4autoBf_
FN:85,_RNvMs3_NvMs1_NtNtCs4WDBbq4FTkN_5debug5crash13target_fuzz__NtBb_4Args13auto_generateINtB5_s0_4AutopE4autoBf_
FN:85,_RNvMs5_NvMs1_NtNtCs4WDBbq4FTkN_5debug4hang13target_fuzz__NtBb_4Args13auto_generateINtB5_s1_4AutopE4autoBf_
FN:85,_RNvMs5_NvMs1_NtNtCs4WDBbq4FTkN_5debug5crash13target_fuzz__NtBb_4Args13auto_generateINtB5_s1_4AutopE4autoBf_
FN:85,_RNvMs7_NvMs1_NtNtCs4WDBbq4FTkN_5debug4hang13target_fuzz__NtBb_4Args13auto_generateINtB5_s2_4AutopE4autoBf_
FN:85,_RNvMs7_NvMs1_NtNtCs4WDBbq4FTkN_5debug5crash13target_fuzz__NtBb_4Args13auto_generateINtB5_s2_4AutopE4autoBf_
FN:85,_RNvMs_NvMs1_NtNtCs4WDBbq4FTkN_5debug4hang13target_fuzz__NtBa_4Args13auto_generateINtB4_4AutopE4autoBe_
FN:85,_RNvMs_NvMs1_NtNtCs4WDBbq4FTkN_5debug5crash13target_fuzz__NtBa_4Args13auto_generateINtB4_4AutopE4autoBe_
FN:76,_RNvXININvMs1_NtNtCs4WDBbq4FTkN_5debug4hang13target_fuzz__NtBb_4Args13auto_generates0_0ppEpINtB5_s_12AutoFallbackpE4autoBf_
FN:76,_RNvXININvMs1_NtNtCs4WDBbq4FTkN_5debug5crash13target_fuzz__NtBb_4Args13auto_generates0_0ppEpINtB5_s_12AutoFallbackpE4autoBf_
FN:85,_RNvMs1_NvMs1_NtNtCsj0n1mfFpdnC_7default10no_default13target_fuzz__NtBb_4Args13auto_generateINtB5_s_4AutopE4autoBf_
FN:85,_RNvMs3_NvMs1_NtNtCsj0n1mfFpdnC_7default10no_default13target_fuzz__NtBb_4Args13auto_generateINtB5_s0_4AutopE4autoBf_
FN:85,_RNvMs3_NvMs1_NtNtCsj0n1mfFpdnC_7default7default13target_fuzz__NtBb_4Args13auto_generateINtB5_s0_4AutopE4autoBf_
FN:85,_RNvMs5_NvMs1_NtNtCsj0n1mfFpdnC_7default10no_default13target_fuzz__NtBb_4Args13auto_generateINtB5_s1_4AutopE4autoBf_
FN:85,_RNvMs5_NvMs1_NtNtCsj0n1mfFpdnC_7default7default13target_fuzz__NtBb_4Args13auto_generateINtB5_s1_4AutopE4autoBf_
FN:85,_RNvMs7_NvMs1_NtNtCsj0n1mfFpdnC_7default10no_default13target_fuzz__NtBb_4Args13auto_generateINtB5_s2_4AutopE4autoBf_
FN:85,_RNvMs7_NvMs1_NtNtCsj0n1mfFpdnC_7default7default13target_fuzz__NtBb_4Args13auto_generateINtB5_s2_4AutopE4autoBf_
FN:85,_RNvMs_NvMs1_NtNtCsj0n1mfFpdnC_7default10no_default13target_fuzz__NtBa_4Args13auto_generateINtB4_4AutopE4autoBe_
FN:85,_RNvMs_NvMs1_NtNtCsj0n1mfFpdnC_7default7default13target_fuzz__NtBa_4Args13auto_generateINtB4_4AutopE4autoBe_
FN:76,_RNvXININvMs1_NtNtCsj0n1mfFpdnC_7default7default13target_fuzz__NtBb_4Args13auto_generates0_0ppEpINtB5_s_12AutoFallbackpE4autoBf_
FN:76,_RNvXNvMs1_NtNtCsj0n1mfFpdnC_7default10no_default13target_fuzz__NtB8_4Args13auto_generateINtB2_4AutoNtBa_6StructEINtB2_12AutoFallbackB1z_E4autoBc_
FN:76,_RNvXs0_NvMs1_NtNtCsj0n1mfFpdnC_7default10no_default13target_fuzz__NtBb_4Args13auto_generateINtB5_s_4AutoNtBd_6StructEINtB5_s_12AutoFallbackB1E_E4autoBf_
FN:76,_RNvXs2_NvMs1_NtNtCsj0n1mfFpdnC_7default10no_default13target_fuzz__NtBb_4Args13auto_generateINtB5_s0_4AutoNtBd_6StructEINtB5_s0_12AutoFallbackB1F_E4autoBf_
FN:76,_RNvXs4_NvMs1_NtNtCsj0n1mfFpdnC_7default10no_default13target_fuzz__NtBb_4Args13auto_generateINtB5_s1_4AutoNtBd_6StructEINtB5_s1_12AutoFallbackB1F_E4autoBf_
FN:76,_RNvXs6_NvMs1_NtNtCsj0n1mfFpdnC_7default10no_default13target_fuzz__NtBb_4Args13auto_generateINtB5_s2_4AutoNtBd_6StructEINtB5_s2_12AutoFallbackB1F_E4autoBf_
FN:178,_RINvCsavtZ3NIYN9z_17test_fuzz_runtime10write_argsNtNvNtNtCsj0n1mfFpdnC_7default10no_default13target_fuzz__10write_args4ArgsEBT_
FN:178,_RINvCsavtZ3NIYN9z_17test_fuzz_runtime10write_argsNtNvNtNtCsj0n1mfFpdnC_7default7default13target_fuzz__10write_args4ArgsEBT_
FN:172,_RINvCsavtZ3NIYN9z_17test_fuzz_runtime18write_generic_argsNtNtNtCsj0n1mfFpdnC_7default10no_default13target_fuzz__4ArgsEBZ_
FN:172,_RINvCsavtZ3NIYN9z_17test_fuzz_runtime18write_generic_argsNtNtNtCsj0n1mfFpdnC_7default7default13target_fuzz__4ArgsEBZ_
FN:166,_RINvCsavtZ3NIYN9z_17test_fuzz_runtime23write_impl_generic_argsNtNtNtCsj0n1mfFpdnC_7default10no_default13target_fuzz__4ArgsEB14_
FN:166,_RINvCsavtZ3NIYN9z_17test_fuzz_runtime23write_impl_generic_argsNtNtNtCsj0n1mfFpdnC_7default7default13target_fuzz__4ArgsEB14_
FN:194,_RINvCsavtZ3NIYN9z_17test_fuzz_runtime9read_argsNtNvMNtNtCsj0n1mfFpdnC_7default10no_default13target_fuzz__INtBO_11UsingReaderpE9read_args4ArgsNtNtNtCsHIej2QEFI5_3std2io5stdio5StdinEBS_
FN:194,_RINvCsavtZ3NIYN9z_17test_fuzz_runtime9read_argsNtNvMNtNtCsj0n1mfFpdnC_7default7default13target_fuzz__INtBO_11UsingReaderpE9read_args4ArgsNtNtNtCsHIej2QEFI5_3std2io5stdio5StdinEBS_
FN:58,_RINvMs0_CsavtZ3NIYN9z_17test_fuzz_runtimeINtB6_8TryDebuguE5applyuECsj0n1mfFpdnC_7default
FN:50,_RINvXs_CsavtZ3NIYN9z_17test_fuzz_runtimeINtB5_8TryDebugNtNtCsj0n1mfFpdnC_7default10no_default6StructENtB5_16TryDebugFallback5applyuEBV_
FN:50,_RINvXs_CsavtZ3NIYN9z_17test_fuzz_runtimeINtB5_8TryDebugNtNtCsj0n1mfFpdnC_7default7default6StructENtB5_16TryDebugFallback5applyuEBV_
FN:33,_RNvXCsavtZ3NIYN9z_17test_fuzz_runtimeINtB2_18DebugUnimplementedINtB2_8TryDebugNtNtCsj0n1mfFpdnC_7default10no_default6StructEENtNtCs3XFJfFEDSOQ_4core3fmt5Debug3fmtB1i_
FN:33,_RNvXCsavtZ3NIYN9z_17test_fuzz_runtimeINtB2_18DebugUnimplementedINtB2_8TryDebugNtNtCsj0n1mfFpdnC_7default7default6StructEENtNtCs3XFJfFEDSOQ_4core3fmt5Debug3fmtB1i_
FN:85,_RNvMs1_NvMs1_NtNtCsj0n1mfFpdnC_7default7default13target_fuzz__NtBb_4Args13auto_generateINtB5_s_4AutoNtBd_6StructE4autoBf_
FN:76,_RNvXNvMs1_NtNtCsj0n1mfFpdnC_7default7default13target_fuzz__NtB8_4Args13auto_generateINtB2_4AutoNtBa_6StructEINtB2_12AutoFallbackB1v_E4autoBc_
FN:76,_RNvXs2_NvMs1_NtNtCsj0n1mfFpdnC_7default7default13target_fuzz__NtBb_4Args13auto_generateINtB5_s0_4AutoNtBd_6StructEINtB5_s0_12AutoFallbackB1B_E4autoBf_
FN:76,_RNvXs4_NvMs1_NtNtCsj0n1mfFpdnC_7default7default13target_fuzz__NtBb_4Args13auto_generateINtB5_s1_4AutoNtBd_6StructEINtB5_s1_12AutoFallbackB1B_E4autoBf_
FN:76,_RNvXs6_NvMs1_NtNtCsj0n1mfFpdnC_7default7default13target_fuzz__NtBb_4Args13auto_generateINtB5_s2_4AutoNtBd_6StructEINtB5_s2_12AutoFallbackB1B_E4autoBf_
FN:85,_RNvMs1_NvMs1_NtCsa8u86q4QJJs_4from15bar_from_fuzz__NtBb_4Args13auto_generateINtB5_s_4AutopE4autoBd_
FN:85,_RNvMs1_NvMs1_NtCsa8u86q4QJJs_4from15baz_into_fuzz__NtBb_4Args13auto_generateINtB5_s_4AutopE4autoBd_
FN:85,_RNvMs1_NvMs1_NtCsa8u86q4QJJs_4from19baz_try_from_fuzz__NtBb_4Args13auto_generateINtB5_s_4AutopE4autoBd_
FN:85,_RNvMs3_NvMs1_NtCsa8u86q4QJJs_4from15bar_from_fuzz__NtBb_4Args13auto_generateINtB5_s0_4AutopE4autoBd_
FN:85,_RNvMs3_NvMs1_NtCsa8u86q4QJJs_4from15baz_into_fuzz__NtBb_4Args13auto_generateINtB5_s0_4AutopE4autoBd_
FN:85,_RNvMs3_NvMs1_NtCsa8u86q4QJJs_4from19baz_try_from_fuzz__NtBb_4Args13auto_generateINtB5_s0_4AutopE4autoBd_
FN:85,_RNvMs5_NvMs1_NtCsa8u86q4QJJs_4from15bar_from_fuzz__NtBb_4Args13auto_generateINtB5_s1_4AutopE4autoBd_
FN:85,_RNvMs5_NvMs1_NtCsa8u86q4QJJs_4from15baz_into_fuzz__NtBb_4Args13auto_generateINtB5_s1_4AutopE4autoBd_
FN:85,_RNvMs5_NvMs1_NtCsa8u86q4QJJs_4from19baz_try_from_fuzz__NtBb_4Args13auto_generateINtB5_s1_4AutopE4autoBd_
FN:85,_RNvMs7_NvMs1_NtCsa8u86q4QJJs_4from15bar_from_fuzz__NtBb_4Args13auto_generateINtB5_s2_4AutopE4autoBd_
FN:85,_RNvMs7_NvMs1_NtCsa8u86q4QJJs_4from15baz_into_fuzz__NtBb_4Args13auto_generateINtB5_s2_4AutopE4autoBd_
FN:85,_RNvMs7_NvMs1_NtCsa8u86q4QJJs_4from19baz_try_from_fuzz__NtBb_4Args13auto_generateINtB5_s2_4AutopE4autoBd_
FN:85,_RNvMs_NvMs1_NtCsa8u86q4QJJs_4from15bar_from_fuzz__NtBa_4Args13auto_generateINtB4_4AutopE4autoBc_
FN:85,_RNvMs_NvMs1_NtCsa8u86q4QJJs_4from15baz_into_fuzz__NtBa_4Args13auto_generateINtB4_4AutopE4autoBc_
FN:85,_RNvMs_NvMs1_NtCsa8u86q4QJJs_4from19baz_try_from_fuzz__NtBa_4Args13auto_generateINtB4_4AutopE4autoBc_
FN:178,_RINvCsavtZ3NIYN9z_17test_fuzz_runtime10write_argsNtNvNtCsa8u86q4QJJs_4from15bar_from_fuzz__10write_args4ArgsEBR_
FN:178,_RINvCsavtZ3NIYN9z_17test_fuzz_runtime10write_argsNtNvNtCsa8u86q4QJJs_4from15baz_into_fuzz__10write_args4ArgsEBR_
FN:178,_RINvCsavtZ3NIYN9z_17test_fuzz_runtime10write_argsNtNvNtCsa8u86q4QJJs_4from19baz_try_from_fuzz__10write_args4ArgsEBR_
FN:172,_RINvCsavtZ3NIYN9z_17test_fuzz_runtime18write_generic_argsNtNtCsa8u86q4QJJs_4from15bar_from_fuzz__4ArgsEBX_
FN:172,_RINvCsavtZ3NIYN9z_17test_fuzz_runtime18write_generic_argsNtNtCsa8u86q4QJJs_4from15baz_into_fuzz__4ArgsEBX_
FN:172,_RINvCsavtZ3NIYN9z_17test_fuzz_runtime18write_generic_argsNtNtCsa8u86q4QJJs_4from19baz_try_from_fuzz__4ArgsEBX_
FN:166,_RINvCsavtZ3NIYN9z_17test_fuzz_runtime23write_impl_generic_argsNtNtCsa8u86q4QJJs_4from15bar_from_fuzz__4ArgsEB12_
FN:166,_RINvCsavtZ3NIYN9z_17test_fuzz_runtime23write_impl_generic_argsNtNtCsa8u86q4QJJs_4from15baz_into_fuzz__4ArgsEB12_
FN:166,_RINvCsavtZ3NIYN9z_17test_fuzz_runtime23write_impl_generic_argsNtNtCsa8u86q4QJJs_4from19baz_try_from_fuzz__4ArgsEB12_
FN:194,_RINvCsavtZ3NIYN9z_17test_fuzz_runtime9read_argsNtNvMNtCsa8u86q4QJJs_4from15bar_from_fuzz__INtBO_11UsingReaderpE9read_args4ArgsNtNtNtCsHIej2QEFI5_3std2io5stdio5StdinEBQ_
FN:194,_RINvCsavtZ3NIYN9z_17test_fuzz_runtime9read_argsNtNvMNtCsa8u86q4QJJs_4from15baz_into_fuzz__INtBO_11UsingReaderpE9read_args4ArgsNtNtNtCsHIej2QEFI5_3std2io5stdio5StdinEBQ_
FN:194,_RINvCsavtZ3NIYN9z_17test_fuzz_runtime9read_argsNtNvMNtCsa8u86q4QJJs_4from19baz_try_from_fuzz__INtBO_11UsingReaderpE9read_args4ArgsNtNtNtCsHIej2QEFI5_3std2io5stdio5StdinEBQ_
FN:50,_RINvXs_CsavtZ3NIYN9z_17test_fuzz_runtimeINtB5_8TryDebugINtNtCs3XFJfFEDSOQ_4core6result6ResultNtCsa8u86q4QJJs_4from3BazReEENtB5_16TryDebugFallback5applyuEB1v_
FN:50,_RINvXs_CsavtZ3NIYN9z_17test_fuzz_runtimeINtB5_8TryDebugNtCsa8u86q4QJJs_4from3BarENtB5_16TryDebugFallback5applyuEBT_
FN:50,_RINvXs_CsavtZ3NIYN9z_17test_fuzz_runtimeINtB5_8TryDebugNtCsa8u86q4QJJs_4from3BazENtB5_16TryDebugFallback5applyuEBT_
FN:50,_RINvXs_CsavtZ3NIYN9z_17test_fuzz_runtimeINtB5_8TryDebugNtCsa8u86q4QJJs_4from3FooENtB5_16TryDebugFallback5applyuEBT_
FN:33,_RNvXCsavtZ3NIYN9z_17test_fuzz_runtimeINtB2_18DebugUnimplementedINtB2_8TryDebugINtNtCs3XFJfFEDSOQ_4core6result6ResultNtCsa8u86q4QJJs_4from3BazReEEENtNtB1j_3fmt5Debug3fmtB1S_
FN:33,_RNvXCsavtZ3NIYN9z_17test_fuzz_runtimeINtB2_18DebugUnimplementedINtB2_8TryDebugNtCsa8u86q4QJJs_4from3BarEENtNtCs3XFJfFEDSOQ_4core3fmt5Debug3fmtB1g_
FN:33,_RNvXCsavtZ3NIYN9z_17test_fuzz_runtimeINtB2_18DebugUnimplementedINtB2_8TryDebugNtCsa8u86q4QJJs_4from3BazEENtNtCs3XFJfFEDSOQ_4core3fmt5Debug3fmtB1g_
FN:33,_RNvXCsavtZ3NIYN9z_17test_fuzz_runtimeINtB2_18DebugUnimplementedINtB2_8TryDebugNtCsa8u86q4QJJs_4from3FooEENtNtCs3XFJfFEDSOQ_4core3fmt5Debug3fmtB1g_
FN:76,_RNvXNvMs1_NtCsa8u86q4QJJs_4from15baz_into_fuzz__NtB8_4Args13auto_generateINtB2_4AutoNtBa_3BazEINtB2_12AutoFallbackB1k_E4autoBa_
FN:76,_RNvXs0_NvMs1_NtCsa8u86q4QJJs_4from15baz_into_fuzz__NtBb_4Args13auto_generateINtB5_s_4AutoNtBd_3BazEINtB5_s_12AutoFallbackB1p_E4autoBd_
FN:76,_RNvXs2_NvMs1_NtCsa8u86q4QJJs_4from15baz_into_fuzz__NtBb_4Args13auto_generateINtB5_s0_4AutoNtBd_3BazEINtB5_s0_12AutoFallbackB1q_E4autoBd_
FN:76,_RNvXs4_NvMs1_NtCsa8u86q4QJJs_4from15baz_into_fuzz__NtBb_4Args13auto_generateINtB5_s1_4AutoNtBd_3BazEINtB5_s1_12AutoFallbackB1q_E4autoBd_
FN:76,_RNvXs6_NvMs1_NtCsa8u86q4QJJs_4from15baz_into_fuzz__NtBb_4Args13auto_generateINtB5_s2_4AutoNtBd_3BazEINtB5_s2_12AutoFallbackB1q_E4autoBd_
FN:76,_RNvXNvMs1_NtCsa8u86q4QJJs_4from19baz_try_from_fuzz__NtB8_4Args13auto_generateINtB2_4AutoNtBa_3BarEINtB2_12AutoFallbackB1o_E4autoBa_
FN:76,_RNvXs0_NvMs1_NtCsa8u86q4QJJs_4from19baz_try_from_fuzz__NtBb_4Args13auto_generateINtB5_s_4AutoNtBd_3BarEINtB5_s_12AutoFallbackB1t_E4autoBd_
FN:76,_RNvXs2_NvMs1_NtCsa8u86q4QJJs_4from19baz_try_from_fuzz__NtBb_4Args13auto_generateINtB5_s0_4AutoNtBd_3BarEINtB5_s0_12AutoFallbackB1u_E4autoBd_
FN:76,_RNvXs4_NvMs1_NtCsa8u86q4QJJs_4from19baz_try_from_fuzz__NtBb_4Args13auto_generateINtB5_s1_4AutoNtBd_3BarEINtB5_s1_12AutoFallbackB1u_E4autoBd_
FN:76,_RNvXs6_NvMs1_NtCsa8u86q4QJJs_4from19baz_try_from_fuzz__NtBb_4Args13auto_generateINtB5_s2_4AutoNtBd_3BarEINtB5_s2_12AutoFallbackB1u_E4autoBd_
FN:76,_RNvXNvMs1_NtCsa8u86q4QJJs_4from15bar_from_fuzz__NtB8_4Args13auto_generateINtB2_4AutoNtBa_3FooEINtB2_12AutoFallbackB1k_E4autoBa_
FN:76,_RNvXs0_NvMs1_NtCsa8u86q4QJJs_4from15bar_from_fuzz__NtBb_4Args13auto_generateINtB5_s_4AutoNtBd_3FooEINtB5_s_12AutoFallbackB1p_E4autoBd_
FN:76,_RNvXs2_NvMs1_NtCsa8u86q4QJJs_4from15bar_from_fuzz__NtBb_4Args13auto_generateINtB5_s0_4AutoNtBd_3FooEINtB5_s0_12AutoFallbackB1q_E4autoBd_
FN:76,_RNvXs4_NvMs1_NtCsa8u86q4QJJs_4from15bar_from_fuzz__NtBb_4Args13auto_generateINtB5_s1_4AutoNtBd_3FooEINtB5_s1_12AutoFallbackB1q_E4autoBd_
FN:76,_RNvXs6_NvMs1_NtCsa8u86q4QJJs_4from15bar_from_fuzz__NtBb_4Args13auto_generateINtB5_s2_4AutoNtBd_3FooEINtB5_s2_12AutoFallbackB1q_E4autoBd_
FN:85,_RNvMs1_NvMs1_NtCslo9q2YZ09sG_7generic20struct_target_fuzz__INtBb_4ArgspE13auto_generateINtB5_s_4AutopE4autoBd_
FN:85,_RNvMs1_NvMs1_NtCslo9q2YZ09sG_7generic26struct_target_bound_fuzz__INtBb_4ArgsppE13auto_generateINtB5_s_4AutopE4autoBd_
FN:85,_RNvMs1_NvMs1_NtCslo9q2YZ09sG_7generic33struct_target_where_clause_fuzz__INtBb_4ArgsppE13auto_generateINtB5_s_4AutopE4autoBd_
FN:85,_RNvMs1_NvMs1_NtNtCslo9q2YZ09sG_7generic27receiverless_trait_function20struct_target_fuzz__INtBb_4ArgspE13auto_generateINtB5_s_4AutopE4autoBf_
FN:85,_RNvMs3_NvMs1_NtCslo9q2YZ09sG_7generic14baz_qux_fuzz__INtBb_4ArgspE13auto_generateINtB5_s0_4AutopE4autoBd_
FN:85,_RNvMs3_NvMs1_NtCslo9q2YZ09sG_7generic20struct_target_fuzz__INtBb_4ArgspE13auto_generateINtB5_s0_4AutopE4autoBd_
FN:85,_RNvMs3_NvMs1_NtCslo9q2YZ09sG_7generic26struct_target_bound_fuzz__INtBb_4ArgsppE13auto_generateINtB5_s0_4AutopE4autoBd_
FN:85,_RNvMs3_NvMs1_NtCslo9q2YZ09sG_7generic33struct_target_where_clause_fuzz__INtBb_4ArgsppE13auto_generateINtB5_s0_4AutopE4autoBd_
FN:85,_RNvMs3_NvMs1_NtNtCslo9q2YZ09sG_7generic27receiverless_trait_function20struct_target_fuzz__INtBb_4ArgspE13auto_generateINtB5_s0_4AutopE4autoBf_
FN:85,_RNvMs5_NvMs1_NtCslo9q2YZ09sG_7generic14baz_qux_fuzz__INtBb_4ArgspE13auto_generateINtB5_s1_4AutopE4autoBd_
FN:85,_RNvMs5_NvMs1_NtCslo9q2YZ09sG_7generic20struct_target_fuzz__INtBb_4ArgspE13auto_generateINtB5_s1_4AutopE4autoBd_
FN:85,_RNvMs5_NvMs1_NtCslo9q2YZ09sG_7generic26struct_target_bound_fuzz__INtBb_4ArgsppE13auto_generateINtB5_s1_4AutopE4autoBd_
FN:85,_RNvMs5_NvMs1_NtCslo9q2YZ09sG_7generic33struct_target_where_clause_fuzz__INtBb_4ArgsppE13auto_generateINtB5_s1_4AutopE4autoBd_
FN:85,_RNvMs5_NvMs1_NtNtCslo9q2YZ09sG_7generic27receiverless_trait_function20struct_target_fuzz__INtBb_4ArgspE13auto_generateINtB5_s1_4AutopE4autoBf_
FN:85,_RNvMs7_NvMs1_NtCslo9q2YZ09sG_7generic14baz_qux_fuzz__INtBb_4ArgspE13auto_generateINtB5_s2_4AutopE4autoBd_
FN:85,_RNvMs7_NvMs1_NtCslo9q2YZ09sG_7generic20struct_target_fuzz__INtBb_4ArgspE13auto_generateINtB5_s2_4AutopE4autoBd_
FN:85,_RNvMs7_NvMs1_NtCslo9q2YZ09sG_7generic26struct_target_bound_fuzz__INtBb_4ArgsppE13auto_generateINtB5_s2_4AutopE4autoBd_
FN:85,_RNvMs7_NvMs1_NtCslo9q2YZ09sG_7generic33struct_target_where_clause_fuzz__INtBb_4ArgsppE13auto_generateINtB5_s2_4AutopE4autoBd_
FN:85,_RNvMs7_NvMs1_NtNtCslo9q2YZ09sG_7generic27receiverless_trait_function20struct_target_fuzz__INtBb_4ArgspE13auto_generateINtB5_s2_4AutopE4autoBf_
FN:85,_RNvMs9_NvMs1_NtCslo9q2YZ09sG_7generic20struct_target_fuzz__INtBb_4ArgspE13auto_generateINtB5_s3_4AutopE4autoBd_
FN:85,_RNvMs9_NvMs1_NtCslo9q2YZ09sG_7generic26struct_target_bound_fuzz__INtBb_4ArgsppE13auto_generateINtB5_s3_4AutopE4autoBd_
FN:85,_RNvMs9_NvMs1_NtCslo9q2YZ09sG_7generic33struct_target_where_clause_fuzz__INtBb_4ArgsppE13auto_generateINtB5_s3_4AutopE4autoBd_
FN:85,_RNvMs9_NvMs1_NtNtCslo9q2YZ09sG_7generic27receiverless_trait_function20struct_target_fuzz__INtBb_4ArgspE13auto_generateINtB5_s3_4AutopE4autoBf_
FN:85,_RNvMsB_NvMs1_NtCslo9q2YZ09sG_7generic26struct_target_bound_fuzz__INtBb_4ArgsppE13auto_generateINtB5_sh_4AutopE4autoBd_
FN:85,_RNvMsB_NvMs1_NtCslo9q2YZ09sG_7generic33struct_target_where_clause_fuzz__INtBb_4ArgsppE13auto_generateINtB5_sh_4AutopE4autoBd_
FN:85,_RNvMsD_NvMs1_NtCslo9q2YZ09sG_7generic26struct_target_bound_fuzz__INtBb_4ArgsppE13auto_generateINtB5_si_4AutopE4autoBd_
FN:85,_RNvMsD_NvMs1_NtCslo9q2YZ09sG_7generic33struct_target_where_clause_fuzz__INtBb_4ArgsppE13auto_generateINtB5_si_4AutopE4autoBd_
FN:85,_RNvMsH_NvMs1_NtCslo9q2YZ09sG_7generic26struct_target_bound_fuzz__INtBb_4ArgsppE13auto_generateINtB5_sk_4AutopE4autoBd_
FN:85,_RNvMsH_NvMs1_NtCslo9q2YZ09sG_7generic33struct_target_where_clause_fuzz__INtBb_4ArgsppE13auto_generateINtB5_sk_4AutopE4autoBd_
FN:85,_RNvMsJ_NvMs1_NtCslo9q2YZ09sG_7generic26struct_target_bound_fuzz__INtBb_4ArgsppE13auto_generateINtB5_sl_4AutopE4autoBd_
FN:85,_RNvMsJ_NvMs1_NtCslo9q2YZ09sG_7generic33struct_target_where_clause_fuzz__INtBb_4ArgsppE13auto_generateINtB5_sl_4AutopE4autoBd_
FN:85,_RNvMsL_NvMs1_NtCslo9q2YZ09sG_7generic26struct_target_bound_fuzz__INtBb_4ArgsppE13auto_generateINtB5_sm_4AutopE4autoBd_
FN:85,_RNvMsL_NvMs1_NtCslo9q2YZ09sG_7generic33struct_target_where_clause_fuzz__INtBb_4ArgsppE13auto_generateINtB5_sm_4AutopE4autoBd_
FN:85,_RNvMs_NvMs1_NtCslo9q2YZ09sG_7generic14baz_qux_fuzz__INtBa_4ArgspE13auto_generateINtB4_4AutopE4autoBc_
FN:85,_RNvMs_NvMs1_NtCslo9q2YZ09sG_7generic20struct_target_fuzz__INtBa_4ArgspE13auto_generateINtB4_4AutopE4autoBc_
FN:85,_RNvMs_NvMs1_NtCslo9q2YZ09sG_7generic26struct_target_bound_fuzz__INtBa_4ArgsppE13auto_generateINtB4_4AutopE4autoBc_
FN:85,_RNvMs_NvMs1_NtCslo9q2YZ09sG_7generic33struct_target_where_clause_fuzz__INtBa_4ArgsppE13auto_generateINtB4_4AutopE4autoBc_
FN:85,_RNvMs_NvMs1_NtNtCslo9q2YZ09sG_7generic27receiverless_trait_function20struct_target_fuzz__INtBa_4ArgspE13auto_generateINtB4_4AutopE4autoBe_
FN:85,_RNvMsb_NvMs1_NtCslo9q2YZ09sG_7generic20struct_target_fuzz__INtBb_4ArgspE13auto_generateINtB5_s4_4AutopE4autoBd_
FN:85,_RNvMsb_NvMs1_NtCslo9q2YZ09sG_7generic26struct_target_bound_fuzz__INtBb_4ArgsppE13auto_generateINtB5_s4_4AutopE4autoBd_
FN:85,_RNvMsb_NvMs1_NtCslo9q2YZ09sG_7generic33struct_target_where_clause_fuzz__INtBb_4ArgsppE13auto_generateINtB5_s4_4AutopE4autoBd_
FN:85,_RNvMsd_NvMs1_NtCslo9q2YZ09sG_7generic20struct_target_fuzz__INtBb_4ArgspE13auto_generateINtB5_s5_4AutopE4autoBd_
FN:85,_RNvMsd_NvMs1_NtCslo9q2YZ09sG_7generic26struct_target_bound_fuzz__INtBb_4ArgsppE13auto_generateINtB5_s5_4AutopE4autoBd_
FN:85,_RNvMsd_NvMs1_NtCslo9q2YZ09sG_7generic33struct_target_where_clause_fuzz__INtBb_4ArgsppE13auto_generateINtB5_s5_4AutopE4autoBd_
FN:85,_RNvMsd_NvMs1_NtNtCslo9q2YZ09sG_7generic27receiverless_trait_function20struct_target_fuzz__INtBb_4ArgspE13auto_generateINtB5_s5_4AutopE4autoBf_
FN:85,_RNvMsf_NvMs1_NtCslo9q2YZ09sG_7generic20struct_target_fuzz__INtBb_4ArgspE13auto_generateINtB5_s6_4AutopE4autoBd_
FN:85,_RNvMsf_NvMs1_NtCslo9q2YZ09sG_7generic26struct_target_bound_fuzz__INtBb_4ArgsppE13auto_generateINtB5_s6_4AutopE4autoBd_
FN:85,_RNvMsf_NvMs1_NtCslo9q2YZ09sG_7generic33struct_target_where_clause_fuzz__INtBb_4ArgsppE13auto_generateINtB5_s6_4AutopE4autoBd_
FN:85,_RNvMsf_NvMs1_NtNtCslo9q2YZ09sG_7generic27receiverless_trait_function20struct_target_fuzz__INtBb_4ArgspE13auto_generateINtB5_s6_4AutopE4autoBf_
FN:85,_RNvMsh_NvMs1_NtCslo9q2YZ09sG_7generic20struct_target_fuzz__INtBb_4ArgspE13auto_generateINtB5_s7_4AutopE4autoBd_
FN:85,_RNvMsh_NvMs1_NtCslo9q2YZ09sG_7generic26struct_target_bound_fuzz__INtBb_4ArgsppE13auto_generateINtB5_s7_4AutopE4autoBd_
FN:85,_RNvMsh_NvMs1_NtCslo9q2YZ09sG_7generic33struct_target_where_clause_fuzz__INtBb_4ArgsppE13auto_generateINtB5_s7_4AutopE4autoBd_
FN:85,_RNvMsh_NvMs1_NtNtCslo9q2YZ09sG_7generic27receiverless_trait_function20struct_target_fuzz__INtBb_4ArgspE13auto_generateINtB5_s7_4AutopE4autoBf_
FN:85,_RNvMsj_NvMs1_NtCslo9q2YZ09sG_7generic20struct_target_fuzz__INtBb_4ArgspE13auto_generateINtB5_s8_4AutopE4autoBd_
FN:85,_RNvMsj_NvMs1_NtCslo9q2YZ09sG_7generic26struct_target_bound_fuzz__INtBb_4ArgsppE13auto_generateINtB5_s8_4AutopE4autoBd_
FN:85,_RNvMsj_NvMs1_NtCslo9q2YZ09sG_7generic33struct_target_where_clause_fuzz__INtBb_4ArgsppE13auto_generateINtB5_s8_4AutopE4autoBd_
FN:85,_RNvMsl_NvMs1_NtCslo9q2YZ09sG_7generic26struct_target_bound_fuzz__INtBb_4ArgsppE13auto_generateINtB5_s9_4AutopE4autoBd_
FN:85,_RNvMsl_NvMs1_NtCslo9q2YZ09sG_7generic33struct_target_where_clause_fuzz__INtBb_4ArgsppE13auto_generateINtB5_s9_4AutopE4autoBd_
FN:85,_RNvMsn_NvMs1_NtCslo9q2YZ09sG_7generic20struct_target_fuzz__INtBb_4ArgspE13auto_generateINtB5_sa_4AutopE4autoBd_
FN:85,_RNvMsn_NvMs1_NtCslo9q2YZ09sG_7generic26struct_target_bound_fuzz__INtBb_4ArgsppE13auto_generateINtB5_sa_4AutopE4autoBd_
FN:85,_RNvMsn_NvMs1_NtCslo9q2YZ09sG_7generic33struct_target_where_clause_fuzz__INtBb_4ArgsppE13auto_generateINtB5_sa_4AutopE4autoBd_
FN:85,_RNvMsp_NvMs1_NtCslo9q2YZ09sG_7generic20struct_target_fuzz__INtBb_4ArgspE13auto_generateINtB5_sb_4AutopE4autoBd_
FN:85,_RNvMsp_NvMs1_NtCslo9q2YZ09sG_7generic26struct_target_bound_fuzz__INtBb_4ArgsppE13auto_generateINtB5_sb_4AutopE4autoBd_
FN:85,_RNvMsp_NvMs1_NtCslo9q2YZ09sG_7generic33struct_target_where_clause_fuzz__INtBb_4ArgsppE13auto_generateINtB5_sb_4AutopE4autoBd_
FN:85,_RNvMsr_NvMs1_NtCslo9q2YZ09sG_7generic20struct_target_fuzz__INtBb_4ArgspE13auto_generateINtB5_sc_4AutopE4autoBd_
FN:85,_RNvMsr_NvMs1_NtCslo9q2YZ09sG_7generic26struct_target_bound_fuzz__INtBb_4ArgsppE13auto_generateINtB5_sc_4AutopE4autoBd_
FN:85,_RNvMsr_NvMs1_NtCslo9q2YZ09sG_7generic33struct_target_where_clause_fuzz__INtBb_4ArgsppE13auto_generateINtB5_sc_4AutopE4autoBd_
FN:85,_RNvMst_NvMs1_NtCslo9q2YZ09sG_7generic26struct_target_bound_fuzz__INtBb_4ArgsppE13auto_generateINtB5_sd_4AutopE4autoBd_
FN:85,_RNvMst_NvMs1_NtCslo9q2YZ09sG_7generic33struct_target_where_clause_fuzz__INtBb_4ArgsppE13auto_generateINtB5_sd_4AutopE4autoBd_
FN:85,_RNvMsx_NvMs1_NtCslo9q2YZ09sG_7generic26struct_target_bound_fuzz__INtBb_4ArgsppE13auto_generateINtB5_sf_4AutopE4autoBd_
FN:85,_RNvMsx_NvMs1_NtCslo9q2YZ09sG_7generic33struct_target_where_clause_fuzz__INtBb_4ArgsppE13auto_generateINtB5_sf_4AutopE4autoBd_
FN:85,_RNvMsz_NvMs1_NtCslo9q2YZ09sG_7generic26struct_target_bound_fuzz__INtBb_4ArgsppE13auto_generateINtB5_sg_4AutopE4autoBd_
FN:85,_RNvMsz_NvMs1_NtCslo9q2YZ09sG_7generic33struct_target_where_clause_fuzz__INtBb_4ArgsppE13auto_generateINtB5_sg_4AutopE4autoBd_
FN:76,_RNvXININvMs1_NtCslo9q2YZ09sG_7generic14baz_qux_fuzz__INtBb_4ArgspE13auto_generates0_0ppEpINtB5_s_12AutoFallbackpE4autoBd_
FN:76,_RNvXININvMs1_NtCslo9q2YZ09sG_7generic20struct_target_fuzz__INtBb_4ArgspE13auto_generatesk_0ppEpINtB5_s9_12AutoFallbackpE4autoBd_
FN:76,_RNvXININvMs1_NtCslo9q2YZ09sG_7generic26struct_target_bound_fuzz__INtBb_4ArgsppE13auto_generatesE_0ppEpINtB5_sj_12AutoFallbackpE4autoBd_
FN:76,_RNvXININvMs1_NtCslo9q2YZ09sG_7generic26struct_target_bound_fuzz__INtBb_4ArgsppE13auto_generatesu_0ppEpINtB5_se_12AutoFallbackpE4autoBd_
FN:76,_RNvXININvMs1_NtCslo9q2YZ09sG_7generic33struct_target_where_clause_fuzz__INtBb_4ArgsppE13auto_generatesE_0ppEpINtB5_sj_12AutoFallbackpE4autoBd_
FN:76,_RNvXININvMs1_NtCslo9q2YZ09sG_7generic33struct_target_where_clause_fuzz__INtBb_4ArgsppE13auto_generatesu_0ppEpINtB5_se_12AutoFallbackpE4autoBd_
FN:76,_RNvXININvMs1_NtNtCslo9q2YZ09sG_7generic27receiverless_trait_function20struct_target_fuzz__INtBb_4ArgspE13auto_generatesa_0ppEpINtB5_s4_12AutoFallbackpE4autoBf_
FN:85,_RNvMs1_NvMs1_NtCslo9q2YZ09sG_7generic14baz_qux_fuzz__INtBb_4ArgspE13auto_generateINtB5_s_4AutoINtNtCs3XFJfFEDSOQ_4core6marker11PhantomDataNtBd_3BarEE4autoBd_
FN:76,_RNvXNvMs1_NtCslo9q2YZ09sG_7generic14baz_qux_fuzz__INtB8_4ArgspE13auto_generateINtB2_4AutoINtNtCs3XFJfFEDSOQ_4core6marker11PhantomDataNtBa_3BarEEINtB2_12AutoFallbackB1p_E4autoBa_
FN:76,_RNvXs2_NvMs1_NtCslo9q2YZ09sG_7generic14baz_qux_fuzz__INtBb_4ArgspE13auto_generateINtB5_s0_4AutoINtNtCs3XFJfFEDSOQ_4core6marker11PhantomDataNtBd_3BarEEINtB5_s0_12AutoFallbackB1v_E4autoBd_
FN:76,_RNvXs4_NvMs1_NtCslo9q2YZ09sG_7generic14baz_qux_fuzz__INtBb_4ArgspE13auto_generateINtB5_s1_4AutoINtNtCs3XFJfFEDSOQ_4core6marker11PhantomDataNtBd_3BarEEINtB5_s1_12AutoFallbackB1v_E4autoBd_
FN:76,_RNvXs6_NvMs1_NtCslo9q2YZ09sG_7generic14baz_qux_fuzz__INtBb_4ArgspE13auto_generateINtB5_s2_4AutoINtNtCs3XFJfFEDSOQ_4core6marker11PhantomDataNtBd_3BarEEINtB5_s2_12AutoFallbackB1v_E4autoBd_
FN:85,_RNvMsb_NvMs1_NtNtCslo9q2YZ09sG_7generic27receiverless_trait_function20struct_target_fuzz__INtBb_4ArgspE13auto_generateINtB5_s4_4AutoINtNtCs3XFJfFEDSOQ_4core6marker11PhantomDataNtBf_3BarEE4autoBf_
FN:76,_RNvXNvMs1_NtNtCslo9q2YZ09sG_7generic27receiverless_trait_function20struct_target_fuzz__INtB8_4ArgspE13auto_generateINtB2_4AutoNtBc_3BarEINtB2_12AutoFallbackB20_E4autoBc_
FN:76,_RNvXs0_NvMs1_NtNtCslo9q2YZ09sG_7generic27receiverless_trait_function20struct_target_fuzz__INtBb_4ArgspE13auto_generateINtB5_s_4AutoNtBf_3BarEINtB5_s_12AutoFallbackB25_E4autoBf_
FN:76,_RNvXs2_NvMs1_NtNtCslo9q2YZ09sG_7generic27receiverless_trait_function20struct_target_fuzz__INtBb_4ArgspE13auto_generateINtB5_s0_4AutoNtBf_3BarEINtB5_s0_12AutoFallbackB26_E4autoBf_
FN:76,_RNvXs4_NvMs1_NtNtCslo9q2YZ09sG_7generic27receiverless_trait_function20struct_target_fuzz__INtBb_4ArgspE13auto_generateINtB5_s1_4AutoNtBf_3BarEINtB5_s1_12AutoFallbackB26_E4autoBf_
FN:76,_RNvXs6_NvMs1_NtNtCslo9q2YZ09sG_7generic27receiverless_trait_function20struct_target_fuzz__INtBb_4ArgspE13auto_generateINtB5_s2_4AutoNtBf_3BarEINtB5_s2_12AutoFallbackB26_E4autoBf_
FN:76,_RNvXs8_NvMs1_NtNtCslo9q2YZ09sG_7generic27receiverless_trait_function20struct_target_fuzz__INtBb_4ArgspE13auto_generateINtB5_s3_4AutoINtNtCs3XFJfFEDSOQ_4core6marker11PhantomDataNtBf_3BarEEINtB5_s3_12AutoFallbackB26_E4autoBf_
FN:76,_RNvXsc_NvMs1_NtNtCslo9q2YZ09sG_7generic27receiverless_trait_function20struct_target_fuzz__INtBb_4ArgspE13auto_generateINtB5_s5_4AutoINtNtCs3XFJfFEDSOQ_4core6marker11PhantomDataNtBf_3BarEEINtB5_s5_12AutoFallbackB26_E4autoBf_
FN:76,_RNvXse_NvMs1_NtNtCslo9q2YZ09sG_7generic27receiverless_trait_function20struct_target_fuzz__INtBb_4ArgspE13auto_generateINtB5_s6_4AutoINtNtCs3XFJfFEDSOQ_4core6marker11PhantomDataNtBf_3BarEEINtB5_s6_12AutoFallbackB26_E4autoBf_
FN:76,_RNvXsg_NvMs1_NtNtCslo9q2YZ09sG_7generic27receiverless_trait_function20struct_target_fuzz__INtBb_4ArgspE13auto_generateINtB5_s7_4AutoINtNtCs3XFJfFEDSOQ_4core6marker11PhantomDataNtBf_3BarEEINtB5_s7_12AutoFallbackB26_E4autoBf_
FN:85,_RNvMsF_NvMs1_NtCslo9q2YZ09sG_7generic26struct_target_bound_fuzz__INtBb_4ArgsppE13auto_generateINtB5_sj_4AutoINtNtCs3XFJfFEDSOQ_4core6marker11PhantomDataINtBd_3BazNtBd_3BarEEE4autoBd_
FN:85,_RNvMsv_NvMs1_NtCslo9q2YZ09sG_7generic26struct_target_bound_fuzz__INtBb_4ArgsppE13auto_generateINtB5_se_4AutoINtNtCs3XFJfFEDSOQ_4core6marker11PhantomDataNtBd_3BarEE4autoBd_
FN:76,_RNvXNvMs1_NtCslo9q2YZ09sG_7generic26struct_target_bound_fuzz__INtB8_4ArgsppE13auto_generateINtB2_4AutoNtBa_6StructEINtB2_12AutoFallbackB1C_E4autoBa_
FN:76,_RNvXs0_NvMs1_NtCslo9q2YZ09sG_7generic26struct_target_bound_fuzz__INtBb_4ArgsppE13auto_generateINtB5_s_4AutoNtBd_6StructEINtB5_s_12AutoFallbackB1H_E4autoBd_
FN:76,_RNvXs2_NvMs1_NtCslo9q2YZ09sG_7generic26struct_target_bound_fuzz__INtBb_4ArgsppE13auto_generateINtB5_s0_4AutoNtBd_6StructEINtB5_s0_12AutoFallbackB1I_E4autoBd_
FN:76,_RNvXs4_NvMs1_NtCslo9q2YZ09sG_7generic26struct_target_bound_fuzz__INtBb_4ArgsppE13auto_generateINtB5_s1_4AutoNtBd_6StructEINtB5_s1_12AutoFallbackB1I_E4autoBd_
FN:76,_RNvXs6_NvMs1_NtCslo9q2YZ09sG_7generic26struct_target_bound_fuzz__INtBb_4ArgsppE13auto_generateINtB5_s2_4AutoNtBd_6StructEINtB5_s2_12AutoFallbackB1I_E4autoBd_
FN:76,_RNvXs8_NvMs1_NtCslo9q2YZ09sG_7generic26struct_target_bound_fuzz__INtBb_4ArgsppE13auto_generateINtB5_s3_4AutoNtBd_3BarEINtB5_s3_12AutoFallbackB1I_E4autoBd_
FN:76,_RNvXsA_NvMs1_NtCslo9q2YZ09sG_7generic26struct_target_bound_fuzz__INtBb_4ArgsppE13auto_generateINtB5_sh_4AutoINtNtCs3XFJfFEDSOQ_4core6marker11PhantomDataNtBd_3BarEEINtB5_sh_12AutoFallbackB1I_E4autoBd_
FN:76,_RNvXsC_NvMs1_NtCslo9q2YZ09sG_7generic26struct_target_bound_fuzz__INtBb_4ArgsppE13auto_generateINtB5_si_4AutoINtNtCs3XFJfFEDSOQ_4core6marker11PhantomDataINtBd_3BazNtBd_3BarEEEINtB5_si_12AutoFallbackB1I_E4autoBd_
FN:76,_RNvXsG_NvMs1_NtCslo9q2YZ09sG_7generic26struct_target_bound_fuzz__INtBb_4ArgsppE13auto_generateINtB5_sk_4AutoINtNtCs3XFJfFEDSOQ_4core6marker11PhantomDataINtBd_3BazNtBd_3BarEEEINtB5_sk_12AutoFallbackB1I_E4autoBd_
FN:76,_RNvXsI_NvMs1_NtCslo9q2YZ09sG_7generic26struct_target_bound_fuzz__INtBb_4ArgsppE13auto_generateINtB5_sl_4AutoINtNtCs3XFJfFEDSOQ_4core6marker11PhantomDataINtBd_3BazNtBd_3BarEEEINtB5_sl_12AutoFallbackB1I_E4autoBd_
FN:76,_RNvXsK_NvMs1_NtCslo9q2YZ09sG_7generic26struct_target_bound_fuzz__INtBb_4ArgsppE13auto_generateINtB5_sm_4AutoINtNtCs3XFJfFEDSOQ_4core6marker11PhantomDataINtBd_3BazNtBd_3BarEEEINtB5_sm_12AutoFallbackB1I_E4autoBd_
FN:76,_RNvXsa_NvMs1_NtCslo9q2YZ09sG_7generic26struct_target_bound_fuzz__INtBb_4ArgsppE13auto_generateINtB5_s4_4AutoNtBd_3BarEINtB5_s4_12AutoFallbackB1I_E4autoBd_
FN:76,_RNvXsc_NvMs1_NtCslo9q2YZ09sG_7generic26struct_target_bound_fuzz__INtBb_4ArgsppE13auto_generateINtB5_s5_4AutoNtBd_3BarEINtB5_s5_12AutoFallbackB1I_E4autoBd_
FN:76,_RNvXse_NvMs1_NtCslo9q2YZ09sG_7generic26struct_target_bound_fuzz__INtBb_4ArgsppE13auto_generateINtB5_s6_4AutoNtBd_3BarEINtB5_s6_12AutoFallbackB1I_E4autoBd_
FN:76,_RNvXsg_NvMs1_NtCslo9q2YZ09sG_7generic26struct_target_bound_fuzz__INtBb_4ArgsppE13auto_generateINtB5_s7_4AutoNtBd_3BarEINtB5_s7_12AutoFallbackB1I_E4autoBd_
FN:76,_RNvXsi_NvMs1_NtCslo9q2YZ09sG_7generic26struct_target_bound_fuzz__INtBb_4ArgsppE13auto_generateINtB5_s8_4AutoINtBd_3BazNtBd_3BarEEINtB5_s8_12AutoFallbackB1I_E4autoBd_
FN:76,_RNvXsk_NvMs1_NtCslo9q2YZ09sG_7generic26struct_target_bound_fuzz__INtBb_4ArgsppE13auto_generateINtB5_s9_4AutoINtBd_3BazNtBd_3BarEEINtB5_s9_12AutoFallbackB1I_E4autoBd_
FN:76,_RNvXsm_NvMs1_NtCslo9q2YZ09sG_7generic26struct_target_bound_fuzz__INtBb_4ArgsppE13auto_generateINtB5_sa_4AutoINtBd_3BazNtBd_3BarEEINtB5_sa_12AutoFallbackB1I_E4autoBd_
FN:76,_RNvXso_NvMs1_NtCslo9q2YZ09sG_7generic26struct_target_bound_fuzz__INtBb_4ArgsppE13auto_generateINtB5_sb_4AutoINtBd_3BazNtBd_3BarEEINtB5_sb_12AutoFallbackB1I_E4autoBd_
FN:76,_RNvXsq_NvMs1_NtCslo9q2YZ09sG_7generic26struct_target_bound_fuzz__INtBb_4ArgsppE13auto_generateINtB5_sc_4AutoINtBd_3BazNtBd_3BarEEINtB5_sc_12AutoFallbackB1I_E4autoBd_
FN:76,_RNvXss_NvMs1_NtCslo9q2YZ09sG_7generic26struct_target_bound_fuzz__INtBb_4ArgsppE13auto_generateINtB5_sd_4AutoINtNtCs3XFJfFEDSOQ_4core6marker11PhantomDataNtBd_3BarEEINtB5_sd_12AutoFallbackB1I_E4autoBd_
FN:76,_RNvXsw_NvMs1_NtCslo9q2YZ09sG_7generic26struct_target_bound_fuzz__INtBb_4ArgsppE13auto_generateINtB5_sf_4AutoINtNtCs3XFJfFEDSOQ_4core6marker11PhantomDataNtBd_3BarEEINtB5_sf_12AutoFallbackB1I_E4autoBd_
FN:76,_RNvXsy_NvMs1_NtCslo9q2YZ09sG_7generic26struct_target_bound_fuzz__INtBb_4ArgsppE13auto_generateINtB5_sg_4AutoINtNtCs3XFJfFEDSOQ_4core6marker11PhantomDataNtBd_3BarEEINtB5_sg_12AutoFallbackB1I_E4autoBd_
FN:178,_RINvCsavtZ3NIYN9z_17test_fuzz_runtime10write_argsINtNvNtCslo9q2YZ09sG_7generic14baz_qux_fuzz__10write_args4ArgsNtBS_3BarEEBS_
FN:178,_RINvCsavtZ3NIYN9z_17test_fuzz_runtime10write_argsINtNvNtCslo9q2YZ09sG_7generic20struct_target_fuzz__10write_args4ArgsNtBS_3BarEEBS_
FN:178,_RINvCsavtZ3NIYN9z_17test_fuzz_runtime10write_argsINtNvNtCslo9q2YZ09sG_7generic20struct_target_fuzz__10write_args4ArgsNtBS_3FooEEBS_
FN:178,_RINvCsavtZ3NIYN9z_17test_fuzz_runtime10write_argsINtNvNtCslo9q2YZ09sG_7generic26struct_target_bound_fuzz__10write_args4ArgsNtBS_3BarINtBS_3BazB1X_EEEBS_
FN:178,_RINvCsavtZ3NIYN9z_17test_fuzz_runtime10write_argsINtNvNtCslo9q2YZ09sG_7generic26struct_target_bound_fuzz__10write_args4ArgsNtBS_3FooINtBS_3BazB1X_EEEBS_
FN:178,_RINvCsavtZ3NIYN9z_17test_fuzz_runtime10write_argsINtNvNtCslo9q2YZ09sG_7generic33struct_target_where_clause_fuzz__10write_args4ArgsNtBS_3BarINtBS_3BazB24_EEEBS_
FN:178,_RINvCsavtZ3NIYN9z_17test_fuzz_runtime10write_argsINtNvNtCslo9q2YZ09sG_7generic33struct_target_where_clause_fuzz__10write_args4ArgsNtBS_3FooINtBS_3BazB24_EEEBS_
FN:178,_RINvCsavtZ3NIYN9z_17test_fuzz_runtime10write_argsINtNvNtNtCslo9q2YZ09sG_7generic27receiverless_trait_function20struct_target_fuzz__10write_args4ArgsNtBU_3BarEEBU_
FN:172,_RINvCsavtZ3NIYN9z_17test_fuzz_runtime18write_generic_argsINtNtCslo9q2YZ09sG_7generic14baz_qux_fuzz__4ArgsNtBY_3BarEEBY_
FN:172,_RINvCsavtZ3NIYN9z_17test_fuzz_runtime18write_generic_argsINtNtCslo9q2YZ09sG_7generic20struct_target_fuzz__4ArgsNtBY_3BarEEBY_
FN:172,_RINvCsavtZ3NIYN9z_17test_fuzz_runtime18write_generic_argsINtNtCslo9q2YZ09sG_7generic20struct_target_fuzz__4ArgsNtBY_3FooEEBY_
FN:172,_RINvCsavtZ3NIYN9z_17test_fuzz_runtime18write_generic_argsINtNtCslo9q2YZ09sG_7generic26struct_target_bound_fuzz__4ArgsNtBY_3BarINtBY_3BazB1R_EEEBY_
FN:172,_RINvCsavtZ3NIYN9z_17test_fuzz_runtime18write_generic_argsINtNtCslo9q2YZ09sG_7generic26struct_target_bound_fuzz__4ArgsNtBY_3FooINtBY_3BazB1R_EEEBY_
FN:172,_RINvCsavtZ3NIYN9z_17test_fuzz_runtime18write_generic_argsINtNtCslo9q2YZ09sG_7generic33struct_target_where_clause_fuzz__4ArgsNtBY_3BarINtBY_3BazB1Y_EEEBY_
FN:172,_RINvCsavtZ3NIYN9z_17test_fuzz_runtime18write_generic_argsINtNtCslo9q2YZ09sG_7generic33struct_target_where_clause_fuzz__4ArgsNtBY_3FooINtBY_3BazB1Y_EEEBY_
FN:172,_RINvCsavtZ3NIYN9z_17test_fuzz_runtime18write_generic_argsINtNtNtCslo9q2YZ09sG_7generic27receiverless_trait_function20struct_target_fuzz__4ArgsNtB10_3BarEEB10_
FN:172,_RINvCsavtZ3NIYN9z_17test_fuzz_runtime18write_generic_argsNtNtCslo9q2YZ09sG_7generic38struct_target_only_generic_args_fuzz__4ArgsEBX_
FN:166,_RINvCsavtZ3NIYN9z_17test_fuzz_runtime23write_impl_generic_argsINtNtCslo9q2YZ09sG_7generic14baz_qux_fuzz__4ArgsNtB13_3BarEEB13_
FN:166,_RINvCsavtZ3NIYN9z_17test_fuzz_runtime23write_impl_generic_argsINtNtCslo9q2YZ09sG_7generic20struct_target_fuzz__4ArgsNtB13_3BarEEB13_
FN:166,_RINvCsavtZ3NIYN9z_17test_fuzz_runtime23write_impl_generic_argsINtNtCslo9q2YZ09sG_7generic20struct_target_fuzz__4ArgsNtB13_3FooEEB13_
FN:166,_RINvCsavtZ3NIYN9z_17test_fuzz_runtime23write_impl_generic_argsINtNtCslo9q2YZ09sG_7generic26struct_target_bound_fuzz__4ArgsNtB13_3BarINtB13_3BazB1W_EEEB13_
FN:166,_RINvCsavtZ3NIYN9z_17test_fuzz_runtime23write_impl_generic_argsINtNtCslo9q2YZ09sG_7generic26struct_target_bound_fuzz__4ArgsNtB13_3FooINtB13_3BazB1W_EEEB13_
FN:166,_RINvCsavtZ3NIYN9z_17test_fuzz_runtime23write_impl_generic_argsINtNtCslo9q2YZ09sG_7generic33struct_target_where_clause_fuzz__4ArgsNtB13_3BarINtB13_3BazB23_EEEB13_
FN:166,_RINvCsavtZ3NIYN9z_17test_fuzz_runtime23write_impl_generic_argsINtNtCslo9q2YZ09sG_7generic33struct_target_where_clause_fuzz__4ArgsNtB13_3FooINtB13_3BazB23_EEEB13_
FN:166,_RINvCsavtZ3NIYN9z_17test_fuzz_runtime23write_impl_generic_argsINtNtNtCslo9q2YZ09sG_7generic27receiverless_trait_function20struct_target_fuzz__4ArgsNtB15_3BarEEB15_
FN:166,_RINvCsavtZ3NIYN9z_17test_fuzz_runtime23write_impl_generic_argsNtNtCslo9q2YZ09sG_7generic38struct_target_only_generic_args_fuzz__4ArgsEB12_
FN:194,_RINvCsavtZ3NIYN9z_17test_fuzz_runtime9read_argsINtNvMNtCslo9q2YZ09sG_7generic14baz_qux_fuzz__INtBP_11UsingReaderpE9read_args4ArgsNtBR_3BarENtNtNtCsHIej2QEFI5_3std2io5stdio5StdinEBR_
FN:194,_RINvCsavtZ3NIYN9z_17test_fuzz_runtime9read_argsINtNvMNtCslo9q2YZ09sG_7generic20struct_target_fuzz__INtBP_11UsingReaderpE9read_args4ArgsNtBR_3BarENtNtNtCsHIej2QEFI5_3std2io5stdio5StdinEBR_
FN:194,_RINvCsavtZ3NIYN9z_17test_fuzz_runtime9read_argsINtNvMNtCslo9q2YZ09sG_7generic26struct_target_bound_fuzz__INtBP_11UsingReaderpE9read_args4ArgsNtBR_3BarINtBR_3BazB2f_EENtNtNtCsHIej2QEFI5_3std2io5stdio5StdinEBR_
FN:194,_RINvCsavtZ3NIYN9z_17test_fuzz_runtime9read_argsINtNvMNtCslo9q2YZ09sG_7generic33struct_target_where_clause_fuzz__INtBP_11UsingReaderpE9read_args4ArgsNtBR_3BarINtBR_3BazB2m_EENtNtNtCsHIej2QEFI5_3std2io5stdio5StdinEBR_
FN:194,_RINvCsavtZ3NIYN9z_17test_fuzz_runtime9read_argsINtNvMNtNtCslo9q2YZ09sG_7generic27receiverless_trait_function20struct_target_fuzz__INtBP_11UsingReaderpE9read_args4ArgsNtBT_3BarENtNtNtCsHIej2QEFI5_3std2io5stdio5StdinEBT_
FN:58,_RINvMs0_CsavtZ3NIYN9z_17test_fuzz_runtimeINtB6_8TryDebugINtCslo9q2YZ09sG_7generic3BazNtBV_3BarEE5applyuEBV_
FN:58,_RINvMs0_CsavtZ3NIYN9z_17test_fuzz_runtimeINtB6_8TryDebugNtCslo9q2YZ09sG_7generic3BarE5applyuEBU_
FN:58,_RINvMs0_CsavtZ3NIYN9z_17test_fuzz_runtimeINtB6_8TryDebugNtCslo9q2YZ09sG_7generic6StructE5applyuEBU_
FN:58,_RINvMs0_CsavtZ3NIYN9z_17test_fuzz_runtimeINtB6_8TryDebuguE5applyuECslo9q2YZ09sG_7generic
FN:50,_RINvXs_CsavtZ3NIYN9z_17test_fuzz_runtimeINtB5_8TryDebugNtCslo9q2YZ09sG_7generic3BarENtB5_16TryDebugFallback5applyuEBT_
FN:33,_RNvXCsavtZ3NIYN9z_17test_fuzz_runtimeINtB2_18DebugUnimplementedINtB2_8TryDebugNtCslo9q2YZ09sG_7generic3BarEENtNtCs3XFJfFEDSOQ_4core3fmt5Debug3fmtB1g_
FN:85,_RNvMsF_NvMs1_NtCslo9q2YZ09sG_7generic33struct_target_where_clause_fuzz__INtBb_4ArgsppE13auto_generateINtB5_sj_4AutoINtNtCs3XFJfFEDSOQ_4core6marker11PhantomDataINtBd_3BazNtBd_3BarEEE4autoBd_
FN:85,_RNvMsv_NvMs1_NtCslo9q2YZ09sG_7generic33struct_target_where_clause_fuzz__INtBb_4ArgsppE13auto_generateINtB5_se_4AutoINtNtCs3XFJfFEDSOQ_4core6marker11PhantomDataNtBd_3BarEE4autoBd_
FN:76,_RNvXNvMs1_NtCslo9q2YZ09sG_7generic33struct_target_where_clause_fuzz__INtB8_4ArgsppE13auto_generateINtB2_4AutoNtBa_6StructEINtB2_12AutoFallbackB1J_E4autoBa_
FN:76,_RNvXs0_NvMs1_NtCslo9q2YZ09sG_7generic33struct_target_where_clause_fuzz__INtBb_4ArgsppE13auto_generateINtB5_s_4AutoNtBd_6StructEINtB5_s_12AutoFallbackB1O_E4autoBd_
FN:76,_RNvXs2_NvMs1_NtCslo9q2YZ09sG_7generic33struct_target_where_clause_fuzz__INtBb_4ArgsppE13auto_generateINtB5_s0_4AutoNtBd_6StructEINtB5_s0_12AutoFallbackB1P_E4autoBd_
FN:76,_RNvXs4_NvMs1_NtCslo9q2YZ09sG_7generic33struct_target_where_clause_fuzz__INtBb_4ArgsppE13auto_generateINtB5_s1_4AutoNtBd_6StructEINtB5_s1_12AutoFallbackB1P_E4autoBd_
FN:76,_RNvXs6_NvMs1_NtCslo9q2YZ09sG_7generic33struct_target_where_clause_fuzz__INtBb_4ArgsppE13auto_generateINtB5_s2_4AutoNtBd_6StructEINtB5_s2_12AutoFallbackB1P_E4autoBd_
FN:76,_RNvXs8_NvMs1_NtCslo9q2YZ09sG_7generic33struct_target_where_clause_fuzz__INtBb_4ArgsppE13auto_generateINtB5_s3_4AutoNtBd_3BarEINtB5_s3_12AutoFallbackB1P_E4autoBd_
FN:76,_RNvXsA_NvMs1_NtCslo9q2YZ09sG_7generic33struct_target_where_clause_fuzz__INtBb_4ArgsppE13auto_generateINtB5_sh_4AutoINtNtCs3XFJfFEDSOQ_4core6marker11PhantomDataNtBd_3BarEEINtB5_sh_12AutoFallbackB1P_E4autoBd_
FN:76,_RNvXsC_NvMs1_NtCslo9q2YZ09sG_7generic33struct_target_where_clause_fuzz__INtBb_4ArgsppE13auto_generateINtB5_si_4AutoINtNtCs3XFJfFEDSOQ_4core6marker11PhantomDataINtBd_3BazNtBd_3BarEEEINtB5_si_12AutoFallbackB1P_E4autoBd_
FN:76,_RNvXsG_NvMs1_NtCslo9q2YZ09sG_7generic33struct_target_where_clause_fuzz__INtBb_4ArgsppE13auto_generateINtB5_sk_4AutoINtNtCs3XFJfFEDSOQ_4core6marker11PhantomDataINtBd_3BazNtBd_3BarEEEINtB5_sk_12AutoFallbackB1P_E4autoBd_
FN:76,_RNvXsI_NvMs1_NtCslo9q2YZ09sG_7generic33struct_target_where_clause_fuzz__INtBb_4ArgsppE13auto_generateINtB5_sl_4AutoINtNtCs3XFJfFEDSOQ_4core6marker11PhantomDataINtBd_3BazNtBd_3BarEEEINtB5_sl_12AutoFallbackB1P_E4autoBd_
FN:76,_RNvXsK_NvMs1_NtCslo9q2YZ09sG_7generic33struct_target_where_clause_fuzz__INtBb_4ArgsppE13auto_generateINtB5_sm_4AutoINtNtCs3XFJfFEDSOQ_4core6marker11PhantomDataINtBd_3BazNtBd_3BarEEEINtB5_sm_12AutoFallbackB1P_E4autoBd_
FN:76,_RNvXsa_NvMs1_NtCslo9q2YZ09sG_7generic33struct_target_where_clause_fuzz__INtBb_4ArgsppE13auto_generateINtB5_s4_4AutoNtBd_3BarEINtB5_s4_12AutoFallbackB1P_E4autoBd_
FN:76,_RNvXsc_NvMs1_NtCslo9q2YZ09sG_7generic33struct_target_where_clause_fuzz__INtBb_4ArgsppE13auto_generateINtB5_s5_4AutoNtBd_3BarEINtB5_s5_12AutoFallbackB1P_E4autoBd_
FN:76,_RNvXse_NvMs1_NtCslo9q2YZ09sG_7generic33struct_target_where_clause_fuzz__INtBb_4ArgsppE13auto_generateINtB5_s6_4AutoNtBd_3BarEINtB5_s6_12AutoFallbackB1P_E4autoBd_
FN:76,_RNvXsg_NvMs1_NtCslo9q2YZ09sG_7generic33struct_target_where_clause_fuzz__INtBb_4ArgsppE13auto_generateINtB5_s7_4AutoNtBd_3BarEINtB5_s7_12AutoFallbackB1P_E4autoBd_
FN:76,_RNvXsi_NvMs1_NtCslo9q2YZ09sG_7generic33struct_target_where_clause_fuzz__INtBb_4ArgsppE13auto_generateINtB5_s8_4AutoINtBd_3BazNtBd_3BarEEINtB5_s8_12AutoFallbackB1P_E4autoBd_
FN:76,_RNvXsk_NvMs1_NtCslo9q2YZ09sG_7generic33struct_target_where_clause_fuzz__INtBb_4ArgsppE13auto_generateINtB5_s9_4AutoINtBd_3BazNtBd_3BarEEINtB5_s9_12AutoFallbackB1P_E4autoBd_
FN:76,_RNvXsm_NvMs1_NtCslo9q2YZ09sG_7generic33struct_target_where_clause_fuzz__INtBb_4ArgsppE13auto_generateINtB5_sa_4AutoINtBd_3BazNtBd_3BarEEINtB5_sa_12AutoFallbackB1P_E4autoBd_
FN:76,_RNvXso_NvMs1_NtCslo9q2YZ09sG_7generic33struct_target_where_clause_fuzz__INtBb_4ArgsppE13auto_generateINtB5_sb_4AutoINtBd_3BazNtBd_3BarEEINtB5_sb_12AutoFallbackB1P_E4autoBd_
FN:76,_RNvXsq_NvMs1_NtCslo9q2YZ09sG_7generic33struct_target_where_clause_fuzz__INtBb_4ArgsppE13auto_generateINtB5_sc_4AutoINtBd_3BazNtBd_3BarEEINtB5_sc_12AutoFallbackB1P_E4autoBd_
FN:76,_RNvXss_NvMs1_NtCslo9q2YZ09sG_7generic33struct_target_where_clause_fuzz__INtBb_4ArgsppE13auto_generateINtB5_sd_4AutoINtNtCs3XFJfFEDSOQ_4core6marker11PhantomDataNtBd_3BarEEINtB5_sd_12AutoFallbackB1P_E4autoBd_
FN:76,_RNvXsw_NvMs1_NtCslo9q2YZ09sG_7generic33struct_target_where_clause_fuzz__INtBb_4ArgsppE13auto_generateINtB5_sf_4AutoINtNtCs3XFJfFEDSOQ_4core6marker11PhantomDataNtBd_3BarEEINtB5_sf_12AutoFallbackB1P_E4autoBd_
FN:76,_RNvXsy_NvMs1_NtCslo9q2YZ09sG_7generic33struct_target_where_clause_fuzz__INtBb_4ArgsppE13auto_generateINtB5_sg_4AutoINtNtCs3XFJfFEDSOQ_4core6marker11PhantomDataNtBd_3BarEEINtB5_sg_12AutoFallbackB1P_E4autoBd_
FN:85,_RNvMsl_NvMs1_NtCslo9q2YZ09sG_7generic20struct_target_fuzz__INtBb_4ArgspE13auto_generateINtB5_s9_4AutoINtNtCs3XFJfFEDSOQ_4core6marker11PhantomDataNtBd_3BarEE4autoBd_
FN:76,_RNvXNvMs1_NtCslo9q2YZ09sG_7generic20struct_target_fuzz__INtB8_4ArgspE13auto_generateINtB2_4AutoNtBa_6StructEINtB2_12AutoFallbackB1v_E4autoBa_
FN:76,_RNvXs0_NvMs1_NtCslo9q2YZ09sG_7generic20struct_target_fuzz__INtBb_4ArgspE13auto_generateINtB5_s_4AutoNtBd_6StructEINtB5_s_12AutoFallbackB1A_E4autoBd_
FN:76,_RNvXs2_NvMs1_NtCslo9q2YZ09sG_7generic20struct_target_fuzz__INtBb_4ArgspE13auto_generateINtB5_s0_4AutoNtBd_6StructEINtB5_s0_12AutoFallbackB1B_E4autoBd_
FN:76,_RNvXs4_NvMs1_NtCslo9q2YZ09sG_7generic20struct_target_fuzz__INtBb_4ArgspE13auto_generateINtB5_s1_4AutoNtBd_6StructEINtB5_s1_12AutoFallbackB1B_E4autoBd_
FN:76,_RNvXs6_NvMs1_NtCslo9q2YZ09sG_7generic20struct_target_fuzz__INtBb_4ArgspE13auto_generateINtB5_s2_4AutoNtBd_6StructEINtB5_s2_12AutoFallbackB1B_E4autoBd_
FN:76,_RNvXs8_NvMs1_NtCslo9q2YZ09sG_7generic20struct_target_fuzz__INtBb_4ArgspE13auto_generateINtB5_s3_4AutoNtBd_3BarEINtB5_s3_12AutoFallbackB1B_E4autoBd_
FN:76,_RNvXsa_NvMs1_NtCslo9q2YZ09sG_7generic20struct_target_fuzz__INtBb_4ArgspE13auto_generateINtB5_s4_4AutoNtBd_3BarEINtB5_s4_12AutoFallbackB1B_E4autoBd_
FN:76,_RNvXsc_NvMs1_NtCslo9q2YZ09sG_7generic20struct_target_fuzz__INtBb_4ArgspE13auto_generateINtB5_s5_4AutoNtBd_3BarEINtB5_s5_12AutoFallbackB1B_E4autoBd_
FN:76,_RNvXse_NvMs1_NtCslo9q2YZ09sG_7generic20struct_target_fuzz__INtBb_4ArgspE13auto_generateINtB5_s6_4AutoNtBd_3BarEINtB5_s6_12AutoFallbackB1B_E4autoBd_
FN:76,_RNvXsg_NvMs1_NtCslo9q2YZ09sG_7generic20struct_target_fuzz__INtBb_4ArgspE13auto_generateINtB5_s7_4AutoNtBd_3BarEINtB5_s7_12AutoFallbackB1B_E4autoBd_
FN:76,_RNvXsi_NvMs1_NtCslo9q2YZ09sG_7generic20struct_target_fuzz__INtBb_4ArgspE13auto_generateINtB5_s8_4AutoINtNtCs3XFJfFEDSOQ_4core6marker11PhantomDataNtBd_3BarEEINtB5_s8_12AutoFallbackB1B_E4autoBd_
FN:76,_RNvXsm_NvMs1_NtCslo9q2YZ09sG_7generic20struct_target_fuzz__INtBb_4ArgspE13auto_generateINtB5_sa_4AutoINtNtCs3XFJfFEDSOQ_4core6marker11PhantomDataNtBd_3BarEEINtB5_sa_12AutoFallbackB1B_E4autoBd_
FN:76,_RNvXso_NvMs1_NtCslo9q2YZ09sG_7generic20struct_target_fuzz__INtBb_4ArgspE13auto_generateINtB5_sb_4AutoINtNtCs3XFJfFEDSOQ_4core6marker11PhantomDataNtBd_3BarEEINtB5_sb_12AutoFallbackB1B_E4autoBd_
FN:76,_RNvXsq_NvMs1_NtCslo9q2YZ09sG_7generic20struct_target_fuzz__INtBb_4ArgspE13auto_generateINtB5_sc_4AutoINtNtCs3XFJfFEDSOQ_4core6marker11PhantomDataNtBd_3BarEEINtB5_sc_12AutoFallbackB1B_E4autoBd_
FN:178,_RINvCsavtZ3NIYN9z_17test_fuzz_runtime10write_argsNtNvNtCs7rwv8R68fA0_11hello_world13target_fuzz__10write_args4ArgsEBR_
FN:172,_RINvCsavtZ3NIYN9z_17test_fuzz_runtime18write_generic_argsNtNtCs7rwv8R68fA0_11hello_world13target_fuzz__4ArgsEBX_
FN:166,_RINvCsavtZ3NIYN9z_17test_fuzz_runtime23write_impl_generic_argsNtNtCs7rwv8R68fA0_11hello_world13target_fuzz__4ArgsEB12_
FN:85,_RNvMs1_NvMs1_NtCs7rwv8R68fA0_11hello_world13target_fuzz__NtBb_4Args13auto_generateINtB5_s_4AutopE4autoBd_
FN:85,_RNvMs3_NvMs1_NtCs7rwv8R68fA0_11hello_world13target_fuzz__NtBb_4Args13auto_generateINtB5_s0_4AutopE4autoBd_
FN:85,_RNvMs5_NvMs1_NtCs7rwv8R68fA0_11hello_world13target_fuzz__NtBb_4Args13auto_generateINtB5_s1_4AutopE4autoBd_
FN:85,_RNvMs7_NvMs1_NtCs7rwv8R68fA0_11hello_world13target_fuzz__NtBb_4Args13auto_generateINtB5_s2_4AutopE4autoBd_
FN:85,_RNvMs_NvMs1_NtCs7rwv8R68fA0_11hello_world13target_fuzz__NtBa_4Args13auto_generateINtB4_4AutopE4autoBc_
FN:76,_RNvXININvMs1_NtCs7rwv8R68fA0_11hello_world13target_fuzz__NtBb_4Args13auto_generate0ppEpINtB5_12AutoFallbackpE4autoBd_
FN:76,_RNvXININvMs1_NtCs7rwv8R68fA0_11hello_world13target_fuzz__NtBb_4Args13auto_generates0_0ppEpINtB5_s_12AutoFallbackpE4autoBd_
FN:76,_RNvXININvMs1_NtCs7rwv8R68fA0_11hello_world13target_fuzz__NtBb_4Args13auto_generates2_0ppEpINtB5_s0_12AutoFallbackpE4autoBd_
FN:76,_RNvXININvMs1_NtCs7rwv8R68fA0_11hello_world13target_fuzz__NtBb_4Args13auto_generates4_0ppEpINtB5_s1_12AutoFallbackpE4autoBd_
FN:76,_RNvXININvMs1_NtCs7rwv8R68fA0_11hello_world13target_fuzz__NtBb_4Args13auto_generates6_0ppEpINtB5_s2_12AutoFallbackpE4autoBd_
FN:178,_RINvCsavtZ3NIYN9z_17test_fuzz_runtime10write_argsNtNvNtCs8wlviv3oqDu_11hello_world13target_fuzz__10write_args4ArgsEBR_
FN:172,_RINvCsavtZ3NIYN9z_17test_fuzz_runtime18write_generic_argsNtNtCs8wlviv3oqDu_11hello_world13target_fuzz__4ArgsEBX_
FN:166,_RINvCsavtZ3NIYN9z_17test_fuzz_runtime23write_impl_generic_argsNtNtCs8wlviv3oqDu_11hello_world13target_fuzz__4ArgsEB12_
FN:194,_RINvCsavtZ3NIYN9z_17test_fuzz_runtime9read_argsNtNvMNtCs8wlviv3oqDu_11hello_world13target_fuzz__INtBO_11UsingReaderpE9read_args4ArgsNtNtNtCsHIej2QEFI5_3std2io5stdio5StdinEBQ_
FN:58,_RINvMs0_CsavtZ3NIYN9z_17test_fuzz_runtimeINtB6_8TryDebugNtNtCsgag4BwXrjBQ_5alloc6string6StringE5applyuECs8wlviv3oqDu_11hello_world
FN:58,_RINvMs0_CsavtZ3NIYN9z_17test_fuzz_runtimeINtB6_8TryDebuguE5applyuECs8wlviv3oqDu_11hello_world
FN:85,_RNvMs1_NvMs1_NtCs8wlviv3oqDu_11hello_world13target_fuzz__NtBb_4Args13auto_generateINtB5_s_4AutoNtNtCsgag4BwXrjBQ_5alloc6string6StringE4autoBd_
FN:76,_RNvXNvMs1_NtCs8wlviv3oqDu_11hello_world13target_fuzz__NtB8_4Args13auto_generateINtB2_4AutoNtNtCsgag4BwXrjBQ_5alloc6string6StringEINtB2_12AutoFallbackB1q_E4autoBa_
FN:76,_RNvXs2_NvMs1_NtCs8wlviv3oqDu_11hello_world13target_fuzz__NtBb_4Args13auto_generateINtB5_s0_4AutoNtNtCsgag4BwXrjBQ_5alloc6string6StringEINtB5_s0_12AutoFallbackB1w_E4autoBd_
FN:76,_RNvXs4_NvMs1_NtCs8wlviv3oqDu_11hello_world13target_fuzz__NtBb_4Args13auto_generateINtB5_s1_4AutoNtNtCsgag4BwXrjBQ_5alloc6string6StringEINtB5_s1_12AutoFallbackB1w_E4autoBd_
FN:76,_RNvXs6_NvMs1_NtCs8wlviv3oqDu_11hello_world13target_fuzz__NtBb_4Args13auto_generateINtB5_s2_4AutoNtNtCsgag4BwXrjBQ_5alloc6string6StringEINtB5_s2_12AutoFallbackB1w_E4autoBd_
FN:85,_RNvMs3_NvMs1_NtCs8wlviv3oqDu_11hello_world13target_fuzz__NtBb_4Args13auto_generateINtB5_s0_4AutopE4autoBd_
FN:85,_RNvMs5_NvMs1_NtCs8wlviv3oqDu_11hello_world13target_fuzz__NtBb_4Args13auto_generateINtB5_s1_4AutopE4autoBd_
FN:85,_RNvMs7_NvMs1_NtCs8wlviv3oqDu_11hello_world13target_fuzz__NtBb_4Args13auto_generateINtB5_s2_4AutopE4autoBd_
FN:85,_RNvMs_NvMs1_NtCs8wlviv3oqDu_11hello_world13target_fuzz__NtBa_4Args13auto_generateINtB4_4AutopE4autoBc_
FN:76,_RNvXININvMs1_NtCs8wlviv3oqDu_11hello_world13target_fuzz__NtBb_4Args13auto_generates0_0ppEpINtB5_s_12AutoFallbackpE4autoBd_
FN:178,_RINvCsafdBfAmNDM0_17test_fuzz_runtime10write_argsNtNvNtCseLM6nJlucij_11hello_world13target_fuzz__10write_args4ArgsEBR_
FN:172,_RINvCsafdBfAmNDM0_17test_fuzz_runtime18write_generic_argsNtNtCseLM6nJlucij_11hello_world13target_fuzz__4ArgsEBX_
FN:166,_RINvCsafdBfAmNDM0_17test_fuzz_runtime23write_impl_generic_argsNtNtCseLM6nJlucij_11hello_world13target_fuzz__4ArgsEB12_
FN:85,_RNvMs1_NvMs1_NtCseLM6nJlucij_11hello_world13target_fuzz__NtBb_4Args13auto_generateINtB5_s_4AutopE4autoBd_
FN:85,_RNvMs3_NvMs1_NtCseLM6nJlucij_11hello_world13target_fuzz__NtBb_4Args13auto_generateINtB5_s0_4AutopE4autoBd_
FN:85,_RNvMs5_NvMs1_NtCseLM6nJlucij_11hello_world13target_fuzz__NtBb_4Args13auto_generateINtB5_s1_4AutopE4autoBd_
FN:85,_RNvMs7_NvMs1_NtCseLM6nJlucij_11hello_world13target_fuzz__NtBb_4Args13auto_generateINtB5_s2_4AutopE4autoBd_
FN:85,_RNvMs_NvMs1_NtCseLM6nJlucij_11hello_world13target_fuzz__NtBa_4Args13auto_generateINtB4_4AutopE4autoBc_
FN:76,_RNvXININvMs1_NtCseLM6nJlucij_11hello_world13target_fuzz__NtBb_4Args13auto_generate0ppEpINtB5_12AutoFallbackpE4autoBd_
FN:76,_RNvXININvMs1_NtCseLM6nJlucij_11hello_world13target_fuzz__NtBb_4Args13auto_generates0_0ppEpINtB5_s_12AutoFallbackpE4autoBd_
FN:76,_RNvXININvMs1_NtCseLM6nJlucij_11hello_world13target_fuzz__NtBb_4Args13auto_generates2_0ppEpINtB5_s0_12AutoFallbackpE4autoBd_
FN:76,_RNvXININvMs1_NtCseLM6nJlucij_11hello_world13target_fuzz__NtBb_4Args13auto_generates4_0ppEpINtB5_s1_12AutoFallbackpE4autoBd_
FN:76,_RNvXININvMs1_NtCseLM6nJlucij_11hello_world13target_fuzz__NtBb_4Args13auto_generates6_0ppEpINtB5_s2_12AutoFallbackpE4autoBd_
FN:184,_RNvCsafdBfAmNDM0_17test_fuzz_runtime10write_data
FN:156,_RNvCsafdBfAmNDM0_17test_fuzz_runtime13write_enabled
FN:151,_RNvCsafdBfAmNDM0_17test_fuzz_runtime14replay_enabled
FN:141,_RNvCsafdBfAmNDM0_17test_fuzz_runtime15display_enabled
FN:136,_RNvCsafdBfAmNDM0_17test_fuzz_runtime17test_fuzz_enabled
FN:146,_RNvCsafdBfAmNDM0_17test_fuzz_runtime20pretty_print_enabled
FN:120,_RNvCsafdBfAmNDM0_17test_fuzz_runtime29warn_if_test_fuzz_not_enabled
FN:161,_RNvCsafdBfAmNDM0_17test_fuzz_runtime7enabled
FN:122,_RNCNvCsafdBfAmNDM0_17test_fuzz_runtime29warn_if_test_fuzz_not_enabled0B3_
FN:163,_RNCNvCsafdBfAmNDM0_17test_fuzz_runtime7enabled0B3_
FN:178,_RINvCsafdBfAmNDM0_17test_fuzz_runtime10write_argspEB2_
FN:172,_RINvCsafdBfAmNDM0_17test_fuzz_runtime18write_generic_argspEB2_
FN:166,_RINvCsafdBfAmNDM0_17test_fuzz_runtime23write_impl_generic_argspEB2_
FN:194,_RINvCsafdBfAmNDM0_17test_fuzz_runtime9read_argsppEB2_
FN:58,_RINvMs0_CsafdBfAmNDM0_17test_fuzz_runtimeINtB6_8TryDebugpE5applypEB6_
FN:50,_RINvXINICsafdBfAmNDM0_17test_fuzz_runtimes_0pEpNtB6_16TryDebugFallback5applypEB6_
FN:33,_RNvXINICsafdBfAmNDM0_17test_fuzz_runtime0pEINtB5_18DebugUnimplementedpENtNtCs3XFJfFEDSOQ_4core3fmt5Debug3fmtB5_
FN:178,_RINvCsavtZ3NIYN9z_17test_fuzz_runtime10write_argsNtNvNtCscKpcHOujJ8r_8lifetime13target_fuzz__10write_args4ArgsEBR_
FN:172,_RINvCsavtZ3NIYN9z_17test_fuzz_runtime18write_generic_argsNtNtCscKpcHOujJ8r_8lifetime13target_fuzz__4ArgsEBX_
FN:166,_RINvCsavtZ3NIYN9z_17test_fuzz_runtime23write_impl_generic_argsNtNtCscKpcHOujJ8r_8lifetime13target_fuzz__4ArgsEB12_
FN:194,_RINvCsavtZ3NIYN9z_17test_fuzz_runtime9read_argsNtNvMNtCscKpcHOujJ8r_8lifetime13target_fuzz__INtBO_11UsingReaderpE9read_args4ArgsNtNtNtCsHIej2QEFI5_3std2io5stdio5StdinEBQ_
FN:58,_RINvMs0_CsavtZ3NIYN9z_17test_fuzz_runtimeINtB6_8TryDebuguE5applyuECscKpcHOujJ8r_8lifetime
FN:50,_RINvXs_CsavtZ3NIYN9z_17test_fuzz_runtimeINtB5_8TryDebugNtCscKpcHOujJ8r_8lifetime3BarENtB5_16TryDebugFallback5applyuEBT_
FN:33,_RNvXCsavtZ3NIYN9z_17test_fuzz_runtimeINtB2_18DebugUnimplementedINtB2_8TryDebugNtCscKpcHOujJ8r_8lifetime3BarEENtNtCs3XFJfFEDSOQ_4core3fmt5Debug3fmtB1g_
FN:85,_RNvMs1_NvMs1_NtCscKpcHOujJ8r_8lifetime13target_fuzz__NtBb_4Args13auto_generateINtB5_s_4AutopE4autoBd_
FN:85,_RNvMs3_NvMs1_NtCscKpcHOujJ8r_8lifetime13target_fuzz__NtBb_4Args13auto_generateINtB5_s0_4AutopE4autoBd_
FN:85,_RNvMs5_NvMs1_NtCscKpcHOujJ8r_8lifetime13target_fuzz__NtBb_4Args13auto_generateINtB5_s1_4AutopE4autoBd_
FN:85,_RNvMs7_NvMs1_NtCscKpcHOujJ8r_8lifetime13target_fuzz__NtBb_4Args13auto_generateINtB5_s2_4AutopE4autoBd_
FN:85,_RNvMs9_NvMs1_NtCscKpcHOujJ8r_8lifetime13target_fuzz__NtBb_4Args13auto_generateINtB5_s3_4AutopE4autoBd_
FN:85,_RNvMs_NvMs1_NtCscKpcHOujJ8r_8lifetime13target_fuzz__NtBa_4Args13auto_generateINtB4_4AutopE4autoBc_
FN:85,_RNvMsd_NvMs1_NtCscKpcHOujJ8r_8lifetime13target_fuzz__NtBb_4Args13auto_generateINtB5_s5_4AutopE4autoBd_
FN:85,_RNvMsf_NvMs1_NtCscKpcHOujJ8r_8lifetime13target_fuzz__NtBb_4Args13auto_generateINtB5_s6_4AutopE4autoBd_
FN:85,_RNvMsh_NvMs1_NtCscKpcHOujJ8r_8lifetime13target_fuzz__NtBb_4Args13auto_generateINtB5_s7_4AutopE4autoBd_
FN:76,_RNvXININvMs1_NtCscKpcHOujJ8r_8lifetime13target_fuzz__NtBb_4Args13auto_generatesa_0ppEpINtB5_s4_12AutoFallbackpE4autoBd_
FN:85,_RNvMsb_NvMs1_NtCscKpcHOujJ8r_8lifetime13target_fuzz__NtBb_4Args13auto_generateINtB5_s4_4AutoINtNtCs3XFJfFEDSOQ_4core6marker11PhantomDataRuEE4autoBd_
FN:76,_RNvXNvMs1_NtCscKpcHOujJ8r_8lifetime13target_fuzz__NtB8_4Args13auto_generateINtB2_4AutoNtBa_3BarEINtB2_12AutoFallbackB1m_E4autoBa_
FN:76,_RNvXs0_NvMs1_NtCscKpcHOujJ8r_8lifetime13target_fuzz__NtBb_4Args13auto_generateINtB5_s_4AutoNtBd_3BarEINtB5_s_12AutoFallbackB1r_E4autoBd_
FN:76,_RNvXs2_NvMs1_NtCscKpcHOujJ8r_8lifetime13target_fuzz__NtBb_4Args13auto_generateINtB5_s0_4AutoNtBd_3BarEINtB5_s0_12AutoFallbackB1s_E4autoBd_
FN:76,_RNvXs4_NvMs1_NtCscKpcHOujJ8r_8lifetime13target_fuzz__NtBb_4Args13auto_generateINtB5_s1_4AutoNtBd_3BarEINtB5_s1_12AutoFallbackB1s_E4autoBd_
FN:76,_RNvXs6_NvMs1_NtCscKpcHOujJ8r_8lifetime13target_fuzz__NtBb_4Args13auto_generateINtB5_s2_4AutoNtBd_3BarEINtB5_s2_12AutoFallbackB1s_E4autoBd_
FN:76,_RNvXs8_NvMs1_NtCscKpcHOujJ8r_8lifetime13target_fuzz__NtBb_4Args13auto_generateINtB5_s3_4AutoINtNtCs3XFJfFEDSOQ_4core6marker11PhantomDataRuEEINtB5_s3_12AutoFallbackB1s_E4autoBd_
FN:76,_RNvXsc_NvMs1_NtCscKpcHOujJ8r_8lifetime13target_fuzz__NtBb_4Args13auto_generateINtB5_s5_4AutoINtNtCs3XFJfFEDSOQ_4core6marker11PhantomDataRuEEINtB5_s5_12AutoFallbackB1s_E4autoBd_
FN:76,_RNvXse_NvMs1_NtCscKpcHOujJ8r_8lifetime13target_fuzz__NtBb_4Args13auto_generateINtB5_s6_4AutoINtNtCs3XFJfFEDSOQ_4core6marker11PhantomDataRuEEINtB5_s6_12AutoFallbackB1s_E4autoBd_
FN:76,_RNvXsg_NvMs1_NtCscKpcHOujJ8r_8lifetime13target_fuzz__NtBb_4Args13auto_generateINtB5_s7_4AutoINtNtCs3XFJfFEDSOQ_4core6marker11PhantomDataRuEEINtB5_s7_12AutoFallbackB1s_E4autoBd_
FN:85,_RNvMs1_NvMs1_NtCsfrdtDoCOCG_11manual_leak23wrapped_key_dump_fuzz__NtBb_4Args13auto_generateINtB5_s_4AutopE4autoBd_
FN:85,_RNvMs3_NvMs1_NtCsfrdtDoCOCG_11manual_leak23wrapped_key_dump_fuzz__NtBb_4Args13auto_generateINtB5_s0_4AutopE4autoBd_
FN:85,_RNvMs5_NvMs1_NtCsfrdtDoCOCG_11manual_leak23wrapped_key_dump_fuzz__NtBb_4Args13auto_generateINtB5_s1_4AutopE4autoBd_
FN:85,_RNvMs7_NvMs1_NtCsfrdtDoCOCG_11manual_leak23wrapped_key_dump_fuzz__NtBb_4Args13auto_generateINtB5_s2_4AutopE4autoBd_
FN:85,_RNvMs9_NvMs1_NtCsfrdtDoCOCG_11manual_leak23wrapped_key_dump_fuzz__NtBb_4Args13auto_generateINtB5_s3_4AutopE4autoBd_
FN:85,_RNvMs_NvMs1_NtCsfrdtDoCOCG_11manual_leak23wrapped_key_dump_fuzz__NtBa_4Args13auto_generateINtB4_4AutopE4autoBc_
FN:85,_RNvMsd_NvMs1_NtCsfrdtDoCOCG_11manual_leak23wrapped_key_dump_fuzz__NtBb_4Args13auto_generateINtB5_s5_4AutopE4autoBd_
FN:85,_RNvMsf_NvMs1_NtCsfrdtDoCOCG_11manual_leak23wrapped_key_dump_fuzz__NtBb_4Args13auto_generateINtB5_s6_4AutopE4autoBd_
FN:85,_RNvMsh_NvMs1_NtCsfrdtDoCOCG_11manual_leak23wrapped_key_dump_fuzz__NtBb_4Args13auto_generateINtB5_s7_4AutopE4autoBd_
FN:76,_RNvXININvMs1_NtCsfrdtDoCOCG_11manual_leak23wrapped_key_dump_fuzz__NtBb_4Args13auto_generatesa_0ppEpINtB5_s4_12AutoFallbackpE4autoBd_
FN:178,_RINvCsavtZ3NIYN9z_17test_fuzz_runtime10write_argsNtNvNtCsfrdtDoCOCG_11manual_leak23wrapped_key_dump_fuzz__10write_args4ArgsEBR_
FN:172,_RINvCsavtZ3NIYN9z_17test_fuzz_runtime18write_generic_argsNtNtCsfrdtDoCOCG_11manual_leak23wrapped_key_dump_fuzz__4ArgsEBX_
FN:166,_RINvCsavtZ3NIYN9z_17test_fuzz_runtime23write_impl_generic_argsNtNtCsfrdtDoCOCG_11manual_leak23wrapped_key_dump_fuzz__4ArgsEB12_
FN:194,_RINvCsavtZ3NIYN9z_17test_fuzz_runtime9read_argsNtNvMNtCsfrdtDoCOCG_11manual_leak23wrapped_key_dump_fuzz__INtBO_11UsingReaderpE9read_args4ArgsNtNtNtCsHIej2QEFI5_3std2io5stdio5StdinEBQ_
FN:58,_RINvMs0_CsavtZ3NIYN9z_17test_fuzz_runtimeINtB6_8TryDebugNtCsfrdtDoCOCG_11manual_leak10WrappedKeyE5applyuEBU_
FN:58,_RINvMs0_CsavtZ3NIYN9z_17test_fuzz_runtimeINtB6_8TryDebuguE5applyuECsfrdtDoCOCG_11manual_leak
FN:85,_RNvMsb_NvMs1_NtCsfrdtDoCOCG_11manual_leak23wrapped_key_dump_fuzz__NtBb_4Args13auto_generateINtB5_s4_4AutoINtNtCs3XFJfFEDSOQ_4core6marker11PhantomDataRuEE4autoBd_
FN:76,_RNvXNvMs1_NtCsfrdtDoCOCG_11manual_leak23wrapped_key_dump_fuzz__NtB8_4Args13auto_generateINtB2_4AutoNtBa_10WrappedKeyEINtB2_12AutoFallbackB1z_E4autoBa_
FN:76,_RNvXs0_NvMs1_NtCsfrdtDoCOCG_11manual_leak23wrapped_key_dump_fuzz__NtBb_4Args13auto_generateINtB5_s_4AutoNtBd_10WrappedKeyEINtB5_s_12AutoFallbackB1E_E4autoBd_
FN:76,_RNvXs2_NvMs1_NtCsfrdtDoCOCG_11manual_leak23wrapped_key_dump_fuzz__NtBb_4Args13auto_generateINtB5_s0_4AutoNtBd_10WrappedKeyEINtB5_s0_12AutoFallbackB1F_E4autoBd_
FN:76,_RNvXs4_NvMs1_NtCsfrdtDoCOCG_11manual_leak23wrapped_key_dump_fuzz__NtBb_4Args13auto_generateINtB5_s1_4AutoNtBd_10WrappedKeyEINtB5_s1_12AutoFallbackB1F_E4autoBd_
FN:76,_RNvXs6_NvMs1_NtCsfrdtDoCOCG_11manual_leak23wrapped_key_dump_fuzz__NtBb_4Args13auto_generateINtB5_s2_4AutoNtBd_10WrappedKeyEINtB5_s2_12AutoFallbackB1F_E4autoBd_
FN:76,_RNvXs8_NvMs1_NtCsfrdtDoCOCG_11manual_leak23wrapped_key_dump_fuzz__NtBb_4Args13auto_generateINtB5_s3_4AutoINtNtCs3XFJfFEDSOQ_4core6marker11PhantomDataRuEEINtB5_s3_12AutoFallbackB1F_E4autoBd_
FN:76,_RNvXsc_NvMs1_NtCsfrdtDoCOCG_11manual_leak23wrapped_key_dump_fuzz__NtBb_4Args13auto_generateINtB5_s5_4AutoINtNtCs3XFJfFEDSOQ_4core6marker11PhantomDataRuEEINtB5_s5_12AutoFallbackB1F_E4autoBd_
FN:76,_RNvXse_NvMs1_NtCsfrdtDoCOCG_11manual_leak23wrapped_key_dump_fuzz__NtBb_4Args13auto_generateINtB5_s6_4AutoINtNtCs3XFJfFEDSOQ_4core6marker11PhantomDataRuEEINtB5_s6_12AutoFallbackB1F_E4autoBd_
FN:76,_RNvXsg_NvMs1_NtCsfrdtDoCOCG_11manual_leak23wrapped_key_dump_fuzz__NtBb_4Args13auto_generateINtB5_s7_4AutoINtNtCs3XFJfFEDSOQ_4core6marker11PhantomDataRuEEINtB5_s7_12AutoFallbackB1F_E4autoBd_
FN:178,_RINvCsavtZ3NIYN9z_17test_fuzz_runtime10write_argsNtNvNtCsdWpqmKI707b_7mut_ref17target_str_fuzz__10write_args4ArgsEBR_
FN:178,_RINvCsavtZ3NIYN9z_17test_fuzz_runtime10write_argsNtNvNtCsdWpqmKI707b_7mut_ref19target_slice_fuzz__10write_args4ArgsEBR_
FN:172,_RINvCsavtZ3NIYN9z_17test_fuzz_runtime18write_generic_argsNtNtCsdWpqmKI707b_7mut_ref17target_str_fuzz__4ArgsEBX_
FN:172,_RINvCsavtZ3NIYN9z_17test_fuzz_runtime18write_generic_argsNtNtCsdWpqmKI707b_7mut_ref19target_slice_fuzz__4ArgsEBX_
FN:166,_RINvCsavtZ3NIYN9z_17test_fuzz_runtime23write_impl_generic_argsNtNtCsdWpqmKI707b_7mut_ref17target_str_fuzz__4ArgsEB12_
FN:166,_RINvCsavtZ3NIYN9z_17test_fuzz_runtime23write_impl_generic_argsNtNtCsdWpqmKI707b_7mut_ref19target_slice_fuzz__4ArgsEB12_
FN:194,_RINvCsavtZ3NIYN9z_17test_fuzz_runtime9read_argsNtNvMNtCsdWpqmKI707b_7mut_ref17target_str_fuzz__INtBO_11UsingReaderpE9read_args4ArgsNtNtNtCsHIej2QEFI5_3std2io5stdio5StdinEBQ_
FN:194,_RINvCsavtZ3NIYN9z_17test_fuzz_runtime9read_argsNtNvMNtCsdWpqmKI707b_7mut_ref19target_slice_fuzz__INtBO_11UsingReaderpE9read_args4ArgsNtNtNtCsHIej2QEFI5_3std2io5stdio5StdinEBQ_
FN:58,_RINvMs0_CsavtZ3NIYN9z_17test_fuzz_runtimeINtB6_8TryDebugINtNtCsgag4BwXrjBQ_5alloc3vec3VechEE5applyuECsdWpqmKI707b_7mut_ref
FN:58,_RINvMs0_CsavtZ3NIYN9z_17test_fuzz_runtimeINtB6_8TryDebugNtNtCsgag4BwXrjBQ_5alloc6string6StringE5applyuECsdWpqmKI707b_7mut_ref
FN:58,_RINvMs0_CsavtZ3NIYN9z_17test_fuzz_runtimeINtB6_8TryDebuguE5applyuECsdWpqmKI707b_7mut_ref
FN:85,_RNvMs1_NvMs1_NtCsdWpqmKI707b_7mut_ref19target_slice_fuzz__NtBb_4Args13auto_generateINtB5_s_4AutoINtNtCsgag4BwXrjBQ_5alloc3vec3VechEE4autoBd_
FN:76,_RNvXNvMs1_NtCsdWpqmKI707b_7mut_ref19target_slice_fuzz__NtB8_4Args13auto_generateINtB2_4AutoINtNtCsgag4BwXrjBQ_5alloc3vec3VechEEINtB2_12AutoFallbackB1r_E4autoBa_
FN:76,_RNvXs2_NvMs1_NtCsdWpqmKI707b_7mut_ref19target_slice_fuzz__NtBb_4Args13auto_generateINtB5_s0_4AutoINtNtCsgag4BwXrjBQ_5alloc3vec3VechEEINtB5_s0_12AutoFallbackB1x_E4autoBd_
FN:76,_RNvXs4_NvMs1_NtCsdWpqmKI707b_7mut_ref19target_slice_fuzz__NtBb_4Args13auto_generateINtB5_s1_4AutoINtNtCsgag4BwXrjBQ_5alloc3vec3VechEEINtB5_s1_12AutoFallbackB1x_E4autoBd_
FN:76,_RNvXs6_NvMs1_NtCsdWpqmKI707b_7mut_ref19target_slice_fuzz__NtBb_4Args13auto_generateINtB5_s2_4AutoINtNtCsgag4BwXrjBQ_5alloc3vec3VechEEINtB5_s2_12AutoFallbackB1x_E4autoBd_
FN:85,_RNvMs3_NvMs1_NtCsdWpqmKI707b_7mut_ref17target_str_fuzz__NtBb_4Args13auto_generateINtB5_s0_4AutopE4autoBd_
FN:85,_RNvMs3_NvMs1_NtCsdWpqmKI707b_7mut_ref19target_slice_fuzz__NtBb_4Args13auto_generateINtB5_s0_4AutopE4autoBd_
FN:85,_RNvMs5_NvMs1_NtCsdWpqmKI707b_7mut_ref17target_str_fuzz__NtBb_4Args13auto_generateINtB5_s1_4AutopE4autoBd_
FN:85,_RNvMs5_NvMs1_NtCsdWpqmKI707b_7mut_ref19target_slice_fuzz__NtBb_4Args13auto_generateINtB5_s1_4AutopE4autoBd_
FN:85,_RNvMs7_NvMs1_NtCsdWpqmKI707b_7mut_ref17target_str_fuzz__NtBb_4Args13auto_generateINtB5_s2_4AutopE4autoBd_
FN:85,_RNvMs7_NvMs1_NtCsdWpqmKI707b_7mut_ref19target_slice_fuzz__NtBb_4Args13auto_generateINtB5_s2_4AutopE4autoBd_
FN:85,_RNvMs_NvMs1_NtCsdWpqmKI707b_7mut_ref17target_str_fuzz__NtBa_4Args13auto_generateINtB4_4AutopE4autoBc_
FN:85,_RNvMs_NvMs1_NtCsdWpqmKI707b_7mut_ref19target_slice_fuzz__NtBa_4Args13auto_generateINtB4_4AutopE4autoBc_
FN:76,_RNvXININvMs1_NtCsdWpqmKI707b_7mut_ref17target_str_fuzz__NtBb_4Args13auto_generates0_0ppEpINtB5_s_12AutoFallbackpE4autoBd_
FN:76,_RNvXININvMs1_NtCsdWpqmKI707b_7mut_ref19target_slice_fuzz__NtBb_4Args13auto_generates0_0ppEpINtB5_s_12AutoFallbackpE4autoBd_
FN:85,_RNvMs1_NvMs1_NtCsdWpqmKI707b_7mut_ref17target_str_fuzz__NtBb_4Args13auto_generateINtB5_s_4AutoNtNtCsgag4BwXrjBQ_5alloc6string6StringE4autoBd_
FN:76,_RNvXNvMs1_NtCsdWpqmKI707b_7mut_ref17target_str_fuzz__NtB8_4Args13auto_generateINtB2_4AutoNtNtCsgag4BwXrjBQ_5alloc6string6StringEINtB2_12AutoFallbackB1p_E4autoBa_
FN:76,_RNvXs2_NvMs1_NtCsdWpqmKI707b_7mut_ref17target_str_fuzz__NtBb_4Args13auto_generateINtB5_s0_4AutoNtNtCsgag4BwXrjBQ_5alloc6string6StringEINtB5_s0_12AutoFallbackB1v_E4autoBd_
FN:76,_RNvXs4_NvMs1_NtCsdWpqmKI707b_7mut_ref17target_str_fuzz__NtBb_4Args13auto_generateINtB5_s1_4AutoNtNtCsgag4BwXrjBQ_5alloc6string6StringEINtB5_s1_12AutoFallbackB1v_E4autoBd_
FN:76,_RNvXs6_NvMs1_NtCsdWpqmKI707b_7mut_ref17target_str_fuzz__NtBb_4Args13auto_generateINtB5_s2_4AutoNtNtCsgag4BwXrjBQ_5alloc6string6StringEINtB5_s2_12AutoFallbackB1v_E4autoBd_
FN:85,_RNvMs1_NvMs1_NtCs2MoilIs07Sx_8parallel15target_0_fuzz__NtBb_4Args13auto_generateINtB5_s_4AutobE4autoBd_
FN:76,_RNvXNvMs1_NtCs2MoilIs07Sx_8parallel15target_0_fuzz__NtB8_4Args13auto_generateINtB2_4AutobEINtB2_12AutoFallbackbE4autoBa_
FN:76,_RNvXs2_NvMs1_NtCs2MoilIs07Sx_8parallel15target_0_fuzz__NtBb_4Args13auto_generateINtB5_s0_4AutobEINtB5_s0_12AutoFallbackbE4autoBd_
FN:76,_RNvXs4_NvMs1_NtCs2MoilIs07Sx_8parallel15target_0_fuzz__NtBb_4Args13auto_generateINtB5_s1_4AutobEINtB5_s1_12AutoFallbackbE4autoBd_
FN:76,_RNvXs6_NvMs1_NtCs2MoilIs07Sx_8parallel15target_0_fuzz__NtBb_4Args13auto_generateINtB5_s2_4AutobEINtB5_s2_12AutoFallbackbE4autoBd_
FN:85,_RNvMs3_NvMs1_NtCs2MoilIs07Sx_8parallel15target_0_fuzz__NtBb_4Args13auto_generateINtB5_s0_4AutopE4autoBd_
FN:85,_RNvMs3_NvMs1_NtCs2MoilIs07Sx_8parallel15target_1_fuzz__NtBb_4Args13auto_generateINtB5_s0_4AutopE4autoBd_
FN:85,_RNvMs3_NvMs1_NtCs2MoilIs07Sx_8parallel15target_2_fuzz__NtBb_4Args13auto_generateINtB5_s0_4AutopE4autoBd_
FN:85,_RNvMs3_NvMs1_NtCs2MoilIs07Sx_8parallel15target_3_fuzz__NtBb_4Args13auto_generateINtB5_s0_4AutopE4autoBd_
FN:85,_RNvMs3_NvMs1_NtCs2MoilIs07Sx_8parallel15target_4_fuzz__NtBb_4Args13auto_generateINtB5_s0_4AutopE4autoBd_
FN:85,_RNvMs3_NvMs1_NtCs2MoilIs07Sx_8parallel15target_5_fuzz__NtBb_4Args13auto_generateINtB5_s0_4AutopE4autoBd_
FN:85,_RNvMs5_NvMs1_NtCs2MoilIs07Sx_8parallel15target_0_fuzz__NtBb_4Args13auto_generateINtB5_s1_4AutopE4autoBd_
FN:85,_RNvMs5_NvMs1_NtCs2MoilIs07Sx_8parallel15target_1_fuzz__NtBb_4Args13auto_generateINtB5_s1_4AutopE4autoBd_
FN:85,_RNvMs5_NvMs1_NtCs2MoilIs07Sx_8parallel15target_2_fuzz__NtBb_4Args13auto_generateINtB5_s1_4AutopE4autoBd_
FN:85,_RNvMs5_NvMs1_NtCs2MoilIs07Sx_8parallel15target_3_fuzz__NtBb_4Args13auto_generateINtB5_s1_4AutopE4autoBd_
FN:85,_RNvMs5_NvMs1_NtCs2MoilIs07Sx_8parallel15target_4_fuzz__NtBb_4Args13auto_generateINtB5_s1_4AutopE4autoBd_
FN:85,_RNvMs5_NvMs1_NtCs2MoilIs07Sx_8parallel15target_5_fuzz__NtBb_4Args13auto_generateINtB5_s1_4AutopE4autoBd_
FN:85,_RNvMs7_NvMs1_NtCs2MoilIs07Sx_8parallel15target_0_fuzz__NtBb_4Args13auto_generateINtB5_s2_4AutopE4autoBd_
FN:85,_RNvMs7_NvMs1_NtCs2MoilIs07Sx_8parallel15target_1_fuzz__NtBb_4Args13auto_generateINtB5_s2_4AutopE4autoBd_
FN:85,_RNvMs7_NvMs1_NtCs2MoilIs07Sx_8parallel15target_2_fuzz__NtBb_4Args13auto_generateINtB5_s2_4AutopE4autoBd_
FN:85,_RNvMs7_NvMs1_NtCs2MoilIs07Sx_8parallel15target_3_fuzz__NtBb_4Args13auto_generateINtB5_s2_4AutopE4autoBd_
FN:85,_RNvMs7_NvMs1_NtCs2MoilIs07Sx_8parallel15target_4_fuzz__NtBb_4Args13auto_generateINtB5_s2_4AutopE4autoBd_
FN:85,_RNvMs7_NvMs1_NtCs2MoilIs07Sx_8parallel15target_5_fuzz__NtBb_4Args13auto_generateINtB5_s2_4AutopE4autoBd_
FN:85,_RNvMs_NvMs1_NtCs2MoilIs07Sx_8parallel15target_0_fuzz__NtBa_4Args13auto_generateINtB4_4AutopE4autoBc_
FN:85,_RNvMs_NvMs1_NtCs2MoilIs07Sx_8parallel15target_1_fuzz__NtBa_4Args13auto_generateINtB4_4AutopE4autoBc_
FN:85,_RNvMs_NvMs1_NtCs2MoilIs07Sx_8parallel15target_2_fuzz__NtBa_4Args13auto_generateINtB4_4AutopE4autoBc_
FN:85,_RNvMs_NvMs1_NtCs2MoilIs07Sx_8parallel15target_3_fuzz__NtBa_4Args13auto_generateINtB4_4AutopE4autoBc_
FN:85,_RNvMs_NvMs1_NtCs2MoilIs07Sx_8parallel15target_4_fuzz__NtBa_4Args13auto_generateINtB4_4AutopE4autoBc_
FN:85,_RNvMs_NvMs1_NtCs2MoilIs07Sx_8parallel15target_5_fuzz__NtBa_4Args13auto_generateINtB4_4AutopE4autoBc_
FN:76,_RNvXININvMs1_NtCs2MoilIs07Sx_8parallel15target_0_fuzz__NtBb_4Args13auto_generates0_0ppEpINtB5_s_12AutoFallbackpE4autoBd_
FN:76,_RNvXININvMs1_NtCs2MoilIs07Sx_8parallel15target_1_fuzz__NtBb_4Args13auto_generates0_0ppEpINtB5_s_12AutoFallbackpE4autoBd_
FN:76,_RNvXININvMs1_NtCs2MoilIs07Sx_8parallel15target_2_fuzz__NtBb_4Args13auto_generates0_0ppEpINtB5_s_12AutoFallbackpE4autoBd_
FN:76,_RNvXININvMs1_NtCs2MoilIs07Sx_8parallel15target_3_fuzz__NtBb_4Args13auto_generates0_0ppEpINtB5_s_12AutoFallbackpE4autoBd_
FN:76,_RNvXININvMs1_NtCs2MoilIs07Sx_8parallel15target_4_fuzz__NtBb_4Args13auto_generates0_0ppEpINtB5_s_12AutoFallbackpE4autoBd_
FN:76,_RNvXININvMs1_NtCs2MoilIs07Sx_8parallel15target_5_fuzz__NtBb_4Args13auto_generates0_0ppEpINtB5_s_12AutoFallbackpE4autoBd_
FN:85,_RNvMs1_NvMs1_NtCs2MoilIs07Sx_8parallel15target_5_fuzz__NtBb_4Args13auto_generateINtB5_s_4AutobE4autoBd_
FN:76,_RNvXNvMs1_NtCs2MoilIs07Sx_8parallel15target_5_fuzz__NtB8_4Args13auto_generateINtB2_4AutobEINtB2_12AutoFallbackbE4autoBa_
FN:76,_RNvXs2_NvMs1_NtCs2MoilIs07Sx_8parallel15target_5_fuzz__NtBb_4Args13auto_generateINtB5_s0_4AutobEINtB5_s0_12AutoFallbackbE4autoBd_
FN:76,_RNvXs4_NvMs1_NtCs2MoilIs07Sx_8parallel15target_5_fuzz__NtBb_4Args13auto_generateINtB5_s1_4AutobEINtB5_s1_12AutoFallbackbE4autoBd_
FN:76,_RNvXs6_NvMs1_NtCs2MoilIs07Sx_8parallel15target_5_fuzz__NtBb_4Args13auto_generateINtB5_s2_4AutobEINtB5_s2_12AutoFallbackbE4autoBd_
FN:85,_RNvMs1_NvMs1_NtCs2MoilIs07Sx_8parallel15target_3_fuzz__NtBb_4Args13auto_generateINtB5_s_4AutobE4autoBd_
FN:76,_RNvXNvMs1_NtCs2MoilIs07Sx_8parallel15target_3_fuzz__NtB8_4Args13auto_generateINtB2_4AutobEINtB2_12AutoFallbackbE4autoBa_
FN:76,_RNvXs2_NvMs1_NtCs2MoilIs07Sx_8parallel15target_3_fuzz__NtBb_4Args13auto_generateINtB5_s0_4AutobEINtB5_s0_12AutoFallbackbE4autoBd_
FN:76,_RNvXs4_NvMs1_NtCs2MoilIs07Sx_8parallel15target_3_fuzz__NtBb_4Args13auto_generateINtB5_s1_4AutobEINtB5_s1_12AutoFallbackbE4autoBd_
FN:76,_RNvXs6_NvMs1_NtCs2MoilIs07Sx_8parallel15target_3_fuzz__NtBb_4Args13auto_generateINtB5_s2_4AutobEINtB5_s2_12AutoFallbackbE4autoBd_
FN:85,_RNvMs1_NvMs1_NtCs2MoilIs07Sx_8parallel15target_2_fuzz__NtBb_4Args13auto_generateINtB5_s_4AutobE4autoBd_
FN:76,_RNvXNvMs1_NtCs2MoilIs07Sx_8parallel15target_2_fuzz__NtB8_4Args13auto_generateINtB2_4AutobEINtB2_12AutoFallbackbE4autoBa_
FN:76,_RNvXs2_NvMs1_NtCs2MoilIs07Sx_8parallel15target_2_fuzz__NtBb_4Args13auto_generateINtB5_s0_4AutobEINtB5_s0_12AutoFallbackbE4autoBd_
FN:76,_RNvXs4_NvMs1_NtCs2MoilIs07Sx_8parallel15target_2_fuzz__NtBb_4Args13auto_generateINtB5_s1_4AutobEINtB5_s1_12AutoFallbackbE4autoBd_
FN:76,_RNvXs6_NvMs1_NtCs2MoilIs07Sx_8parallel15target_2_fuzz__NtBb_4Args13auto_generateINtB5_s2_4AutobEINtB5_s2_12AutoFallbackbE4autoBd_
FN:85,_RNvMs1_NvMs1_NtCs2MoilIs07Sx_8parallel15target_4_fuzz__NtBb_4Args13auto_generateINtB5_s_4AutobE4autoBd_
FN:76,_RNvXNvMs1_NtCs2MoilIs07Sx_8parallel15target_4_fuzz__NtB8_4Args13auto_generateINtB2_4AutobEINtB2_12AutoFallbackbE4autoBa_
FN:76,_RNvXs2_NvMs1_NtCs2MoilIs07Sx_8parallel15target_4_fuzz__NtBb_4Args13auto_generateINtB5_s0_4AutobEINtB5_s0_12AutoFallbackbE4autoBd_
FN:76,_RNvXs4_NvMs1_NtCs2MoilIs07Sx_8parallel15target_4_fuzz__NtBb_4Args13auto_generateINtB5_s1_4AutobEINtB5_s1_12AutoFallbackbE4autoBd_
FN:76,_RNvXs6_NvMs1_NtCs2MoilIs07Sx_8parallel15target_4_fuzz__NtBb_4Args13auto_generateINtB5_s2_4AutobEINtB5_s2_12AutoFallbackbE4autoBd_
FN:85,_RNvMs1_NvMs1_NtCs2MoilIs07Sx_8parallel15target_1_fuzz__NtBb_4Args13auto_generateINtB5_s_4AutobE4autoBd_
FN:76,_RNvXNvMs1_NtCs2MoilIs07Sx_8parallel15target_1_fuzz__NtB8_4Args13auto_generateINtB2_4AutobEINtB2_12AutoFallbackbE4autoBa_
FN:76,_RNvXs2_NvMs1_NtCs2MoilIs07Sx_8parallel15target_1_fuzz__NtBb_4Args13auto_generateINtB5_s0_4AutobEINtB5_s0_12AutoFallbackbE4autoBd_
FN:76,_RNvXs4_NvMs1_NtCs2MoilIs07Sx_8parallel15target_1_fuzz__NtBb_4Args13auto_generateINtB5_s1_4AutobEINtB5_s1_12AutoFallbackbE4autoBd_
FN:76,_RNvXs6_NvMs1_NtCs2MoilIs07Sx_8parallel15target_1_fuzz__NtBb_4Args13auto_generateINtB5_s2_4AutobEINtB5_s2_12AutoFallbackbE4autoBd_
FN:178,_RINvCsavtZ3NIYN9z_17test_fuzz_runtime10write_argsNtNvNtCs2MoilIs07Sx_8parallel15target_0_fuzz__10write_args4ArgsEBR_
FN:178,_RINvCsavtZ3NIYN9z_17test_fuzz_runtime10write_argsNtNvNtCs2MoilIs07Sx_8parallel15target_1_fuzz__10write_args4ArgsEBR_
FN:178,_RINvCsavtZ3NIYN9z_17test_fuzz_runtime10write_argsNtNvNtCs2MoilIs07Sx_8parallel15target_2_fuzz__10write_args4ArgsEBR_
FN:178,_RINvCsavtZ3NIYN9z_17test_fuzz_runtime10write_argsNtNvNtCs2MoilIs07Sx_8parallel15target_3_fuzz__10write_args4ArgsEBR_
FN:178,_RINvCsavtZ3NIYN9z_17test_fuzz_runtime10write_argsNtNvNtCs2MoilIs07Sx_8parallel15target_4_fuzz__10write_args4ArgsEBR_
FN:178,_RINvCsavtZ3NIYN9z_17test_fuzz_runtime10write_argsNtNvNtCs2MoilIs07Sx_8parallel15target_5_fuzz__10write_args4ArgsEBR_
FN:172,_RINvCsavtZ3NIYN9z_17test_fuzz_runtime18write_generic_argsNtNtCs2MoilIs07Sx_8parallel15target_0_fuzz__4ArgsEBX_
FN:172,_RINvCsavtZ3NIYN9z_17test_fuzz_runtime18write_generic_argsNtNtCs2MoilIs07Sx_8parallel15target_1_fuzz__4ArgsEBX_
FN:172,_RINvCsavtZ3NIYN9z_17test_fuzz_runtime18write_generic_argsNtNtCs2MoilIs07Sx_8parallel15target_2_fuzz__4ArgsEBX_
FN:172,_RINvCsavtZ3NIYN9z_17test_fuzz_runtime18write_generic_argsNtNtCs2MoilIs07Sx_8parallel15target_3_fuzz__4ArgsEBX_
FN:172,_RINvCsavtZ3NIYN9z_17test_fuzz_runtime18write_generic_argsNtNtCs2MoilIs07Sx_8parallel15target_4_fuzz__4ArgsEBX_
FN:172,_RINvCsavtZ3NIYN9z_17test_fuzz_runtime18write_generic_argsNtNtCs2MoilIs07Sx_8parallel15target_5_fuzz__4ArgsEBX_
FN:166,_RINvCsavtZ3NIYN9z_17test_fuzz_runtime23write_impl_generic_argsNtNtCs2MoilIs07Sx_8parallel15target_0_fuzz__4ArgsEB12_
FN:166,_RINvCsavtZ3NIYN9z_17test_fuzz_runtime23write_impl_generic_argsNtNtCs2MoilIs07Sx_8parallel15target_1_fuzz__4ArgsEB12_
FN:166,_RINvCsavtZ3NIYN9z_17test_fuzz_runtime23write_impl_generic_argsNtNtCs2MoilIs07Sx_8parallel15target_2_fuzz__4ArgsEB12_
FN:166,_RINvCsavtZ3NIYN9z_17test_fuzz_runtime23write_impl_generic_argsNtNtCs2MoilIs07Sx_8parallel15target_3_fuzz__4ArgsEB12_
FN:166,_RINvCsavtZ3NIYN9z_17test_fuzz_runtime23write_impl_generic_argsNtNtCs2MoilIs07Sx_8parallel15target_4_fuzz__4ArgsEB12_
FN:166,_RINvCsavtZ3NIYN9z_17test_fuzz_runtime23write_impl_generic_argsNtNtCs2MoilIs07Sx_8parallel15target_5_fuzz__4ArgsEB12_
FN:194,_RINvCsavtZ3NIYN9z_17test_fuzz_runtime9read_argsNtNvMNtCs2MoilIs07Sx_8parallel15target_0_fuzz__INtBO_11UsingReaderpE9read_args4ArgsNtNtNtCsHIej2QEFI5_3std2io5stdio5StdinEBQ_
FN:194,_RINvCsavtZ3NIYN9z_17test_fuzz_runtime9read_argsNtNvMNtCs2MoilIs07Sx_8parallel15target_1_fuzz__INtBO_11UsingReaderpE9read_args4ArgsNtNtNtCsHIej2QEFI5_3std2io5stdio5StdinEBQ_
FN:194,_RINvCsavtZ3NIYN9z_17test_fuzz_runtime9read_argsNtNvMNtCs2MoilIs07Sx_8parallel15target_2_fuzz__INtBO_11UsingReaderpE9read_args4ArgsNtNtNtCsHIej2QEFI5_3std2io5stdio5StdinEBQ_
FN:194,_RINvCsavtZ3NIYN9z_17test_fuzz_runtime9read_argsNtNvMNtCs2MoilIs07Sx_8parallel15target_3_fuzz__INtBO_11UsingReaderpE9read_args4ArgsNtNtNtCsHIej2QEFI5_3std2io5stdio5StdinEBQ_
FN:194,_RINvCsavtZ3NIYN9z_17test_fuzz_runtime9read_argsNtNvMNtCs2MoilIs07Sx_8parallel15target_4_fuzz__INtBO_11UsingReaderpE9read_args4ArgsNtNtNtCsHIej2QEFI5_3std2io5stdio5StdinEBQ_
FN:194,_RINvCsavtZ3NIYN9z_17test_fuzz_runtime9read_argsNtNvMNtCs2MoilIs07Sx_8parallel15target_5_fuzz__INtBO_11UsingReaderpE9read_args4ArgsNtNtNtCsHIej2QEFI5_3std2io5stdio5StdinEBQ_
FN:58,_RINvMs0_CsavtZ3NIYN9z_17test_fuzz_runtimeINtB6_8TryDebugbE5applyuECs2MoilIs07Sx_8parallel
FN:58,_RINvMs0_CsavtZ3NIYN9z_17test_fuzz_runtimeINtB6_8TryDebuguE5applyuECs2MoilIs07Sx_8parallel
FN:85,_RNvMs1_NvMs1_NtCsiULhbWZWKqL_14parse_duration12parse_fuzz__NtBb_4Args13auto_generateINtB5_s_4AutoNtNtCsgag4BwXrjBQ_5alloc6string6StringE4autoBd_
FN:76,_RNvXNvMs1_NtCsiULhbWZWKqL_14parse_duration12parse_fuzz__NtB8_4Args13auto_generateINtB2_4AutoNtNtCsgag4BwXrjBQ_5alloc6string6StringEINtB2_12AutoFallbackB1s_E4autoBa_
FN:76,_RNvXs2_NvMs1_NtCsiULhbWZWKqL_14parse_duration12parse_fuzz__NtBb_4Args13auto_generateINtB5_s0_4AutoNtNtCsgag4BwXrjBQ_5alloc6string6StringEINtB5_s0_12AutoFallbackB1y_E4autoBd_
FN:76,_RNvXs4_NvMs1_NtCsiULhbWZWKqL_14parse_duration12parse_fuzz__NtBb_4Args13auto_generateINtB5_s1_4AutoNtNtCsgag4BwXrjBQ_5alloc6string6StringEINtB5_s1_12AutoFallbackB1y_E4autoBd_
FN:76,_RNvXs6_NvMs1_NtCsiULhbWZWKqL_14parse_duration12parse_fuzz__NtBb_4Args13auto_generateINtB5_s2_4AutoNtNtCsgag4BwXrjBQ_5alloc6string6StringEINtB5_s2_12AutoFallbackB1y_E4autoBd_
FN:85,_RNvMs3_NvMs1_NtCsiULhbWZWKqL_14parse_duration12parse_fuzz__NtBb_4Args13auto_generateINtB5_s0_4AutopE4autoBd_
FN:85,_RNvMs5_NvMs1_NtCsiULhbWZWKqL_14parse_duration12parse_fuzz__NtBb_4Args13auto_generateINtB5_s1_4AutopE4autoBd_
FN:85,_RNvMs7_NvMs1_NtCsiULhbWZWKqL_14parse_duration12parse_fuzz__NtBb_4Args13auto_generateINtB5_s2_4AutopE4autoBd_
FN:85,_RNvMs_NvMs1_NtCsiULhbWZWKqL_14parse_duration12parse_fuzz__NtBa_4Args13auto_generateINtB4_4AutopE4autoBc_
FN:76,_RNvXININvMs1_NtCsiULhbWZWKqL_14parse_duration12parse_fuzz__NtBb_4Args13auto_generates0_0ppEpINtB5_s_12AutoFallbackpE4autoBd_
FN:178,_RINvCsavtZ3NIYN9z_17test_fuzz_runtime10write_argsNtNvNtCsiULhbWZWKqL_14parse_duration12parse_fuzz__10write_args4ArgsEBR_
FN:172,_RINvCsavtZ3NIYN9z_17test_fuzz_runtime18write_generic_argsNtNtCsiULhbWZWKqL_14parse_duration12parse_fuzz__4ArgsEBX_
FN:166,_RINvCsavtZ3NIYN9z_17test_fuzz_runtime23write_impl_generic_argsNtNtCsiULhbWZWKqL_14parse_duration12parse_fuzz__4ArgsEB12_
FN:194,_RINvCsavtZ3NIYN9z_17test_fuzz_runtime9read_argsNtNvMNtCsiULhbWZWKqL_14parse_duration12parse_fuzz__INtBO_11UsingReaderpE9read_args4ArgsNtNtNtCsHIej2QEFI5_3std2io5stdio5StdinEBQ_
FN:58,_RINvMs0_CsavtZ3NIYN9z_17test_fuzz_runtimeINtB6_8TryDebugINtNtCs3XFJfFEDSOQ_4core6result6ResultNtNtBX_4time8DurationNtNtCs3mYhVbIHfbi_14parse_duration5parse5ErrorEE5applyuECsiULhbWZWKqL_14parse_duration
FN:58,_RINvMs0_CsavtZ3NIYN9z_17test_fuzz_runtimeINtB6_8TryDebugNtNtCsgag4BwXrjBQ_5alloc6string6StringE5applyuECsiULhbWZWKqL_14parse_duration
FN:178,_RINvCsavtZ3NIYN9z_17test_fuzz_runtime10write_argsNtNvNtCs82vfgwK5nMf_7profile13target_fuzz__10write_args4ArgsEBR_
FN:172,_RINvCsavtZ3NIYN9z_17test_fuzz_runtime18write_generic_argsNtNtCs82vfgwK5nMf_7profile13target_fuzz__4ArgsEBX_
FN:166,_RINvCsavtZ3NIYN9z_17test_fuzz_runtime23write_impl_generic_argsNtNtCs82vfgwK5nMf_7profile13target_fuzz__4ArgsEB12_
FN:194,_RINvCsavtZ3NIYN9z_17test_fuzz_runtime9read_argsNtNvMNtCs82vfgwK5nMf_7profile13target_fuzz__INtBO_11UsingReaderpE9read_args4ArgsNtNtNtCsHIej2QEFI5_3std2io5stdio5StdinEBQ_
FN:58,_RINvMs0_CsavtZ3NIYN9z_17test_fuzz_runtimeINtB6_8TryDebugbE5applyuECs82vfgwK5nMf_7profile
FN:58,_RINvMs0_CsavtZ3NIYN9z_17test_fuzz_runtimeINtB6_8TryDebuguE5applyuECs82vfgwK5nMf_7profile
FN:85,_RNvMs3_NvMs1_NtCs82vfgwK5nMf_7profile13target_fuzz__NtBb_4Args13auto_generateINtB5_s0_4AutopE4autoBd_
FN:85,_RNvMs5_NvMs1_NtCs82vfgwK5nMf_7profile13target_fuzz__NtBb_4Args13auto_generateINtB5_s1_4AutopE4autoBd_
FN:85,_RNvMs7_NvMs1_NtCs82vfgwK5nMf_7profile13target_fuzz__NtBb_4Args13auto_generateINtB5_s2_4AutopE4autoBd_
FN:85,_RNvMs_NvMs1_NtCs82vfgwK5nMf_7profile13target_fuzz__NtBa_4Args13auto_generateINtB4_4AutopE4autoBc_
FN:76,_RNvXININvMs1_NtCs82vfgwK5nMf_7profile13target_fuzz__NtBb_4Args13auto_generates0_0ppEpINtB5_s_12AutoFallbackpE4autoBd_
FN:85,_RNvMs1_NvMs1_NtCs82vfgwK5nMf_7profile13target_fuzz__NtBb_4Args13auto_generateINtB5_s_4AutobE4autoBd_
FN:76,_RNvXNvMs1_NtCs82vfgwK5nMf_7profile13target_fuzz__NtB8_4Args13auto_generateINtB2_4AutobEINtB2_12AutoFallbackbE4autoBa_
FN:76,_RNvXs2_NvMs1_NtCs82vfgwK5nMf_7profile13target_fuzz__NtBb_4Args13auto_generateINtB5_s0_4AutobEINtB5_s0_12AutoFallbackbE4autoBd_
FN:76,_RNvXs4_NvMs1_NtCs82vfgwK5nMf_7profile13target_fuzz__NtBb_4Args13auto_generateINtB5_s1_4AutobEINtB5_s1_12AutoFallbackbE4autoBd_
FN:76,_RNvXs6_NvMs1_NtCs82vfgwK5nMf_7profile13target_fuzz__NtBb_4Args13auto_generateINtB5_s2_4AutobEINtB5_s2_12AutoFallbackbE4autoBd_
FN:85,_RNvMs1_NvMs1_NtCs1waMD2fLcEp_6qwerty13target_fuzz__NtBb_4Args13auto_generateINtB5_s_4AutoNtNtCsgag4BwXrjBQ_5alloc6string6StringE4autoBd_
FN:76,_RNvXNvMs1_NtCs1waMD2fLcEp_6qwerty13target_fuzz__NtB8_4Args13auto_generateINtB2_4AutoNtNtCsgag4BwXrjBQ_5alloc6string6StringEINtB2_12AutoFallbackB1k_E4autoBa_
FN:76,_RNvXs2_NvMs1_NtCs1waMD2fLcEp_6qwerty13target_fuzz__NtBb_4Args13auto_generateINtB5_s0_4AutoNtNtCsgag4BwXrjBQ_5alloc6string6StringEINtB5_s0_12AutoFallbackB1q_E4autoBd_
FN:76,_RNvXs4_NvMs1_NtCs1waMD2fLcEp_6qwerty13target_fuzz__NtBb_4Args13auto_generateINtB5_s1_4AutoNtNtCsgag4BwXrjBQ_5alloc6string6StringEINtB5_s1_12AutoFallbackB1q_E4autoBd_
FN:76,_RNvXs6_NvMs1_NtCs1waMD2fLcEp_6qwerty13target_fuzz__NtBb_4Args13auto_generateINtB5_s2_4AutoNtNtCsgag4BwXrjBQ_5alloc6string6StringEINtB5_s2_12AutoFallbackB1q_E4autoBd_
FN:178,_RINvCsafdBfAmNDM0_17test_fuzz_runtime10write_argsNtNvNtCs1waMD2fLcEp_6qwerty13target_fuzz__10write_args4ArgsEBR_
FN:172,_RINvCsafdBfAmNDM0_17test_fuzz_runtime18write_generic_argsNtNtCs1waMD2fLcEp_6qwerty13target_fuzz__4ArgsEBX_
FN:166,_RINvCsafdBfAmNDM0_17test_fuzz_runtime23write_impl_generic_argsNtNtCs1waMD2fLcEp_6qwerty13target_fuzz__4ArgsEB12_
FN:194,_RINvCsafdBfAmNDM0_17test_fuzz_runtime9read_argsNtNvMNtCs1waMD2fLcEp_6qwerty13target_fuzz__INtBO_11UsingReaderpE9read_args4ArgsNtNtNtCsHIej2QEFI5_3std2io5stdio5StdinEBQ_
FN:58,_RINvMs0_CsafdBfAmNDM0_17test_fuzz_runtimeINtB6_8TryDebugNtNtCsgag4BwXrjBQ_5alloc6string6StringE5applyuECs1waMD2fLcEp_6qwerty
FN:58,_RINvMs0_CsafdBfAmNDM0_17test_fuzz_runtimeINtB6_8TryDebuguE5applyuECs1waMD2fLcEp_6qwerty
FN:85,_RNvMs3_NvMs1_NtCs1waMD2fLcEp_6qwerty13target_fuzz__NtBb_4Args13auto_generateINtB5_s0_4AutopE4autoBd_
FN:85,_RNvMs5_NvMs1_NtCs1waMD2fLcEp_6qwerty13target_fuzz__NtBb_4Args13auto_generateINtB5_s1_4AutopE4autoBd_
FN:85,_RNvMs7_NvMs1_NtCs1waMD2fLcEp_6qwerty13target_fuzz__NtBb_4Args13auto_generateINtB5_s2_4AutopE4autoBd_
FN:85,_RNvMs_NvMs1_NtCs1waMD2fLcEp_6qwerty13target_fuzz__NtBa_4Args13auto_generateINtB4_4AutopE4autoBc_
FN:76,_RNvXININvMs1_NtCs1waMD2fLcEp_6qwerty13target_fuzz__NtBb_4Args13auto_generates0_0ppEpINtB5_s_12AutoFallbackpE4autoBd_
FN:85,_RNvMs1_NvMs1_NtCs2Uuc8eoBrFY_6qwerty13target_fuzz__NtBb_4Args13auto_generateINtB5_s_4AutoNtNtCsgag4BwXrjBQ_5alloc6string6StringE4autoBd_
FN:76,_RNvXNvMs1_NtCs2Uuc8eoBrFY_6qwerty13target_fuzz__NtB8_4Args13auto_generateINtB2_4AutoNtNtCsgag4BwXrjBQ_5alloc6string6StringEINtB2_12AutoFallbackB1k_E4autoBa_
FN:76,_RNvXs2_NvMs1_NtCs2Uuc8eoBrFY_6qwerty13target_fuzz__NtBb_4Args13auto_generateINtB5_s0_4AutoNtNtCsgag4BwXrjBQ_5alloc6string6StringEINtB5_s0_12AutoFallbackB1q_E4autoBd_
FN:76,_RNvXs4_NvMs1_NtCs2Uuc8eoBrFY_6qwerty13target_fuzz__NtBb_4Args13auto_generateINtB5_s1_4AutoNtNtCsgag4BwXrjBQ_5alloc6string6StringEINtB5_s1_12AutoFallbackB1q_E4autoBd_
FN:76,_RNvXs6_NvMs1_NtCs2Uuc8eoBrFY_6qwerty13target_fuzz__NtBb_4Args13auto_generateINtB5_s2_4AutoNtNtCsgag4BwXrjBQ_5alloc6string6StringEINtB5_s2_12AutoFallbackB1q_E4autoBd_
FN:178,_RINvCsavtZ3NIYN9z_17test_fuzz_runtime10write_argsNtNvNtCs2Uuc8eoBrFY_6qwerty13target_fuzz__10write_args4ArgsEBR_
FN:172,_RINvCsavtZ3NIYN9z_17test_fuzz_runtime18write_generic_argsNtNtCs2Uuc8eoBrFY_6qwerty13target_fuzz__4ArgsEBX_
FN:166,_RINvCsavtZ3NIYN9z_17test_fuzz_runtime23write_impl_generic_argsNtNtCs2Uuc8eoBrFY_6qwerty13target_fuzz__4ArgsEB12_
FN:194,_RINvCsavtZ3NIYN9z_17test_fuzz_runtime9read_argsNtNvMNtCs2Uuc8eoBrFY_6qwerty13target_fuzz__INtBO_11UsingReaderpE9read_args4ArgsNtNtNtCsHIej2QEFI5_3std2io5stdio5StdinEBQ_
FN:58,_RINvMs0_CsavtZ3NIYN9z_17test_fuzz_runtimeINtB6_8TryDebugNtNtCsgag4BwXrjBQ_5alloc6string6StringE5applyuECs2Uuc8eoBrFY_6qwerty
FN:58,_RINvMs0_CsavtZ3NIYN9z_17test_fuzz_runtimeINtB6_8TryDebuguE5applyuECs2Uuc8eoBrFY_6qwerty
FN:85,_RNvMs3_NvMs1_NtCs2Uuc8eoBrFY_6qwerty13target_fuzz__NtBb_4Args13auto_generateINtB5_s0_4AutopE4autoBd_
FN:85,_RNvMs5_NvMs1_NtCs2Uuc8eoBrFY_6qwerty13target_fuzz__NtBb_4Args13auto_generateINtB5_s1_4AutopE4autoBd_
FN:85,_RNvMs7_NvMs1_NtCs2Uuc8eoBrFY_6qwerty13target_fuzz__NtBb_4Args13auto_generateINtB5_s2_4AutopE4autoBd_
FN:85,_RNvMs_NvMs1_NtCs2Uuc8eoBrFY_6qwerty13target_fuzz__NtBa_4Args13auto_generateINtB4_4AutopE4autoBc_
FN:76,_RNvXININvMs1_NtCs2Uuc8eoBrFY_6qwerty13target_fuzz__NtBb_4Args13auto_generates0_0ppEpINtB5_s_12AutoFallbackpE4autoBd_
FN:178,_RINvCsavtZ3NIYN9z_17test_fuzz_runtime10write_argsNtNvNtCsfC9OA1PP7ap_6rename10bar_fuzz__10write_args4ArgsEBR_
FN:172,_RINvCsavtZ3NIYN9z_17test_fuzz_runtime18write_generic_argsNtNtCsfC9OA1PP7ap_6rename10bar_fuzz__4ArgsEBX_
FN:166,_RINvCsavtZ3NIYN9z_17test_fuzz_runtime23write_impl_generic_argsNtNtCsfC9OA1PP7ap_6rename10bar_fuzz__4ArgsEB12_
FN:194,_RINvCsavtZ3NIYN9z_17test_fuzz_runtime9read_argsNtNvMNtCsfC9OA1PP7ap_6rename10bar_fuzz__INtBO_11UsingReaderpE9read_args4ArgsNtNtNtCsHIej2QEFI5_3std2io5stdio5StdinEBQ_
FN:58,_RINvMs0_CsavtZ3NIYN9z_17test_fuzz_runtimeINtB6_8TryDebuguE5applyuECsfC9OA1PP7ap_6rename
FN:85,_RNvMsb_NvMs1_NtCs3hi3ManBPbw_11return_type16swap_swap_fuzz__INtBb_4ArgsppE13auto_generateINtB5_s4_4AutoINtNtCs3XFJfFEDSOQ_4core6marker11PhantomDatauEE4autoBd_
FN:85,_RNvMsl_NvMs1_NtCs3hi3ManBPbw_11return_type16swap_swap_fuzz__INtBb_4ArgsppE13auto_generateINtB5_s9_4AutoINtNtCs3XFJfFEDSOQ_4core6marker11PhantomDatabEE4autoBd_
FN:76,_RNvXNvMs1_NtCs3hi3ManBPbw_11return_type16swap_swap_fuzz__INtB8_4ArgsppE13auto_generateINtB2_4AutoINtBa_4SwapubEEINtB2_12AutoFallbackB1x_E4autoBa_
FN:76,_RNvXs0_NvMs1_NtCs3hi3ManBPbw_11return_type16swap_swap_fuzz__INtBb_4ArgsppE13auto_generateINtB5_s_4AutoINtBd_4SwapubEEINtB5_s_12AutoFallbackB1C_E4autoBd_
FN:76,_RNvXs2_NvMs1_NtCs3hi3ManBPbw_11return_type16swap_swap_fuzz__INtBb_4ArgsppE13auto_generateINtB5_s0_4AutoINtBd_4SwapubEEINtB5_s0_12AutoFallbackB1D_E4autoBd_
FN:76,_RNvXs4_NvMs1_NtCs3hi3ManBPbw_11return_type16swap_swap_fuzz__INtBb_4ArgsppE13auto_generateINtB5_s1_4AutoINtBd_4SwapubEEINtB5_s1_12AutoFallbackB1D_E4autoBd_
FN:76,_RNvXs6_NvMs1_NtCs3hi3ManBPbw_11return_type16swap_swap_fuzz__INtBb_4ArgsppE13auto_generateINtB5_s2_4AutoINtBd_4SwapubEEINtB5_s2_12AutoFallbackB1D_E4autoBd_
FN:76,_RNvXs8_NvMs1_NtCs3hi3ManBPbw_11return_type16swap_swap_fuzz__INtBb_4ArgsppE13auto_generateINtB5_s3_4AutoINtNtCs3XFJfFEDSOQ_4core6marker11PhantomDatauEEINtB5_s3_12AutoFallbackB1D_E4autoBd_
FN:76,_RNvXsc_NvMs1_NtCs3hi3ManBPbw_11return_type16swap_swap_fuzz__INtBb_4ArgsppE13auto_generateINtB5_s5_4AutoINtNtCs3XFJfFEDSOQ_4core6marker11PhantomDatauEEINtB5_s5_12AutoFallbackB1D_E4autoBd_
FN:76,_RNvXse_NvMs1_NtCs3hi3ManBPbw_11return_type16swap_swap_fuzz__INtBb_4ArgsppE13auto_generateINtB5_s6_4AutoINtNtCs3XFJfFEDSOQ_4core6marker11PhantomDatauEEINtB5_s6_12AutoFallbackB1D_E4autoBd_
FN:76,_RNvXsg_NvMs1_NtCs3hi3ManBPbw_11return_type16swap_swap_fuzz__INtBb_4ArgsppE13auto_generateINtB5_s7_4AutoINtNtCs3XFJfFEDSOQ_4core6marker11PhantomDatauEEINtB5_s7_12AutoFallbackB1D_E4autoBd_
FN:76,_RNvXsi_NvMs1_NtCs3hi3ManBPbw_11return_type16swap_swap_fuzz__INtBb_4ArgsppE13auto_generateINtB5_s8_4AutoINtNtCs3XFJfFEDSOQ_4core6marker11PhantomDatabEEINtB5_s8_12AutoFallbackB1D_E4autoBd_
FN:76,_RNvXsm_NvMs1_NtCs3hi3ManBPbw_11return_type16swap_swap_fuzz__INtBb_4ArgsppE13auto_generateINtB5_sa_4AutoINtNtCs3XFJfFEDSOQ_4core6marker11PhantomDatabEEINtB5_sa_12AutoFallbackB1D_E4autoBd_
FN:76,_RNvXso_NvMs1_NtCs3hi3ManBPbw_11return_type16swap_swap_fuzz__INtBb_4ArgsppE13auto_generateINtB5_sb_4AutoINtNtCs3XFJfFEDSOQ_4core6marker11PhantomDatabEEINtB5_sb_12AutoFallbackB1D_E4autoBd_
FN:76,_RNvXsq_NvMs1_NtCs3hi3ManBPbw_11return_type16swap_swap_fuzz__INtBb_4ArgsppE13auto_generateINtB5_sc_4AutoINtNtCs3XFJfFEDSOQ_4core6marker11PhantomDatabEEINtB5_sc_12AutoFallbackB1D_E4autoBd_
FN:85,_RNvMs1_NvMs1_NtCs3hi3ManBPbw_11return_type16swap_swap_fuzz__INtBb_4ArgsppE13auto_generateINtB5_s_4AutopE4autoBd_
FN:85,_RNvMs3_NvMs1_NtCs3hi3ManBPbw_11return_type16swap_swap_fuzz__INtBb_4ArgsppE13auto_generateINtB5_s0_4AutopE4autoBd_
FN:85,_RNvMs5_NvMs1_NtCs3hi3ManBPbw_11return_type16swap_swap_fuzz__INtBb_4ArgsppE13auto_generateINtB5_s1_4AutopE4autoBd_
FN:85,_RNvMs7_NvMs1_NtCs3hi3ManBPbw_11return_type16swap_swap_fuzz__INtBb_4ArgsppE13auto_generateINtB5_s2_4AutopE4autoBd_
FN:85,_RNvMs9_NvMs1_NtCs3hi3ManBPbw_11return_type16swap_swap_fuzz__INtBb_4ArgsppE13auto_generateINtB5_s3_4AutopE4autoBd_
FN:85,_RNvMs_NvMs1_NtCs3hi3ManBPbw_11return_type16swap_swap_fuzz__INtBa_4ArgsppE13auto_generateINtB4_4AutopE4autoBc_
FN:85,_RNvMsd_NvMs1_NtCs3hi3ManBPbw_11return_type16swap_swap_fuzz__INtBb_4ArgsppE13auto_generateINtB5_s5_4AutopE4autoBd_
FN:85,_RNvMsf_NvMs1_NtCs3hi3ManBPbw_11return_type16swap_swap_fuzz__INtBb_4ArgsppE13auto_generateINtB5_s6_4AutopE4autoBd_
FN:85,_RNvMsh_NvMs1_NtCs3hi3ManBPbw_11return_type16swap_swap_fuzz__INtBb_4ArgsppE13auto_generateINtB5_s7_4AutopE4autoBd_
FN:85,_RNvMsj_NvMs1_NtCs3hi3ManBPbw_11return_type16swap_swap_fuzz__INtBb_4ArgsppE13auto_generateINtB5_s8_4AutopE4autoBd_
FN:85,_RNvMsn_NvMs1_NtCs3hi3ManBPbw_11return_type16swap_swap_fuzz__INtBb_4ArgsppE13auto_generateINtB5_sa_4AutopE4autoBd_
FN:85,_RNvMsp_NvMs1_NtCs3hi3ManBPbw_11return_type16swap_swap_fuzz__INtBb_4ArgsppE13auto_generateINtB5_sb_4AutopE4autoBd_
FN:85,_RNvMsr_NvMs1_NtCs3hi3ManBPbw_11return_type16swap_swap_fuzz__INtBb_4ArgsppE13auto_generateINtB5_sc_4AutopE4autoBd_
FN:76,_RNvXININvMs1_NtCs3hi3ManBPbw_11return_type16swap_swap_fuzz__INtBb_4ArgsppE13auto_generatesa_0ppEpINtB5_s4_12AutoFallbackpE4autoBd_
FN:76,_RNvXININvMs1_NtCs3hi3ManBPbw_11return_type16swap_swap_fuzz__INtBb_4ArgsppE13auto_generatesk_0ppEpINtB5_s9_12AutoFallbackpE4autoBd_
FN:178,_RINvCsavtZ3NIYN9z_17test_fuzz_runtime10write_argsINtNvNtCs3hi3ManBPbw_11return_type16swap_swap_fuzz__10write_args4ArgsubEEBS_
FN:172,_RINvCsavtZ3NIYN9z_17test_fuzz_runtime18write_generic_argsINtNtCs3hi3ManBPbw_11return_type16swap_swap_fuzz__4ArgsubEEBY_
FN:166,_RINvCsavtZ3NIYN9z_17test_fuzz_runtime23write_impl_generic_argsINtNtCs3hi3ManBPbw_11return_type16swap_swap_fuzz__4ArgsubEEB13_
FN:194,_RINvCsavtZ3NIYN9z_17test_fuzz_runtime9read_argsINtNvMNtCs3hi3ManBPbw_11return_type16swap_swap_fuzz__INtBP_11UsingReaderpE9read_args4ArgsubENtNtNtCsHIej2QEFI5_3std2io5stdio5StdinEBR_
FN:50,_RINvXs_CsavtZ3NIYN9z_17test_fuzz_runtimeINtB5_8TryDebugINtCs3hi3ManBPbw_11return_type4SwapbuEENtB5_16TryDebugFallback5applyuEBU_
FN:50,_RINvXs_CsavtZ3NIYN9z_17test_fuzz_runtimeINtB5_8TryDebugINtCs3hi3ManBPbw_11return_type4SwapubEENtB5_16TryDebugFallback5applyuEBU_
FN:33,_RNvXCsavtZ3NIYN9z_17test_fuzz_runtimeINtB2_18DebugUnimplementedINtB2_8TryDebugINtCs3hi3ManBPbw_11return_type4SwapbuEEENtNtCs3XFJfFEDSOQ_4core3fmt5Debug3fmtB1h_
FN:33,_RNvXCsavtZ3NIYN9z_17test_fuzz_runtimeINtB2_18DebugUnimplementedINtB2_8TryDebugINtCs3hi3ManBPbw_11return_type4SwapubEEENtNtCs3XFJfFEDSOQ_4core3fmt5Debug3fmtB1h_
FN:178,_RINvCsavtZ3NIYN9z_17test_fuzz_runtime10write_argsNtNvNtCs40ThQioJlYI_19self_ty_in_mod_name20struct_target_fuzz__10write_args4ArgsEBR_
FN:172,_RINvCsavtZ3NIYN9z_17test_fuzz_runtime18write_generic_argsNtNtCs40ThQioJlYI_19self_ty_in_mod_name20struct_target_fuzz__4ArgsEBX_
FN:166,_RINvCsavtZ3NIYN9z_17test_fuzz_runtime23write_impl_generic_argsNtNtCs40ThQioJlYI_19self_ty_in_mod_name20struct_target_fuzz__4ArgsEB12_
FN:194,_RINvCsavtZ3NIYN9z_17test_fuzz_runtime9read_argsNtNvMNtCs40ThQioJlYI_19self_ty_in_mod_name20struct_target_fuzz__INtBO_11UsingReaderpE9read_args4ArgsNtNtNtCsHIej2QEFI5_3std2io5stdio5StdinEBQ_
FN:58,_RINvMs0_CsavtZ3NIYN9z_17test_fuzz_runtimeINtB6_8TryDebuguE5applyuECs40ThQioJlYI_19self_ty_in_mod_name
FN:50,_RINvXs_CsavtZ3NIYN9z_17test_fuzz_runtimeINtB5_8TryDebugNtCs40ThQioJlYI_19self_ty_in_mod_name6StructENtB5_16TryDebugFallback5applyuEBT_
FN:33,_RNvXCsavtZ3NIYN9z_17test_fuzz_runtimeINtB2_18DebugUnimplementedINtB2_8TryDebugNtCs40ThQioJlYI_19self_ty_in_mod_name6StructEENtNtCs3XFJfFEDSOQ_4core3fmt5Debug3fmtB1g_
FN:85,_RNvMs1_NvMs1_NtCs40ThQioJlYI_19self_ty_in_mod_name20struct_target_fuzz__NtBb_4Args13auto_generateINtB5_s_4AutopE4autoBd_
FN:85,_RNvMs3_NvMs1_NtCs40ThQioJlYI_19self_ty_in_mod_name20struct_target_fuzz__NtBb_4Args13auto_generateINtB5_s0_4AutopE4autoBd_
FN:85,_RNvMs5_NvMs1_NtCs40ThQioJlYI_19self_ty_in_mod_name20struct_target_fuzz__NtBb_4Args13auto_generateINtB5_s1_4AutopE4autoBd_
FN:85,_RNvMs7_NvMs1_NtCs40ThQioJlYI_19self_ty_in_mod_name20struct_target_fuzz__NtBb_4Args13auto_generateINtB5_s2_4AutopE4autoBd_
FN:85,_RNvMs_NvMs1_NtCs40ThQioJlYI_19self_ty_in_mod_name20struct_target_fuzz__NtBa_4Args13auto_generateINtB4_4AutopE4autoBc_
FN:76,_RNvXNvMs1_NtCs40ThQioJlYI_19self_ty_in_mod_name20struct_target_fuzz__NtB8_4Args13auto_generateINtB2_4AutoNtBa_6StructEINtB2_12AutoFallbackB1F_E4autoBa_
FN:76,_RNvXs0_NvMs1_NtCs40ThQioJlYI_19self_ty_in_mod_name20struct_target_fuzz__NtBb_4Args13auto_generateINtB5_s_4AutoNtBd_6StructEINtB5_s_12AutoFallbackB1K_E4autoBd_
FN:76,_RNvXs2_NvMs1_NtCs40ThQioJlYI_19self_ty_in_mod_name20struct_target_fuzz__NtBb_4Args13auto_generateINtB5_s0_4AutoNtBd_6StructEINtB5_s0_12AutoFallbackB1L_E4autoBd_
FN:76,_RNvXs4_NvMs1_NtCs40ThQioJlYI_19self_ty_in_mod_name20struct_target_fuzz__NtBb_4Args13auto_generateINtB5_s1_4AutoNtBd_6StructEINtB5_s1_12AutoFallbackB1L_E4autoBd_
FN:76,_RNvXs6_NvMs1_NtCs40ThQioJlYI_19self_ty_in_mod_name20struct_target_fuzz__NtBb_4Args13auto_generateINtB5_s2_4AutoNtBd_6StructEINtB5_s2_12AutoFallbackB1L_E4autoBd_
FN:85,_RNvMs1_NvMs1_NtNtCs2k5fBaaxJWw_5serde13tuple_variant13target_fuzz__NtBb_4Args13auto_generateINtB5_s_4AutoNtBd_12TupleVariantE4autoBf_
FN:85,_RNvMsb_NvMs1_NtNtCs2k5fBaaxJWw_5serde13tuple_variant13target_fuzz__NtBb_4Args13auto_generateINtB5_s4_4AutoNtBd_12TupleVariantE4autoBf_
FN:85,_RNvMsl_NvMs1_NtNtCs2k5fBaaxJWw_5serde13tuple_variant13target_fuzz__NtBb_4Args13auto_generateINtB5_s9_4AutoNtBd_12TupleVariantE4autoBf_
FN:76,_RNvXNvMs1_NtNtCs2k5fBaaxJWw_5serde13tuple_variant13target_fuzz__NtB8_4Args13auto_generateINtB2_4AutoNtBa_12TupleVariantEINtB2_12AutoFallbackB1A_E4autoBc_
FN:76,_RNvXs2_NvMs1_NtNtCs2k5fBaaxJWw_5serde13tuple_variant13target_fuzz__NtBb_4Args13auto_generateINtB5_s0_4AutoNtBd_12TupleVariantEINtB5_s0_12AutoFallbackB1G_E4autoBf_
FN:76,_RNvXs4_NvMs1_NtNtCs2k5fBaaxJWw_5serde13tuple_variant13target_fuzz__NtBb_4Args13auto_generateINtB5_s1_4AutoNtBd_12TupleVariantEINtB5_s1_12AutoFallbackB1G_E4autoBf_
FN:76,_RNvXs6_NvMs1_NtNtCs2k5fBaaxJWw_5serde13tuple_variant13target_fuzz__NtBb_4Args13auto_generateINtB5_s2_4AutoNtBd_12TupleVariantEINtB5_s2_12AutoFallbackB1G_E4autoBf_
FN:76,_RNvXs8_NvMs1_NtNtCs2k5fBaaxJWw_5serde13tuple_variant13target_fuzz__NtBb_4Args13auto_generateINtB5_s3_4AutoNtBd_12TupleVariantEINtB5_s3_12AutoFallbackB1G_E4autoBf_
FN:76,_RNvXsc_NvMs1_NtNtCs2k5fBaaxJWw_5serde13tuple_variant13target_fuzz__NtBb_4Args13auto_generateINtB5_s5_4AutoNtBd_12TupleVariantEINtB5_s5_12AutoFallbackB1G_E4autoBf_
FN:76,_RNvXse_NvMs1_NtNtCs2k5fBaaxJWw_5serde13tuple_variant13target_fuzz__NtBb_4Args13auto_generateINtB5_s6_4AutoNtBd_12TupleVariantEINtB5_s6_12AutoFallbackB1G_E4autoBf_
FN:76,_RNvXsg_NvMs1_NtNtCs2k5fBaaxJWw_5serde13tuple_variant13target_fuzz__NtBb_4Args13auto_generateINtB5_s7_4AutoNtBd_12TupleVariantEINtB5_s7_12AutoFallbackB1G_E4autoBf_
FN:76,_RNvXsi_NvMs1_NtNtCs2k5fBaaxJWw_5serde13tuple_variant13target_fuzz__NtBb_4Args13auto_generateINtB5_s8_4AutoNtBd_12TupleVariantEINtB5_s8_12AutoFallbackB1G_E4autoBf_
FN:76,_RNvXsm_NvMs1_NtNtCs2k5fBaaxJWw_5serde13tuple_variant13target_fuzz__NtBb_4Args13auto_generateINtB5_sa_4AutoNtBd_12TupleVariantEINtB5_sa_12AutoFallbackB1G_E4autoBf_
FN:76,_RNvXso_NvMs1_NtNtCs2k5fBaaxJWw_5serde13tuple_variant13target_fuzz__NtBb_4Args13auto_generateINtB5_sb_4AutoNtBd_12TupleVariantEINtB5_sb_12AutoFallbackB1G_E4autoBf_
FN:76,_RNvXsq_NvMs1_NtNtCs2k5fBaaxJWw_5serde13tuple_variant13target_fuzz__NtBb_4Args13auto_generateINtB5_sc_4AutoNtBd_12TupleVariantEINtB5_sc_12AutoFallbackB1G_E4autoBf_
FN:178,_RINvCsafdBfAmNDM0_17test_fuzz_runtime10write_argsNtNvNtNtCs2k5fBaaxJWw_5serde10byte_array13target_fuzz__10write_args4ArgsEBT_
FN:178,_RINvCsafdBfAmNDM0_17test_fuzz_runtime10write_argsNtNvNtNtCs2k5fBaaxJWw_5serde11unit_struct13target_fuzz__10write_args4ArgsEBT_
FN:178,_RINvCsafdBfAmNDM0_17test_fuzz_runtime10write_argsNtNvNtNtCs2k5fBaaxJWw_5serde12tuple_struct13target_fuzz__10write_args4ArgsEBT_
FN:178,_RINvCsafdBfAmNDM0_17test_fuzz_runtime10write_argsNtNvNtNtCs2k5fBaaxJWw_5serde12unit_variant13target_fuzz__10write_args4ArgsEBT_
FN:178,_RINvCsafdBfAmNDM0_17test_fuzz_runtime10write_argsNtNvNtNtCs2k5fBaaxJWw_5serde13tuple_variant13target_fuzz__10write_args4ArgsEBT_
FN:178,_RINvCsafdBfAmNDM0_17test_fuzz_runtime10write_argsNtNvNtNtCs2k5fBaaxJWw_5serde14newtype_struct13target_fuzz__10write_args4ArgsEBT_
FN:178,_RINvCsafdBfAmNDM0_17test_fuzz_runtime10write_argsNtNvNtNtCs2k5fBaaxJWw_5serde14struct_variant13target_fuzz__10write_args4ArgsEBT_
FN:178,_RINvCsafdBfAmNDM0_17test_fuzz_runtime10write_argsNtNvNtNtCs2k5fBaaxJWw_5serde15newtype_variant13target_fuzz__10write_args4ArgsEBT_
FN:178,_RINvCsafdBfAmNDM0_17test_fuzz_runtime10write_argsNtNvNtNtCs2k5fBaaxJWw_5serde3map13target_fuzz__10write_args4ArgsEBT_
FN:178,_RINvCsafdBfAmNDM0_17test_fuzz_runtime10write_argsNtNvNtNtCs2k5fBaaxJWw_5serde3seq13target_fuzz__10write_args4ArgsEBT_
FN:178,_RINvCsafdBfAmNDM0_17test_fuzz_runtime10write_argsNtNvNtNtCs2k5fBaaxJWw_5serde4unit13target_fuzz__10write_args4ArgsEBT_
FN:178,_RINvCsafdBfAmNDM0_17test_fuzz_runtime10write_argsNtNvNtNtCs2k5fBaaxJWw_5serde5tuple13target_fuzz__10write_args4ArgsEBT_
FN:178,_RINvCsafdBfAmNDM0_17test_fuzz_runtime10write_argsNtNvNtNtCs2k5fBaaxJWw_5serde6option13target_fuzz__10write_args4ArgsEBT_
FN:178,_RINvCsafdBfAmNDM0_17test_fuzz_runtime10write_argsNtNvNtNtCs2k5fBaaxJWw_5serde6string13target_fuzz__10write_args4ArgsEBT_
FN:178,_RINvCsafdBfAmNDM0_17test_fuzz_runtime10write_argsNtNvNtNtCs2k5fBaaxJWw_5serde6strukt13target_fuzz__10write_args4ArgsEBT_
FN:172,_RINvCsafdBfAmNDM0_17test_fuzz_runtime18write_generic_argsNtNtNtCs2k5fBaaxJWw_5serde10byte_array13target_fuzz__4ArgsEBZ_
FN:172,_RINvCsafdBfAmNDM0_17test_fuzz_runtime18write_generic_argsNtNtNtCs2k5fBaaxJWw_5serde11unit_struct13target_fuzz__4ArgsEBZ_
FN:172,_RINvCsafdBfAmNDM0_17test_fuzz_runtime18write_generic_argsNtNtNtCs2k5fBaaxJWw_5serde12tuple_struct13target_fuzz__4ArgsEBZ_
FN:172,_RINvCsafdBfAmNDM0_17test_fuzz_runtime18write_generic_argsNtNtNtCs2k5fBaaxJWw_5serde12unit_variant13target_fuzz__4ArgsEBZ_
FN:172,_RINvCsafdBfAmNDM0_17test_fuzz_runtime18write_generic_argsNtNtNtCs2k5fBaaxJWw_5serde13tuple_variant13target_fuzz__4ArgsEBZ_
FN:172,_RINvCsafdBfAmNDM0_17test_fuzz_runtime18write_generic_argsNtNtNtCs2k5fBaaxJWw_5serde14newtype_struct13target_fuzz__4ArgsEBZ_
FN:172,_RINvCsafdBfAmNDM0_17test_fuzz_runtime18write_generic_argsNtNtNtCs2k5fBaaxJWw_5serde14struct_variant13target_fuzz__4ArgsEBZ_
FN:172,_RINvCsafdBfAmNDM0_17test_fuzz_runtime18write_generic_argsNtNtNtCs2k5fBaaxJWw_5serde15newtype_variant13target_fuzz__4ArgsEBZ_
FN:172,_RINvCsafdBfAmNDM0_17test_fuzz_runtime18write_generic_argsNtNtNtCs2k5fBaaxJWw_5serde3map13target_fuzz__4ArgsEBZ_
FN:172,_RINvCsafdBfAmNDM0_17test_fuzz_runtime18write_generic_argsNtNtNtCs2k5fBaaxJWw_5serde3seq13target_fuzz__4ArgsEBZ_
FN:172,_RINvCsafdBfAmNDM0_17test_fuzz_runtime18write_generic_argsNtNtNtCs2k5fBaaxJWw_5serde4unit13target_fuzz__4ArgsEBZ_
FN:172,_RINvCsafdBfAmNDM0_17test_fuzz_runtime18write_generic_argsNtNtNtCs2k5fBaaxJWw_5serde5tuple13target_fuzz__4ArgsEBZ_
FN:172,_RINvCsafdBfAmNDM0_17test_fuzz_runtime18write_generic_argsNtNtNtCs2k5fBaaxJWw_5serde6option13target_fuzz__4ArgsEBZ_
FN:172,_RINvCsafdBfAmNDM0_17test_fuzz_runtime18write_generic_argsNtNtNtCs2k5fBaaxJWw_5serde6string13target_fuzz__4ArgsEBZ_
FN:172,_RINvCsafdBfAmNDM0_17test_fuzz_runtime18write_generic_argsNtNtNtCs2k5fBaaxJWw_5serde6strukt13target_fuzz__4ArgsEBZ_
FN:166,_RINvCsafdBfAmNDM0_17test_fuzz_runtime23write_impl_generic_argsNtNtNtCs2k5fBaaxJWw_5serde10byte_array13target_fuzz__4ArgsEB14_
FN:166,_RINvCsafdBfAmNDM0_17test_fuzz_runtime23write_impl_generic_argsNtNtNtCs2k5fBaaxJWw_5serde11unit_struct13target_fuzz__4ArgsEB14_
FN:166,_RINvCsafdBfAmNDM0_17test_fuzz_runtime23write_impl_generic_argsNtNtNtCs2k5fBaaxJWw_5serde12tuple_struct13target_fuzz__4ArgsEB14_
FN:166,_RINvCsafdBfAmNDM0_17test_fuzz_runtime23write_impl_generic_argsNtNtNtCs2k5fBaaxJWw_5serde12unit_variant13target_fuzz__4ArgsEB14_
FN:166,_RINvCsafdBfAmNDM0_17test_fuzz_runtime23write_impl_generic_argsNtNtNtCs2k5fBaaxJWw_5serde13tuple_variant13target_fuzz__4ArgsEB14_
FN:166,_RINvCsafdBfAmNDM0_17test_fuzz_runtime23write_impl_generic_argsNtNtNtCs2k5fBaaxJWw_5serde14newtype_struct13target_fuzz__4ArgsEB14_
FN:166,_RINvCsafdBfAmNDM0_17test_fuzz_runtime23write_impl_generic_argsNtNtNtCs2k5fBaaxJWw_5serde14struct_variant13target_fuzz__4ArgsEB14_
FN:166,_RINvCsafdBfAmNDM0_17test_fuzz_runtime23write_impl_generic_argsNtNtNtCs2k5fBaaxJWw_5serde15newtype_variant13target_fuzz__4ArgsEB14_
FN:166,_RINvCsafdBfAmNDM0_17test_fuzz_runtime23write_impl_generic_argsNtNtNtCs2k5fBaaxJWw_5serde3map13target_fuzz__4ArgsEB14_
FN:166,_RINvCsafdBfAmNDM0_17test_fuzz_runtime23write_impl_generic_argsNtNtNtCs2k5fBaaxJWw_5serde3seq13target_fuzz__4ArgsEB14_
FN:166,_RINvCsafdBfAmNDM0_17test_fuzz_runtime23write_impl_generic_argsNtNtNtCs2k5fBaaxJWw_5serde4unit13target_fuzz__4ArgsEB14_
FN:166,_RINvCsafdBfAmNDM0_17test_fuzz_runtime23write_impl_generic_argsNtNtNtCs2k5fBaaxJWw_5serde5tuple13target_fuzz__4ArgsEB14_
FN:166,_RINvCsafdBfAmNDM0_17test_fuzz_runtime23write_impl_generic_argsNtNtNtCs2k5fBaaxJWw_5serde6option13target_fuzz__4ArgsEB14_
FN:166,_RINvCsafdBfAmNDM0_17test_fuzz_runtime23write_impl_generic_argsNtNtNtCs2k5fBaaxJWw_5serde6string13target_fuzz__4ArgsEB14_
FN:166,_RINvCsafdBfAmNDM0_17test_fuzz_runtime23write_impl_generic_argsNtNtNtCs2k5fBaaxJWw_5serde6strukt13target_fuzz__4ArgsEB14_
FN:194,_RINvCsafdBfAmNDM0_17test_fuzz_runtime9read_argsNtNvMNtNtCs2k5fBaaxJWw_5serde10byte_array13target_fuzz__INtBO_11UsingReaderpE9read_args4ArgsNtNtNtCsHIej2QEFI5_3std2io5stdio5StdinEBS_
FN:194,_RINvCsafdBfAmNDM0_17test_fuzz_runtime9read_argsNtNvMNtNtCs2k5fBaaxJWw_5serde11unit_struct13target_fuzz__INtBO_11UsingReaderpE9read_args4ArgsNtNtNtCsHIej2QEFI5_3std2io5stdio5StdinEBS_
FN:194,_RINvCsafdBfAmNDM0_17test_fuzz_runtime9read_argsNtNvMNtNtCs2k5fBaaxJWw_5serde12tuple_struct13target_fuzz__INtBO_11UsingReaderpE9read_args4ArgsNtNtNtCsHIej2QEFI5_3std2io5stdio5StdinEBS_
FN:194,_RINvCsafdBfAmNDM0_17test_fuzz_runtime9read_argsNtNvMNtNtCs2k5fBaaxJWw_5serde12unit_variant13target_fuzz__INtBO_11UsingReaderpE9read_args4ArgsNtNtNtCsHIej2QEFI5_3std2io5stdio5StdinEBS_
FN:194,_RINvCsafdBfAmNDM0_17test_fuzz_runtime9read_argsNtNvMNtNtCs2k5fBaaxJWw_5serde13tuple_variant13target_fuzz__INtBO_11UsingReaderpE9read_args4ArgsNtNtNtCsHIej2QEFI5_3std2io5stdio5StdinEBS_
FN:194,_RINvCsafdBfAmNDM0_17test_fuzz_runtime9read_argsNtNvMNtNtCs2k5fBaaxJWw_5serde14newtype_struct13target_fuzz__INtBO_11UsingReaderpE9read_args4ArgsNtNtNtCsHIej2QEFI5_3std2io5stdio5StdinEBS_
FN:194,_RINvCsafdBfAmNDM0_17test_fuzz_runtime9read_argsNtNvMNtNtCs2k5fBaaxJWw_5serde14struct_variant13target_fuzz__INtBO_11UsingReaderpE9read_args4ArgsNtNtNtCsHIej2QEFI5_3std2io5stdio5StdinEBS_
FN:194,_RINvCsafdBfAmNDM0_17test_fuzz_runtime9read_argsNtNvMNtNtCs2k5fBaaxJWw_5serde15newtype_variant13target_fuzz__INtBO_11UsingReaderpE9read_args4ArgsNtNtNtCsHIej2QEFI5_3std2io5stdio5StdinEBS_
FN:194,_RINvCsafdBfAmNDM0_17test_fuzz_runtime9read_argsNtNvMNtNtCs2k5fBaaxJWw_5serde3map13target_fuzz__INtBO_11UsingReaderpE9read_args4ArgsNtNtNtCsHIej2QEFI5_3std2io5stdio5StdinEBS_
FN:194,_RINvCsafdBfAmNDM0_17test_fuzz_runtime9read_argsNtNvMNtNtCs2k5fBaaxJWw_5serde3seq13target_fuzz__INtBO_11UsingReaderpE9read_args4ArgsNtNtNtCsHIej2QEFI5_3std2io5stdio5StdinEBS_
FN:194,_RINvCsafdBfAmNDM0_17test_fuzz_runtime9read_argsNtNvMNtNtCs2k5fBaaxJWw_5serde4unit13target_fuzz__INtBO_11UsingReaderpE9read_args4ArgsNtNtNtCsHIej2QEFI5_3std2io5stdio5StdinEBS_
FN:194,_RINvCsafdBfAmNDM0_17test_fuzz_runtime9read_argsNtNvMNtNtCs2k5fBaaxJWw_5serde5tuple13target_fuzz__INtBO_11UsingReaderpE9read_args4ArgsNtNtNtCsHIej2QEFI5_3std2io5stdio5StdinEBS_
FN:194,_RINvCsafdBfAmNDM0_17test_fuzz_runtime9read_argsNtNvMNtNtCs2k5fBaaxJWw_5serde6option13target_fuzz__INtBO_11UsingReaderpE9read_args4ArgsNtNtNtCsHIej2QEFI5_3std2io5stdio5StdinEBS_
FN:194,_RINvCsafdBfAmNDM0_17test_fuzz_runtime9read_argsNtNvMNtNtCs2k5fBaaxJWw_5serde6string13target_fuzz__INtBO_11UsingReaderpE9read_args4ArgsNtNtNtCsHIej2QEFI5_3std2io5stdio5StdinEBS_
FN:194,_RINvCsafdBfAmNDM0_17test_fuzz_runtime9read_argsNtNvMNtNtCs2k5fBaaxJWw_5serde6strukt13target_fuzz__INtBO_11UsingReaderpE9read_args4ArgsNtNtNtCsHIej2QEFI5_3std2io5stdio5StdinEBS_
FN:58,_RINvMs0_CsafdBfAmNDM0_17test_fuzz_runtimeINtB6_8TryDebugAhj0_E5applyuECs2k5fBaaxJWw_5serde
FN:58,_RINvMs0_CsafdBfAmNDM0_17test_fuzz_runtimeINtB6_8TryDebugAhj1_E5applyuECs2k5fBaaxJWw_5serde
FN:58,_RINvMs0_CsafdBfAmNDM0_17test_fuzz_runtimeINtB6_8TryDebugAhj2_E5applyuECs2k5fBaaxJWw_5serde
FN:58,_RINvMs0_CsafdBfAmNDM0_17test_fuzz_runtimeINtB6_8TryDebugINtNtCs3XFJfFEDSOQ_4core6option6OptionhEE5applyuECs2k5fBaaxJWw_5serde
FN:58,_RINvMs0_CsafdBfAmNDM0_17test_fuzz_runtimeINtB6_8TryDebugINtNtCsgag4BwXrjBQ_5alloc3vec3VechEE5applyuECs2k5fBaaxJWw_5serde
FN:58,_RINvMs0_CsafdBfAmNDM0_17test_fuzz_runtimeINtB6_8TryDebugINtNtNtNtCsHIej2QEFI5_3std11collections4hash3set7HashSethEE5applyuECs2k5fBaaxJWw_5serde
FN:58,_RINvMs0_CsafdBfAmNDM0_17test_fuzz_runtimeINtB6_8TryDebugINtNtNtNtCsgag4BwXrjBQ_5alloc11collections5btree3map8BTreeMaphhEE5applyuECs2k5fBaaxJWw_5serde
FN:58,_RINvMs0_CsafdBfAmNDM0_17test_fuzz_runtimeINtB6_8TryDebugNtNtCsgag4BwXrjBQ_5alloc6string6StringE5applyuECs2k5fBaaxJWw_5serde
FN:58,_RINvMs0_CsafdBfAmNDM0_17test_fuzz_runtimeINtB6_8TryDebugThEE5applyuECs2k5fBaaxJWw_5serde
FN:58,_RINvMs0_CsafdBfAmNDM0_17test_fuzz_runtimeINtB6_8TryDebugThhEE5applyuECs2k5fBaaxJWw_5serde
FN:58,_RINvMs0_CsafdBfAmNDM0_17test_fuzz_runtimeINtB6_8TryDebuguE5applyuECs2k5fBaaxJWw_5serde
FN:50,_RINvXs_CsafdBfAmNDM0_17test_fuzz_runtimeINtB5_8TryDebugNtNtCs2k5fBaaxJWw_5serde11unit_struct10UnitStructENtB5_16TryDebugFallback5applyuEBV_
FN:50,_RINvXs_CsafdBfAmNDM0_17test_fuzz_runtimeINtB5_8TryDebugNtNtCs2k5fBaaxJWw_5serde12tuple_struct11TupleStructENtB5_16TryDebugFallback5applyuEBV_
FN:50,_RINvXs_CsafdBfAmNDM0_17test_fuzz_runtimeINtB5_8TryDebugNtNtCs2k5fBaaxJWw_5serde12unit_variant11UnitVariantENtB5_16TryDebugFallback5applyuEBV_
FN:50,_RINvXs_CsafdBfAmNDM0_17test_fuzz_runtimeINtB5_8TryDebugNtNtCs2k5fBaaxJWw_5serde13tuple_variant12TupleVariantENtB5_16TryDebugFallback5applyuEBV_
FN:50,_RINvXs_CsafdBfAmNDM0_17test_fuzz_runtimeINtB5_8TryDebugNtNtCs2k5fBaaxJWw_5serde14newtype_struct13NewtypeStructENtB5_16TryDebugFallback5applyuEBV_
FN:50,_RINvXs_CsafdBfAmNDM0_17test_fuzz_runtimeINtB5_8TryDebugNtNtCs2k5fBaaxJWw_5serde14struct_variant13StructVariantENtB5_16TryDebugFallback5applyuEBV_
FN:50,_RINvXs_CsafdBfAmNDM0_17test_fuzz_runtimeINtB5_8TryDebugNtNtCs2k5fBaaxJWw_5serde15newtype_variant14NewtypeVariantENtB5_16TryDebugFallback5applyuEBV_
FN:50,_RINvXs_CsafdBfAmNDM0_17test_fuzz_runtimeINtB5_8TryDebugNtNtCs2k5fBaaxJWw_5serde6strukt6StructENtB5_16TryDebugFallback5applyuEBV_
FN:33,_RNvXCsafdBfAmNDM0_17test_fuzz_runtimeINtB2_18DebugUnimplementedINtB2_8TryDebugNtNtCs2k5fBaaxJWw_5serde11unit_struct10UnitStructEENtNtCs3XFJfFEDSOQ_4core3fmt5Debug3fmtB1i_
FN:33,_RNvXCsafdBfAmNDM0_17test_fuzz_runtimeINtB2_18DebugUnimplementedINtB2_8TryDebugNtNtCs2k5fBaaxJWw_5serde12tuple_struct11TupleStructEENtNtCs3XFJfFEDSOQ_4core3fmt5Debug3fmtB1i_
FN:33,_RNvXCsafdBfAmNDM0_17test_fuzz_runtimeINtB2_18DebugUnimplementedINtB2_8TryDebugNtNtCs2k5fBaaxJWw_5serde12unit_variant11UnitVariantEENtNtCs3XFJfFEDSOQ_4core3fmt5Debug3fmtB1i_
FN:33,_RNvXCsafdBfAmNDM0_17test_fuzz_runtimeINtB2_18DebugUnimplementedINtB2_8TryDebugNtNtCs2k5fBaaxJWw_5serde13tuple_variant12TupleVariantEENtNtCs3XFJfFEDSOQ_4core3fmt5Debug3fmtB1i_
FN:33,_RNvXCsafdBfAmNDM0_17test_fuzz_runtimeINtB2_18DebugUnimplementedINtB2_8TryDebugNtNtCs2k5fBaaxJWw_5serde14newtype_struct13NewtypeStructEENtNtCs3XFJfFEDSOQ_4core3fmt5Debug3fmtB1i_
FN:33,_RNvXCsafdBfAmNDM0_17test_fuzz_runtimeINtB2_18DebugUnimplementedINtB2_8TryDebugNtNtCs2k5fBaaxJWw_5serde14struct_variant13StructVariantEENtNtCs3XFJfFEDSOQ_4core3fmt5Debug3fmtB1i_
FN:33,_RNvXCsafdBfAmNDM0_17test_fuzz_runtimeINtB2_18DebugUnimplementedINtB2_8TryDebugNtNtCs2k5fBaaxJWw_5serde15newtype_variant14NewtypeVariantEENtNtCs3XFJfFEDSOQ_4core3fmt5Debug3fmtB1i_
FN:33,_RNvXCsafdBfAmNDM0_17test_fuzz_runtimeINtB2_18DebugUnimplementedINtB2_8TryDebugNtNtCs2k5fBaaxJWw_5serde6strukt6StructEENtNtCs3XFJfFEDSOQ_4core3fmt5Debug3fmtB1i_
FN:85,_RNvMs1_NvMs1_NtNtCs2k5fBaaxJWw_5serde11unit_struct13target_fuzz__NtBb_4Args13auto_generateINtB5_s_4AutoNtBd_10UnitStructE4autoBf_
FN:85,_RNvMsb_NvMs1_NtNtCs2k5fBaaxJWw_5serde11unit_struct13target_fuzz__NtBb_4Args13auto_generateINtB5_s4_4AutoNtBd_10UnitStructE4autoBf_
FN:85,_RNvMsl_NvMs1_NtNtCs2k5fBaaxJWw_5serde11unit_struct13target_fuzz__NtBb_4Args13auto_generateINtB5_s9_4AutoNtBd_10UnitStructE4autoBf_
FN:76,_RNvXNvMs1_NtNtCs2k5fBaaxJWw_5serde11unit_struct13target_fuzz__NtB8_4Args13auto_generateINtB2_4AutoNtBa_10UnitStructEINtB2_12AutoFallbackB1y_E4autoBc_
FN:76,_RNvXs2_NvMs1_NtNtCs2k5fBaaxJWw_5serde11unit_struct13target_fuzz__NtBb_4Args13auto_generateINtB5_s0_4AutoNtBd_10UnitStructEINtB5_s0_12AutoFallbackB1E_E4autoBf_
FN:76,_RNvXs4_NvMs1_NtNtCs2k5fBaaxJWw_5serde11unit_struct13target_fuzz__NtBb_4Args13auto_generateINtB5_s1_4AutoNtBd_10UnitStructEINtB5_s1_12AutoFallbackB1E_E4autoBf_
FN:76,_RNvXs6_NvMs1_NtNtCs2k5fBaaxJWw_5serde11unit_struct13target_fuzz__NtBb_4Args13auto_generateINtB5_s2_4AutoNtBd_10UnitStructEINtB5_s2_12AutoFallbackB1E_E4autoBf_
FN:76,_RNvXs8_NvMs1_NtNtCs2k5fBaaxJWw_5serde11unit_struct13target_fuzz__NtBb_4Args13auto_generateINtB5_s3_4AutoNtBd_10UnitStructEINtB5_s3_12AutoFallbackB1E_E4autoBf_
FN:76,_RNvXsc_NvMs1_NtNtCs2k5fBaaxJWw_5serde11unit_struct13target_fuzz__NtBb_4Args13auto_generateINtB5_s5_4AutoNtBd_10UnitStructEINtB5_s5_12AutoFallbackB1E_E4autoBf_
FN:76,_RNvXse_NvMs1_NtNtCs2k5fBaaxJWw_5serde11unit_struct13target_fuzz__NtBb_4Args13auto_generateINtB5_s6_4AutoNtBd_10UnitStructEINtB5_s6_12AutoFallbackB1E_E4autoBf_
FN:76,_RNvXsg_NvMs1_NtNtCs2k5fBaaxJWw_5serde11unit_struct13target_fuzz__NtBb_4Args13auto_generateINtB5_s7_4AutoNtBd_10UnitStructEINtB5_s7_12AutoFallbackB1E_E4autoBf_
FN:76,_RNvXsi_NvMs1_NtNtCs2k5fBaaxJWw_5serde11unit_struct13target_fuzz__NtBb_4Args13auto_generateINtB5_s8_4AutoNtBd_10UnitStructEINtB5_s8_12AutoFallbackB1E_E4autoBf_
FN:76,_RNvXsm_NvMs1_NtNtCs2k5fBaaxJWw_5serde11unit_struct13target_fuzz__NtBb_4Args13auto_generateINtB5_sa_4AutoNtBd_10UnitStructEINtB5_sa_12AutoFallbackB1E_E4autoBf_
FN:76,_RNvXso_NvMs1_NtNtCs2k5fBaaxJWw_5serde11unit_struct13target_fuzz__NtBb_4Args13auto_generateINtB5_sb_4AutoNtBd_10UnitStructEINtB5_sb_12AutoFallbackB1E_E4autoBf_
FN:76,_RNvXsq_NvMs1_NtNtCs2k5fBaaxJWw_5serde11unit_struct13target_fuzz__NtBb_4Args13auto_generateINtB5_sc_4AutoNtBd_10UnitStructEINtB5_sc_12AutoFallbackB1E_E4autoBf_
FN:85,_RNvMs1_NvMs1_NtNtCs2k5fBaaxJWw_5serde14struct_variant13target_fuzz__NtBb_4Args13auto_generateINtB5_s_4AutoNtBd_13StructVariantE4autoBf_
FN:85,_RNvMsb_NvMs1_NtNtCs2k5fBaaxJWw_5serde14struct_variant13target_fuzz__NtBb_4Args13auto_generateINtB5_s4_4AutoNtBd_13StructVariantE4autoBf_
FN:85,_RNvMsl_NvMs1_NtNtCs2k5fBaaxJWw_5serde14struct_variant13target_fuzz__NtBb_4Args13auto_generateINtB5_s9_4AutoNtBd_13StructVariantE4autoBf_
FN:76,_RNvXNvMs1_NtNtCs2k5fBaaxJWw_5serde14struct_variant13target_fuzz__NtB8_4Args13auto_generateINtB2_4AutoNtBa_13StructVariantEINtB2_12AutoFallbackB1B_E4autoBc_
FN:76,_RNvXs2_NvMs1_NtNtCs2k5fBaaxJWw_5serde14struct_variant13target_fuzz__NtBb_4Args13auto_generateINtB5_s0_4AutoNtBd_13StructVariantEINtB5_s0_12AutoFallbackB1H_E4autoBf_
FN:76,_RNvXs4_NvMs1_NtNtCs2k5fBaaxJWw_5serde14struct_variant13target_fuzz__NtBb_4Args13auto_generateINtB5_s1_4AutoNtBd_13StructVariantEINtB5_s1_12AutoFallbackB1H_E4autoBf_
FN:76,_RNvXs6_NvMs1_NtNtCs2k5fBaaxJWw_5serde14struct_variant13target_fuzz__NtBb_4Args13auto_generateINtB5_s2_4AutoNtBd_13StructVariantEINtB5_s2_12AutoFallbackB1H_E4autoBf_
FN:76,_RNvXs8_NvMs1_NtNtCs2k5fBaaxJWw_5serde14struct_variant13target_fuzz__NtBb_4Args13auto_generateINtB5_s3_4AutoNtBd_13StructVariantEINtB5_s3_12AutoFallbackB1H_E4autoBf_
FN:76,_RNvXsc_NvMs1_NtNtCs2k5fBaaxJWw_5serde14struct_variant13target_fuzz__NtBb_4Args13auto_generateINtB5_s5_4AutoNtBd_13StructVariantEINtB5_s5_12AutoFallbackB1H_E4autoBf_
FN:76,_RNvXse_NvMs1_NtNtCs2k5fBaaxJWw_5serde14struct_variant13target_fuzz__NtBb_4Args13auto_generateINtB5_s6_4AutoNtBd_13StructVariantEINtB5_s6_12AutoFallbackB1H_E4autoBf_
FN:76,_RNvXsg_NvMs1_NtNtCs2k5fBaaxJWw_5serde14struct_variant13target_fuzz__NtBb_4Args13auto_generateINtB5_s7_4AutoNtBd_13StructVariantEINtB5_s7_12AutoFallbackB1H_E4autoBf_
FN:76,_RNvXsi_NvMs1_NtNtCs2k5fBaaxJWw_5serde14struct_variant13target_fuzz__NtBb_4Args13auto_generateINtB5_s8_4AutoNtBd_13StructVariantEINtB5_s8_12AutoFallbackB1H_E4autoBf_
FN:76,_RNvXsm_NvMs1_NtNtCs2k5fBaaxJWw_5serde14struct_variant13target_fuzz__NtBb_4Args13auto_generateINtB5_sa_4AutoNtBd_13StructVariantEINtB5_sa_12AutoFallbackB1H_E4autoBf_
FN:76,_RNvXso_NvMs1_NtNtCs2k5fBaaxJWw_5serde14struct_variant13target_fuzz__NtBb_4Args13auto_generateINtB5_sb_4AutoNtBd_13StructVariantEINtB5_sb_12AutoFallbackB1H_E4autoBf_
FN:76,_RNvXsq_NvMs1_NtNtCs2k5fBaaxJWw_5serde14struct_variant13target_fuzz__NtBb_4Args13auto_generateINtB5_sc_4AutoNtBd_13StructVariantEINtB5_sc_12AutoFallbackB1H_E4autoBf_
FN:85,_RNvMs1_NvMs1_NtNtCs2k5fBaaxJWw_5serde15newtype_variant13target_fuzz__NtBb_4Args13auto_generateINtB5_s_4AutoNtBd_14NewtypeVariantE4autoBf_
FN:85,_RNvMsb_NvMs1_NtNtCs2k5fBaaxJWw_5serde15newtype_variant13target_fuzz__NtBb_4Args13auto_generateINtB5_s4_4AutoNtBd_14NewtypeVariantE4autoBf_
FN:85,_RNvMsl_NvMs1_NtNtCs2k5fBaaxJWw_5serde15newtype_variant13target_fuzz__NtBb_4Args13auto_generateINtB5_s9_4AutoNtBd_14NewtypeVariantE4autoBf_
FN:76,_RNvXNvMs1_NtNtCs2k5fBaaxJWw_5serde15newtype_variant13target_fuzz__NtB8_4Args13auto_generateINtB2_4AutoNtBa_14NewtypeVariantEINtB2_12AutoFallbackB1C_E4autoBc_
FN:76,_RNvXs2_NvMs1_NtNtCs2k5fBaaxJWw_5serde15newtype_variant13target_fuzz__NtBb_4Args13auto_generateINtB5_s0_4AutoNtBd_14NewtypeVariantEINtB5_s0_12AutoFallbackB1I_E4autoBf_
FN:76,_RNvXs4_NvMs1_NtNtCs2k5fBaaxJWw_5serde15newtype_variant13target_fuzz__NtBb_4Args13auto_generateINtB5_s1_4AutoNtBd_14NewtypeVariantEINtB5_s1_12AutoFallbackB1I_E4autoBf_
FN:76,_RNvXs6_NvMs1_NtNtCs2k5fBaaxJWw_5serde15newtype_variant13target_fuzz__NtBb_4Args13auto_generateINtB5_s2_4AutoNtBd_14NewtypeVariantEINtB5_s2_12AutoFallbackB1I_E4autoBf_
FN:76,_RNvXs8_NvMs1_NtNtCs2k5fBaaxJWw_5serde15newtype_variant13target_fuzz__NtBb_4Args13auto_generateINtB5_s3_4AutoNtBd_14NewtypeVariantEINtB5_s3_12AutoFallbackB1I_E4autoBf_
FN:76,_RNvXsc_NvMs1_NtNtCs2k5fBaaxJWw_5serde15newtype_variant13target_fuzz__NtBb_4Args13auto_generateINtB5_s5_4AutoNtBd_14NewtypeVariantEINtB5_s5_12AutoFallbackB1I_E4autoBf_
FN:76,_RNvXse_NvMs1_NtNtCs2k5fBaaxJWw_5serde15newtype_variant13target_fuzz__NtBb_4Args13auto_generateINtB5_s6_4AutoNtBd_14NewtypeVariantEINtB5_s6_12AutoFallbackB1I_E4autoBf_
FN:76,_RNvXsg_NvMs1_NtNtCs2k5fBaaxJWw_5serde15newtype_variant13target_fuzz__NtBb_4Args13auto_generateINtB5_s7_4AutoNtBd_14NewtypeVariantEINtB5_s7_12AutoFallbackB1I_E4autoBf_
FN:76,_RNvXsi_NvMs1_NtNtCs2k5fBaaxJWw_5serde15newtype_variant13target_fuzz__NtBb_4Args13auto_generateINtB5_s8_4AutoNtBd_14NewtypeVariantEINtB5_s8_12AutoFallbackB1I_E4autoBf_
FN:76,_RNvXsm_NvMs1_NtNtCs2k5fBaaxJWw_5serde15newtype_variant13target_fuzz__NtBb_4Args13auto_generateINtB5_sa_4AutoNtBd_14NewtypeVariantEINtB5_sa_12AutoFallbackB1I_E4autoBf_
FN:76,_RNvXso_NvMs1_NtNtCs2k5fBaaxJWw_5serde15newtype_variant13target_fuzz__NtBb_4Args13auto_generateINtB5_sb_4AutoNtBd_14NewtypeVariantEINtB5_sb_12AutoFallbackB1I_E4autoBf_
FN:76,_RNvXsq_NvMs1_NtNtCs2k5fBaaxJWw_5serde15newtype_variant13target_fuzz__NtBb_4Args13auto_generateINtB5_sc_4AutoNtBd_14NewtypeVariantEINtB5_sc_12AutoFallbackB1I_E4autoBf_
FN:85,_RNvMs1_NvMs1_NtNtCs2k5fBaaxJWw_5serde5tuple13target_fuzz__NtBb_4Args13auto_generateINtB5_s_4AutoThEE4autoBf_
FN:85,_RNvMs9_NvMs1_NtNtCs2k5fBaaxJWw_5serde5tuple13target_fuzz__NtBb_4Args13auto_generateINtB5_s3_4AutoThEE4autoBf_
FN:85,_RNvMsD_NvMs1_NtNtCs2k5fBaaxJWw_5serde5tuple13target_fuzz__NtBb_4Args13auto_generateINtB5_si_4AutoThhEE4autoBf_
FN:85,_RNvMsF_NvMs1_NtNtCs2k5fBaaxJWw_5serde5tuple13target_fuzz__NtBb_4Args13auto_generateINtB5_sj_4AutoThhEE4autoBf_
FN:85,_RNvMsN_NvMs1_NtNtCs2k5fBaaxJWw_5serde5tuple13target_fuzz__NtBb_4Args13auto_generateINtB5_sn_4AutoThhEE4autoBf_
FN:85,_RNvMsP_NvMs1_NtNtCs2k5fBaaxJWw_5serde5tuple13target_fuzz__NtBb_4Args13auto_generateINtB5_so_4AutoThhEE4autoBf_
FN:85,_RNvMs_NvMs1_NtNtCs2k5fBaaxJWw_5serde5tuple13target_fuzz__NtBa_4Args13auto_generateINtB4_4AutoThEE4autoBe_
FN:85,_RNvMsb_NvMs1_NtNtCs2k5fBaaxJWw_5serde5tuple13target_fuzz__NtBb_4Args13auto_generateINtB5_s4_4AutoThEE4autoBf_
FN:85,_RNvMsj_NvMs1_NtNtCs2k5fBaaxJWw_5serde5tuple13target_fuzz__NtBb_4Args13auto_generateINtB5_s8_4AutoThEE4autoBf_
FN:85,_RNvMsl_NvMs1_NtNtCs2k5fBaaxJWw_5serde5tuple13target_fuzz__NtBb_4Args13auto_generateINtB5_s9_4AutoThEE4autoBf_
FN:85,_RNvMst_NvMs1_NtNtCs2k5fBaaxJWw_5serde5tuple13target_fuzz__NtBb_4Args13auto_generateINtB5_sd_4AutoThhEE4autoBf_
FN:85,_RNvMsv_NvMs1_NtNtCs2k5fBaaxJWw_5serde5tuple13target_fuzz__NtBb_4Args13auto_generateINtB5_se_4AutoThhEE4autoBf_
FN:76,_RNvXs2_NvMs1_NtNtCs2k5fBaaxJWw_5serde5tuple13target_fuzz__NtBb_4Args13auto_generateINtB5_s0_4AutoThEEINtB5_s0_12AutoFallbackB1x_E4autoBf_
FN:76,_RNvXs4_NvMs1_NtNtCs2k5fBaaxJWw_5serde5tuple13target_fuzz__NtBb_4Args13auto_generateINtB5_s1_4AutoThEEINtB5_s1_12AutoFallbackB1x_E4autoBf_
FN:76,_RNvXs6_NvMs1_NtNtCs2k5fBaaxJWw_5serde5tuple13target_fuzz__NtBb_4Args13auto_generateINtB5_s2_4AutoThEEINtB5_s2_12AutoFallbackB1x_E4autoBf_
FN:76,_RNvXsA_NvMs1_NtNtCs2k5fBaaxJWw_5serde5tuple13target_fuzz__NtBb_4Args13auto_generateINtB5_sh_4AutoThhEEINtB5_sh_12AutoFallbackB1x_E4autoBf_
FN:76,_RNvXsG_NvMs1_NtNtCs2k5fBaaxJWw_5serde5tuple13target_fuzz__NtBb_4Args13auto_generateINtB5_sk_4AutoThhEEINtB5_sk_12AutoFallbackB1x_E4autoBf_
FN:76,_RNvXsI_NvMs1_NtNtCs2k5fBaaxJWw_5serde5tuple13target_fuzz__NtBb_4Args13auto_generateINtB5_sl_4AutoThhEEINtB5_sl_12AutoFallbackB1x_E4autoBf_
FN:76,_RNvXsK_NvMs1_NtNtCs2k5fBaaxJWw_5serde5tuple13target_fuzz__NtBb_4Args13auto_generateINtB5_sm_4AutoThhEEINtB5_sm_12AutoFallbackB1x_E4autoBf_
FN:76,_RNvXsQ_NvMs1_NtNtCs2k5fBaaxJWw_5serde5tuple13target_fuzz__NtBb_4Args13auto_generateINtB5_sp_4AutoThhEEINtB5_sp_12AutoFallbackB1x_E4autoBf_
FN:76,_RNvXsS_NvMs1_NtNtCs2k5fBaaxJWw_5serde5tuple13target_fuzz__NtBb_4Args13auto_generateINtB5_sq_4AutoThhEEINtB5_sq_12AutoFallbackB1x_E4autoBf_
FN:76,_RNvXsU_NvMs1_NtNtCs2k5fBaaxJWw_5serde5tuple13target_fuzz__NtBb_4Args13auto_generateINtB5_sr_4AutoThhEEINtB5_sr_12AutoFallbackB1x_E4autoBf_
FN:76,_RNvXsc_NvMs1_NtNtCs2k5fBaaxJWw_5serde5tuple13target_fuzz__NtBb_4Args13auto_generateINtB5_s5_4AutoThEEINtB5_s5_12AutoFallbackB1x_E4autoBf_
FN:76,_RNvXse_NvMs1_NtNtCs2k5fBaaxJWw_5serde5tuple13target_fuzz__NtBb_4Args13auto_generateINtB5_s6_4AutoThEEINtB5_s6_12AutoFallbackB1x_E4autoBf_
FN:76,_RNvXsg_NvMs1_NtNtCs2k5fBaaxJWw_5serde5tuple13target_fuzz__NtBb_4Args13auto_generateINtB5_s7_4AutoThEEINtB5_s7_12AutoFallbackB1x_E4autoBf_
FN:76,_RNvXsm_NvMs1_NtNtCs2k5fBaaxJWw_5serde5tuple13target_fuzz__NtBb_4Args13auto_generateINtB5_sa_4AutoThEEINtB5_sa_12AutoFallbackB1x_E4autoBf_
FN:76,_RNvXso_NvMs1_NtNtCs2k5fBaaxJWw_5serde5tuple13target_fuzz__NtBb_4Args13auto_generateINtB5_sb_4AutoThEEINtB5_sb_12AutoFallbackB1x_E4autoBf_
FN:76,_RNvXsq_NvMs1_NtNtCs2k5fBaaxJWw_5serde5tuple13target_fuzz__NtBb_4Args13auto_generateINtB5_sc_4AutoThEEINtB5_sc_12AutoFallbackB1x_E4autoBf_
FN:76,_RNvXsw_NvMs1_NtNtCs2k5fBaaxJWw_5serde5tuple13target_fuzz__NtBb_4Args13auto_generateINtB5_sf_4AutoThhEEINtB5_sf_12AutoFallbackB1x_E4autoBf_
FN:76,_RNvXsy_NvMs1_NtNtCs2k5fBaaxJWw_5serde5tuple13target_fuzz__NtBb_4Args13auto_generateINtB5_sg_4AutoThhEEINtB5_sg_12AutoFallbackB1x_E4autoBf_
FN:76,_RNvXNvMs1_NtNtCs2k5fBaaxJWw_5serde12unit_variant13target_fuzz__NtB8_4Args13auto_generateINtB2_4AutoNtBa_11UnitVariantEINtB2_12AutoFallbackB1z_E4autoBc_
FN:76,_RNvXs0_NvMs1_NtNtCs2k5fBaaxJWw_5serde12unit_variant13target_fuzz__NtBb_4Args13auto_generateINtB5_s_4AutoNtBd_11UnitVariantEINtB5_s_12AutoFallbackB1E_E4autoBf_
FN:76,_RNvXs2_NvMs1_NtNtCs2k5fBaaxJWw_5serde12unit_variant13target_fuzz__NtBb_4Args13auto_generateINtB5_s0_4AutoNtBd_11UnitVariantEINtB5_s0_12AutoFallbackB1F_E4autoBf_
FN:76,_RNvXs4_NvMs1_NtNtCs2k5fBaaxJWw_5serde12unit_variant13target_fuzz__NtBb_4Args13auto_generateINtB5_s1_4AutoNtBd_11UnitVariantEINtB5_s1_12AutoFallbackB1F_E4autoBf_
FN:76,_RNvXs6_NvMs1_NtNtCs2k5fBaaxJWw_5serde12unit_variant13target_fuzz__NtBb_4Args13auto_generateINtB5_s2_4AutoNtBd_11UnitVariantEINtB5_s2_12AutoFallbackB1F_E4autoBf_
FN:76,_RNvXs8_NvMs1_NtNtCs2k5fBaaxJWw_5serde12unit_variant13target_fuzz__NtBb_4Args13auto_generateINtB5_s3_4AutoNtBd_11UnitVariantEINtB5_s3_12AutoFallbackB1F_E4autoBf_
FN:76,_RNvXsa_NvMs1_NtNtCs2k5fBaaxJWw_5serde12unit_variant13target_fuzz__NtBb_4Args13auto_generateINtB5_s4_4AutoNtBd_11UnitVariantEINtB5_s4_12AutoFallbackB1F_E4autoBf_
FN:76,_RNvXsc_NvMs1_NtNtCs2k5fBaaxJWw_5serde12unit_variant13target_fuzz__NtBb_4Args13auto_generateINtB5_s5_4AutoNtBd_11UnitVariantEINtB5_s5_12AutoFallbackB1F_E4autoBf_
FN:76,_RNvXse_NvMs1_NtNtCs2k5fBaaxJWw_5serde12unit_variant13target_fuzz__NtBb_4Args13auto_generateINtB5_s6_4AutoNtBd_11UnitVariantEINtB5_s6_12AutoFallbackB1F_E4autoBf_
FN:76,_RNvXsg_NvMs1_NtNtCs2k5fBaaxJWw_5serde12unit_variant13target_fuzz__NtBb_4Args13auto_generateINtB5_s7_4AutoNtBd_11UnitVariantEINtB5_s7_12AutoFallbackB1F_E4autoBf_
FN:76,_RNvXsi_NvMs1_NtNtCs2k5fBaaxJWw_5serde12unit_variant13target_fuzz__NtBb_4Args13auto_generateINtB5_s8_4AutoNtBd_11UnitVariantEINtB5_s8_12AutoFallbackB1F_E4autoBf_
FN:76,_RNvXsk_NvMs1_NtNtCs2k5fBaaxJWw_5serde12unit_variant13target_fuzz__NtBb_4Args13auto_generateINtB5_s9_4AutoNtBd_11UnitVariantEINtB5_s9_12AutoFallbackB1F_E4autoBf_
FN:76,_RNvXsm_NvMs1_NtNtCs2k5fBaaxJWw_5serde12unit_variant13target_fuzz__NtBb_4Args13auto_generateINtB5_sa_4AutoNtBd_11UnitVariantEINtB5_sa_12AutoFallbackB1F_E4autoBf_
FN:76,_RNvXso_NvMs1_NtNtCs2k5fBaaxJWw_5serde12unit_variant13target_fuzz__NtBb_4Args13auto_generateINtB5_sb_4AutoNtBd_11UnitVariantEINtB5_sb_12AutoFallbackB1F_E4autoBf_
FN:76,_RNvXsq_NvMs1_NtNtCs2k5fBaaxJWw_5serde12unit_variant13target_fuzz__NtBb_4Args13auto_generateINtB5_sc_4AutoNtBd_11UnitVariantEINtB5_sc_12AutoFallbackB1F_E4autoBf_
FN:85,_RNvMs1_NvMs1_NtNtCs2k5fBaaxJWw_5serde12tuple_struct13target_fuzz__NtBb_4Args13auto_generateINtB5_s_4AutoNtBd_11TupleStructE4autoBf_
FN:85,_RNvMsb_NvMs1_NtNtCs2k5fBaaxJWw_5serde12tuple_struct13target_fuzz__NtBb_4Args13auto_generateINtB5_s4_4AutoNtBd_11TupleStructE4autoBf_
FN:85,_RNvMsl_NvMs1_NtNtCs2k5fBaaxJWw_5serde12tuple_struct13target_fuzz__NtBb_4Args13auto_generateINtB5_s9_4AutoNtBd_11TupleStructE4autoBf_
FN:76,_RNvXNvMs1_NtNtCs2k5fBaaxJWw_5serde12tuple_struct13target_fuzz__NtB8_4Args13auto_generateINtB2_4AutoNtBa_11TupleStructEINtB2_12AutoFallbackB1z_E4autoBc_
FN:76,_RNvXs2_NvMs1_NtNtCs2k5fBaaxJWw_5serde12tuple_struct13target_fuzz__NtBb_4Args13auto_generateINtB5_s0_4AutoNtBd_11TupleStructEINtB5_s0_12AutoFallbackB1F_E4autoBf_
FN:76,_RNvXs4_NvMs1_NtNtCs2k5fBaaxJWw_5serde12tuple_struct13target_fuzz__NtBb_4Args13auto_generateINtB5_s1_4AutoNtBd_11TupleStructEINtB5_s1_12AutoFallbackB1F_E4autoBf_
FN:76,_RNvXs6_NvMs1_NtNtCs2k5fBaaxJWw_5serde12tuple_struct13target_fuzz__NtBb_4Args13auto_generateINtB5_s2_4AutoNtBd_11TupleStructEINtB5_s2_12AutoFallbackB1F_E4autoBf_
FN:76,_RNvXs8_NvMs1_NtNtCs2k5fBaaxJWw_5serde12tuple_struct13target_fuzz__NtBb_4Args13auto_generateINtB5_s3_4AutoNtBd_11TupleStructEINtB5_s3_12AutoFallbackB1F_E4autoBf_
FN:76,_RNvXsc_NvMs1_NtNtCs2k5fBaaxJWw_5serde12tuple_struct13target_fuzz__NtBb_4Args13auto_generateINtB5_s5_4AutoNtBd_11TupleStructEINtB5_s5_12AutoFallbackB1F_E4autoBf_
FN:76,_RNvXse_NvMs1_NtNtCs2k5fBaaxJWw_5serde12tuple_struct13target_fuzz__NtBb_4Args13auto_generateINtB5_s6_4AutoNtBd_11TupleStructEINtB5_s6_12AutoFallbackB1F_E4autoBf_
FN:76,_RNvXsg_NvMs1_NtNtCs2k5fBaaxJWw_5serde12tuple_struct13target_fuzz__NtBb_4Args13auto_generateINtB5_s7_4AutoNtBd_11TupleStructEINtB5_s7_12AutoFallbackB1F_E4autoBf_
FN:76,_RNvXsi_NvMs1_NtNtCs2k5fBaaxJWw_5serde12tuple_struct13target_fuzz__NtBb_4Args13auto_generateINtB5_s8_4AutoNtBd_11TupleStructEINtB5_s8_12AutoFallbackB1F_E4autoBf_
FN:76,_RNvXsm_NvMs1_NtNtCs2k5fBaaxJWw_5serde12tuple_struct13target_fuzz__NtBb_4Args13auto_generateINtB5_sa_4AutoNtBd_11TupleStructEINtB5_sa_12AutoFallbackB1F_E4autoBf_
FN:76,_RNvXso_NvMs1_NtNtCs2k5fBaaxJWw_5serde12tuple_struct13target_fuzz__NtBb_4Args13auto_generateINtB5_sb_4AutoNtBd_11TupleStructEINtB5_sb_12AutoFallbackB1F_E4autoBf_
FN:76,_RNvXsq_NvMs1_NtNtCs2k5fBaaxJWw_5serde12tuple_struct13target_fuzz__NtBb_4Args13auto_generateINtB5_sc_4AutoNtBd_11TupleStructEINtB5_sc_12AutoFallbackB1F_E4autoBf_
FN:85,_RNvMs1_NvMs1_NtNtCs2k5fBaaxJWw_5serde6string13target_fuzz__NtBb_4Args13auto_generateINtB5_s_4AutoNtNtCsgag4BwXrjBQ_5alloc6string6StringE4autoBf_
FN:85,_RNvMsb_NvMs1_NtNtCs2k5fBaaxJWw_5serde6string13target_fuzz__NtBb_4Args13auto_generateINtB5_s4_4AutoNtNtCsgag4BwXrjBQ_5alloc6string6StringE4autoBf_
FN:85,_RNvMsl_NvMs1_NtNtCs2k5fBaaxJWw_5serde6string13target_fuzz__NtBb_4Args13auto_generateINtB5_s9_4AutoNtNtCsgag4BwXrjBQ_5alloc6string6StringE4autoBf_
FN:85,_RNvMsv_NvMs1_NtNtCs2k5fBaaxJWw_5serde6string13target_fuzz__NtBb_4Args13auto_generateINtB5_se_4AutoNtNtCsgag4BwXrjBQ_5alloc6string6StringE4autoBf_
FN:76,_RNvXNvMs1_NtNtCs2k5fBaaxJWw_5serde6string13target_fuzz__NtB8_4Args13auto_generateINtB2_4AutoNtNtCsgag4BwXrjBQ_5alloc6string6StringEINtB2_12AutoFallbackB1s_E4autoBc_
FN:76,_RNvXs2_NvMs1_NtNtCs2k5fBaaxJWw_5serde6string13target_fuzz__NtBb_4Args13auto_generateINtB5_s0_4AutoNtNtCsgag4BwXrjBQ_5alloc6string6StringEINtB5_s0_12AutoFallbackB1y_E4autoBf_
FN:76,_RNvXs4_NvMs1_NtNtCs2k5fBaaxJWw_5serde6string13target_fuzz__NtBb_4Args13auto_generateINtB5_s1_4AutoNtNtCsgag4BwXrjBQ_5alloc6string6StringEINtB5_s1_12AutoFallbackB1y_E4autoBf_
FN:76,_RNvXs6_NvMs1_NtNtCs2k5fBaaxJWw_5serde6string13target_fuzz__NtBb_4Args13auto_generateINtB5_s2_4AutoNtNtCsgag4BwXrjBQ_5alloc6string6StringEINtB5_s2_12AutoFallbackB1y_E4autoBf_
FN:76,_RNvXs8_NvMs1_NtNtCs2k5fBaaxJWw_5serde6string13target_fuzz__NtBb_4Args13auto_generateINtB5_s3_4AutoNtNtCsgag4BwXrjBQ_5alloc6string6StringEINtB5_s3_12AutoFallbackB1y_E4autoBf_
FN:76,_RNvXsA_NvMs1_NtNtCs2k5fBaaxJWw_5serde6string13target_fuzz__NtBb_4Args13auto_generateINtB5_sh_4AutoNtNtCsgag4BwXrjBQ_5alloc6string6StringEINtB5_sh_12AutoFallbackB1y_E4autoBf_
FN:76,_RNvXsc_NvMs1_NtNtCs2k5fBaaxJWw_5serde6string13target_fuzz__NtBb_4Args13auto_generateINtB5_s5_4AutoNtNtCsgag4BwXrjBQ_5alloc6string6StringEINtB5_s5_12AutoFallbackB1y_E4autoBf_
FN:76,_RNvXse_NvMs1_NtNtCs2k5fBaaxJWw_5serde6string13target_fuzz__NtBb_4Args13auto_generateINtB5_s6_4AutoNtNtCsgag4BwXrjBQ_5alloc6string6StringEINtB5_s6_12AutoFallbackB1y_E4autoBf_
FN:76,_RNvXsg_NvMs1_NtNtCs2k5fBaaxJWw_5serde6string13target_fuzz__NtBb_4Args13auto_generateINtB5_s7_4AutoNtNtCsgag4BwXrjBQ_5alloc6string6StringEINtB5_s7_12AutoFallbackB1y_E4autoBf_
FN:76,_RNvXsi_NvMs1_NtNtCs2k5fBaaxJWw_5serde6string13target_fuzz__NtBb_4Args13auto_generateINtB5_s8_4AutoNtNtCsgag4BwXrjBQ_5alloc6string6StringEINtB5_s8_12AutoFallbackB1y_E4autoBf_
FN:76,_RNvXsm_NvMs1_NtNtCs2k5fBaaxJWw_5serde6string13target_fuzz__NtBb_4Args13auto_generateINtB5_sa_4AutoNtNtCsgag4BwXrjBQ_5alloc6string6StringEINtB5_sa_12AutoFallbackB1y_E4autoBf_
FN:76,_RNvXso_NvMs1_NtNtCs2k5fBaaxJWw_5serde6string13target_fuzz__NtBb_4Args13auto_generateINtB5_sb_4AutoNtNtCsgag4BwXrjBQ_5alloc6string6StringEINtB5_sb_12AutoFallbackB1y_E4autoBf_
FN:76,_RNvXsq_NvMs1_NtNtCs2k5fBaaxJWw_5serde6string13target_fuzz__NtBb_4Args13auto_generateINtB5_sc_4AutoNtNtCsgag4BwXrjBQ_5alloc6string6StringEINtB5_sc_12AutoFallbackB1y_E4autoBf_
FN:76,_RNvXss_NvMs1_NtNtCs2k5fBaaxJWw_5serde6string13target_fuzz__NtBb_4Args13auto_generateINtB5_sd_4AutoNtNtCsgag4BwXrjBQ_5alloc6string6StringEINtB5_sd_12AutoFallbackB1y_E4autoBf_
FN:76,_RNvXsw_NvMs1_NtNtCs2k5fBaaxJWw_5serde6string13target_fuzz__NtBb_4Args13auto_generateINtB5_sf_4AutoNtNtCsgag4BwXrjBQ_5alloc6string6StringEINtB5_sf_12AutoFallbackB1y_E4autoBf_
FN:76,_RNvXsy_NvMs1_NtNtCs2k5fBaaxJWw_5serde6string13target_fuzz__NtBb_4Args13auto_generateINtB5_sg_4AutoNtNtCsgag4BwXrjBQ_5alloc6string6StringEINtB5_sg_12AutoFallbackB1y_E4autoBf_
FN:85,_RNvMs1_NvMs1_NtNtCs2k5fBaaxJWw_5serde6strukt13target_fuzz__NtBb_4Args13auto_generateINtB5_s_4AutoNtBd_6StructE4autoBf_
FN:85,_RNvMsb_NvMs1_NtNtCs2k5fBaaxJWw_5serde6strukt13target_fuzz__NtBb_4Args13auto_generateINtB5_s4_4AutoNtBd_6StructE4autoBf_
FN:85,_RNvMsl_NvMs1_NtNtCs2k5fBaaxJWw_5serde6strukt13target_fuzz__NtBb_4Args13auto_generateINtB5_s9_4AutoNtBd_6StructE4autoBf_
FN:76,_RNvXNvMs1_NtNtCs2k5fBaaxJWw_5serde6strukt13target_fuzz__NtB8_4Args13auto_generateINtB2_4AutoNtBa_6StructEINtB2_12AutoFallbackB1s_E4autoBc_
FN:76,_RNvXs2_NvMs1_NtNtCs2k5fBaaxJWw_5serde6strukt13target_fuzz__NtBb_4Args13auto_generateINtB5_s0_4AutoNtBd_6StructEINtB5_s0_12AutoFallbackB1y_E4autoBf_
FN:76,_RNvXs4_NvMs1_NtNtCs2k5fBaaxJWw_5serde6strukt13target_fuzz__NtBb_4Args13auto_generateINtB5_s1_4AutoNtBd_6StructEINtB5_s1_12AutoFallbackB1y_E4autoBf_
FN:76,_RNvXs6_NvMs1_NtNtCs2k5fBaaxJWw_5serde6strukt13target_fuzz__NtBb_4Args13auto_generateINtB5_s2_4AutoNtBd_6StructEINtB5_s2_12AutoFallbackB1y_E4autoBf_
FN:76,_RNvXs8_NvMs1_NtNtCs2k5fBaaxJWw_5serde6strukt13target_fuzz__NtBb_4Args13auto_generateINtB5_s3_4AutoNtBd_6StructEINtB5_s3_12AutoFallbackB1y_E4autoBf_
FN:76,_RNvXsc_NvMs1_NtNtCs2k5fBaaxJWw_5serde6strukt13target_fuzz__NtBb_4Args13auto_generateINtB5_s5_4AutoNtBd_6StructEINtB5_s5_12AutoFallbackB1y_E4autoBf_
FN:76,_RNvXse_NvMs1_NtNtCs2k5fBaaxJWw_5serde6strukt13target_fuzz__NtBb_4Args13auto_generateINtB5_s6_4AutoNtBd_6StructEINtB5_s6_12AutoFallbackB1y_E4autoBf_
FN:76,_RNvXsg_NvMs1_NtNtCs2k5fBaaxJWw_5serde6strukt13target_fuzz__NtBb_4Args13auto_generateINtB5_s7_4AutoNtBd_6StructEINtB5_s7_12AutoFallbackB1y_E4autoBf_
FN:76,_RNvXsi_NvMs1_NtNtCs2k5fBaaxJWw_5serde6strukt13target_fuzz__NtBb_4Args13auto_generateINtB5_s8_4AutoNtBd_6StructEINtB5_s8_12AutoFallbackB1y_E4autoBf_
FN:76,_RNvXsm_NvMs1_NtNtCs2k5fBaaxJWw_5serde6strukt13target_fuzz__NtBb_4Args13auto_generateINtB5_sa_4AutoNtBd_6StructEINtB5_sa_12AutoFallbackB1y_E4autoBf_
FN:76,_RNvXso_NvMs1_NtNtCs2k5fBaaxJWw_5serde6strukt13target_fuzz__NtBb_4Args13auto_generateINtB5_sb_4AutoNtBd_6StructEINtB5_sb_12AutoFallbackB1y_E4autoBf_
FN:76,_RNvXsq_NvMs1_NtNtCs2k5fBaaxJWw_5serde6strukt13target_fuzz__NtBb_4Args13auto_generateINtB5_sc_4AutoNtBd_6StructEINtB5_sc_12AutoFallbackB1y_E4autoBf_
FN:85,_RNvMs1_NvMs1_NtNtCs2k5fBaaxJWw_5serde14newtype_struct13target_fuzz__NtBb_4Args13auto_generateINtB5_s_4AutoNtBd_13NewtypeStructE4autoBf_
FN:85,_RNvMsb_NvMs1_NtNtCs2k5fBaaxJWw_5serde14newtype_struct13target_fuzz__NtBb_4Args13auto_generateINtB5_s4_4AutoNtBd_13NewtypeStructE4autoBf_
FN:85,_RNvMsl_NvMs1_NtNtCs2k5fBaaxJWw_5serde14newtype_struct13target_fuzz__NtBb_4Args13auto_generateINtB5_s9_4AutoNtBd_13NewtypeStructE4autoBf_
FN:76,_RNvXNvMs1_NtNtCs2k5fBaaxJWw_5serde14newtype_struct13target_fuzz__NtB8_4Args13auto_generateINtB2_4AutoNtBa_13NewtypeStructEINtB2_12AutoFallbackB1B_E4autoBc_
FN:76,_RNvXs2_NvMs1_NtNtCs2k5fBaaxJWw_5serde14newtype_struct13target_fuzz__NtBb_4Args13auto_generateINtB5_s0_4AutoNtBd_13NewtypeStructEINtB5_s0_12AutoFallbackB1H_E4autoBf_
FN:76,_RNvXs4_NvMs1_NtNtCs2k5fBaaxJWw_5serde14newtype_struct13target_fuzz__NtBb_4Args13auto_generateINtB5_s1_4AutoNtBd_13NewtypeStructEINtB5_s1_12AutoFallbackB1H_E4autoBf_
FN:76,_RNvXs6_NvMs1_NtNtCs2k5fBaaxJWw_5serde14newtype_struct13target_fuzz__NtBb_4Args13auto_generateINtB5_s2_4AutoNtBd_13NewtypeStructEINtB5_s2_12AutoFallbackB1H_E4autoBf_
FN:76,_RNvXs8_NvMs1_NtNtCs2k5fBaaxJWw_5serde14newtype_struct13target_fuzz__NtBb_4Args13auto_generateINtB5_s3_4AutoNtBd_13NewtypeStructEINtB5_s3_12AutoFallbackB1H_E4autoBf_
FN:76,_RNvXsc_NvMs1_NtNtCs2k5fBaaxJWw_5serde14newtype_struct13target_fuzz__NtBb_4Args13auto_generateINtB5_s5_4AutoNtBd_13NewtypeStructEINtB5_s5_12AutoFallbackB1H_E4autoBf_
FN:76,_RNvXse_NvMs1_NtNtCs2k5fBaaxJWw_5serde14newtype_struct13target_fuzz__NtBb_4Args13auto_generateINtB5_s6_4AutoNtBd_13NewtypeStructEINtB5_s6_12AutoFallbackB1H_E4autoBf_
FN:76,_RNvXsg_NvMs1_NtNtCs2k5fBaaxJWw_5serde14newtype_struct13target_fuzz__NtBb_4Args13auto_generateINtB5_s7_4AutoNtBd_13NewtypeStructEINtB5_s7_12AutoFallbackB1H_E4autoBf_
FN:76,_RNvXsi_NvMs1_NtNtCs2k5fBaaxJWw_5serde14newtype_struct13target_fuzz__NtBb_4Args13auto_generateINtB5_s8_4AutoNtBd_13NewtypeStructEINtB5_s8_12AutoFallbackB1H_E4autoBf_
FN:76,_RNvXsm_NvMs1_NtNtCs2k5fBaaxJWw_5serde14newtype_struct13target_fuzz__NtBb_4Args13auto_generateINtB5_sa_4AutoNtBd_13NewtypeStructEINtB5_sa_12AutoFallbackB1H_E4autoBf_
FN:76,_RNvXso_NvMs1_NtNtCs2k5fBaaxJWw_5serde14newtype_struct13target_fuzz__NtBb_4Args13auto_generateINtB5_sb_4AutoNtBd_13NewtypeStructEINtB5_sb_12AutoFallbackB1H_E4autoBf_
FN:76,_RNvXsq_NvMs1_NtNtCs2k5fBaaxJWw_5serde14newtype_struct13target_fuzz__NtBb_4Args13auto_generateINtB5_sc_4AutoNtBd_13NewtypeStructEINtB5_sc_12AutoFallbackB1H_E4autoBf_
FN:85,_RNvMs1_NvMs1_NtNtCs2k5fBaaxJWw_5serde4unit13target_fuzz__NtBb_4Args13auto_generateINtB5_s_4AutouE4autoBf_
FN:85,_RNvMs9_NvMs1_NtNtCs2k5fBaaxJWw_5serde4unit13target_fuzz__NtBb_4Args13auto_generateINtB5_s3_4AutouE4autoBf_
FN:85,_RNvMs_NvMs1_NtNtCs2k5fBaaxJWw_5serde4unit13target_fuzz__NtBa_4Args13auto_generateINtB4_4AutouE4autoBe_
FN:85,_RNvMsb_NvMs1_NtNtCs2k5fBaaxJWw_5serde4unit13target_fuzz__NtBb_4Args13auto_generateINtB5_s4_4AutouE4autoBf_
FN:85,_RNvMsj_NvMs1_NtNtCs2k5fBaaxJWw_5serde4unit13target_fuzz__NtBb_4Args13auto_generateINtB5_s8_4AutouE4autoBf_
FN:85,_RNvMsl_NvMs1_NtNtCs2k5fBaaxJWw_5serde4unit13target_fuzz__NtBb_4Args13auto_generateINtB5_s9_4AutouE4autoBf_
FN:76,_RNvXs2_NvMs1_NtNtCs2k5fBaaxJWw_5serde4unit13target_fuzz__NtBb_4Args13auto_generateINtB5_s0_4AutouEINtB5_s0_12AutoFallbackuE4autoBf_
FN:76,_RNvXs4_NvMs1_NtNtCs2k5fBaaxJWw_5serde4unit13target_fuzz__NtBb_4Args13auto_generateINtB5_s1_4AutouEINtB5_s1_12AutoFallbackuE4autoBf_
FN:76,_RNvXs6_NvMs1_NtNtCs2k5fBaaxJWw_5serde4unit13target_fuzz__NtBb_4Args13auto_generateINtB5_s2_4AutouEINtB5_s2_12AutoFallbackuE4autoBf_
FN:76,_RNvXsc_NvMs1_NtNtCs2k5fBaaxJWw_5serde4unit13target_fuzz__NtBb_4Args13auto_generateINtB5_s5_4AutouEINtB5_s5_12AutoFallbackuE4autoBf_
FN:76,_RNvXse_NvMs1_NtNtCs2k5fBaaxJWw_5serde4unit13target_fuzz__NtBb_4Args13auto_generateINtB5_s6_4AutouEINtB5_s6_12AutoFallbackuE4autoBf_
FN:76,_RNvXsg_NvMs1_NtNtCs2k5fBaaxJWw_5serde4unit13target_fuzz__NtBb_4Args13auto_generateINtB5_s7_4AutouEINtB5_s7_12AutoFallbackuE4autoBf_
FN:76,_RNvXsm_NvMs1_NtNtCs2k5fBaaxJWw_5serde4unit13target_fuzz__NtBb_4Args13auto_generateINtB5_sa_4AutouEINtB5_sa_12AutoFallbackuE4autoBf_
FN:76,_RNvXso_NvMs1_NtNtCs2k5fBaaxJWw_5serde4unit13target_fuzz__NtBb_4Args13auto_generateINtB5_sb_4AutouEINtB5_sb_12AutoFallbackuE4autoBf_
FN:76,_RNvXsq_NvMs1_NtNtCs2k5fBaaxJWw_5serde4unit13target_fuzz__NtBb_4Args13auto_generateINtB5_sc_4AutouEINtB5_sc_12AutoFallbackuE4autoBf_
FN:85,_RNvMs19_NvMs1_NtNtCs2k5fBaaxJWw_5serde10byte_array13target_fuzz__NtBc_4Args13auto_generateINtB6_sy_4AutoAhj2_E4autoBg_
FN:85,_RNvMs1_NvMs1_NtNtCs2k5fBaaxJWw_5serde10byte_array13target_fuzz__NtBb_4Args13auto_generateINtB5_s_4AutoAhj0_E4autoBf_
FN:85,_RNvMs1j_NvMs1_NtNtCs2k5fBaaxJWw_5serde10byte_array13target_fuzz__NtBc_4Args13auto_generateINtB6_sD_4AutoAhj2_E4autoBg_
FN:85,_RNvMsF_NvMs1_NtNtCs2k5fBaaxJWw_5serde10byte_array13target_fuzz__NtBb_4Args13auto_generateINtB5_sj_4AutoAhj1_E4autoBf_
FN:85,_RNvMsP_NvMs1_NtNtCs2k5fBaaxJWw_5serde10byte_array13target_fuzz__NtBb_4Args13auto_generateINtB5_so_4AutoAhj1_E4autoBf_
FN:85,_RNvMsZ_NvMs1_NtNtCs2k5fBaaxJWw_5serde10byte_array13target_fuzz__NtBb_4Args13auto_generateINtB5_st_4AutoAhj2_E4autoBf_
FN:85,_RNvMsb_NvMs1_NtNtCs2k5fBaaxJWw_5serde10byte_array13target_fuzz__NtBb_4Args13auto_generateINtB5_s4_4AutoAhj0_E4autoBf_
FN:85,_RNvMsl_NvMs1_NtNtCs2k5fBaaxJWw_5serde10byte_array13target_fuzz__NtBb_4Args13auto_generateINtB5_s9_4AutoAhj0_E4autoBf_
FN:85,_RNvMsv_NvMs1_NtNtCs2k5fBaaxJWw_5serde10byte_array13target_fuzz__NtBb_4Args13auto_generateINtB5_se_4AutoAhj1_E4autoBf_
FN:76,_RNvXNvMs1_NtNtCs2k5fBaaxJWw_5serde10byte_array13target_fuzz__NtB8_4Args13auto_generateINtB2_4AutoAhj0_EINtB2_12AutoFallbackB1x_E4autoBc_
FN:76,_RNvXs10_NvMs1_NtNtCs2k5fBaaxJWw_5serde10byte_array13target_fuzz__NtBc_4Args13auto_generateINtB6_su_4AutoAhj2_EINtB6_su_12AutoFallbackB1E_E4autoBg_
FN:76,_RNvXs12_NvMs1_NtNtCs2k5fBaaxJWw_5serde10byte_array13target_fuzz__NtBc_4Args13auto_generateINtB6_sv_4AutoAhj2_EINtB6_sv_12AutoFallbackB1E_E4autoBg_
FN:76,_RNvXs14_NvMs1_NtNtCs2k5fBaaxJWw_5serde10byte_array13target_fuzz__NtBc_4Args13auto_generateINtB6_sw_4AutoAhj2_EINtB6_sw_12AutoFallbackB1E_E4autoBg_
FN:76,_RNvXs16_NvMs1_NtNtCs2k5fBaaxJWw_5serde10byte_array13target_fuzz__NtBc_4Args13auto_generateINtB6_sx_4AutoAhj2_EINtB6_sx_12AutoFallbackB1E_E4autoBg_
FN:76,_RNvXs1a_NvMs1_NtNtCs2k5fBaaxJWw_5serde10byte_array13target_fuzz__NtBc_4Args13auto_generateINtB6_sz_4AutoAhj2_EINtB6_sz_12AutoFallbackB1E_E4autoBg_
FN:76,_RNvXs1c_NvMs1_NtNtCs2k5fBaaxJWw_5serde10byte_array13target_fuzz__NtBc_4Args13auto_generateINtB6_sA_4AutoAhj2_EINtB6_sA_12AutoFallbackB1E_E4autoBg_
FN:76,_RNvXs1e_NvMs1_NtNtCs2k5fBaaxJWw_5serde10byte_array13target_fuzz__NtBc_4Args13auto_generateINtB6_sB_4AutoAhj2_EINtB6_sB_12AutoFallbackB1E_E4autoBg_
FN:76,_RNvXs1g_NvMs1_NtNtCs2k5fBaaxJWw_5serde10byte_array13target_fuzz__NtBc_4Args13auto_generateINtB6_sC_4AutoAhj2_EINtB6_sC_12AutoFallbackB1E_E4autoBg_
FN:76,_RNvXs1k_NvMs1_NtNtCs2k5fBaaxJWw_5serde10byte_array13target_fuzz__NtBc_4Args13auto_generateINtB6_sE_4AutoAhj2_EINtB6_sE_12AutoFallbackB1E_E4autoBg_
FN:76,_RNvXs1m_NvMs1_NtNtCs2k5fBaaxJWw_5serde10byte_array13target_fuzz__NtBc_4Args13auto_generateINtB6_sF_4AutoAhj2_EINtB6_sF_12AutoFallbackB1E_E4autoBg_
FN:76,_RNvXs1o_NvMs1_NtNtCs2k5fBaaxJWw_5serde10byte_array13target_fuzz__NtBc_4Args13auto_generateINtB6_sG_4AutoAhj2_EINtB6_sG_12AutoFallbackB1E_E4autoBg_
FN:76,_RNvXs2_NvMs1_NtNtCs2k5fBaaxJWw_5serde10byte_array13target_fuzz__NtBb_4Args13auto_generateINtB5_s0_4AutoAhj0_EINtB5_s0_12AutoFallbackB1D_E4autoBf_
FN:76,_RNvXs4_NvMs1_NtNtCs2k5fBaaxJWw_5serde10byte_array13target_fuzz__NtBb_4Args13auto_generateINtB5_s1_4AutoAhj0_EINtB5_s1_12AutoFallbackB1D_E4autoBf_
FN:76,_RNvXs6_NvMs1_NtNtCs2k5fBaaxJWw_5serde10byte_array13target_fuzz__NtBb_4Args13auto_generateINtB5_s2_4AutoAhj0_EINtB5_s2_12AutoFallbackB1D_E4autoBf_
FN:76,_RNvXs8_NvMs1_NtNtCs2k5fBaaxJWw_5serde10byte_array13target_fuzz__NtBb_4Args13auto_generateINtB5_s3_4AutoAhj0_EINtB5_s3_12AutoFallbackB1D_E4autoBf_
FN:76,_RNvXsA_NvMs1_NtNtCs2k5fBaaxJWw_5serde10byte_array13target_fuzz__NtBb_4Args13auto_generateINtB5_sh_4AutoAhj1_EINtB5_sh_12AutoFallbackB1D_E4autoBf_
FN:76,_RNvXsC_NvMs1_NtNtCs2k5fBaaxJWw_5serde10byte_array13target_fuzz__NtBb_4Args13auto_generateINtB5_si_4AutoAhj1_EINtB5_si_12AutoFallbackB1D_E4autoBf_
FN:76,_RNvXsG_NvMs1_NtNtCs2k5fBaaxJWw_5serde10byte_array13target_fuzz__NtBb_4Args13auto_generateINtB5_sk_4AutoAhj1_EINtB5_sk_12AutoFallbackB1D_E4autoBf_
FN:76,_RNvXsI_NvMs1_NtNtCs2k5fBaaxJWw_5serde10byte_array13target_fuzz__NtBb_4Args13auto_generateINtB5_sl_4AutoAhj1_EINtB5_sl_12AutoFallbackB1D_E4autoBf_
FN:76,_RNvXsK_NvMs1_NtNtCs2k5fBaaxJWw_5serde10byte_array13target_fuzz__NtBb_4Args13auto_generateINtB5_sm_4AutoAhj1_EINtB5_sm_12AutoFallbackB1D_E4autoBf_
FN:76,_RNvXsM_NvMs1_NtNtCs2k5fBaaxJWw_5serde10byte_array13target_fuzz__NtBb_4Args13auto_generateINtB5_sn_4AutoAhj1_EINtB5_sn_12AutoFallbackB1D_E4autoBf_
FN:76,_RNvXsQ_NvMs1_NtNtCs2k5fBaaxJWw_5serde10byte_array13target_fuzz__NtBb_4Args13auto_generateINtB5_sp_4AutoAhj1_EINtB5_sp_12AutoFallbackB1D_E4autoBf_
FN:76,_RNvXsS_NvMs1_NtNtCs2k5fBaaxJWw_5serde10byte_array13target_fuzz__NtBb_4Args13auto_generateINtB5_sq_4AutoAhj1_EINtB5_sq_12AutoFallbackB1D_E4autoBf_
FN:76,_RNvXsU_NvMs1_NtNtCs2k5fBaaxJWw_5serde10byte_array13target_fuzz__NtBb_4Args13auto_generateINtB5_sr_4AutoAhj1_EINtB5_sr_12AutoFallbackB1D_E4autoBf_
FN:76,_RNvXsW_NvMs1_NtNtCs2k5fBaaxJWw_5serde10byte_array13target_fuzz__NtBb_4Args13auto_generateINtB5_ss_4AutoAhj2_EINtB5_ss_12AutoFallbackB1D_E4autoBf_
FN:76,_RNvXsc_NvMs1_NtNtCs2k5fBaaxJWw_5serde10byte_array13target_fuzz__NtBb_4Args13auto_generateINtB5_s5_4AutoAhj0_EINtB5_s5_12AutoFallbackB1D_E4autoBf_
FN:76,_RNvXse_NvMs1_NtNtCs2k5fBaaxJWw_5serde10byte_array13target_fuzz__NtBb_4Args13auto_generateINtB5_s6_4AutoAhj0_EINtB5_s6_12AutoFallbackB1D_E4autoBf_
FN:76,_RNvXsg_NvMs1_NtNtCs2k5fBaaxJWw_5serde10byte_array13target_fuzz__NtBb_4Args13auto_generateINtB5_s7_4AutoAhj0_EINtB5_s7_12AutoFallbackB1D_E4autoBf_
FN:76,_RNvXsi_NvMs1_NtNtCs2k5fBaaxJWw_5serde10byte_array13target_fuzz__NtBb_4Args13auto_generateINtB5_s8_4AutoAhj0_EINtB5_s8_12AutoFallbackB1D_E4autoBf_
FN:76,_RNvXsm_NvMs1_NtNtCs2k5fBaaxJWw_5serde10byte_array13target_fuzz__NtBb_4Args13auto_generateINtB5_sa_4AutoAhj0_EINtB5_sa_12AutoFallbackB1D_E4autoBf_
FN:76,_RNvXso_NvMs1_NtNtCs2k5fBaaxJWw_5serde10byte_array13target_fuzz__NtBb_4Args13auto_generateINtB5_sb_4AutoAhj0_EINtB5_sb_12AutoFallbackB1D_E4autoBf_
FN:76,_RNvXsq_NvMs1_NtNtCs2k5fBaaxJWw_5serde10byte_array13target_fuzz__NtBb_4Args13auto_generateINtB5_sc_4AutoAhj0_EINtB5_sc_12AutoFallbackB1D_E4autoBf_
FN:76,_RNvXss_NvMs1_NtNtCs2k5fBaaxJWw_5serde10byte_array13target_fuzz__NtBb_4Args13auto_generateINtB5_sd_4AutoAhj1_EINtB5_sd_12AutoFallbackB1D_E4autoBf_
FN:76,_RNvXsw_NvMs1_NtNtCs2k5fBaaxJWw_5serde10byte_array13target_fuzz__NtBb_4Args13auto_generateINtB5_sf_4AutoAhj1_EINtB5_sf_12AutoFallbackB1D_E4autoBf_
FN:76,_RNvXsy_NvMs1_NtNtCs2k5fBaaxJWw_5serde10byte_array13target_fuzz__NtBb_4Args13auto_generateINtB5_sg_4AutoAhj1_EINtB5_sg_12AutoFallbackB1D_E4autoBf_
FN:85,_RNvMs11_NvMs1_NtNtCs2k5fBaaxJWw_5serde10byte_array13target_fuzz__NtBc_4Args13auto_generateINtB6_su_4AutopE4autoBg_
FN:85,_RNvMs11_NvMs1_NtNtCs2k5fBaaxJWw_5serde3seq13target_fuzz__NtBc_4Args13auto_generateINtB6_su_4AutopE4autoBg_
FN:85,_RNvMs13_NvMs1_NtNtCs2k5fBaaxJWw_5serde10byte_array13target_fuzz__NtBc_4Args13auto_generateINtB6_sv_4AutopE4autoBg_
FN:85,_RNvMs13_NvMs1_NtNtCs2k5fBaaxJWw_5serde3seq13target_fuzz__NtBc_4Args13auto_generateINtB6_sv_4AutopE4autoBg_
FN:85,_RNvMs15_NvMs1_NtNtCs2k5fBaaxJWw_5serde10byte_array13target_fuzz__NtBc_4Args13auto_generateINtB6_sw_4AutopE4autoBg_
FN:85,_RNvMs15_NvMs1_NtNtCs2k5fBaaxJWw_5serde3seq13target_fuzz__NtBc_4Args13auto_generateINtB6_sw_4AutopE4autoBg_
FN:85,_RNvMs17_NvMs1_NtNtCs2k5fBaaxJWw_5serde10byte_array13target_fuzz__NtBc_4Args13auto_generateINtB6_sx_4AutopE4autoBg_
FN:85,_RNvMs1_NvMs1_NtNtCs2k5fBaaxJWw_5serde12unit_variant13target_fuzz__NtBb_4Args13auto_generateINtB5_s_4AutopE4autoBf_
FN:85,_RNvMs1b_NvMs1_NtNtCs2k5fBaaxJWw_5serde10byte_array13target_fuzz__NtBc_4Args13auto_generateINtB6_sz_4AutopE4autoBg_
FN:85,_RNvMs1d_NvMs1_NtNtCs2k5fBaaxJWw_5serde10byte_array13target_fuzz__NtBc_4Args13auto_generateINtB6_sA_4AutopE4autoBg_
FN:85,_RNvMs1f_NvMs1_NtNtCs2k5fBaaxJWw_5serde10byte_array13target_fuzz__NtBc_4Args13auto_generateINtB6_sB_4AutopE4autoBg_
FN:85,_RNvMs1h_NvMs1_NtNtCs2k5fBaaxJWw_5serde10byte_array13target_fuzz__NtBc_4Args13auto_generateINtB6_sC_4AutopE4autoBg_
FN:85,_RNvMs1l_NvMs1_NtNtCs2k5fBaaxJWw_5serde10byte_array13target_fuzz__NtBc_4Args13auto_generateINtB6_sE_4AutopE4autoBg_
FN:85,_RNvMs1n_NvMs1_NtNtCs2k5fBaaxJWw_5serde10byte_array13target_fuzz__NtBc_4Args13auto_generateINtB6_sF_4AutopE4autoBg_
FN:85,_RNvMs1p_NvMs1_NtNtCs2k5fBaaxJWw_5serde10byte_array13target_fuzz__NtBc_4Args13auto_generateINtB6_sG_4AutopE4autoBg_
FN:85,_RNvMs3_NvMs1_NtNtCs2k5fBaaxJWw_5serde10byte_array13target_fuzz__NtBb_4Args13auto_generateINtB5_s0_4AutopE4autoBf_
FN:85,_RNvMs3_NvMs1_NtNtCs2k5fBaaxJWw_5serde11unit_struct13target_fuzz__NtBb_4Args13auto_generateINtB5_s0_4AutopE4autoBf_
FN:85,_RNvMs3_NvMs1_NtNtCs2k5fBaaxJWw_5serde12tuple_struct13target_fuzz__NtBb_4Args13auto_generateINtB5_s0_4AutopE4autoBf_
FN:85,_RNvMs3_NvMs1_NtNtCs2k5fBaaxJWw_5serde12unit_variant13target_fuzz__NtBb_4Args13auto_generateINtB5_s0_4AutopE4autoBf_
FN:85,_RNvMs3_NvMs1_NtNtCs2k5fBaaxJWw_5serde13tuple_variant13target_fuzz__NtBb_4Args13auto_generateINtB5_s0_4AutopE4autoBf_
FN:85,_RNvMs3_NvMs1_NtNtCs2k5fBaaxJWw_5serde14newtype_struct13target_fuzz__NtBb_4Args13auto_generateINtB5_s0_4AutopE4autoBf_
FN:85,_RNvMs3_NvMs1_NtNtCs2k5fBaaxJWw_5serde14struct_variant13target_fuzz__NtBb_4Args13auto_generateINtB5_s0_4AutopE4autoBf_
FN:85,_RNvMs3_NvMs1_NtNtCs2k5fBaaxJWw_5serde15newtype_variant13target_fuzz__NtBb_4Args13auto_generateINtB5_s0_4AutopE4autoBf_
FN:85,_RNvMs3_NvMs1_NtNtCs2k5fBaaxJWw_5serde3map13target_fuzz__NtBb_4Args13auto_generateINtB5_s0_4AutopE4autoBf_
FN:85,_RNvMs3_NvMs1_NtNtCs2k5fBaaxJWw_5serde3seq13target_fuzz__NtBb_4Args13auto_generateINtB5_s0_4AutopE4autoBf_
FN:85,_RNvMs3_NvMs1_NtNtCs2k5fBaaxJWw_5serde4unit13target_fuzz__NtBb_4Args13auto_generateINtB5_s0_4AutopE4autoBf_
FN:85,_RNvMs3_NvMs1_NtNtCs2k5fBaaxJWw_5serde5tuple13target_fuzz__NtBb_4Args13auto_generateINtB5_s0_4AutopE4autoBf_
FN:85,_RNvMs3_NvMs1_NtNtCs2k5fBaaxJWw_5serde6option13target_fuzz__NtBb_4Args13auto_generateINtB5_s0_4AutopE4autoBf_
FN:85,_RNvMs3_NvMs1_NtNtCs2k5fBaaxJWw_5serde6string13target_fuzz__NtBb_4Args13auto_generateINtB5_s0_4AutopE4autoBf_
FN:85,_RNvMs3_NvMs1_NtNtCs2k5fBaaxJWw_5serde6strukt13target_fuzz__NtBb_4Args13auto_generateINtB5_s0_4AutopE4autoBf_
FN:85,_RNvMs5_NvMs1_NtNtCs2k5fBaaxJWw_5serde10byte_array13target_fuzz__NtBb_4Args13auto_generateINtB5_s1_4AutopE4autoBf_
FN:85,_RNvMs5_NvMs1_NtNtCs2k5fBaaxJWw_5serde11unit_struct13target_fuzz__NtBb_4Args13auto_generateINtB5_s1_4AutopE4autoBf_
FN:85,_RNvMs5_NvMs1_NtNtCs2k5fBaaxJWw_5serde12tuple_struct13target_fuzz__NtBb_4Args13auto_generateINtB5_s1_4AutopE4autoBf_
FN:85,_RNvMs5_NvMs1_NtNtCs2k5fBaaxJWw_5serde12unit_variant13target_fuzz__NtBb_4Args13auto_generateINtB5_s1_4AutopE4autoBf_
FN:85,_RNvMs5_NvMs1_NtNtCs2k5fBaaxJWw_5serde13tuple_variant13target_fuzz__NtBb_4Args13auto_generateINtB5_s1_4AutopE4autoBf_
FN:85,_RNvMs5_NvMs1_NtNtCs2k5fBaaxJWw_5serde14newtype_struct13target_fuzz__NtBb_4Args13auto_generateINtB5_s1_4AutopE4autoBf_
FN:85,_RNvMs5_NvMs1_NtNtCs2k5fBaaxJWw_5serde14struct_variant13target_fuzz__NtBb_4Args13auto_generateINtB5_s1_4AutopE4autoBf_
FN:85,_RNvMs5_NvMs1_NtNtCs2k5fBaaxJWw_5serde15newtype_variant13target_fuzz__NtBb_4Args13auto_generateINtB5_s1_4AutopE4autoBf_
FN:85,_RNvMs5_NvMs1_NtNtCs2k5fBaaxJWw_5serde3map13target_fuzz__NtBb_4Args13auto_generateINtB5_s1_4AutopE4autoBf_
FN:85,_RNvMs5_NvMs1_NtNtCs2k5fBaaxJWw_5serde3seq13target_fuzz__NtBb_4Args13auto_generateINtB5_s1_4AutopE4autoBf_
FN:85,_RNvMs5_NvMs1_NtNtCs2k5fBaaxJWw_5serde4unit13target_fuzz__NtBb_4Args13auto_generateINtB5_s1_4AutopE4autoBf_
FN:85,_RNvMs5_NvMs1_NtNtCs2k5fBaaxJWw_5serde5tuple13target_fuzz__NtBb_4Args13auto_generateINtB5_s1_4AutopE4autoBf_
FN:85,_RNvMs5_NvMs1_NtNtCs2k5fBaaxJWw_5serde6option13target_fuzz__NtBb_4Args13auto_generateINtB5_s1_4AutopE4autoBf_
FN:85,_RNvMs5_NvMs1_NtNtCs2k5fBaaxJWw_5serde6string13target_fuzz__NtBb_4Args13auto_generateINtB5_s1_4AutopE4autoBf_
FN:85,_RNvMs5_NvMs1_NtNtCs2k5fBaaxJWw_5serde6strukt13target_fuzz__NtBb_4Args13auto_generateINtB5_s1_4AutopE4autoBf_
FN:85,_RNvMs7_NvMs1_NtNtCs2k5fBaaxJWw_5serde10byte_array13target_fuzz__NtBb_4Args13auto_generateINtB5_s2_4AutopE4autoBf_
FN:85,_RNvMs7_NvMs1_NtNtCs2k5fBaaxJWw_5serde11unit_struct13target_fuzz__NtBb_4Args13auto_generateINtB5_s2_4AutopE4autoBf_
FN:85,_RNvMs7_NvMs1_NtNtCs2k5fBaaxJWw_5serde12tuple_struct13target_fuzz__NtBb_4Args13auto_generateINtB5_s2_4AutopE4autoBf_
FN:85,_RNvMs7_NvMs1_NtNtCs2k5fBaaxJWw_5serde12unit_variant13target_fuzz__NtBb_4Args13auto_generateINtB5_s2_4AutopE4autoBf_
FN:85,_RNvMs7_NvMs1_NtNtCs2k5fBaaxJWw_5serde13tuple_variant13target_fuzz__NtBb_4Args13auto_generateINtB5_s2_4AutopE4autoBf_
FN:85,_RNvMs7_NvMs1_NtNtCs2k5fBaaxJWw_5serde14newtype_struct13target_fuzz__NtBb_4Args13auto_generateINtB5_s2_4AutopE4autoBf_
FN:85,_RNvMs7_NvMs1_NtNtCs2k5fBaaxJWw_5serde14struct_variant13target_fuzz__NtBb_4Args13auto_generateINtB5_s2_4AutopE4autoBf_
FN:85,_RNvMs7_NvMs1_NtNtCs2k5fBaaxJWw_5serde15newtype_variant13target_fuzz__NtBb_4Args13auto_generateINtB5_s2_4AutopE4autoBf_
FN:85,_RNvMs7_NvMs1_NtNtCs2k5fBaaxJWw_5serde3map13target_fuzz__NtBb_4Args13auto_generateINtB5_s2_4AutopE4autoBf_
FN:85,_RNvMs7_NvMs1_NtNtCs2k5fBaaxJWw_5serde3seq13target_fuzz__NtBb_4Args13auto_generateINtB5_s2_4AutopE4autoBf_
FN:85,_RNvMs7_NvMs1_NtNtCs2k5fBaaxJWw_5serde4unit13target_fuzz__NtBb_4Args13auto_generateINtB5_s2_4AutopE4autoBf_
FN:85,_RNvMs7_NvMs1_NtNtCs2k5fBaaxJWw_5serde5tuple13target_fuzz__NtBb_4Args13auto_generateINtB5_s2_4AutopE4autoBf_
FN:85,_RNvMs7_NvMs1_NtNtCs2k5fBaaxJWw_5serde6option13target_fuzz__NtBb_4Args13auto_generateINtB5_s2_4AutopE4autoBf_
FN:85,_RNvMs7_NvMs1_NtNtCs2k5fBaaxJWw_5serde6string13target_fuzz__NtBb_4Args13auto_generateINtB5_s2_4AutopE4autoBf_
FN:85,_RNvMs7_NvMs1_NtNtCs2k5fBaaxJWw_5serde6strukt13target_fuzz__NtBb_4Args13auto_generateINtB5_s2_4AutopE4autoBf_
FN:85,_RNvMs9_NvMs1_NtNtCs2k5fBaaxJWw_5serde10byte_array13target_fuzz__NtBb_4Args13auto_generateINtB5_s3_4AutopE4autoBf_
FN:85,_RNvMs9_NvMs1_NtNtCs2k5fBaaxJWw_5serde11unit_struct13target_fuzz__NtBb_4Args13auto_generateINtB5_s3_4AutopE4autoBf_
FN:85,_RNvMs9_NvMs1_NtNtCs2k5fBaaxJWw_5serde12tuple_struct13target_fuzz__NtBb_4Args13auto_generateINtB5_s3_4AutopE4autoBf_
FN:85,_RNvMs9_NvMs1_NtNtCs2k5fBaaxJWw_5serde12unit_variant13target_fuzz__NtBb_4Args13auto_generateINtB5_s3_4AutopE4autoBf_
FN:85,_RNvMs9_NvMs1_NtNtCs2k5fBaaxJWw_5serde13tuple_variant13target_fuzz__NtBb_4Args13auto_generateINtB5_s3_4AutopE4autoBf_
FN:85,_RNvMs9_NvMs1_NtNtCs2k5fBaaxJWw_5serde14newtype_struct13target_fuzz__NtBb_4Args13auto_generateINtB5_s3_4AutopE4autoBf_
FN:85,_RNvMs9_NvMs1_NtNtCs2k5fBaaxJWw_5serde14struct_variant13target_fuzz__NtBb_4Args13auto_generateINtB5_s3_4AutopE4autoBf_
FN:85,_RNvMs9_NvMs1_NtNtCs2k5fBaaxJWw_5serde15newtype_variant13target_fuzz__NtBb_4Args13auto_generateINtB5_s3_4AutopE4autoBf_
FN:85,_RNvMs9_NvMs1_NtNtCs2k5fBaaxJWw_5serde3map13target_fuzz__NtBb_4Args13auto_generateINtB5_s3_4AutopE4autoBf_
FN:85,_RNvMs9_NvMs1_NtNtCs2k5fBaaxJWw_5serde3seq13target_fuzz__NtBb_4Args13auto_generateINtB5_s3_4AutopE4autoBf_
FN:85,_RNvMs9_NvMs1_NtNtCs2k5fBaaxJWw_5serde6option13target_fuzz__NtBb_4Args13auto_generateINtB5_s3_4AutopE4autoBf_
FN:85,_RNvMs9_NvMs1_NtNtCs2k5fBaaxJWw_5serde6string13target_fuzz__NtBb_4Args13auto_generateINtB5_s3_4AutopE4autoBf_
FN:85,_RNvMs9_NvMs1_NtNtCs2k5fBaaxJWw_5serde6strukt13target_fuzz__NtBb_4Args13auto_generateINtB5_s3_4AutopE4autoBf_
FN:85,_RNvMsB_NvMs1_NtNtCs2k5fBaaxJWw_5serde10byte_array13target_fuzz__NtBb_4Args13auto_generateINtB5_sh_4AutopE4autoBf_
FN:85,_RNvMsB_NvMs1_NtNtCs2k5fBaaxJWw_5serde3seq13target_fuzz__NtBb_4Args13auto_generateINtB5_sh_4AutopE4autoBf_
FN:85,_RNvMsB_NvMs1_NtNtCs2k5fBaaxJWw_5serde5tuple13target_fuzz__NtBb_4Args13auto_generateINtB5_sh_4AutopE4autoBf_
FN:85,_RNvMsB_NvMs1_NtNtCs2k5fBaaxJWw_5serde6string13target_fuzz__NtBb_4Args13auto_generateINtB5_sh_4AutopE4autoBf_
FN:85,_RNvMsD_NvMs1_NtNtCs2k5fBaaxJWw_5serde10byte_array13target_fuzz__NtBb_4Args13auto_generateINtB5_si_4AutopE4autoBf_
FN:85,_RNvMsD_NvMs1_NtNtCs2k5fBaaxJWw_5serde3seq13target_fuzz__NtBb_4Args13auto_generateINtB5_si_4AutopE4autoBf_
FN:85,_RNvMsH_NvMs1_NtNtCs2k5fBaaxJWw_5serde10byte_array13target_fuzz__NtBb_4Args13auto_generateINtB5_sk_4AutopE4autoBf_
FN:85,_RNvMsH_NvMs1_NtNtCs2k5fBaaxJWw_5serde3seq13target_fuzz__NtBb_4Args13auto_generateINtB5_sk_4AutopE4autoBf_
FN:85,_RNvMsH_NvMs1_NtNtCs2k5fBaaxJWw_5serde5tuple13target_fuzz__NtBb_4Args13auto_generateINtB5_sk_4AutopE4autoBf_
FN:85,_RNvMsJ_NvMs1_NtNtCs2k5fBaaxJWw_5serde10byte_array13target_fuzz__NtBb_4Args13auto_generateINtB5_sl_4AutopE4autoBf_
FN:85,_RNvMsJ_NvMs1_NtNtCs2k5fBaaxJWw_5serde3seq13target_fuzz__NtBb_4Args13auto_generateINtB5_sl_4AutopE4autoBf_
FN:85,_RNvMsJ_NvMs1_NtNtCs2k5fBaaxJWw_5serde5tuple13target_fuzz__NtBb_4Args13auto_generateINtB5_sl_4AutopE4autoBf_
FN:85,_RNvMsL_NvMs1_NtNtCs2k5fBaaxJWw_5serde10byte_array13target_fuzz__NtBb_4Args13auto_generateINtB5_sm_4AutopE4autoBf_
FN:85,_RNvMsL_NvMs1_NtNtCs2k5fBaaxJWw_5serde3seq13target_fuzz__NtBb_4Args13auto_generateINtB5_sm_4AutopE4autoBf_
FN:85,_RNvMsL_NvMs1_NtNtCs2k5fBaaxJWw_5serde5tuple13target_fuzz__NtBb_4Args13auto_generateINtB5_sm_4AutopE4autoBf_
FN:85,_RNvMsN_NvMs1_NtNtCs2k5fBaaxJWw_5serde10byte_array13target_fuzz__NtBb_4Args13auto_generateINtB5_sn_4AutopE4autoBf_
FN:85,_RNvMsN_NvMs1_NtNtCs2k5fBaaxJWw_5serde3seq13target_fuzz__NtBb_4Args13auto_generateINtB5_sn_4AutopE4autoBf_
FN:85,_RNvMsR_NvMs1_NtNtCs2k5fBaaxJWw_5serde10byte_array13target_fuzz__NtBb_4Args13auto_generateINtB5_sp_4AutopE4autoBf_
FN:85,_RNvMsR_NvMs1_NtNtCs2k5fBaaxJWw_5serde3seq13target_fuzz__NtBb_4Args13auto_generateINtB5_sp_4AutopE4autoBf_
FN:85,_RNvMsR_NvMs1_NtNtCs2k5fBaaxJWw_5serde5tuple13target_fuzz__NtBb_4Args13auto_generateINtB5_sp_4AutopE4autoBf_
FN:85,_RNvMsT_NvMs1_NtNtCs2k5fBaaxJWw_5serde10byte_array13target_fuzz__NtBb_4Args13auto_generateINtB5_sq_4AutopE4autoBf_
FN:85,_RNvMsT_NvMs1_NtNtCs2k5fBaaxJWw_5serde3seq13target_fuzz__NtBb_4Args13auto_generateINtB5_sq_4AutopE4autoBf_
FN:85,_RNvMsT_NvMs1_NtNtCs2k5fBaaxJWw_5serde5tuple13target_fuzz__NtBb_4Args13auto_generateINtB5_sq_4AutopE4autoBf_
FN:85,_RNvMsV_NvMs1_NtNtCs2k5fBaaxJWw_5serde10byte_array13target_fuzz__NtBb_4Args13auto_generateINtB5_sr_4AutopE4autoBf_
FN:85,_RNvMsV_NvMs1_NtNtCs2k5fBaaxJWw_5serde3seq13target_fuzz__NtBb_4Args13auto_generateINtB5_sr_4AutopE4autoBf_
FN:85,_RNvMsV_NvMs1_NtNtCs2k5fBaaxJWw_5serde5tuple13target_fuzz__NtBb_4Args13auto_generateINtB5_sr_4AutopE4autoBf_
FN:85,_RNvMsX_NvMs1_NtNtCs2k5fBaaxJWw_5serde10byte_array13target_fuzz__NtBb_4Args13auto_generateINtB5_ss_4AutopE4autoBf_
FN:85,_RNvMsX_NvMs1_NtNtCs2k5fBaaxJWw_5serde3seq13target_fuzz__NtBb_4Args13auto_generateINtB5_ss_4AutopE4autoBf_
FN:85,_RNvMs_NvMs1_NtNtCs2k5fBaaxJWw_5serde10byte_array13target_fuzz__NtBa_4Args13auto_generateINtB4_4AutopE4autoBe_
FN:85,_RNvMs_NvMs1_NtNtCs2k5fBaaxJWw_5serde11unit_struct13target_fuzz__NtBa_4Args13auto_generateINtB4_4AutopE4autoBe_
FN:85,_RNvMs_NvMs1_NtNtCs2k5fBaaxJWw_5serde12tuple_struct13target_fuzz__NtBa_4Args13auto_generateINtB4_4AutopE4autoBe_
FN:85,_RNvMs_NvMs1_NtNtCs2k5fBaaxJWw_5serde12unit_variant13target_fuzz__NtBa_4Args13auto_generateINtB4_4AutopE4autoBe_
FN:85,_RNvMs_NvMs1_NtNtCs2k5fBaaxJWw_5serde13tuple_variant13target_fuzz__NtBa_4Args13auto_generateINtB4_4AutopE4autoBe_
FN:85,_RNvMs_NvMs1_NtNtCs2k5fBaaxJWw_5serde14newtype_struct13target_fuzz__NtBa_4Args13auto_generateINtB4_4AutopE4autoBe_
FN:85,_RNvMs_NvMs1_NtNtCs2k5fBaaxJWw_5serde14struct_variant13target_fuzz__NtBa_4Args13auto_generateINtB4_4AutopE4autoBe_
FN:85,_RNvMs_NvMs1_NtNtCs2k5fBaaxJWw_5serde15newtype_variant13target_fuzz__NtBa_4Args13auto_generateINtB4_4AutopE4autoBe_
FN:85,_RNvMs_NvMs1_NtNtCs2k5fBaaxJWw_5serde3map13target_fuzz__NtBa_4Args13auto_generateINtB4_4AutopE4autoBe_
FN:85,_RNvMs_NvMs1_NtNtCs2k5fBaaxJWw_5serde3seq13target_fuzz__NtBa_4Args13auto_generateINtB4_4AutopE4autoBe_
FN:85,_RNvMs_NvMs1_NtNtCs2k5fBaaxJWw_5serde6option13target_fuzz__NtBa_4Args13auto_generateINtB4_4AutopE4autoBe_
FN:85,_RNvMs_NvMs1_NtNtCs2k5fBaaxJWw_5serde6string13target_fuzz__NtBa_4Args13auto_generateINtB4_4AutopE4autoBe_
FN:85,_RNvMs_NvMs1_NtNtCs2k5fBaaxJWw_5serde6strukt13target_fuzz__NtBa_4Args13auto_generateINtB4_4AutopE4autoBe_
FN:85,_RNvMsb_NvMs1_NtNtCs2k5fBaaxJWw_5serde12unit_variant13target_fuzz__NtBb_4Args13auto_generateINtB5_s4_4AutopE4autoBf_
FN:85,_RNvMsd_NvMs1_NtNtCs2k5fBaaxJWw_5serde10byte_array13target_fuzz__NtBb_4Args13auto_generateINtB5_s5_4AutopE4autoBf_
FN:85,_RNvMsd_NvMs1_NtNtCs2k5fBaaxJWw_5serde11unit_struct13target_fuzz__NtBb_4Args13auto_generateINtB5_s5_4AutopE4autoBf_
FN:85,_RNvMsd_NvMs1_NtNtCs2k5fBaaxJWw_5serde12tuple_struct13target_fuzz__NtBb_4Args13auto_generateINtB5_s5_4AutopE4autoBf_
FN:85,_RNvMsd_NvMs1_NtNtCs2k5fBaaxJWw_5serde12unit_variant13target_fuzz__NtBb_4Args13auto_generateINtB5_s5_4AutopE4autoBf_
FN:85,_RNvMsd_NvMs1_NtNtCs2k5fBaaxJWw_5serde13tuple_variant13target_fuzz__NtBb_4Args13auto_generateINtB5_s5_4AutopE4autoBf_
FN:85,_RNvMsd_NvMs1_NtNtCs2k5fBaaxJWw_5serde14newtype_struct13target_fuzz__NtBb_4Args13auto_generateINtB5_s5_4AutopE4autoBf_
FN:85,_RNvMsd_NvMs1_NtNtCs2k5fBaaxJWw_5serde14struct_variant13target_fuzz__NtBb_4Args13auto_generateINtB5_s5_4AutopE4autoBf_
FN:85,_RNvMsd_NvMs1_NtNtCs2k5fBaaxJWw_5serde15newtype_variant13target_fuzz__NtBb_4Args13auto_generateINtB5_s5_4AutopE4autoBf_
FN:85,_RNvMsd_NvMs1_NtNtCs2k5fBaaxJWw_5serde3map13target_fuzz__NtBb_4Args13auto_generateINtB5_s5_4AutopE4autoBf_
FN:85,_RNvMsd_NvMs1_NtNtCs2k5fBaaxJWw_5serde3seq13target_fuzz__NtBb_4Args13auto_generateINtB5_s5_4AutopE4autoBf_
FN:85,_RNvMsd_NvMs1_NtNtCs2k5fBaaxJWw_5serde4unit13target_fuzz__NtBb_4Args13auto_generateINtB5_s5_4AutopE4autoBf_
FN:85,_RNvMsd_NvMs1_NtNtCs2k5fBaaxJWw_5serde5tuple13target_fuzz__NtBb_4Args13auto_generateINtB5_s5_4AutopE4autoBf_
FN:85,_RNvMsd_NvMs1_NtNtCs2k5fBaaxJWw_5serde6option13target_fuzz__NtBb_4Args13auto_generateINtB5_s5_4AutopE4autoBf_
FN:85,_RNvMsd_NvMs1_NtNtCs2k5fBaaxJWw_5serde6string13target_fuzz__NtBb_4Args13auto_generateINtB5_s5_4AutopE4autoBf_
FN:85,_RNvMsd_NvMs1_NtNtCs2k5fBaaxJWw_5serde6strukt13target_fuzz__NtBb_4Args13auto_generateINtB5_s5_4AutopE4autoBf_
FN:85,_RNvMsf_NvMs1_NtNtCs2k5fBaaxJWw_5serde10byte_array13target_fuzz__NtBb_4Args13auto_generateINtB5_s6_4AutopE4autoBf_
FN:85,_RNvMsf_NvMs1_NtNtCs2k5fBaaxJWw_5serde11unit_struct13target_fuzz__NtBb_4Args13auto_generateINtB5_s6_4AutopE4autoBf_
FN:85,_RNvMsf_NvMs1_NtNtCs2k5fBaaxJWw_5serde12tuple_struct13target_fuzz__NtBb_4Args13auto_generateINtB5_s6_4AutopE4autoBf_
FN:85,_RNvMsf_NvMs1_NtNtCs2k5fBaaxJWw_5serde12unit_variant13target_fuzz__NtBb_4Args13auto_generateINtB5_s6_4AutopE4autoBf_
FN:85,_RNvMsf_NvMs1_NtNtCs2k5fBaaxJWw_5serde13tuple_variant13target_fuzz__NtBb_4Args13auto_generateINtB5_s6_4AutopE4autoBf_
FN:85,_RNvMsf_NvMs1_NtNtCs2k5fBaaxJWw_5serde14newtype_struct13target_fuzz__NtBb_4Args13auto_generateINtB5_s6_4AutopE4autoBf_
FN:85,_RNvMsf_NvMs1_NtNtCs2k5fBaaxJWw_5serde14struct_variant13target_fuzz__NtBb_4Args13auto_generateINtB5_s6_4AutopE4autoBf_
FN:85,_RNvMsf_NvMs1_NtNtCs2k5fBaaxJWw_5serde15newtype_variant13target_fuzz__NtBb_4Args13auto_generateINtB5_s6_4AutopE4autoBf_
FN:85,_RNvMsf_NvMs1_NtNtCs2k5fBaaxJWw_5serde3map13target_fuzz__NtBb_4Args13auto_generateINtB5_s6_4AutopE4autoBf_
FN:85,_RNvMsf_NvMs1_NtNtCs2k5fBaaxJWw_5serde3seq13target_fuzz__NtBb_4Args13auto_generateINtB5_s6_4AutopE4autoBf_
FN:85,_RNvMsf_NvMs1_NtNtCs2k5fBaaxJWw_5serde4unit13target_fuzz__NtBb_4Args13auto_generateINtB5_s6_4AutopE4autoBf_
FN:85,_RNvMsf_NvMs1_NtNtCs2k5fBaaxJWw_5serde5tuple13target_fuzz__NtBb_4Args13auto_generateINtB5_s6_4AutopE4autoBf_
FN:85,_RNvMsf_NvMs1_NtNtCs2k5fBaaxJWw_5serde6option13target_fuzz__NtBb_4Args13auto_generateINtB5_s6_4AutopE4autoBf_
FN:85,_RNvMsf_NvMs1_NtNtCs2k5fBaaxJWw_5serde6string13target_fuzz__NtBb_4Args13auto_generateINtB5_s6_4AutopE4autoBf_
FN:85,_RNvMsf_NvMs1_NtNtCs2k5fBaaxJWw_5serde6strukt13target_fuzz__NtBb_4Args13auto_generateINtB5_s6_4AutopE4autoBf_
FN:85,_RNvMsh_NvMs1_NtNtCs2k5fBaaxJWw_5serde10byte_array13target_fuzz__NtBb_4Args13auto_generateINtB5_s7_4AutopE4autoBf_
FN:85,_RNvMsh_NvMs1_NtNtCs2k5fBaaxJWw_5serde11unit_struct13target_fuzz__NtBb_4Args13auto_generateINtB5_s7_4AutopE4autoBf_
FN:85,_RNvMsh_NvMs1_NtNtCs2k5fBaaxJWw_5serde12tuple_struct13target_fuzz__NtBb_4Args13auto_generateINtB5_s7_4AutopE4autoBf_
FN:85,_RNvMsh_NvMs1_NtNtCs2k5fBaaxJWw_5serde12unit_variant13target_fuzz__NtBb_4Args13auto_generateINtB5_s7_4AutopE4autoBf_
FN:85,_RNvMsh_NvMs1_NtNtCs2k5fBaaxJWw_5serde13tuple_variant13target_fuzz__NtBb_4Args13auto_generateINtB5_s7_4AutopE4autoBf_
FN:85,_RNvMsh_NvMs1_NtNtCs2k5fBaaxJWw_5serde14newtype_struct13target_fuzz__NtBb_4Args13auto_generateINtB5_s7_4AutopE4autoBf_
FN:85,_RNvMsh_NvMs1_NtNtCs2k5fBaaxJWw_5serde14struct_variant13target_fuzz__NtBb_4Args13auto_generateINtB5_s7_4AutopE4autoBf_
FN:85,_RNvMsh_NvMs1_NtNtCs2k5fBaaxJWw_5serde15newtype_variant13target_fuzz__NtBb_4Args13auto_generateINtB5_s7_4AutopE4autoBf_
FN:85,_RNvMsh_NvMs1_NtNtCs2k5fBaaxJWw_5serde3map13target_fuzz__NtBb_4Args13auto_generateINtB5_s7_4AutopE4autoBf_
FN:85,_RNvMsh_NvMs1_NtNtCs2k5fBaaxJWw_5serde3seq13target_fuzz__NtBb_4Args13auto_generateINtB5_s7_4AutopE4autoBf_
FN:85,_RNvMsh_NvMs1_NtNtCs2k5fBaaxJWw_5serde4unit13target_fuzz__NtBb_4Args13auto_generateINtB5_s7_4AutopE4autoBf_
FN:85,_RNvMsh_NvMs1_NtNtCs2k5fBaaxJWw_5serde5tuple13target_fuzz__NtBb_4Args13auto_generateINtB5_s7_4AutopE4autoBf_
FN:85,_RNvMsh_NvMs1_NtNtCs2k5fBaaxJWw_5serde6option13target_fuzz__NtBb_4Args13auto_generateINtB5_s7_4AutopE4autoBf_
FN:85,_RNvMsh_NvMs1_NtNtCs2k5fBaaxJWw_5serde6string13target_fuzz__NtBb_4Args13auto_generateINtB5_s7_4AutopE4autoBf_
FN:85,_RNvMsh_NvMs1_NtNtCs2k5fBaaxJWw_5serde6strukt13target_fuzz__NtBb_4Args13auto_generateINtB5_s7_4AutopE4autoBf_
FN:85,_RNvMsj_NvMs1_NtNtCs2k5fBaaxJWw_5serde10byte_array13target_fuzz__NtBb_4Args13auto_generateINtB5_s8_4AutopE4autoBf_
FN:85,_RNvMsj_NvMs1_NtNtCs2k5fBaaxJWw_5serde11unit_struct13target_fuzz__NtBb_4Args13auto_generateINtB5_s8_4AutopE4autoBf_
FN:85,_RNvMsj_NvMs1_NtNtCs2k5fBaaxJWw_5serde12tuple_struct13target_fuzz__NtBb_4Args13auto_generateINtB5_s8_4AutopE4autoBf_
FN:85,_RNvMsj_NvMs1_NtNtCs2k5fBaaxJWw_5serde12unit_variant13target_fuzz__NtBb_4Args13auto_generateINtB5_s8_4AutopE4autoBf_
FN:85,_RNvMsj_NvMs1_NtNtCs2k5fBaaxJWw_5serde13tuple_variant13target_fuzz__NtBb_4Args13auto_generateINtB5_s8_4AutopE4autoBf_
FN:85,_RNvMsj_NvMs1_NtNtCs2k5fBaaxJWw_5serde14newtype_struct13target_fuzz__NtBb_4Args13auto_generateINtB5_s8_4AutopE4autoBf_
FN:85,_RNvMsj_NvMs1_NtNtCs2k5fBaaxJWw_5serde14struct_variant13target_fuzz__NtBb_4Args13auto_generateINtB5_s8_4AutopE4autoBf_
FN:85,_RNvMsj_NvMs1_NtNtCs2k5fBaaxJWw_5serde15newtype_variant13target_fuzz__NtBb_4Args13auto_generateINtB5_s8_4AutopE4autoBf_
FN:85,_RNvMsj_NvMs1_NtNtCs2k5fBaaxJWw_5serde3map13target_fuzz__NtBb_4Args13auto_generateINtB5_s8_4AutopE4autoBf_
FN:85,_RNvMsj_NvMs1_NtNtCs2k5fBaaxJWw_5serde3seq13target_fuzz__NtBb_4Args13auto_generateINtB5_s8_4AutopE4autoBf_
FN:85,_RNvMsj_NvMs1_NtNtCs2k5fBaaxJWw_5serde6option13target_fuzz__NtBb_4Args13auto_generateINtB5_s8_4AutopE4autoBf_
FN:85,_RNvMsj_NvMs1_NtNtCs2k5fBaaxJWw_5serde6string13target_fuzz__NtBb_4Args13auto_generateINtB5_s8_4AutopE4autoBf_
FN:85,_RNvMsj_NvMs1_NtNtCs2k5fBaaxJWw_5serde6strukt13target_fuzz__NtBb_4Args13auto_generateINtB5_s8_4AutopE4autoBf_
FN:85,_RNvMsl_NvMs1_NtNtCs2k5fBaaxJWw_5serde12unit_variant13target_fuzz__NtBb_4Args13auto_generateINtB5_s9_4AutopE4autoBf_
FN:85,_RNvMsn_NvMs1_NtNtCs2k5fBaaxJWw_5serde10byte_array13target_fuzz__NtBb_4Args13auto_generateINtB5_sa_4AutopE4autoBf_
FN:85,_RNvMsn_NvMs1_NtNtCs2k5fBaaxJWw_5serde11unit_struct13target_fuzz__NtBb_4Args13auto_generateINtB5_sa_4AutopE4autoBf_
FN:85,_RNvMsn_NvMs1_NtNtCs2k5fBaaxJWw_5serde12tuple_struct13target_fuzz__NtBb_4Args13auto_generateINtB5_sa_4AutopE4autoBf_
FN:85,_RNvMsn_NvMs1_NtNtCs2k5fBaaxJWw_5serde12unit_variant13target_fuzz__NtBb_4Args13auto_generateINtB5_sa_4AutopE4autoBf_
FN:85,_RNvMsn_NvMs1_NtNtCs2k5fBaaxJWw_5serde13tuple_variant13target_fuzz__NtBb_4Args13auto_generateINtB5_sa_4AutopE4autoBf_
FN:85,_RNvMsn_NvMs1_NtNtCs2k5fBaaxJWw_5serde14newtype_struct13target_fuzz__NtBb_4Args13auto_generateINtB5_sa_4AutopE4autoBf_
FN:85,_RNvMsn_NvMs1_NtNtCs2k5fBaaxJWw_5serde14struct_variant13target_fuzz__NtBb_4Args13auto_generateINtB5_sa_4AutopE4autoBf_
FN:85,_RNvMsn_NvMs1_NtNtCs2k5fBaaxJWw_5serde15newtype_variant13target_fuzz__NtBb_4Args13auto_generateINtB5_sa_4AutopE4autoBf_
FN:85,_RNvMsn_NvMs1_NtNtCs2k5fBaaxJWw_5serde3map13target_fuzz__NtBb_4Args13auto_generateINtB5_sa_4AutopE4autoBf_
FN:85,_RNvMsn_NvMs1_NtNtCs2k5fBaaxJWw_5serde3seq13target_fuzz__NtBb_4Args13auto_generateINtB5_sa_4AutopE4autoBf_
FN:85,_RNvMsn_NvMs1_NtNtCs2k5fBaaxJWw_5serde4unit13target_fuzz__NtBb_4Args13auto_generateINtB5_sa_4AutopE4autoBf_
FN:85,_RNvMsn_NvMs1_NtNtCs2k5fBaaxJWw_5serde5tuple13target_fuzz__NtBb_4Args13auto_generateINtB5_sa_4AutopE4autoBf_
FN:85,_RNvMsn_NvMs1_NtNtCs2k5fBaaxJWw_5serde6option13target_fuzz__NtBb_4Args13auto_generateINtB5_sa_4AutopE4autoBf_
FN:85,_RNvMsn_NvMs1_NtNtCs2k5fBaaxJWw_5serde6string13target_fuzz__NtBb_4Args13auto_generateINtB5_sa_4AutopE4autoBf_
FN:85,_RNvMsn_NvMs1_NtNtCs2k5fBaaxJWw_5serde6strukt13target_fuzz__NtBb_4Args13auto_generateINtB5_sa_4AutopE4autoBf_
FN:85,_RNvMsp_NvMs1_NtNtCs2k5fBaaxJWw_5serde10byte_array13target_fuzz__NtBb_4Args13auto_generateINtB5_sb_4AutopE4autoBf_
FN:85,_RNvMsp_NvMs1_NtNtCs2k5fBaaxJWw_5serde11unit_struct13target_fuzz__NtBb_4Args13auto_generateINtB5_sb_4AutopE4autoBf_
FN:85,_RNvMsp_NvMs1_NtNtCs2k5fBaaxJWw_5serde12tuple_struct13target_fuzz__NtBb_4Args13auto_generateINtB5_sb_4AutopE4autoBf_
FN:85,_RNvMsp_NvMs1_NtNtCs2k5fBaaxJWw_5serde12unit_variant13target_fuzz__NtBb_4Args13auto_generateINtB5_sb_4AutopE4autoBf_
FN:85,_RNvMsp_NvMs1_NtNtCs2k5fBaaxJWw_5serde13tuple_variant13target_fuzz__NtBb_4Args13auto_generateINtB5_sb_4AutopE4autoBf_
FN:85,_RNvMsp_NvMs1_NtNtCs2k5fBaaxJWw_5serde14newtype_struct13target_fuzz__NtBb_4Args13auto_generateINtB5_sb_4AutopE4autoBf_
FN:85,_RNvMsp_NvMs1_NtNtCs2k5fBaaxJWw_5serde14struct_variant13target_fuzz__NtBb_4Args13auto_generateINtB5_sb_4AutopE4autoBf_
FN:85,_RNvMsp_NvMs1_NtNtCs2k5fBaaxJWw_5serde15newtype_variant13target_fuzz__NtBb_4Args13auto_generateINtB5_sb_4AutopE4autoBf_
FN:85,_RNvMsp_NvMs1_NtNtCs2k5fBaaxJWw_5serde3map13target_fuzz__NtBb_4Args13auto_generateINtB5_sb_4AutopE4autoBf_
FN:85,_RNvMsp_NvMs1_NtNtCs2k5fBaaxJWw_5serde3seq13target_fuzz__NtBb_4Args13auto_generateINtB5_sb_4AutopE4autoBf_
FN:85,_RNvMsp_NvMs1_NtNtCs2k5fBaaxJWw_5serde4unit13target_fuzz__NtBb_4Args13auto_generateINtB5_sb_4AutopE4autoBf_
FN:85,_RNvMsp_NvMs1_NtNtCs2k5fBaaxJWw_5serde5tuple13target_fuzz__NtBb_4Args13auto_generateINtB5_sb_4AutopE4autoBf_
FN:85,_RNvMsp_NvMs1_NtNtCs2k5fBaaxJWw_5serde6option13target_fuzz__NtBb_4Args13auto_generateINtB5_sb_4AutopE4autoBf_
FN:85,_RNvMsp_NvMs1_NtNtCs2k5fBaaxJWw_5serde6string13target_fuzz__NtBb_4Args13auto_generateINtB5_sb_4AutopE4autoBf_
FN:85,_RNvMsp_NvMs1_NtNtCs2k5fBaaxJWw_5serde6strukt13target_fuzz__NtBb_4Args13auto_generateINtB5_sb_4AutopE4autoBf_
FN:85,_RNvMsr_NvMs1_NtNtCs2k5fBaaxJWw_5serde10byte_array13target_fuzz__NtBb_4Args13auto_generateINtB5_sc_4AutopE4autoBf_
FN:85,_RNvMsr_NvMs1_NtNtCs2k5fBaaxJWw_5serde11unit_struct13target_fuzz__NtBb_4Args13auto_generateINtB5_sc_4AutopE4autoBf_
FN:85,_RNvMsr_NvMs1_NtNtCs2k5fBaaxJWw_5serde12tuple_struct13target_fuzz__NtBb_4Args13auto_generateINtB5_sc_4AutopE4autoBf_
FN:85,_RNvMsr_NvMs1_NtNtCs2k5fBaaxJWw_5serde12unit_variant13target_fuzz__NtBb_4Args13auto_generateINtB5_sc_4AutopE4autoBf_
FN:85,_RNvMsr_NvMs1_NtNtCs2k5fBaaxJWw_5serde13tuple_variant13target_fuzz__NtBb_4Args13auto_generateINtB5_sc_4AutopE4autoBf_
FN:85,_RNvMsr_NvMs1_NtNtCs2k5fBaaxJWw_5serde14newtype_struct13target_fuzz__NtBb_4Args13auto_generateINtB5_sc_4AutopE4autoBf_
FN:85,_RNvMsr_NvMs1_NtNtCs2k5fBaaxJWw_5serde14struct_variant13target_fuzz__NtBb_4Args13auto_generateINtB5_sc_4AutopE4autoBf_
FN:85,_RNvMsr_NvMs1_NtNtCs2k5fBaaxJWw_5serde15newtype_variant13target_fuzz__NtBb_4Args13auto_generateINtB5_sc_4AutopE4autoBf_
FN:85,_RNvMsr_NvMs1_NtNtCs2k5fBaaxJWw_5serde3map13target_fuzz__NtBb_4Args13auto_generateINtB5_sc_4AutopE4autoBf_
FN:85,_RNvMsr_NvMs1_NtNtCs2k5fBaaxJWw_5serde3seq13target_fuzz__NtBb_4Args13auto_generateINtB5_sc_4AutopE4autoBf_
FN:85,_RNvMsr_NvMs1_NtNtCs2k5fBaaxJWw_5serde4unit13target_fuzz__NtBb_4Args13auto_generateINtB5_sc_4AutopE4autoBf_
FN:85,_RNvMsr_NvMs1_NtNtCs2k5fBaaxJWw_5serde5tuple13target_fuzz__NtBb_4Args13auto_generateINtB5_sc_4AutopE4autoBf_
FN:85,_RNvMsr_NvMs1_NtNtCs2k5fBaaxJWw_5serde6option13target_fuzz__NtBb_4Args13auto_generateINtB5_sc_4AutopE4autoBf_
FN:85,_RNvMsr_NvMs1_NtNtCs2k5fBaaxJWw_5serde6string13target_fuzz__NtBb_4Args13auto_generateINtB5_sc_4AutopE4autoBf_
FN:85,_RNvMsr_NvMs1_NtNtCs2k5fBaaxJWw_5serde6strukt13target_fuzz__NtBb_4Args13auto_generateINtB5_sc_4AutopE4autoBf_
FN:85,_RNvMst_NvMs1_NtNtCs2k5fBaaxJWw_5serde10byte_array13target_fuzz__NtBb_4Args13auto_generateINtB5_sd_4AutopE4autoBf_
FN:85,_RNvMst_NvMs1_NtNtCs2k5fBaaxJWw_5serde3seq13target_fuzz__NtBb_4Args13auto_generateINtB5_sd_4AutopE4autoBf_
FN:85,_RNvMst_NvMs1_NtNtCs2k5fBaaxJWw_5serde6string13target_fuzz__NtBb_4Args13auto_generateINtB5_sd_4AutopE4autoBf_
FN:85,_RNvMsx_NvMs1_NtNtCs2k5fBaaxJWw_5serde10byte_array13target_fuzz__NtBb_4Args13auto_generateINtB5_sf_4AutopE4autoBf_
FN:85,_RNvMsx_NvMs1_NtNtCs2k5fBaaxJWw_5serde3seq13target_fuzz__NtBb_4Args13auto_generateINtB5_sf_4AutopE4autoBf_
FN:85,_RNvMsx_NvMs1_NtNtCs2k5fBaaxJWw_5serde5tuple13target_fuzz__NtBb_4Args13auto_generateINtB5_sf_4AutopE4autoBf_
FN:85,_RNvMsx_NvMs1_NtNtCs2k5fBaaxJWw_5serde6string13target_fuzz__NtBb_4Args13auto_generateINtB5_sf_4AutopE4autoBf_
FN:85,_RNvMsz_NvMs1_NtNtCs2k5fBaaxJWw_5serde10byte_array13target_fuzz__NtBb_4Args13auto_generateINtB5_sg_4AutopE4autoBf_
FN:85,_RNvMsz_NvMs1_NtNtCs2k5fBaaxJWw_5serde3seq13target_fuzz__NtBb_4Args13auto_generateINtB5_sg_4AutopE4autoBf_
FN:85,_RNvMsz_NvMs1_NtNtCs2k5fBaaxJWw_5serde5tuple13target_fuzz__NtBb_4Args13auto_generateINtB5_sg_4AutopE4autoBf_
FN:85,_RNvMsz_NvMs1_NtNtCs2k5fBaaxJWw_5serde6string13target_fuzz__NtBb_4Args13auto_generateINtB5_sg_4AutopE4autoBf_
FN:76,_RNvXININvMs1_NtNtCs2k5fBaaxJWw_5serde10byte_array13target_fuzz__NtBb_4Args13auto_generates0_0ppEpINtB5_s_12AutoFallbackpE4autoBf_
FN:76,_RNvXININvMs1_NtNtCs2k5fBaaxJWw_5serde10byte_array13target_fuzz__NtBb_4Args13auto_generates18_0ppEpINtB5_sy_12AutoFallbackpE4autoBf_
FN:76,_RNvXININvMs1_NtNtCs2k5fBaaxJWw_5serde10byte_array13target_fuzz__NtBb_4Args13auto_generates1i_0ppEpINtB5_sD_12AutoFallbackpE4autoBf_
FN:76,_RNvXININvMs1_NtNtCs2k5fBaaxJWw_5serde10byte_array13target_fuzz__NtBb_4Args13auto_generatesE_0ppEpINtB5_sj_12AutoFallbackpE4autoBf_
FN:76,_RNvXININvMs1_NtNtCs2k5fBaaxJWw_5serde10byte_array13target_fuzz__NtBb_4Args13auto_generatesO_0ppEpINtB5_so_12AutoFallbackpE4autoBf_
FN:76,_RNvXININvMs1_NtNtCs2k5fBaaxJWw_5serde10byte_array13target_fuzz__NtBb_4Args13auto_generatesY_0ppEpINtB5_st_12AutoFallbackpE4autoBf_
FN:76,_RNvXININvMs1_NtNtCs2k5fBaaxJWw_5serde10byte_array13target_fuzz__NtBb_4Args13auto_generatesa_0ppEpINtB5_s4_12AutoFallbackpE4autoBf_
FN:76,_RNvXININvMs1_NtNtCs2k5fBaaxJWw_5serde10byte_array13target_fuzz__NtBb_4Args13auto_generatesk_0ppEpINtB5_s9_12AutoFallbackpE4autoBf_
FN:76,_RNvXININvMs1_NtNtCs2k5fBaaxJWw_5serde10byte_array13target_fuzz__NtBb_4Args13auto_generatesu_0ppEpINtB5_se_12AutoFallbackpE4autoBf_
FN:76,_RNvXININvMs1_NtNtCs2k5fBaaxJWw_5serde11unit_struct13target_fuzz__NtBb_4Args13auto_generates0_0ppEpINtB5_s_12AutoFallbackpE4autoBf_
FN:76,_RNvXININvMs1_NtNtCs2k5fBaaxJWw_5serde11unit_struct13target_fuzz__NtBb_4Args13auto_generatesa_0ppEpINtB5_s4_12AutoFallbackpE4autoBf_
FN:76,_RNvXININvMs1_NtNtCs2k5fBaaxJWw_5serde11unit_struct13target_fuzz__NtBb_4Args13auto_generatesk_0ppEpINtB5_s9_12AutoFallbackpE4autoBf_
FN:76,_RNvXININvMs1_NtNtCs2k5fBaaxJWw_5serde12tuple_struct13target_fuzz__NtBb_4Args13auto_generates0_0ppEpINtB5_s_12AutoFallbackpE4autoBf_
FN:76,_RNvXININvMs1_NtNtCs2k5fBaaxJWw_5serde12tuple_struct13target_fuzz__NtBb_4Args13auto_generatesa_0ppEpINtB5_s4_12AutoFallbackpE4autoBf_
FN:76,_RNvXININvMs1_NtNtCs2k5fBaaxJWw_5serde12tuple_struct13target_fuzz__NtBb_4Args13auto_generatesk_0ppEpINtB5_s9_12AutoFallbackpE4autoBf_
FN:76,_RNvXININvMs1_NtNtCs2k5fBaaxJWw_5serde13tuple_variant13target_fuzz__NtBb_4Args13auto_generates0_0ppEpINtB5_s_12AutoFallbackpE4autoBf_
FN:76,_RNvXININvMs1_NtNtCs2k5fBaaxJWw_5serde13tuple_variant13target_fuzz__NtBb_4Args13auto_generatesa_0ppEpINtB5_s4_12AutoFallbackpE4autoBf_
FN:76,_RNvXININvMs1_NtNtCs2k5fBaaxJWw_5serde13tuple_variant13target_fuzz__NtBb_4Args13auto_generatesk_0ppEpINtB5_s9_12AutoFallbackpE4autoBf_
FN:76,_RNvXININvMs1_NtNtCs2k5fBaaxJWw_5serde14newtype_struct13target_fuzz__NtBb_4Args13auto_generates0_0ppEpINtB5_s_12AutoFallbackpE4autoBf_
FN:76,_RNvXININvMs1_NtNtCs2k5fBaaxJWw_5serde14newtype_struct13target_fuzz__NtBb_4Args13auto_generatesa_0ppEpINtB5_s4_12AutoFallbackpE4autoBf_
FN:76,_RNvXININvMs1_NtNtCs2k5fBaaxJWw_5serde14newtype_struct13target_fuzz__NtBb_4Args13auto_generatesk_0ppEpINtB5_s9_12AutoFallbackpE4autoBf_
FN:76,_RNvXININvMs1_NtNtCs2k5fBaaxJWw_5serde14struct_variant13target_fuzz__NtBb_4Args13auto_generates0_0ppEpINtB5_s_12AutoFallbackpE4autoBf_
FN:76,_RNvXININvMs1_NtNtCs2k5fBaaxJWw_5serde14struct_variant13target_fuzz__NtBb_4Args13auto_generatesa_0ppEpINtB5_s4_12AutoFallbackpE4autoBf_
FN:76,_RNvXININvMs1_NtNtCs2k5fBaaxJWw_5serde14struct_variant13target_fuzz__NtBb_4Args13auto_generatesk_0ppEpINtB5_s9_12AutoFallbackpE4autoBf_
FN:76,_RNvXININvMs1_NtNtCs2k5fBaaxJWw_5serde15newtype_variant13target_fuzz__NtBb_4Args13auto_generates0_0ppEpINtB5_s_12AutoFallbackpE4autoBf_
FN:76,_RNvXININvMs1_NtNtCs2k5fBaaxJWw_5serde15newtype_variant13target_fuzz__NtBb_4Args13auto_generatesa_0ppEpINtB5_s4_12AutoFallbackpE4autoBf_
FN:76,_RNvXININvMs1_NtNtCs2k5fBaaxJWw_5serde15newtype_variant13target_fuzz__NtBb_4Args13auto_generatesk_0ppEpINtB5_s9_12AutoFallbackpE4autoBf_
FN:76,_RNvXININvMs1_NtNtCs2k5fBaaxJWw_5serde3map13target_fuzz__NtBb_4Args13auto_generates0_0ppEpINtB5_s_12AutoFallbackpE4autoBf_
FN:76,_RNvXININvMs1_NtNtCs2k5fBaaxJWw_5serde3map13target_fuzz__NtBb_4Args13auto_generatesa_0ppEpINtB5_s4_12AutoFallbackpE4autoBf_
FN:76,_RNvXININvMs1_NtNtCs2k5fBaaxJWw_5serde3map13target_fuzz__NtBb_4Args13auto_generatesk_0ppEpINtB5_s9_12AutoFallbackpE4autoBf_
FN:76,_RNvXININvMs1_NtNtCs2k5fBaaxJWw_5serde3seq13target_fuzz__NtBb_4Args13auto_generates0_0ppEpINtB5_s_12AutoFallbackpE4autoBf_
FN:76,_RNvXININvMs1_NtNtCs2k5fBaaxJWw_5serde3seq13target_fuzz__NtBb_4Args13auto_generatesE_0ppEpINtB5_sj_12AutoFallbackpE4autoBf_
FN:76,_RNvXININvMs1_NtNtCs2k5fBaaxJWw_5serde3seq13target_fuzz__NtBb_4Args13auto_generatesO_0ppEpINtB5_so_12AutoFallbackpE4autoBf_
FN:76,_RNvXININvMs1_NtNtCs2k5fBaaxJWw_5serde3seq13target_fuzz__NtBb_4Args13auto_generatesY_0ppEpINtB5_st_12AutoFallbackpE4autoBf_
FN:76,_RNvXININvMs1_NtNtCs2k5fBaaxJWw_5serde3seq13target_fuzz__NtBb_4Args13auto_generatesa_0ppEpINtB5_s4_12AutoFallbackpE4autoBf_
FN:76,_RNvXININvMs1_NtNtCs2k5fBaaxJWw_5serde3seq13target_fuzz__NtBb_4Args13auto_generatesk_0ppEpINtB5_s9_12AutoFallbackpE4autoBf_
FN:76,_RNvXININvMs1_NtNtCs2k5fBaaxJWw_5serde3seq13target_fuzz__NtBb_4Args13auto_generatesu_0ppEpINtB5_se_12AutoFallbackpE4autoBf_
FN:76,_RNvXININvMs1_NtNtCs2k5fBaaxJWw_5serde4unit13target_fuzz__NtBb_4Args13auto_generate0ppEpINtB5_12AutoFallbackpE4autoBf_
FN:76,_RNvXININvMs1_NtNtCs2k5fBaaxJWw_5serde4unit13target_fuzz__NtBb_4Args13auto_generates0_0ppEpINtB5_s_12AutoFallbackpE4autoBf_
FN:76,_RNvXININvMs1_NtNtCs2k5fBaaxJWw_5serde4unit13target_fuzz__NtBb_4Args13auto_generates8_0ppEpINtB5_s3_12AutoFallbackpE4autoBf_
FN:76,_RNvXININvMs1_NtNtCs2k5fBaaxJWw_5serde4unit13target_fuzz__NtBb_4Args13auto_generatesa_0ppEpINtB5_s4_12AutoFallbackpE4autoBf_
FN:76,_RNvXININvMs1_NtNtCs2k5fBaaxJWw_5serde4unit13target_fuzz__NtBb_4Args13auto_generatesi_0ppEpINtB5_s8_12AutoFallbackpE4autoBf_
FN:76,_RNvXININvMs1_NtNtCs2k5fBaaxJWw_5serde4unit13target_fuzz__NtBb_4Args13auto_generatesk_0ppEpINtB5_s9_12AutoFallbackpE4autoBf_
FN:76,_RNvXININvMs1_NtNtCs2k5fBaaxJWw_5serde5tuple13target_fuzz__NtBb_4Args13auto_generate0ppEpINtB5_12AutoFallbackpE4autoBf_
FN:76,_RNvXININvMs1_NtNtCs2k5fBaaxJWw_5serde5tuple13target_fuzz__NtBb_4Args13auto_generates0_0ppEpINtB5_s_12AutoFallbackpE4autoBf_
FN:76,_RNvXININvMs1_NtNtCs2k5fBaaxJWw_5serde5tuple13target_fuzz__NtBb_4Args13auto_generates8_0ppEpINtB5_s3_12AutoFallbackpE4autoBf_
FN:76,_RNvXININvMs1_NtNtCs2k5fBaaxJWw_5serde5tuple13target_fuzz__NtBb_4Args13auto_generatesC_0ppEpINtB5_si_12AutoFallbackpE4autoBf_
FN:76,_RNvXININvMs1_NtNtCs2k5fBaaxJWw_5serde5tuple13target_fuzz__NtBb_4Args13auto_generatesE_0ppEpINtB5_sj_12AutoFallbackpE4autoBf_
FN:76,_RNvXININvMs1_NtNtCs2k5fBaaxJWw_5serde5tuple13target_fuzz__NtBb_4Args13auto_generatesM_0ppEpINtB5_sn_12AutoFallbackpE4autoBf_
FN:76,_RNvXININvMs1_NtNtCs2k5fBaaxJWw_5serde5tuple13target_fuzz__NtBb_4Args13auto_generatesO_0ppEpINtB5_so_12AutoFallbackpE4autoBf_
FN:76,_RNvXININvMs1_NtNtCs2k5fBaaxJWw_5serde5tuple13target_fuzz__NtBb_4Args13auto_generatesa_0ppEpINtB5_s4_12AutoFallbackpE4autoBf_
FN:76,_RNvXININvMs1_NtNtCs2k5fBaaxJWw_5serde5tuple13target_fuzz__NtBb_4Args13auto_generatesi_0ppEpINtB5_s8_12AutoFallbackpE4autoBf_
FN:76,_RNvXININvMs1_NtNtCs2k5fBaaxJWw_5serde5tuple13target_fuzz__NtBb_4Args13auto_generatesk_0ppEpINtB5_s9_12AutoFallbackpE4autoBf_
FN:76,_RNvXININvMs1_NtNtCs2k5fBaaxJWw_5serde5tuple13target_fuzz__NtBb_4Args13auto_generatess_0ppEpINtB5_sd_12AutoFallbackpE4autoBf_
FN:76,_RNvXININvMs1_NtNtCs2k5fBaaxJWw_5serde5tuple13target_fuzz__NtBb_4Args13auto_generatesu_0ppEpINtB5_se_12AutoFallbackpE4autoBf_
FN:76,_RNvXININvMs1_NtNtCs2k5fBaaxJWw_5serde6option13target_fuzz__NtBb_4Args13auto_generates0_0ppEpINtB5_s_12AutoFallbackpE4autoBf_
FN:76,_RNvXININvMs1_NtNtCs2k5fBaaxJWw_5serde6option13target_fuzz__NtBb_4Args13auto_generatesa_0ppEpINtB5_s4_12AutoFallbackpE4autoBf_
FN:76,_RNvXININvMs1_NtNtCs2k5fBaaxJWw_5serde6option13target_fuzz__NtBb_4Args13auto_generatesk_0ppEpINtB5_s9_12AutoFallbackpE4autoBf_
FN:76,_RNvXININvMs1_NtNtCs2k5fBaaxJWw_5serde6string13target_fuzz__NtBb_4Args13auto_generates0_0ppEpINtB5_s_12AutoFallbackpE4autoBf_
FN:76,_RNvXININvMs1_NtNtCs2k5fBaaxJWw_5serde6string13target_fuzz__NtBb_4Args13auto_generatesa_0ppEpINtB5_s4_12AutoFallbackpE4autoBf_
FN:76,_RNvXININvMs1_NtNtCs2k5fBaaxJWw_5serde6string13target_fuzz__NtBb_4Args13auto_generatesk_0ppEpINtB5_s9_12AutoFallbackpE4autoBf_
FN:76,_RNvXININvMs1_NtNtCs2k5fBaaxJWw_5serde6string13target_fuzz__NtBb_4Args13auto_generatesu_0ppEpINtB5_se_12AutoFallbackpE4autoBf_
FN:76,_RNvXININvMs1_NtNtCs2k5fBaaxJWw_5serde6strukt13target_fuzz__NtBb_4Args13auto_generates0_0ppEpINtB5_s_12AutoFallbackpE4autoBf_
FN:76,_RNvXININvMs1_NtNtCs2k5fBaaxJWw_5serde6strukt13target_fuzz__NtBb_4Args13auto_generatesa_0ppEpINtB5_s4_12AutoFallbackpE4autoBf_
FN:76,_RNvXININvMs1_NtNtCs2k5fBaaxJWw_5serde6strukt13target_fuzz__NtBb_4Args13auto_generatesk_0ppEpINtB5_s9_12AutoFallbackpE4autoBf_
FN:85,_RNvMs1_NvMs1_NtNtCs2k5fBaaxJWw_5serde3map13target_fuzz__NtBb_4Args13auto_generateINtB5_s_4AutoINtNtNtNtCsgag4BwXrjBQ_5alloc11collections5btree3map8BTreeMaphhEE4autoBf_
FN:85,_RNvMsb_NvMs1_NtNtCs2k5fBaaxJWw_5serde3map13target_fuzz__NtBb_4Args13auto_generateINtB5_s4_4AutoINtNtNtNtCsgag4BwXrjBQ_5alloc11collections5btree3map8BTreeMaphhEE4autoBf_
FN:85,_RNvMsl_NvMs1_NtNtCs2k5fBaaxJWw_5serde3map13target_fuzz__NtBb_4Args13auto_generateINtB5_s9_4AutoINtNtNtNtCsgag4BwXrjBQ_5alloc11collections5btree3map8BTreeMaphhEE4autoBf_
FN:76,_RNvXNvMs1_NtNtCs2k5fBaaxJWw_5serde3map13target_fuzz__NtB8_4Args13auto_generateINtB2_4AutoINtNtNtNtCsgag4BwXrjBQ_5alloc11collections5btree3map8BTreeMaphhEEINtB2_12AutoFallbackB1p_E4autoBc_
FN:76,_RNvXs2_NvMs1_NtNtCs2k5fBaaxJWw_5serde3map13target_fuzz__NtBb_4Args13auto_generateINtB5_s0_4AutoINtNtNtNtCsgag4BwXrjBQ_5alloc11collections5btree3map8BTreeMaphhEEINtB5_s0_12AutoFallbackB1v_E4autoBf_
FN:76,_RNvXs4_NvMs1_NtNtCs2k5fBaaxJWw_5serde3map13target_fuzz__NtBb_4Args13auto_generateINtB5_s1_4AutoINtNtNtNtCsgag4BwXrjBQ_5alloc11collections5btree3map8BTreeMaphhEEINtB5_s1_12AutoFallbackB1v_E4autoBf_
FN:76,_RNvXs6_NvMs1_NtNtCs2k5fBaaxJWw_5serde3map13target_fuzz__NtBb_4Args13auto_generateINtB5_s2_4AutoINtNtNtNtCsgag4BwXrjBQ_5alloc11collections5btree3map8BTreeMaphhEEINtB5_s2_12AutoFallbackB1v_E4autoBf_
FN:76,_RNvXs8_NvMs1_NtNtCs2k5fBaaxJWw_5serde3map13target_fuzz__NtBb_4Args13auto_generateINtB5_s3_4AutoINtNtNtNtCsgag4BwXrjBQ_5alloc11collections5btree3map8BTreeMaphhEEINtB5_s3_12AutoFallbackB1v_E4autoBf_
FN:76,_RNvXsc_NvMs1_NtNtCs2k5fBaaxJWw_5serde3map13target_fuzz__NtBb_4Args13auto_generateINtB5_s5_4AutoINtNtNtNtCsgag4BwXrjBQ_5alloc11collections5btree3map8BTreeMaphhEEINtB5_s5_12AutoFallbackB1v_E4autoBf_
FN:76,_RNvXse_NvMs1_NtNtCs2k5fBaaxJWw_5serde3map13target_fuzz__NtBb_4Args13auto_generateINtB5_s6_4AutoINtNtNtNtCsgag4BwXrjBQ_5alloc11collections5btree3map8BTreeMaphhEEINtB5_s6_12AutoFallbackB1v_E4autoBf_
FN:76,_RNvXsg_NvMs1_NtNtCs2k5fBaaxJWw_5serde3map13target_fuzz__NtBb_4Args13auto_generateINtB5_s7_4AutoINtNtNtNtCsgag4BwXrjBQ_5alloc11collections5btree3map8BTreeMaphhEEINtB5_s7_12AutoFallbackB1v_E4autoBf_
FN:76,_RNvXsi_NvMs1_NtNtCs2k5fBaaxJWw_5serde3map13target_fuzz__NtBb_4Args13auto_generateINtB5_s8_4AutoINtNtNtNtCsgag4BwXrjBQ_5alloc11collections5btree3map8BTreeMaphhEEINtB5_s8_12AutoFallbackB1v_E4autoBf_
FN:76,_RNvXsm_NvMs1_NtNtCs2k5fBaaxJWw_5serde3map13target_fuzz__NtBb_4Args13auto_generateINtB5_sa_4AutoINtNtNtNtCsgag4BwXrjBQ_5alloc11collections5btree3map8BTreeMaphhEEINtB5_sa_12AutoFallbackB1v_E4autoBf_
FN:76,_RNvXso_NvMs1_NtNtCs2k5fBaaxJWw_5serde3map13target_fuzz__NtBb_4Args13auto_generateINtB5_sb_4AutoINtNtNtNtCsgag4BwXrjBQ_5alloc11collections5btree3map8BTreeMaphhEEINtB5_sb_12AutoFallbackB1v_E4autoBf_
FN:76,_RNvXsq_NvMs1_NtNtCs2k5fBaaxJWw_5serde3map13target_fuzz__NtBb_4Args13auto_generateINtB5_sc_4AutoINtNtNtNtCsgag4BwXrjBQ_5alloc11collections5btree3map8BTreeMaphhEEINtB5_sc_12AutoFallbackB1v_E4autoBf_
FN:85,_RNvMs1_NvMs1_NtNtCs2k5fBaaxJWw_5serde6option13target_fuzz__NtBb_4Args13auto_generateINtB5_s_4AutoINtNtCs3XFJfFEDSOQ_4core6option6OptionhEE4autoBf_
FN:85,_RNvMsb_NvMs1_NtNtCs2k5fBaaxJWw_5serde6option13target_fuzz__NtBb_4Args13auto_generateINtB5_s4_4AutoINtNtCs3XFJfFEDSOQ_4core6option6OptionhEE4autoBf_
FN:85,_RNvMsl_NvMs1_NtNtCs2k5fBaaxJWw_5serde6option13target_fuzz__NtBb_4Args13auto_generateINtB5_s9_4AutoINtNtCs3XFJfFEDSOQ_4core6option6OptionhEE4autoBf_
FN:76,_RNvXNvMs1_NtNtCs2k5fBaaxJWw_5serde6option13target_fuzz__NtB8_4Args13auto_generateINtB2_4AutoINtNtCs3XFJfFEDSOQ_4core6option6OptionhEEINtB2_12AutoFallbackB1s_E4autoBc_
FN:76,_RNvXs2_NvMs1_NtNtCs2k5fBaaxJWw_5serde6option13target_fuzz__NtBb_4Args13auto_generateINtB5_s0_4AutoINtNtCs3XFJfFEDSOQ_4core6option6OptionhEEINtB5_s0_12AutoFallbackB1y_E4autoBf_
FN:76,_RNvXs4_NvMs1_NtNtCs2k5fBaaxJWw_5serde6option13target_fuzz__NtBb_4Args13auto_generateINtB5_s1_4AutoINtNtCs3XFJfFEDSOQ_4core6option6OptionhEEINtB5_s1_12AutoFallbackB1y_E4autoBf_
FN:76,_RNvXs6_NvMs1_NtNtCs2k5fBaaxJWw_5serde6option13target_fuzz__NtBb_4Args13auto_generateINtB5_s2_4AutoINtNtCs3XFJfFEDSOQ_4core6option6OptionhEEINtB5_s2_12AutoFallbackB1y_E4autoBf_
FN:76,_RNvXs8_NvMs1_NtNtCs2k5fBaaxJWw_5serde6option13target_fuzz__NtBb_4Args13auto_generateINtB5_s3_4AutoINtNtCs3XFJfFEDSOQ_4core6option6OptionhEEINtB5_s3_12AutoFallbackB1y_E4autoBf_
FN:76,_RNvXsc_NvMs1_NtNtCs2k5fBaaxJWw_5serde6option13target_fuzz__NtBb_4Args13auto_generateINtB5_s5_4AutoINtNtCs3XFJfFEDSOQ_4core6option6OptionhEEINtB5_s5_12AutoFallbackB1y_E4autoBf_
FN:76,_RNvXse_NvMs1_NtNtCs2k5fBaaxJWw_5serde6option13target_fuzz__NtBb_4Args13auto_generateINtB5_s6_4AutoINtNtCs3XFJfFEDSOQ_4core6option6OptionhEEINtB5_s6_12AutoFallbackB1y_E4autoBf_
FN:76,_RNvXsg_NvMs1_NtNtCs2k5fBaaxJWw_5serde6option13target_fuzz__NtBb_4Args13auto_generateINtB5_s7_4AutoINtNtCs3XFJfFEDSOQ_4core6option6OptionhEEINtB5_s7_12AutoFallbackB1y_E4autoBf_
FN:76,_RNvXsi_NvMs1_NtNtCs2k5fBaaxJWw_5serde6option13target_fuzz__NtBb_4Args13auto_generateINtB5_s8_4AutoINtNtCs3XFJfFEDSOQ_4core6option6OptionhEEINtB5_s8_12AutoFallbackB1y_E4autoBf_
FN:76,_RNvXsm_NvMs1_NtNtCs2k5fBaaxJWw_5serde6option13target_fuzz__NtBb_4Args13auto_generateINtB5_sa_4AutoINtNtCs3XFJfFEDSOQ_4core6option6OptionhEEINtB5_sa_12AutoFallbackB1y_E4autoBf_
FN:76,_RNvXso_NvMs1_NtNtCs2k5fBaaxJWw_5serde6option13target_fuzz__NtBb_4Args13auto_generateINtB5_sb_4AutoINtNtCs3XFJfFEDSOQ_4core6option6OptionhEEINtB5_sb_12AutoFallbackB1y_E4autoBf_
FN:76,_RNvXsq_NvMs1_NtNtCs2k5fBaaxJWw_5serde6option13target_fuzz__NtBb_4Args13auto_generateINtB5_sc_4AutoINtNtCs3XFJfFEDSOQ_4core6option6OptionhEEINtB5_sc_12AutoFallbackB1y_E4autoBf_
FN:85,_RNvMs1_NvMs1_NtNtCs2k5fBaaxJWw_5serde3seq13target_fuzz__NtBb_4Args13auto_generateINtB5_s_4AutoINtNtCsgag4BwXrjBQ_5alloc3vec3VechEE4autoBf_
FN:85,_RNvMsF_NvMs1_NtNtCs2k5fBaaxJWw_5serde3seq13target_fuzz__NtBb_4Args13auto_generateINtB5_sj_4AutoINtNtNtNtCsHIej2QEFI5_3std11collections4hash3set7HashSethEE4autoBf_
FN:85,_RNvMsP_NvMs1_NtNtCs2k5fBaaxJWw_5serde3seq13target_fuzz__NtBb_4Args13auto_generateINtB5_so_4AutoINtNtNtNtCsHIej2QEFI5_3std11collections4hash3set7HashSethEE4autoBf_
FN:85,_RNvMsZ_NvMs1_NtNtCs2k5fBaaxJWw_5serde3seq13target_fuzz__NtBb_4Args13auto_generateINtB5_st_4AutoINtNtNtNtCsHIej2QEFI5_3std11collections4hash3set7HashSethEE4autoBf_
FN:85,_RNvMsb_NvMs1_NtNtCs2k5fBaaxJWw_5serde3seq13target_fuzz__NtBb_4Args13auto_generateINtB5_s4_4AutoINtNtCsgag4BwXrjBQ_5alloc3vec3VechEE4autoBf_
FN:85,_RNvMsl_NvMs1_NtNtCs2k5fBaaxJWw_5serde3seq13target_fuzz__NtBb_4Args13auto_generateINtB5_s9_4AutoINtNtCsgag4BwXrjBQ_5alloc3vec3VechEE4autoBf_
FN:85,_RNvMsv_NvMs1_NtNtCs2k5fBaaxJWw_5serde3seq13target_fuzz__NtBb_4Args13auto_generateINtB5_se_4AutoINtNtCsgag4BwXrjBQ_5alloc3vec3VechEE4autoBf_
FN:76,_RNvXNvMs1_NtNtCs2k5fBaaxJWw_5serde3seq13target_fuzz__NtB8_4Args13auto_generateINtB2_4AutoINtNtCsgag4BwXrjBQ_5alloc3vec3VechEEINtB2_12AutoFallbackB1p_E4autoBc_
FN:76,_RNvXs10_NvMs1_NtNtCs2k5fBaaxJWw_5serde3seq13target_fuzz__NtBc_4Args13auto_generateINtB6_su_4AutoINtNtNtNtCsHIej2QEFI5_3std11collections4hash3set7HashSethEEINtB6_su_12AutoFallbackB1w_E4autoBg_
FN:76,_RNvXs12_NvMs1_NtNtCs2k5fBaaxJWw_5serde3seq13target_fuzz__NtBc_4Args13auto_generateINtB6_sv_4AutoINtNtNtNtCsHIej2QEFI5_3std11collections4hash3set7HashSethEEINtB6_sv_12AutoFallbackB1w_E4autoBg_
FN:76,_RNvXs14_NvMs1_NtNtCs2k5fBaaxJWw_5serde3seq13target_fuzz__NtBc_4Args13auto_generateINtB6_sw_4AutoINtNtNtNtCsHIej2QEFI5_3std11collections4hash3set7HashSethEEINtB6_sw_12AutoFallbackB1w_E4autoBg_
