SF:[REPO]/fuzzable/src/bin/hello-world.rs
FN:10,_RNvCsb4uiOcbMbWE_11hello_world6target
FN:1,_RNvCsb4uiOcbMbWE_11hello_world4main
FN:1,_RNvCskdnhhtjhrrV_11hello_world4main
FN:10,_RNvCskdnhhtjhrrV_11hello_world6target
FN:1,_RNvCs6sCsrYIWXJb_11hello_world4main
FN:10,_RNvCs6sCsrYIWXJb_11hello_world6target
FN:1,_RNvCs8i4ARjknqvr_11hello_world4main
FN:10,_RNvCs8i4ARjknqvr_11hello_world6target
FNDA:1,_RNvCsb4uiOcbMbWE_11hello_world6target
FNDA:0,_RNvCsb4uiOcbMbWE_11hello_world4main
FNDA:0,_RNvCskdnhhtjhrrV_11hello_world4main
FNDA:0,_RNvCskdnhhtjhrrV_11hello_world6target
FNDA:0,_RNvCs6sCsrYIWXJb_11hello_world4main
FNDA:0,_RNvCs6sCsrYIWXJb_11hello_world6target
FNDA:0,_RNvCs8i4ARjknqvr_11hello_world4main
FNDA:0,_RNvCs8i4ARjknqvr_11hello_world6target
FNF:2
FNH:1
DA:1,0
DA:2,0
DA:3,0
DA:10,1
DA:11,1
DA:12,1
BRF:0
BRH:0
LF:6
LH:3
end_of_record
SF:[REPO]/internal/src/dirs.rs
FN:136,_RINvNtCs7qDQvy6XYpV_18test_fuzz_internal4dirs19path_from_args_typeNtNtCsgIkjcW1KA6G_5alloc13target_fuzz__4ArgsEB16_
FN:136,_RINvNtCs7qDQvy6XYpV_18test_fuzz_internal4dirs19path_from_args_typeNtNvNtCsgIkjcW1KA6G_5alloc13target_fuzz__10write_args4ArgsEB18_
FN:32,_RINvNtCs7qDQvy6XYpV_18test_fuzz_internal4dirs31corpus_directory_from_args_typeNtNvNtCsgIkjcW1KA6G_5alloc13target_fuzz__10write_args4ArgsEB1k_
FN:22,_RINvNtCs7qDQvy6XYpV_18test_fuzz_internal4dirs37generic_args_directory_from_args_typeNtNtCsgIkjcW1KA6G_5alloc13target_fuzz__4ArgsEB1o_
FN:12,_RINvNtCs7qDQvy6XYpV_18test_fuzz_internal4dirs42impl_generic_args_directory_from_args_typeNtNtCsgIkjcW1KA6G_5alloc13target_fuzz__4ArgsEB1t_
FN:140,_RNCINvNtCs7qDQvy6XYpV_18test_fuzz_internal4dirs19path_from_args_typeNtNtCsgIkjcW1KA6G_5alloc13target_fuzz__4ArgsE0B18_
FN:140,_RNCINvNtCs7qDQvy6XYpV_18test_fuzz_internal4dirs19path_from_args_typeNtNvNtCsgIkjcW1KA6G_5alloc13target_fuzz__10write_args4ArgsE0B1a_
FN:136,_RINvNtCs7qDQvy6XYpV_18test_fuzz_internal4dirs19path_from_args_typepEB4_
FN:32,_RINvNtCs7qDQvy6XYpV_18test_fuzz_internal4dirs31corpus_directory_from_args_typepEB4_
FN:22,_RINvNtCs7qDQvy6XYpV_18test_fuzz_internal4dirs37generic_args_directory_from_args_typepEB4_
FN:12,_RINvNtCs7qDQvy6XYpV_18test_fuzz_internal4dirs42impl_generic_args_directory_from_args_typepEB4_
FN:140,_RNCINvNtCs7qDQvy6XYpV_18test_fuzz_internal4dirs19path_from_args_typepE0B6_
FN:96,_RNCNvNtCs7qDQvy6XYpV_18test_fuzz_internal4dirs8maybe_id0B5_
FN:86,_RNvNtCs7qDQvy6XYpV_18test_fuzz_internal4dirs12path_segment
FN:129,_RNvNtCs7qDQvy6XYpV_18test_fuzz_internal4dirs14workspace_root
FN:74,_RNvNtCs7qDQvy6XYpV_18test_fuzz_internal4dirs16corpus_directory
FN:80,_RNvNtCs7qDQvy6XYpV_18test_fuzz_internal4dirs16output_directory
FN:145,_RNvNtCs7qDQvy6XYpV_18test_fuzz_internal4dirs16path_from_target
FN:110,_RNvNtCs7qDQvy6XYpV_18test_fuzz_internal4dirs16target_directory
FN:68,_RNvNtCs7qDQvy6XYpV_18test_fuzz_internal4dirs22generic_args_directory
FN:47,_RNvNtCs7qDQvy6XYpV_18test_fuzz_internal4dirs27hangs_directory_from_target
FN:62,_RNvNtCs7qDQvy6XYpV_18test_fuzz_internal4dirs27impl_generic_args_directory
FN:52,_RNvNtCs7qDQvy6XYpV_18test_fuzz_internal4dirs27queue_directory_from_target
FN:37,_RNvNtCs7qDQvy6XYpV_18test_fuzz_internal4dirs28corpus_directory_from_target
FN:57,_RNvNtCs7qDQvy6XYpV_18test_fuzz_internal4dirs28output_directory_from_target
FN:42,_RNvNtCs7qDQvy6XYpV_18test_fuzz_internal4dirs29crashes_directory_from_target
FN:27,_RNvNtCs7qDQvy6XYpV_18test_fuzz_internal4dirs34generic_args_directory_from_target
FN:17,_RNvNtCs7qDQvy6XYpV_18test_fuzz_internal4dirs39impl_generic_args_directory_from_target
FN:95,_RNvNtCs7qDQvy6XYpV_18test_fuzz_internal4dirs8maybe_id
FN:105,_RNvNtCs7qDQvy6XYpV_18test_fuzz_internal4dirs9thread_id
FN:123,_RNvNtCs7qDQvy6XYpV_18test_fuzz_internal4dirs9workspace
FN:136,_RINvNtCs7tkdMjTuzcM_18test_fuzz_internal4dirs19path_from_args_typeNtNtCs4N18HtGFFUR_5alloc13target_fuzz__4ArgsEB16_
FN:136,_RINvNtCs7tkdMjTuzcM_18test_fuzz_internal4dirs19path_from_args_typeNtNvNtCs4N18HtGFFUR_5alloc13target_fuzz__10write_args4ArgsEB18_
FN:32,_RINvNtCs7tkdMjTuzcM_18test_fuzz_internal4dirs31corpus_directory_from_args_typeNtNvNtCs4N18HtGFFUR_5alloc13target_fuzz__10write_args4ArgsEB1k_
FN:22,_RINvNtCs7tkdMjTuzcM_18test_fuzz_internal4dirs37generic_args_directory_from_args_typeNtNtCs4N18HtGFFUR_5alloc13target_fuzz__4ArgsEB1o_
FN:12,_RINvNtCs7tkdMjTuzcM_18test_fuzz_internal4dirs42impl_generic_args_directory_from_args_typeNtNtCs4N18HtGFFUR_5alloc13target_fuzz__4ArgsEB1t_
FN:140,_RNCINvNtCs7tkdMjTuzcM_18test_fuzz_internal4dirs19path_from_args_typeNtNtCs4N18HtGFFUR_5alloc13target_fuzz__4ArgsE0B18_
FN:140,_RNCINvNtCs7tkdMjTuzcM_18test_fuzz_internal4dirs19path_from_args_typeNtNvNtCs4N18HtGFFUR_5alloc13target_fuzz__10write_args4ArgsE0B1a_
FN:136,_RINvNtCs7tkdMjTuzcM_18test_fuzz_internal4dirs19path_from_args_typepEB4_
FN:32,_RINvNtCs7tkdMjTuzcM_18test_fuzz_internal4dirs31corpus_directory_from_args_typepEB4_
FN:22,_RINvNtCs7tkdMjTuzcM_18test_fuzz_internal4dirs37generic_args_directory_from_args_typepEB4_
FN:12,_RINvNtCs7tkdMjTuzcM_18test_fuzz_internal4dirs42impl_generic_args_directory_from_args_typepEB4_
FN:140,_RNCINvNtCs7tkdMjTuzcM_18test_fuzz_internal4dirs19path_from_args_typepE0B6_
FN:86,_RNvNtCs7tkdMjTuzcM_18test_fuzz_internal4dirs12path_segment
FN:129,_RNvNtCs7tkdMjTuzcM_18test_fuzz_internal4dirs14workspace_root
FN:74,_RNvNtCs7tkdMjTuzcM_18test_fuzz_internal4dirs16corpus_directory
FN:80,_RNvNtCs7tkdMjTuzcM_18test_fuzz_internal4dirs16output_directory
FN:145,_RNvNtCs7tkdMjTuzcM_18test_fuzz_internal4dirs16path_from_target
FN:110,_RNvNtCs7tkdMjTuzcM_18test_fuzz_internal4dirs16target_directory
FN:68,_RNvNtCs7tkdMjTuzcM_18test_fuzz_internal4dirs22generic_args_directory
FN:47,_RNvNtCs7tkdMjTuzcM_18test_fuzz_internal4dirs27hangs_directory_from_target
FN:62,_RNvNtCs7tkdMjTuzcM_18test_fuzz_internal4dirs27impl_generic_args_directory
FN:52,_RNvNtCs7tkdMjTuzcM_18test_fuzz_internal4dirs27queue_directory_from_target
FN:37,_RNvNtCs7tkdMjTuzcM_18test_fuzz_internal4dirs28corpus_directory_from_target
FN:57,_RNvNtCs7tkdMjTuzcM_18test_fuzz_internal4dirs28output_directory_from_target
FN:42,_RNvNtCs7tkdMjTuzcM_18test_fuzz_internal4dirs29crashes_directory_from_target
FN:27,_RNvNtCs7tkdMjTuzcM_18test_fuzz_internal4dirs34generic_args_directory_from_target
FN:17,_RNvNtCs7tkdMjTuzcM_18test_fuzz_internal4dirs39impl_generic_args_directory_from_target
FN:95,_RNvNtCs7tkdMjTuzcM_18test_fuzz_internal4dirs8maybe_id
FN:105,_RNvNtCs7tkdMjTuzcM_18test_fuzz_internal4dirs9thread_id
FN:123,_RNvNtCs7tkdMjTuzcM_18test_fuzz_internal4dirs9workspace
FN:96,_RNCNvNtCs7tkdMjTuzcM_18test_fuzz_internal4dirs8maybe_id0B5_
FN:136,_RINvNtCs7qDQvy6XYpV_18test_fuzz_internal4dirs19path_from_args_typeNtNtCs4yETEQZarcM_5alloc13target_fuzz__4ArgsEB16_
FN:136,_RINvNtCs7qDQvy6XYpV_18test_fuzz_internal4dirs19path_from_args_typeNtNvNtCs4yETEQZarcM_5alloc13target_fuzz__10write_args4ArgsEB18_
FN:32,_RINvNtCs7qDQvy6XYpV_18test_fuzz_internal4dirs31corpus_directory_from_args_typeNtNvNtCs4yETEQZarcM_5alloc13target_fuzz__10write_args4ArgsEB1k_
FN:22,_RINvNtCs7qDQvy6XYpV_18test_fuzz_internal4dirs37generic_args_directory_from_args_typeNtNtCs4yETEQZarcM_5alloc13target_fuzz__4ArgsEB1o_
FN:12,_RINvNtCs7qDQvy6XYpV_18test_fuzz_internal4dirs42impl_generic_args_directory_from_args_typeNtNtCs4yETEQZarcM_5alloc13target_fuzz__4ArgsEB1t_
FN:140,_RNCINvNtCs7qDQvy6XYpV_18test_fuzz_internal4dirs19path_from_args_typeNtNtCs4yETEQZarcM_5alloc13target_fuzz__4ArgsE0B18_
FN:140,_RNCINvNtCs7qDQvy6XYpV_18test_fuzz_internal4dirs19path_from_args_typeNtNvNtCs4yETEQZarcM_5alloc13target_fuzz__10write_args4ArgsE0B1a_
FN:136,_RINvNtCs7qDQvy6XYpV_18test_fuzz_internal4dirs19path_from_args_typeNtNtCscRmF3GD5ZpW_3arc13target_fuzz__4ArgsEB16_
FN:136,_RINvNtCs7qDQvy6XYpV_18test_fuzz_internal4dirs19path_from_args_typeNtNvNtCscRmF3GD5ZpW_3arc13target_fuzz__10write_args4ArgsEB18_
FN:32,_RINvNtCs7qDQvy6XYpV_18test_fuzz_internal4dirs31corpus_directory_from_args_typeNtNvNtCscRmF3GD5ZpW_3arc13target_fuzz__10write_args4ArgsEB1k_
FN:22,_RINvNtCs7qDQvy6XYpV_18test_fuzz_internal4dirs37generic_args_directory_from_args_typeNtNtCscRmF3GD5ZpW_3arc13target_fuzz__4ArgsEB1o_
FN:12,_RINvNtCs7qDQvy6XYpV_18test_fuzz_internal4dirs42impl_generic_args_directory_from_args_typeNtNtCscRmF3GD5ZpW_3arc13target_fuzz__4ArgsEB1t_
FN:140,_RNCINvNtCs7qDQvy6XYpV_18test_fuzz_internal4dirs19path_from_args_typeNtNtCscRmF3GD5ZpW_3arc13target_fuzz__4ArgsE0B18_
FN:140,_RNCINvNtCs7qDQvy6XYpV_18test_fuzz_internal4dirs19path_from_args_typeNtNvNtCscRmF3GD5ZpW_3arc13target_fuzz__10write_args4ArgsE0B1a_
FN:136,_RINvNtCs7qDQvy6XYpV_18test_fuzz_internal4dirs19path_from_args_typeNtNtCs6h78RqNvxg8_3arc13target_fuzz__4ArgsEB16_
FN:136,_RINvNtCs7qDQvy6XYpV_18test_fuzz_internal4dirs19path_from_args_typeNtNvNtCs6h78RqNvxg8_3arc13target_fuzz__10write_args4ArgsEB18_
FN:32,_RINvNtCs7qDQvy6XYpV_18test_fuzz_internal4dirs31corpus_directory_from_args_typeNtNvNtCs6h78RqNvxg8_3arc13target_fuzz__10write_args4ArgsEB1k_
FN:22,_RINvNtCs7qDQvy6XYpV_18test_fuzz_internal4dirs37generic_args_directory_from_args_typeNtNtCs6h78RqNvxg8_3arc13target_fuzz__4ArgsEB1o_
FN:12,_RINvNtCs7qDQvy6XYpV_18test_fuzz_internal4dirs42impl_generic_args_directory_from_args_typeNtNtCs6h78RqNvxg8_3arc13target_fuzz__4ArgsEB1t_
FN:140,_RNCINvNtCs7qDQvy6XYpV_18test_fuzz_internal4dirs19path_from_args_typeNtNtCs6h78RqNvxg8_3arc13target_fuzz__4ArgsE0B18_
FN:140,_RNCINvNtCs7qDQvy6XYpV_18test_fuzz_internal4dirs19path_from_args_typeNtNvNtCs6h78RqNvxg8_3arc13target_fuzz__10write_args4ArgsE0B1a_
FN:136,_RINvNtCs7tkdMjTuzcM_18test_fuzz_internal4dirs19path_from_args_typeNtNtCs9osIRDYkut1_3arc13target_fuzz__4ArgsEB16_
FN:136,_RINvNtCs7tkdMjTuzcM_18test_fuzz_internal4dirs19path_from_args_typeNtNvNtCs9osIRDYkut1_3arc13target_fuzz__10write_args4ArgsEB18_
FN:32,_RINvNtCs7tkdMjTuzcM_18test_fuzz_internal4dirs31corpus_directory_from_args_typeNtNvNtCs9osIRDYkut1_3arc13target_fuzz__10write_args4ArgsEB1k_
FN:22,_RINvNtCs7tkdMjTuzcM_18test_fuzz_internal4dirs37generic_args_directory_from_args_typeNtNtCs9osIRDYkut1_3arc13target_fuzz__4ArgsEB1o_
FN:12,_RINvNtCs7tkdMjTuzcM_18test_fuzz_internal4dirs42impl_generic_args_directory_from_args_typeNtNtCs9osIRDYkut1_3arc13target_fuzz__4ArgsEB1t_
FN:140,_RNCINvNtCs7tkdMjTuzcM_18test_fuzz_internal4dirs19path_from_args_typeNtNtCs9osIRDYkut1_3arc13target_fuzz__4ArgsE0B18_
FN:140,_RNCINvNtCs7tkdMjTuzcM_18test_fuzz_internal4dirs19path_from_args_typeNtNvNtCs9osIRDYkut1_3arc13target_fuzz__10write_args4ArgsE0B1a_
FN:136,_RINvNtCs7qDQvy6XYpV_18test_fuzz_internal4dirs19path_from_args_typeNtNtCsjdfzKIN8Gq0_6assert13target_fuzz__4ArgsEB16_
FN:136,_RINvNtCs7qDQvy6XYpV_18test_fuzz_internal4dirs19path_from_args_typeNtNvNtCsjdfzKIN8Gq0_6assert13target_fuzz__10write_args4ArgsEB18_
FN:32,_RINvNtCs7qDQvy6XYpV_18test_fuzz_internal4dirs31corpus_directory_from_args_typeNtNvNtCsjdfzKIN8Gq0_6assert13target_fuzz__10write_args4ArgsEB1k_
FN:22,_RINvNtCs7qDQvy6XYpV_18test_fuzz_internal4dirs37generic_args_directory_from_args_typeNtNtCsjdfzKIN8Gq0_6assert13target_fuzz__4ArgsEB1o_
FN:12,_RINvNtCs7qDQvy6XYpV_18test_fuzz_internal4dirs42impl_generic_args_directory_from_args_typeNtNtCsjdfzKIN8Gq0_6assert13target_fuzz__4ArgsEB1t_
FN:140,_RNCINvNtCs7qDQvy6XYpV_18test_fuzz_internal4dirs19path_from_args_typeNtNtCsjdfzKIN8Gq0_6assert13target_fuzz__4ArgsE0B18_
FN:140,_RNCINvNtCs7qDQvy6XYpV_18test_fuzz_internal4dirs19path_from_args_typeNtNvNtCsjdfzKIN8Gq0_6assert13target_fuzz__10write_args4ArgsE0B1a_
FN:136,_RINvNtCs7qDQvy6XYpV_18test_fuzz_internal4dirs19path_from_args_typeNtNtCsjRaCTmDyugU_6assert13target_fuzz__4ArgsEB16_
FN:136,_RINvNtCs7qDQvy6XYpV_18test_fuzz_internal4dirs19path_from_args_typeNtNvNtCsjRaCTmDyugU_6assert13target_fuzz__10write_args4ArgsEB18_
FN:32,_RINvNtCs7qDQvy6XYpV_18test_fuzz_internal4dirs31corpus_directory_from_args_typeNtNvNtCsjRaCTmDyugU_6assert13target_fuzz__10write_args4ArgsEB1k_
FN:22,_RINvNtCs7qDQvy6XYpV_18test_fuzz_internal4dirs37generic_args_directory_from_args_typeNtNtCsjRaCTmDyugU_6assert13target_fuzz__4ArgsEB1o_
FN:12,_RINvNtCs7qDQvy6XYpV_18test_fuzz_internal4dirs42impl_generic_args_directory_from_args_typeNtNtCsjRaCTmDyugU_6assert13target_fuzz__4ArgsEB1t_
FN:140,_RNCINvNtCs7qDQvy6XYpV_18test_fuzz_internal4dirs19path_from_args_typeNtNtCsjRaCTmDyugU_6assert13target_fuzz__4ArgsE0B18_
FN:140,_RNCINvNtCs7qDQvy6XYpV_18test_fuzz_internal4dirs19path_from_args_typeNtNvNtCsjRaCTmDyugU_6assert13target_fuzz__10write_args4ArgsE0B1a_
FN:136,_RINvNtCs7tkdMjTuzcM_18test_fuzz_internal4dirs19path_from_args_typeNtNtCsjogtLd8pnUT_6assert13target_fuzz__4ArgsEB16_
FN:136,_RINvNtCs7tkdMjTuzcM_18test_fuzz_internal4dirs19path_from_args_typeNtNvNtCsjogtLd8pnUT_6assert13target_fuzz__10write_args4ArgsEB18_
FN:32,_RINvNtCs7tkdMjTuzcM_18test_fuzz_internal4dirs31corpus_directory_from_args_typeNtNvNtCsjogtLd8pnUT_6assert13target_fuzz__10write_args4ArgsEB1k_
FN:22,_RINvNtCs7tkdMjTuzcM_18test_fuzz_internal4dirs37generic_args_directory_from_args_typeNtNtCsjogtLd8pnUT_6assert13target_fuzz__4ArgsEB1o_
FN:12,_RINvNtCs7tkdMjTuzcM_18test_fuzz_internal4dirs42impl_generic_args_directory_from_args_typeNtNtCsjogtLd8pnUT_6assert13target_fuzz__4ArgsEB1t_
FN:140,_RNCINvNtCs7tkdMjTuzcM_18test_fuzz_internal4dirs19path_from_args_typeNtNtCsjogtLd8pnUT_6assert13target_fuzz__4ArgsE0B18_
FN:140,_RNCINvNtCs7tkdMjTuzcM_18test_fuzz_internal4dirs19path_from_args_typeNtNvNtCsjogtLd8pnUT_6assert13target_fuzz__10write_args4ArgsE0B1a_
FN:136,_RINvNtCs7qDQvy6XYpV_18test_fuzz_internal4dirs19path_from_args_typeINtNtCsb5coM0ghPbL_15associated_type20serializes_to_fuzz__4ArgsNtB17_7AddressEEB17_
FN:136,_RINvNtCs7qDQvy6XYpV_18test_fuzz_internal4dirs19path_from_args_typeINtNvNtCsb5coM0ghPbL_15associated_type20serializes_to_fuzz__10write_args4ArgsNtB19_7AddressEEB19_
FN:32,_RINvNtCs7qDQvy6XYpV_18test_fuzz_internal4dirs31corpus_directory_from_args_typeINtNvNtCsb5coM0ghPbL_15associated_type20serializes_to_fuzz__10write_args4ArgsNtB1l_7AddressEEB1l_
FN:22,_RINvNtCs7qDQvy6XYpV_18test_fuzz_internal4dirs37generic_args_directory_from_args_typeINtNtCsb5coM0ghPbL_15associated_type20serializes_to_fuzz__4ArgsNtB1p_7AddressEEB1p_
FN:12,_RINvNtCs7qDQvy6XYpV_18test_fuzz_internal4dirs42impl_generic_args_directory_from_args_typeINtNtCsb5coM0ghPbL_15associated_type20serializes_to_fuzz__4ArgsNtB1u_7AddressEEB1u_
FN:140,_RNCINvNtCs7qDQvy6XYpV_18test_fuzz_internal4dirs19path_from_args_typeINtNtCsb5coM0ghPbL_15associated_type20serializes_to_fuzz__4ArgsNtB19_7AddressEE0B19_
FN:140,_RNCINvNtCs7qDQvy6XYpV_18test_fuzz_internal4dirs19path_from_args_typeINtNvNtCsb5coM0ghPbL_15associated_type20serializes_to_fuzz__10write_args4ArgsNtB1b_7AddressEE0B1b_
FN:136,_RINvNtCs7qDQvy6XYpV_18test_fuzz_internal4dirs19path_from_args_typeINtNtCscifRXp3YgIu_15associated_type20serializes_to_fuzz__4ArgsNtB17_7AddressEEB17_
FN:136,_RINvNtCs7qDQvy6XYpV_18test_fuzz_internal4dirs19path_from_args_typeINtNvNtCscifRXp3YgIu_15associated_type20serializes_to_fuzz__10write_args4ArgsNtB19_7AddressEEB19_
FN:32,_RINvNtCs7qDQvy6XYpV_18test_fuzz_internal4dirs31corpus_directory_from_args_typeINtNvNtCscifRXp3YgIu_15associated_type20serializes_to_fuzz__10write_args4ArgsNtB1l_7AddressEEB1l_
FN:22,_RINvNtCs7qDQvy6XYpV_18test_fuzz_internal4dirs37generic_args_directory_from_args_typeINtNtCscifRXp3YgIu_15associated_type20serializes_to_fuzz__4ArgsNtB1p_7AddressEEB1p_
FN:12,_RINvNtCs7qDQvy6XYpV_18test_fuzz_internal4dirs42impl_generic_args_directory_from_args_typeINtNtCscifRXp3YgIu_15associated_type20serializes_to_fuzz__4ArgsNtB1u_7AddressEEB1u_
FN:140,_RNCINvNtCs7qDQvy6XYpV_18test_fuzz_internal4dirs19path_from_args_typeINtNtCscifRXp3YgIu_15associated_type20serializes_to_fuzz__4ArgsNtB19_7AddressEE0B19_
FN:140,_RNCINvNtCs7qDQvy6XYpV_18test_fuzz_internal4dirs19path_from_args_typeINtNvNtCscifRXp3YgIu_15associated_type20serializes_to_fuzz__10write_args4ArgsNtB1b_7AddressEE0B1b_
FN:136,_RINvNtCs7tkdMjTuzcM_18test_fuzz_internal4dirs19path_from_args_typeINtNtCsl6zEQTYg4co_15associated_type20serializes_to_fuzz__4ArgsNtB17_7AddressEEB17_
FN:136,_RINvNtCs7tkdMjTuzcM_18test_fuzz_internal4dirs19path_from_args_typeINtNvNtCsl6zEQTYg4co_15associated_type20serializes_to_fuzz__10write_args4ArgsNtB19_7AddressEEB19_
FN:32,_RINvNtCs7tkdMjTuzcM_18test_fuzz_internal4dirs31corpus_directory_from_args_typeINtNvNtCsl6zEQTYg4co_15associated_type20serializes_to_fuzz__10write_args4ArgsNtB1l_7AddressEEB1l_
FN:22,_RINvNtCs7tkdMjTuzcM_18test_fuzz_internal4dirs37generic_args_directory_from_args_typeINtNtCsl6zEQTYg4co_15associated_type20serializes_to_fuzz__4ArgsNtB1p_7AddressEEB1p_
FN:12,_RINvNtCs7tkdMjTuzcM_18test_fuzz_internal4dirs42impl_generic_args_directory_from_args_typeINtNtCsl6zEQTYg4co_15associated_type20serializes_to_fuzz__4ArgsNtB1u_7AddressEEB1u_
FN:140,_RNCINvNtCs7tkdMjTuzcM_18test_fuzz_internal4dirs19path_from_args_typeINtNtCsl6zEQTYg4co_15associated_type20serializes_to_fuzz__4ArgsNtB19_7AddressEE0B19_
FN:140,_RNCINvNtCs7tkdMjTuzcM_18test_fuzz_internal4dirs19path_from_args_typeINtNvNtCsl6zEQTYg4co_15associated_type20serializes_to_fuzz__10write_args4ArgsNtB1b_7AddressEE0B1b_
FN:136,_RINvNtCs7qDQvy6XYpV_18test_fuzz_internal4dirs19path_from_args_typeNtNtNtCsbvjJBtxq0cj_13auto_generate6signed13target_fuzz__4ArgsEB18_
FN:136,_RINvNtCs7qDQvy6XYpV_18test_fuzz_internal4dirs19path_from_args_typeNtNtNtCsbvjJBtxq0cj_13auto_generate8unsigned13target_fuzz__4ArgsEB18_
FN:136,_RINvNtCs7qDQvy6XYpV_18test_fuzz_internal4dirs19path_from_args_typeNtNvNtNtCsbvjJBtxq0cj_13auto_generate6signed13target_fuzz__10write_args4ArgsEB1a_
FN:136,_RINvNtCs7qDQvy6XYpV_18test_fuzz_internal4dirs19path_from_args_typeNtNvNtNtCsbvjJBtxq0cj_13auto_generate8unsigned13target_fuzz__10write_args4ArgsEB1a_
FN:32,_RINvNtCs7qDQvy6XYpV_18test_fuzz_internal4dirs31corpus_directory_from_args_typeNtNvNtNtCsbvjJBtxq0cj_13auto_generate6signed13target_fuzz__10write_args4ArgsEB1m_
FN:32,_RINvNtCs7qDQvy6XYpV_18test_fuzz_internal4dirs31corpus_directory_from_args_typeNtNvNtNtCsbvjJBtxq0cj_13auto_generate8unsigned13target_fuzz__10write_args4ArgsEB1m_
FN:22,_RINvNtCs7qDQvy6XYpV_18test_fuzz_internal4dirs37generic_args_directory_from_args_typeNtNtNtCsbvjJBtxq0cj_13auto_generate6signed13target_fuzz__4ArgsEB1q_
FN:22,_RINvNtCs7qDQvy6XYpV_18test_fuzz_internal4dirs37generic_args_directory_from_args_typeNtNtNtCsbvjJBtxq0cj_13auto_generate8unsigned13target_fuzz__4ArgsEB1q_
FN:12,_RINvNtCs7qDQvy6XYpV_18test_fuzz_internal4dirs42impl_generic_args_directory_from_args_typeNtNtNtCsbvjJBtxq0cj_13auto_generate6signed13target_fuzz__4ArgsEB1v_
FN:12,_RINvNtCs7qDQvy6XYpV_18test_fuzz_internal4dirs42impl_generic_args_directory_from_args_typeNtNtNtCsbvjJBtxq0cj_13auto_generate8unsigned13target_fuzz__4ArgsEB1v_
FN:140,_RNCINvNtCs7qDQvy6XYpV_18test_fuzz_internal4dirs19path_from_args_typeNtNtNtCsbvjJBtxq0cj_13auto_generate6signed13target_fuzz__4ArgsE0B1a_
FN:140,_RNCINvNtCs7qDQvy6XYpV_18test_fuzz_internal4dirs19path_from_args_typeNtNtNtCsbvjJBtxq0cj_13auto_generate8unsigned13target_fuzz__4ArgsE0B1a_
FN:140,_RNCINvNtCs7qDQvy6XYpV_18test_fuzz_internal4dirs19path_from_args_typeNtNvNtNtCsbvjJBtxq0cj_13auto_generate6signed13target_fuzz__10write_args4ArgsE0B1c_
FN:140,_RNCINvNtCs7qDQvy6XYpV_18test_fuzz_internal4dirs19path_from_args_typeNtNvNtNtCsbvjJBtxq0cj_13auto_generate8unsigned13target_fuzz__10write_args4ArgsE0B1c_
FN:136,_RINvNtCs7qDQvy6XYpV_18test_fuzz_internal4dirs19path_from_args_typeNtNtNtCs80yJKyN2fFa_13auto_generate6signed13target_fuzz__4ArgsEB18_
FN:136,_RINvNtCs7qDQvy6XYpV_18test_fuzz_internal4dirs19path_from_args_typeNtNtNtCs80yJKyN2fFa_13auto_generate8unsigned13target_fuzz__4ArgsEB18_
FN:136,_RINvNtCs7qDQvy6XYpV_18test_fuzz_internal4dirs19path_from_args_typeNtNvNtNtCs80yJKyN2fFa_13auto_generate6signed13target_fuzz__10write_args4ArgsEB1a_
FN:136,_RINvNtCs7qDQvy6XYpV_18test_fuzz_internal4dirs19path_from_args_typeNtNvNtNtCs80yJKyN2fFa_13auto_generate8unsigned13target_fuzz__10write_args4ArgsEB1a_
FN:32,_RINvNtCs7qDQvy6XYpV_18test_fuzz_internal4dirs31corpus_directory_from_args_typeNtNvNtNtCs80yJKyN2fFa_13auto_generate6signed13target_fuzz__10write_args4ArgsEB1m_
FN:32,_RINvNtCs7qDQvy6XYpV_18test_fuzz_internal4dirs31corpus_directory_from_args_typeNtNvNtNtCs80yJKyN2fFa_13auto_generate8unsigned13target_fuzz__10write_args4ArgsEB1m_
FN:22,_RINvNtCs7qDQvy6XYpV_18test_fuzz_internal4dirs37generic_args_directory_from_args_typeNtNtNtCs80yJKyN2fFa_13auto_generate6signed13target_fuzz__4ArgsEB1q_
FN:22,_RINvNtCs7qDQvy6XYpV_18test_fuzz_internal4dirs37generic_args_directory_from_args_typeNtNtNtCs80yJKyN2fFa_13auto_generate8unsigned13target_fuzz__4ArgsEB1q_
FN:12,_RINvNtCs7qDQvy6XYpV_18test_fuzz_internal4dirs42impl_generic_args_directory_from_args_typeNtNtNtCs80yJKyN2fFa_13auto_generate6signed13target_fuzz__4ArgsEB1v_
FN:12,_RINvNtCs7qDQvy6XYpV_18test_fuzz_internal4dirs42impl_generic_args_directory_from_args_typeNtNtNtCs80yJKyN2fFa_13auto_generate8unsigned13target_fuzz__4ArgsEB1v_
FN:140,_RNCINvNtCs7qDQvy6XYpV_18test_fuzz_internal4dirs19path_from_args_typeNtNtNtCs80yJKyN2fFa_13auto_generate6signed13target_fuzz__4ArgsE0B1a_
FN:140,_RNCINvNtCs7qDQvy6XYpV_18test_fuzz_internal4dirs19path_from_args_typeNtNtNtCs80yJKyN2fFa_13auto_generate8unsigned13target_fuzz__4ArgsE0B1a_
FN:140,_RNCINvNtCs7qDQvy6XYpV_18test_fuzz_internal4dirs19path_from_args_typeNtNvNtNtCs80yJKyN2fFa_13auto_generate6signed13target_fuzz__10write_args4ArgsE0B1c_
FN:140,_RNCINvNtCs7qDQvy6XYpV_18test_fuzz_internal4dirs19path_from_args_typeNtNvNtNtCs80yJKyN2fFa_13auto_generate8unsigned13target_fuzz__10write_args4ArgsE0B1c_
FN:136,_RINvNtCs7tkdMjTuzcM_18test_fuzz_internal4dirs19path_from_args_typeNtNtNtCs7nMLI42MKCZ_13auto_generate6signed13target_fuzz__4ArgsEB18_
FN:136,_RINvNtCs7tkdMjTuzcM_18test_fuzz_internal4dirs19path_from_args_typeNtNtNtCs7nMLI42MKCZ_13auto_generate8unsigned13target_fuzz__4ArgsEB18_
FN:136,_RINvNtCs7tkdMjTuzcM_18test_fuzz_internal4dirs19path_from_args_typeNtNvNtNtCs7nMLI42MKCZ_13auto_generate6signed13target_fuzz__10write_args4ArgsEB1a_
FN:136,_RINvNtCs7tkdMjTuzcM_18test_fuzz_internal4dirs19path_from_args_typeNtNvNtNtCs7nMLI42MKCZ_13auto_generate8unsigned13target_fuzz__10write_args4ArgsEB1a_
FN:32,_RINvNtCs7tkdMjTuzcM_18test_fuzz_internal4dirs31corpus_directory_from_args_typeNtNvNtNtCs7nMLI42MKCZ_13auto_generate6signed13target_fuzz__10write_args4ArgsEB1m_
FN:32,_RINvNtCs7tkdMjTuzcM_18test_fuzz_internal4dirs31corpus_directory_from_args_typeNtNvNtNtCs7nMLI42MKCZ_13auto_generate8unsigned13target_fuzz__10write_args4ArgsEB1m_
FN:22,_RINvNtCs7tkdMjTuzcM_18test_fuzz_internal4dirs37generic_args_directory_from_args_typeNtNtNtCs7nMLI42MKCZ_13auto_generate6signed13target_fuzz__4ArgsEB1q_
FN:22,_RINvNtCs7tkdMjTuzcM_18test_fuzz_internal4dirs37generic_args_directory_from_args_typeNtNtNtCs7nMLI42MKCZ_13auto_generate8unsigned13target_fuzz__4ArgsEB1q_
FN:12,_RINvNtCs7tkdMjTuzcM_18test_fuzz_internal4dirs42impl_generic_args_directory_from_args_typeNtNtNtCs7nMLI42MKCZ_13auto_generate6signed13target_fuzz__4ArgsEB1v_
FN:12,_RINvNtCs7tkdMjTuzcM_18test_fuzz_internal4dirs42impl_generic_args_directory_from_args_typeNtNtNtCs7nMLI42MKCZ_13auto_generate8unsigned13target_fuzz__4ArgsEB1v_
FN:140,_RNCINvNtCs7tkdMjTuzcM_18test_fuzz_internal4dirs19path_from_args_typeNtNtNtCs7nMLI42MKCZ_13auto_generate6signed13target_fuzz__4ArgsE0B1a_
FN:140,_RNCINvNtCs7tkdMjTuzcM_18test_fuzz_internal4dirs19path_from_args_typeNtNtNtCs7nMLI42MKCZ_13auto_generate8unsigned13target_fuzz__4ArgsE0B1a_
FN:140,_RNCINvNtCs7tkdMjTuzcM_18test_fuzz_internal4dirs19path_from_args_typeNtNvNtNtCs7nMLI42MKCZ_13auto_generate6signed13target_fuzz__10write_args4ArgsE0B1c_
FN:140,_RNCINvNtCs7tkdMjTuzcM_18test_fuzz_internal4dirs19path_from_args_typeNtNvNtNtCs7nMLI42MKCZ_13auto_generate8unsigned13target_fuzz__10write_args4ArgsE0B1c_
FN:136,_RINvNtCs7tkdMjTuzcM_18test_fuzz_internal4dirs19path_from_args_typeNtNtCslbWeq7plg0h_16calm_and_panicky11calm_fuzz__4ArgsEB16_
FN:136,_RINvNtCs7tkdMjTuzcM_18test_fuzz_internal4dirs19path_from_args_typeNtNtCslbWeq7plg0h_16calm_and_panicky14panicky_fuzz__4ArgsEB16_
FN:136,_RINvNtCs7tkdMjTuzcM_18test_fuzz_internal4dirs19path_from_args_typeNtNvNtCslbWeq7plg0h_16calm_and_panicky11calm_fuzz__10write_args4ArgsEB18_
FN:136,_RINvNtCs7tkdMjTuzcM_18test_fuzz_internal4dirs19path_from_args_typeNtNvNtCslbWeq7plg0h_16calm_and_panicky14panicky_fuzz__10write_args4ArgsEB18_
FN:32,_RINvNtCs7tkdMjTuzcM_18test_fuzz_internal4dirs31corpus_directory_from_args_typeNtNvNtCslbWeq7plg0h_16calm_and_panicky11calm_fuzz__10write_args4ArgsEB1k_
FN:32,_RINvNtCs7tkdMjTuzcM_18test_fuzz_internal4dirs31corpus_directory_from_args_typeNtNvNtCslbWeq7plg0h_16calm_and_panicky14panicky_fuzz__10write_args4ArgsEB1k_
FN:22,_RINvNtCs7tkdMjTuzcM_18test_fuzz_internal4dirs37generic_args_directory_from_args_typeNtNtCslbWeq7plg0h_16calm_and_panicky11calm_fuzz__4ArgsEB1o_
FN:22,_RINvNtCs7tkdMjTuzcM_18test_fuzz_internal4dirs37generic_args_directory_from_args_typeNtNtCslbWeq7plg0h_16calm_and_panicky14panicky_fuzz__4ArgsEB1o_
FN:12,_RINvNtCs7tkdMjTuzcM_18test_fuzz_internal4dirs42impl_generic_args_directory_from_args_typeNtNtCslbWeq7plg0h_16calm_and_panicky11calm_fuzz__4ArgsEB1t_
FN:12,_RINvNtCs7tkdMjTuzcM_18test_fuzz_internal4dirs42impl_generic_args_directory_from_args_typeNtNtCslbWeq7plg0h_16calm_and_panicky14panicky_fuzz__4ArgsEB1t_
FN:140,_RNCINvNtCs7tkdMjTuzcM_18test_fuzz_internal4dirs19path_from_args_typeNtNtCslbWeq7plg0h_16calm_and_panicky11calm_fuzz__4ArgsE0B18_
FN:140,_RNCINvNtCs7tkdMjTuzcM_18test_fuzz_internal4dirs19path_from_args_typeNtNtCslbWeq7plg0h_16calm_and_panicky14panicky_fuzz__4ArgsE0B18_
FN:140,_RNCINvNtCs7tkdMjTuzcM_18test_fuzz_internal4dirs19path_from_args_typeNtNvNtCslbWeq7plg0h_16calm_and_panicky11calm_fuzz__10write_args4ArgsE0B1a_
FN:140,_RNCINvNtCs7tkdMjTuzcM_18test_fuzz_internal4dirs19path_from_args_typeNtNvNtCslbWeq7plg0h_16calm_and_panicky14panicky_fuzz__10write_args4ArgsE0B1a_
FN:136,_RINvNtCs7qDQvy6XYpV_18test_fuzz_internal4dirs19path_from_args_typeNtNtCs4HkUNT6A1sF_16calm_and_panicky11calm_fuzz__4ArgsEB16_
FN:136,_RINvNtCs7qDQvy6XYpV_18test_fuzz_internal4dirs19path_from_args_typeNtNtCs4HkUNT6A1sF_16calm_and_panicky14panicky_fuzz__4ArgsEB16_
FN:136,_RINvNtCs7qDQvy6XYpV_18test_fuzz_internal4dirs19path_from_args_typeNtNvNtCs4HkUNT6A1sF_16calm_and_panicky11calm_fuzz__10write_args4ArgsEB18_
FN:136,_RINvNtCs7qDQvy6XYpV_18test_fuzz_internal4dirs19path_from_args_typeNtNvNtCs4HkUNT6A1sF_16calm_and_panicky14panicky_fuzz__10write_args4ArgsEB18_
FN:32,_RINvNtCs7qDQvy6XYpV_18test_fuzz_internal4dirs31corpus_directory_from_args_typeNtNvNtCs4HkUNT6A1sF_16calm_and_panicky11calm_fuzz__10write_args4ArgsEB1k_
FN:32,_RINvNtCs7qDQvy6XYpV_18test_fuzz_internal4dirs31corpus_directory_from_args_typeNtNvNtCs4HkUNT6A1sF_16calm_and_panicky14panicky_fuzz__10write_args4ArgsEB1k_
FN:22,_RINvNtCs7qDQvy6XYpV_18test_fuzz_internal4dirs37generic_args_directory_from_args_typeNtNtCs4HkUNT6A1sF_16calm_and_panicky11calm_fuzz__4ArgsEB1o_
FN:22,_RINvNtCs7qDQvy6XYpV_18test_fuzz_internal4dirs37generic_args_directory_from_args_typeNtNtCs4HkUNT6A1sF_16calm_and_panicky14panicky_fuzz__4ArgsEB1o_
FN:12,_RINvNtCs7qDQvy6XYpV_18test_fuzz_internal4dirs42impl_generic_args_directory_from_args_typeNtNtCs4HkUNT6A1sF_16calm_and_panicky11calm_fuzz__4ArgsEB1t_
FN:12,_RINvNtCs7qDQvy6XYpV_18test_fuzz_internal4dirs42impl_generic_args_directory_from_args_typeNtNtCs4HkUNT6A1sF_16calm_and_panicky14panicky_fuzz__4ArgsEB1t_
FN:140,_RNCINvNtCs7qDQvy6XYpV_18test_fuzz_internal4dirs19path_from_args_typeNtNtCs4HkUNT6A1sF_16calm_and_panicky11calm_fuzz__4ArgsE0B18_
FN:140,_RNCINvNtCs7qDQvy6XYpV_18test_fuzz_internal4dirs19path_from_args_typeNtNtCs4HkUNT6A1sF_16calm_and_panicky14panicky_fuzz__4ArgsE0B18_
FN:140,_RNCINvNtCs7qDQvy6XYpV_18test_fuzz_internal4dirs19path_from_args_typeNtNvNtCs4HkUNT6A1sF_16calm_and_panicky11calm_fuzz__10write_args4ArgsE0B1a_
FN:140,_RNCINvNtCs7qDQvy6XYpV_18test_fuzz_internal4dirs19path_from_args_typeNtNvNtCs4HkUNT6A1sF_16calm_and_panicky14panicky_fuzz__10write_args4ArgsE0B1a_
FN:136,_RINvNtCs7qDQvy6XYpV_18test_fuzz_internal4dirs19path_from_args_typeNtNtCseojpp1QgtFC_16calm_and_panicky11calm_fuzz__4ArgsEB16_
FN:136,_RINvNtCs7qDQvy6XYpV_18test_fuzz_internal4dirs19path_from_args_typeNtNtCseojpp1QgtFC_16calm_and_panicky14panicky_fuzz__4ArgsEB16_
FN:136,_RINvNtCs7qDQvy6XYpV_18test_fuzz_internal4dirs19path_from_args_typeNtNvNtCseojpp1QgtFC_16calm_and_panicky11calm_fuzz__10write_args4ArgsEB18_
FN:136,_RINvNtCs7qDQvy6XYpV_18test_fuzz_internal4dirs19path_from_args_typeNtNvNtCseojpp1QgtFC_16calm_and_panicky14panicky_fuzz__10write_args4ArgsEB18_
FN:32,_RINvNtCs7qDQvy6XYpV_18test_fuzz_internal4dirs31corpus_directory_from_args_typeNtNvNtCseojpp1QgtFC_16calm_and_panicky11calm_fuzz__10write_args4ArgsEB1k_
FN:32,_RINvNtCs7qDQvy6XYpV_18test_fuzz_internal4dirs31corpus_directory_from_args_typeNtNvNtCseojpp1QgtFC_16calm_and_panicky14panicky_fuzz__10write_args4ArgsEB1k_
FN:22,_RINvNtCs7qDQvy6XYpV_18test_fuzz_internal4dirs37generic_args_directory_from_args_typeNtNtCseojpp1QgtFC_16calm_and_panicky11calm_fuzz__4ArgsEB1o_
FN:22,_RINvNtCs7qDQvy6XYpV_18test_fuzz_internal4dirs37generic_args_directory_from_args_typeNtNtCseojpp1QgtFC_16calm_and_panicky14panicky_fuzz__4ArgsEB1o_
FN:12,_RINvNtCs7qDQvy6XYpV_18test_fuzz_internal4dirs42impl_generic_args_directory_from_args_typeNtNtCseojpp1QgtFC_16calm_and_panicky11calm_fuzz__4ArgsEB1t_
FN:12,_RINvNtCs7qDQvy6XYpV_18test_fuzz_internal4dirs42impl_generic_args_directory_from_args_typeNtNtCseojpp1QgtFC_16calm_and_panicky14panicky_fuzz__4ArgsEB1t_
FN:140,_RNCINvNtCs7qDQvy6XYpV_18test_fuzz_internal4dirs19path_from_args_typeNtNtCseojpp1QgtFC_16calm_and_panicky11calm_fuzz__4ArgsE0B18_
FN:140,_RNCINvNtCs7qDQvy6XYpV_18test_fuzz_internal4dirs19path_from_args_typeNtNtCseojpp1QgtFC_16calm_and_panicky14panicky_fuzz__4ArgsE0B18_
FN:140,_RNCINvNtCs7qDQvy6XYpV_18test_fuzz_internal4dirs19path_from_args_typeNtNvNtCseojpp1QgtFC_16calm_and_panicky11calm_fuzz__10write_args4ArgsE0B1a_
FN:140,_RNCINvNtCs7qDQvy6XYpV_18test_fuzz_internal4dirs19path_from_args_typeNtNvNtCseojpp1QgtFC_16calm_and_panicky14panicky_fuzz__10write_args4ArgsE0B1a_
FN:136,_RINvNtCs7qDQvy6XYpV_18test_fuzz_internal4dirs19path_from_args_typeNtNtCsjhY1ImnXkI9_4cast13target_fuzz__4ArgsEB16_
FN:136,_RINvNtCs7qDQvy6XYpV_18test_fuzz_internal4dirs19path_from_args_typeNtNvNtCsjhY1ImnXkI9_4cast13target_fuzz__10write_args4ArgsEB18_
FN:32,_RINvNtCs7qDQvy6XYpV_18test_fuzz_internal4dirs31corpus_directory_from_args_typeNtNvNtCsjhY1ImnXkI9_4cast13target_fuzz__10write_args4ArgsEB1k_
FN:22,_RINvNtCs7qDQvy6XYpV_18test_fuzz_internal4dirs37generic_args_directory_from_args_typeNtNtCsjhY1ImnXkI9_4cast13target_fuzz__4ArgsEB1o_
FN:12,_RINvNtCs7qDQvy6XYpV_18test_fuzz_internal4dirs42impl_generic_args_directory_from_args_typeNtNtCsjhY1ImnXkI9_4cast13target_fuzz__4ArgsEB1t_
FN:140,_RNCINvNtCs7qDQvy6XYpV_18test_fuzz_internal4dirs19path_from_args_typeNtNtCsjhY1ImnXkI9_4cast13target_fuzz__4ArgsE0B18_
FN:140,_RNCINvNtCs7qDQvy6XYpV_18test_fuzz_internal4dirs19path_from_args_typeNtNvNtCsjhY1ImnXkI9_4cast13target_fuzz__10write_args4ArgsE0B1a_
FN:136,_RINvNtCs7tkdMjTuzcM_18test_fuzz_internal4dirs19path_from_args_typeNtNtCs1jUaTML6Qbs_4cast13target_fuzz__4ArgsEB16_
FN:136,_RINvNtCs7tkdMjTuzcM_18test_fuzz_internal4dirs19path_from_args_typeNtNvNtCs1jUaTML6Qbs_4cast13target_fuzz__10write_args4ArgsEB18_
FN:32,_RINvNtCs7tkdMjTuzcM_18test_fuzz_internal4dirs31corpus_directory_from_args_typeNtNvNtCs1jUaTML6Qbs_4cast13target_fuzz__10write_args4ArgsEB1k_
FN:22,_RINvNtCs7tkdMjTuzcM_18test_fuzz_internal4dirs37generic_args_directory_from_args_typeNtNtCs1jUaTML6Qbs_4cast13target_fuzz__4ArgsEB1o_
FN:12,_RINvNtCs7tkdMjTuzcM_18test_fuzz_internal4dirs42impl_generic_args_directory_from_args_typeNtNtCs1jUaTML6Qbs_4cast13target_fuzz__4ArgsEB1t_
FN:140,_RNCINvNtCs7tkdMjTuzcM_18test_fuzz_internal4dirs19path_from_args_typeNtNtCs1jUaTML6Qbs_4cast13target_fuzz__4ArgsE0B18_
FN:140,_RNCINvNtCs7tkdMjTuzcM_18test_fuzz_internal4dirs19path_from_args_typeNtNvNtCs1jUaTML6Qbs_4cast13target_fuzz__10write_args4ArgsE0B1a_
FN:136,_RINvNtCs7qDQvy6XYpV_18test_fuzz_internal4dirs19path_from_args_typeNtNtCs8WGZuoBAMqB_4cast13target_fuzz__4ArgsEB16_
FN:136,_RINvNtCs7qDQvy6XYpV_18test_fuzz_internal4dirs19path_from_args_typeNtNvNtCs8WGZuoBAMqB_4cast13target_fuzz__10write_args4ArgsEB18_
FN:32,_RINvNtCs7qDQvy6XYpV_18test_fuzz_internal4dirs31corpus_directory_from_args_typeNtNvNtCs8WGZuoBAMqB_4cast13target_fuzz__10write_args4ArgsEB1k_
FN:22,_RINvNtCs7qDQvy6XYpV_18test_fuzz_internal4dirs37generic_args_directory_from_args_typeNtNtCs8WGZuoBAMqB_4cast13target_fuzz__4ArgsEB1o_
FN:12,_RINvNtCs7qDQvy6XYpV_18test_fuzz_internal4dirs42impl_generic_args_directory_from_args_typeNtNtCs8WGZuoBAMqB_4cast13target_fuzz__4ArgsEB1t_
FN:140,_RNCINvNtCs7qDQvy6XYpV_18test_fuzz_internal4dirs19path_from_args_typeNtNtCs8WGZuoBAMqB_4cast13target_fuzz__4ArgsE0B18_
FN:140,_RNCINvNtCs7qDQvy6XYpV_18test_fuzz_internal4dirs19path_from_args_typeNtNvNtCs8WGZuoBAMqB_4cast13target_fuzz__10write_args4ArgsE0B1a_
FN:136,_RINvNtCs7qDQvy6XYpV_18test_fuzz_internal4dirs19path_from_args_typeNtNtCsiWHYe4yttEG_9collision11test_fuzz__4ArgsEB16_
FN:136,_RINvNtCs7qDQvy6XYpV_18test_fuzz_internal4dirs19path_from_args_typeNtNvNtCsiWHYe4yttEG_9collision11test_fuzz__10write_args4ArgsEB18_
FN:32,_RINvNtCs7qDQvy6XYpV_18test_fuzz_internal4dirs31corpus_directory_from_args_typeNtNvNtCsiWHYe4yttEG_9collision11test_fuzz__10write_args4ArgsEB1k_
FN:22,_RINvNtCs7qDQvy6XYpV_18test_fuzz_internal4dirs37generic_args_directory_from_args_typeNtNtCsiWHYe4yttEG_9collision11test_fuzz__4ArgsEB1o_
FN:12,_RINvNtCs7qDQvy6XYpV_18test_fuzz_internal4dirs42impl_generic_args_directory_from_args_typeNtNtCsiWHYe4yttEG_9collision11test_fuzz__4ArgsEB1t_
FN:140,_RNCINvNtCs7qDQvy6XYpV_18test_fuzz_internal4dirs19path_from_args_typeNtNtCsiWHYe4yttEG_9collision11test_fuzz__4ArgsE0B18_
FN:140,_RNCINvNtCs7qDQvy6XYpV_18test_fuzz_internal4dirs19path_from_args_typeNtNvNtCsiWHYe4yttEG_9collision11test_fuzz__10write_args4ArgsE0B1a_
FN:136,_RINvNtCs7tkdMjTuzcM_18test_fuzz_internal4dirs19path_from_args_typeNtNtCskTSnVUQ8fe0_9collision11test_fuzz__4ArgsEB16_
FN:136,_RINvNtCs7tkdMjTuzcM_18test_fuzz_internal4dirs19path_from_args_typeNtNvNtCskTSnVUQ8fe0_9collision11test_fuzz__10write_args4ArgsEB18_
FN:32,_RINvNtCs7tkdMjTuzcM_18test_fuzz_internal4dirs31corpus_directory_from_args_typeNtNvNtCskTSnVUQ8fe0_9collision11test_fuzz__10write_args4ArgsEB1k_
FN:22,_RINvNtCs7tkdMjTuzcM_18test_fuzz_internal4dirs37generic_args_directory_from_args_typeNtNtCskTSnVUQ8fe0_9collision11test_fuzz__4ArgsEB1o_
FN:12,_RINvNtCs7tkdMjTuzcM_18test_fuzz_internal4dirs42impl_generic_args_directory_from_args_typeNtNtCskTSnVUQ8fe0_9collision11test_fuzz__4ArgsEB1t_
FN:140,_RNCINvNtCs7tkdMjTuzcM_18test_fuzz_internal4dirs19path_from_args_typeNtNtCskTSnVUQ8fe0_9collision11test_fuzz__4ArgsE0B18_
FN:140,_RNCINvNtCs7tkdMjTuzcM_18test_fuzz_internal4dirs19path_from_args_typeNtNvNtCskTSnVUQ8fe0_9collision11test_fuzz__10write_args4ArgsE0B1a_
FN:136,_RINvNtCs7qDQvy6XYpV_18test_fuzz_internal4dirs19path_from_args_typeNtNtCs2vl1NOPLUTF_9collision11test_fuzz__4ArgsEB16_
FN:136,_RINvNtCs7qDQvy6XYpV_18test_fuzz_internal4dirs19path_from_args_typeNtNvNtCs2vl1NOPLUTF_9collision11test_fuzz__10write_args4ArgsEB18_
FN:32,_RINvNtCs7qDQvy6XYpV_18test_fuzz_internal4dirs31corpus_directory_from_args_typeNtNvNtCs2vl1NOPLUTF_9collision11test_fuzz__10write_args4ArgsEB1k_
FN:22,_RINvNtCs7qDQvy6XYpV_18test_fuzz_internal4dirs37generic_args_directory_from_args_typeNtNtCs2vl1NOPLUTF_9collision11test_fuzz__4ArgsEB1o_
FN:12,_RINvNtCs7qDQvy6XYpV_18test_fuzz_internal4dirs42impl_generic_args_directory_from_args_typeNtNtCs2vl1NOPLUTF_9collision11test_fuzz__4ArgsEB1t_
FN:140,_RNCINvNtCs7qDQvy6XYpV_18test_fuzz_internal4dirs19path_from_args_typeNtNtCs2vl1NOPLUTF_9collision11test_fuzz__4ArgsE0B18_
FN:140,_RNCINvNtCs7qDQvy6XYpV_18test_fuzz_internal4dirs19path_from_args_typeNtNvNtCs2vl1NOPLUTF_9collision11test_fuzz__10write_args4ArgsE0B1a_
FN:136,_RINvNtCs7tkdMjTuzcM_18test_fuzz_internal4dirs19path_from_args_typeNtNtNtCsiVpTKIby35L_10conversion11uncloneable13target_fuzz__4ArgsEB18_
FN:136,_RINvNtCs7tkdMjTuzcM_18test_fuzz_internal4dirs19path_from_args_typeNtNtNtCsiVpTKIby35L_10conversion4path13target_fuzz__4ArgsEB18_
FN:136,_RINvNtCs7tkdMjTuzcM_18test_fuzz_internal4dirs19path_from_args_typeNtNtNtCsiVpTKIby35L_10conversion5array13target_fuzz__4ArgsEB18_
FN:136,_RINvNtCs7tkdMjTuzcM_18test_fuzz_internal4dirs19path_from_args_typeNtNtNtCsiVpTKIby35L_10conversion7mutable13target_fuzz__4ArgsEB18_
FN:136,_RINvNtCs7tkdMjTuzcM_18test_fuzz_internal4dirs19path_from_args_typeNtNtNtCsiVpTKIby35L_10conversion8lifetime13target_fuzz__4ArgsEB18_
FN:136,_RINvNtCs7tkdMjTuzcM_18test_fuzz_internal4dirs19path_from_args_typeNtNtNtCsiVpTKIby35L_10conversion8receiver20x_target_self_fuzz__4ArgsEB18_
FN:136,_RINvNtCs7tkdMjTuzcM_18test_fuzz_internal4dirs19path_from_args_typeNtNtNtCsiVpTKIby35L_10conversion8receiver21x_target_other_fuzz__4ArgsEB18_
FN:136,_RINvNtCs7tkdMjTuzcM_18test_fuzz_internal4dirs19path_from_args_typeNtNvNtNtCsiVpTKIby35L_10conversion11uncloneable13target_fuzz__10write_args4ArgsEB1a_
FN:136,_RINvNtCs7tkdMjTuzcM_18test_fuzz_internal4dirs19path_from_args_typeNtNvNtNtCsiVpTKIby35L_10conversion4path13target_fuzz__10write_args4ArgsEB1a_
FN:136,_RINvNtCs7tkdMjTuzcM_18test_fuzz_internal4dirs19path_from_args_typeNtNvNtNtCsiVpTKIby35L_10conversion5array13target_fuzz__10write_args4ArgsEB1a_
FN:136,_RINvNtCs7tkdMjTuzcM_18test_fuzz_internal4dirs19path_from_args_typeNtNvNtNtCsiVpTKIby35L_10conversion7mutable13target_fuzz__10write_args4ArgsEB1a_
FN:136,_RINvNtCs7tkdMjTuzcM_18test_fuzz_internal4dirs19path_from_args_typeNtNvNtNtCsiVpTKIby35L_10conversion8lifetime13target_fuzz__10write_args4ArgsEB1a_
FN:136,_RINvNtCs7tkdMjTuzcM_18test_fuzz_internal4dirs19path_from_args_typeNtNvNtNtCsiVpTKIby35L_10conversion8receiver20x_target_self_fuzz__10write_args4ArgsEB1a_
FN:136,_RINvNtCs7tkdMjTuzcM_18test_fuzz_internal4dirs19path_from_args_typeNtNvNtNtCsiVpTKIby35L_10conversion8receiver21x_target_other_fuzz__10write_args4ArgsEB1a_
FN:32,_RINvNtCs7tkdMjTuzcM_18test_fuzz_internal4dirs31corpus_directory_from_args_typeNtNvNtNtCsiVpTKIby35L_10conversion11uncloneable13target_fuzz__10write_args4ArgsEB1m_
FN:32,_RINvNtCs7tkdMjTuzcM_18test_fuzz_internal4dirs31corpus_directory_from_args_typeNtNvNtNtCsiVpTKIby35L_10conversion4path13target_fuzz__10write_args4ArgsEB1m_
FN:32,_RINvNtCs7tkdMjTuzcM_18test_fuzz_internal4dirs31corpus_directory_from_args_typeNtNvNtNtCsiVpTKIby35L_10conversion5array13target_fuzz__10write_args4ArgsEB1m_
FN:32,_RINvNtCs7tkdMjTuzcM_18test_fuzz_internal4dirs31corpus_directory_from_args_typeNtNvNtNtCsiVpTKIby35L_10conversion7mutable13target_fuzz__10write_args4ArgsEB1m_
FN:32,_RINvNtCs7tkdMjTuzcM_18test_fuzz_internal4dirs31corpus_directory_from_args_typeNtNvNtNtCsiVpTKIby35L_10conversion8lifetime13target_fuzz__10write_args4ArgsEB1m_
FN:32,_RINvNtCs7tkdMjTuzcM_18test_fuzz_internal4dirs31corpus_directory_from_args_typeNtNvNtNtCsiVpTKIby35L_10conversion8receiver20x_target_self_fuzz__10write_args4ArgsEB1m_
FN:32,_RINvNtCs7tkdMjTuzcM_18test_fuzz_internal4dirs31corpus_directory_from_args_typeNtNvNtNtCsiVpTKIby35L_10conversion8receiver21x_target_other_fuzz__10write_args4ArgsEB1m_
FN:22,_RINvNtCs7tkdMjTuzcM_18test_fuzz_internal4dirs37generic_args_directory_from_args_typeNtNtNtCsiVpTKIby35L_10conversion11uncloneable13target_fuzz__4ArgsEB1q_
FN:22,_RINvNtCs7tkdMjTuzcM_18test_fuzz_internal4dirs37generic_args_directory_from_args_typeNtNtNtCsiVpTKIby35L_10conversion4path13target_fuzz__4ArgsEB1q_
FN:22,_RINvNtCs7tkdMjTuzcM_18test_fuzz_internal4dirs37generic_args_directory_from_args_typeNtNtNtCsiVpTKIby35L_10conversion5array13target_fuzz__4ArgsEB1q_
FN:22,_RINvNtCs7tkdMjTuzcM_18test_fuzz_internal4dirs37generic_args_directory_from_args_typeNtNtNtCsiVpTKIby35L_10conversion7mutable13target_fuzz__4ArgsEB1q_
FN:22,_RINvNtCs7tkdMjTuzcM_18test_fuzz_internal4dirs37generic_args_directory_from_args_typeNtNtNtCsiVpTKIby35L_10conversion8lifetime13target_fuzz__4ArgsEB1q_
FN:22,_RINvNtCs7tkdMjTuzcM_18test_fuzz_internal4dirs37generic_args_directory_from_args_typeNtNtNtCsiVpTKIby35L_10conversion8receiver20x_target_self_fuzz__4ArgsEB1q_
FN:22,_RINvNtCs7tkdMjTuzcM_18test_fuzz_internal4dirs37generic_args_directory_from_args_typeNtNtNtCsiVpTKIby35L_10conversion8receiver21x_target_other_fuzz__4ArgsEB1q_
FN:12,_RINvNtCs7tkdMjTuzcM_18test_fuzz_internal4dirs42impl_generic_args_directory_from_args_typeNtNtNtCsiVpTKIby35L_10conversion11uncloneable13target_fuzz__4ArgsEB1v_
FN:12,_RINvNtCs7tkdMjTuzcM_18test_fuzz_internal4dirs42impl_generic_args_directory_from_args_typeNtNtNtCsiVpTKIby35L_10conversion4path13target_fuzz__4ArgsEB1v_
FN:12,_RINvNtCs7tkdMjTuzcM_18test_fuzz_internal4dirs42impl_generic_args_directory_from_args_typeNtNtNtCsiVpTKIby35L_10conversion5array13target_fuzz__4ArgsEB1v_
FN:12,_RINvNtCs7tkdMjTuzcM_18test_fuzz_internal4dirs42impl_generic_args_directory_from_args_typeNtNtNtCsiVpTKIby35L_10conversion7mutable13target_fuzz__4ArgsEB1v_
FN:12,_RINvNtCs7tkdMjTuzcM_18test_fuzz_internal4dirs42impl_generic_args_directory_from_args_typeNtNtNtCsiVpTKIby35L_10conversion8lifetime13target_fuzz__4ArgsEB1v_
FN:12,_RINvNtCs7tkdMjTuzcM_18test_fuzz_internal4dirs42impl_generic_args_directory_from_args_typeNtNtNtCsiVpTKIby35L_10conversion8receiver20x_target_self_fuzz__4ArgsEB1v_
FN:12,_RINvNtCs7tkdMjTuzcM_18test_fuzz_internal4dirs42impl_generic_args_directory_from_args_typeNtNtNtCsiVpTKIby35L_10conversion8receiver21x_target_other_fuzz__4ArgsEB1v_
FN:140,_RNCINvNtCs7tkdMjTuzcM_18test_fuzz_internal4dirs19path_from_args_typeNtNtNtCsiVpTKIby35L_10conversion11uncloneable13target_fuzz__4ArgsE0B1a_
FN:140,_RNCINvNtCs7tkdMjTuzcM_18test_fuzz_internal4dirs19path_from_args_typeNtNtNtCsiVpTKIby35L_10conversion4path13target_fuzz__4ArgsE0B1a_
FN:140,_RNCINvNtCs7tkdMjTuzcM_18test_fuzz_internal4dirs19path_from_args_typeNtNtNtCsiVpTKIby35L_10conversion5array13target_fuzz__4ArgsE0B1a_
FN:140,_RNCINvNtCs7tkdMjTuzcM_18test_fuzz_internal4dirs19path_from_args_typeNtNtNtCsiVpTKIby35L_10conversion7mutable13target_fuzz__4ArgsE0B1a_
FN:140,_RNCINvNtCs7tkdMjTuzcM_18test_fuzz_internal4dirs19path_from_args_typeNtNtNtCsiVpTKIby35L_10conversion8lifetime13target_fuzz__4ArgsE0B1a_
FN:140,_RNCINvNtCs7tkdMjTuzcM_18test_fuzz_internal4dirs19path_from_args_typeNtNtNtCsiVpTKIby35L_10conversion8receiver20x_target_self_fuzz__4ArgsE0B1a_
FN:140,_RNCINvNtCs7tkdMjTuzcM_18test_fuzz_internal4dirs19path_from_args_typeNtNtNtCsiVpTKIby35L_10conversion8receiver21x_target_other_fuzz__4ArgsE0B1a_
FN:140,_RNCINvNtCs7tkdMjTuzcM_18test_fuzz_internal4dirs19path_from_args_typeNtNvNtNtCsiVpTKIby35L_10conversion11uncloneable13target_fuzz__10write_args4ArgsE0B1c_
FN:140,_RNCINvNtCs7tkdMjTuzcM_18test_fuzz_internal4dirs19path_from_args_typeNtNvNtNtCsiVpTKIby35L_10conversion4path13target_fuzz__10write_args4ArgsE0B1c_
FN:140,_RNCINvNtCs7tkdMjTuzcM_18test_fuzz_internal4dirs19path_from_args_typeNtNvNtNtCsiVpTKIby35L_10conversion5array13target_fuzz__10write_args4ArgsE0B1c_
FN:140,_RNCINvNtCs7tkdMjTuzcM_18test_fuzz_internal4dirs19path_from_args_typeNtNvNtNtCsiVpTKIby35L_10conversion7mutable13target_fuzz__10write_args4ArgsE0B1c_
FN:140,_RNCINvNtCs7tkdMjTuzcM_18test_fuzz_internal4dirs19path_from_args_typeNtNvNtNtCsiVpTKIby35L_10conversion8lifetime13target_fuzz__10write_args4ArgsE0B1c_
FN:140,_RNCINvNtCs7tkdMjTuzcM_18test_fuzz_internal4dirs19path_from_args_typeNtNvNtNtCsiVpTKIby35L_10conversion8receiver20x_target_self_fuzz__10write_args4ArgsE0B1c_
FN:140,_RNCINvNtCs7tkdMjTuzcM_18test_fuzz_internal4dirs19path_from_args_typeNtNvNtNtCsiVpTKIby35L_10conversion8receiver21x_target_other_fuzz__10write_args4ArgsE0B1c_
FN:136,_RINvNtCs7qDQvy6XYpV_18test_fuzz_internal4dirs19path_from_args_typeNtNtNtCseKPbJg0qtoX_10conversion11uncloneable13target_fuzz__4ArgsEB18_
FN:136,_RINvNtCs7qDQvy6XYpV_18test_fuzz_internal4dirs19path_from_args_typeNtNtNtCseKPbJg0qtoX_10conversion4path13target_fuzz__4ArgsEB18_
FN:136,_RINvNtCs7qDQvy6XYpV_18test_fuzz_internal4dirs19path_from_args_typeNtNtNtCseKPbJg0qtoX_10conversion5array13target_fuzz__4ArgsEB18_
FN:136,_RINvNtCs7qDQvy6XYpV_18test_fuzz_internal4dirs19path_from_args_typeNtNtNtCseKPbJg0qtoX_10conversion7mutable13target_fuzz__4ArgsEB18_
FN:136,_RINvNtCs7qDQvy6XYpV_18test_fuzz_internal4dirs19path_from_args_typeNtNtNtCseKPbJg0qtoX_10conversion8lifetime13target_fuzz__4ArgsEB18_
FN:136,_RINvNtCs7qDQvy6XYpV_18test_fuzz_internal4dirs19path_from_args_typeNtNtNtCseKPbJg0qtoX_10conversion8receiver20x_target_self_fuzz__4ArgsEB18_
FN:136,_RINvNtCs7qDQvy6XYpV_18test_fuzz_internal4dirs19path_from_args_typeNtNtNtCseKPbJg0qtoX_10conversion8receiver21x_target_other_fuzz__4ArgsEB18_
FN:136,_RINvNtCs7qDQvy6XYpV_18test_fuzz_internal4dirs19path_from_args_typeNtNvNtNtCseKPbJg0qtoX_10conversion11uncloneable13target_fuzz__10write_args4ArgsEB1a_
FN:136,_RINvNtCs7qDQvy6XYpV_18test_fuzz_internal4dirs19path_from_args_typeNtNvNtNtCseKPbJg0qtoX_10conversion4path13target_fuzz__10write_args4ArgsEB1a_
FN:136,_RINvNtCs7qDQvy6XYpV_18test_fuzz_internal4dirs19path_from_args_typeNtNvNtNtCseKPbJg0qtoX_10conversion5array13target_fuzz__10write_args4ArgsEB1a_
FN:136,_RINvNtCs7qDQvy6XYpV_18test_fuzz_internal4dirs19path_from_args_typeNtNvNtNtCseKPbJg0qtoX_10conversion7mutable13target_fuzz__10write_args4ArgsEB1a_
FN:136,_RINvNtCs7qDQvy6XYpV_18test_fuzz_internal4dirs19path_from_args_typeNtNvNtNtCseKPbJg0qtoX_10conversion8lifetime13target_fuzz__10write_args4ArgsEB1a_
FN:136,_RINvNtCs7qDQvy6XYpV_18test_fuzz_internal4dirs19path_from_args_typeNtNvNtNtCseKPbJg0qtoX_10conversion8receiver20x_target_self_fuzz__10write_args4ArgsEB1a_
FN:136,_RINvNtCs7qDQvy6XYpV_18test_fuzz_internal4dirs19path_from_args_typeNtNvNtNtCseKPbJg0qtoX_10conversion8receiver21x_target_other_fuzz__10write_args4ArgsEB1a_
FN:32,_RINvNtCs7qDQvy6XYpV_18test_fuzz_internal4dirs31corpus_directory_from_args_typeNtNvNtNtCseKPbJg0qtoX_10conversion11uncloneable13target_fuzz__10write_args4ArgsEB1m_
FN:32,_RINvNtCs7qDQvy6XYpV_18test_fuzz_internal4dirs31corpus_directory_from_args_typeNtNvNtNtCseKPbJg0qtoX_10conversion4path13target_fuzz__10write_args4ArgsEB1m_
FN:32,_RINvNtCs7qDQvy6XYpV_18test_fuzz_internal4dirs31corpus_directory_from_args_typeNtNvNtNtCseKPbJg0qtoX_10conversion5array13target_fuzz__10write_args4ArgsEB1m_
FN:32,_RINvNtCs7qDQvy6XYpV_18test_fuzz_internal4dirs31corpus_directory_from_args_typeNtNvNtNtCseKPbJg0qtoX_10conversion7mutable13target_fuzz__10write_args4ArgsEB1m_
FN:32,_RINvNtCs7qDQvy6XYpV_18test_fuzz_internal4dirs31corpus_directory_from_args_typeNtNvNtNtCseKPbJg0qtoX_10conversion8lifetime13target_fuzz__10write_args4ArgsEB1m_
FN:32,_RINvNtCs7qDQvy6XYpV_18test_fuzz_internal4dirs31corpus_directory_from_args_typeNtNvNtNtCseKPbJg0qtoX_10conversion8receiver20x_target_self_fuzz__10write_args4ArgsEB1m_
FN:32,_RINvNtCs7qDQvy6XYpV_18test_fuzz_internal4dirs31corpus_directory_from_args_typeNtNvNtNtCseKPbJg0qtoX_10conversion8receiver21x_target_other_fuzz__10write_args4ArgsEB1m_
FN:22,_RINvNtCs7qDQvy6XYpV_18test_fuzz_internal4dirs37generic_args_directory_from_args_typeNtNtNtCseKPbJg0qtoX_10conversion11uncloneable13target_fuzz__4ArgsEB1q_
FN:22,_RINvNtCs7qDQvy6XYpV_18test_fuzz_internal4dirs37generic_args_directory_from_args_typeNtNtNtCseKPbJg0qtoX_10conversion4path13target_fuzz__4ArgsEB1q_
FN:22,_RINvNtCs7qDQvy6XYpV_18test_fuzz_internal4dirs37generic_args_directory_from_args_typeNtNtNtCseKPbJg0qtoX_10conversion5array13target_fuzz__4ArgsEB1q_
FN:22,_RINvNtCs7qDQvy6XYpV_18test_fuzz_internal4dirs37generic_args_directory_from_args_typeNtNtNtCseKPbJg0qtoX_10conversion7mutable13target_fuzz__4ArgsEB1q_
FN:22,_RINvNtCs7qDQvy6XYpV_18test_fuzz_internal4dirs37generic_args_directory_from_args_typeNtNtNtCseKPbJg0qtoX_10conversion8lifetime13target_fuzz__4ArgsEB1q_
FN:22,_RINvNtCs7qDQvy6XYpV_18test_fuzz_internal4dirs37generic_args_directory_from_args_typeNtNtNtCseKPbJg0qtoX_10conversion8receiver20x_target_self_fuzz__4ArgsEB1q_
FN:22,_RINvNtCs7qDQvy6XYpV_18test_fuzz_internal4dirs37generic_args_directory_from_args_typeNtNtNtCseKPbJg0qtoX_10conversion8receiver21x_target_other_fuzz__4ArgsEB1q_
FN:12,_RINvNtCs7qDQvy6XYpV_18test_fuzz_internal4dirs42impl_generic_args_directory_from_args_typeNtNtNtCseKPbJg0qtoX_10conversion11uncloneable13target_fuzz__4ArgsEB1v_
FN:12,_RINvNtCs7qDQvy6XYpV_18test_fuzz_internal4dirs42impl_generic_args_directory_from_args_typeNtNtNtCseKPbJg0qtoX_10conversion4path13target_fuzz__4ArgsEB1v_
FN:12,_RINvNtCs7qDQvy6XYpV_18test_fuzz_internal4dirs42impl_generic_args_directory_from_args_typeNtNtNtCseKPbJg0qtoX_10conversion5array13target_fuzz__4ArgsEB1v_
FN:12,_RINvNtCs7qDQvy6XYpV_18test_fuzz_internal4dirs42impl_generic_args_directory_from_args_typeNtNtNtCseKPbJg0qtoX_10conversion7mutable13target_fuzz__4ArgsEB1v_
FN:12,_RINvNtCs7qDQvy6XYpV_18test_fuzz_internal4dirs42impl_generic_args_directory_from_args_typeNtNtNtCseKPbJg0qtoX_10conversion8lifetime13target_fuzz__4ArgsEB1v_
FN:12,_RINvNtCs7qDQvy6XYpV_18test_fuzz_internal4dirs42impl_generic_args_directory_from_args_typeNtNtNtCseKPbJg0qtoX_10conversion8receiver20x_target_self_fuzz__4ArgsEB1v_
FN:12,_RINvNtCs7qDQvy6XYpV_18test_fuzz_internal4dirs42impl_generic_args_directory_from_args_typeNtNtNtCseKPbJg0qtoX_10conversion8receiver21x_target_other_fuzz__4ArgsEB1v_
FN:140,_RNCINvNtCs7qDQvy6XYpV_18test_fuzz_internal4dirs19path_from_args_typeNtNtNtCseKPbJg0qtoX_10conversion11uncloneable13target_fuzz__4ArgsE0B1a_
FN:140,_RNCINvNtCs7qDQvy6XYpV_18test_fuzz_internal4dirs19path_from_args_typeNtNtNtCseKPbJg0qtoX_10conversion4path13target_fuzz__4ArgsE0B1a_
FN:140,_RNCINvNtCs7qDQvy6XYpV_18test_fuzz_internal4dirs19path_from_args_typeNtNtNtCseKPbJg0qtoX_10conversion5array13target_fuzz__4ArgsE0B1a_
FN:140,_RNCINvNtCs7qDQvy6XYpV_18test_fuzz_internal4dirs19path_from_args_typeNtNtNtCseKPbJg0qtoX_10conversion7mutable13target_fuzz__4ArgsE0B1a_
FN:140,_RNCINvNtCs7qDQvy6XYpV_18test_fuzz_internal4dirs19path_from_args_typeNtNtNtCseKPbJg0qtoX_10conversion8lifetime13target_fuzz__4ArgsE0B1a_
FN:140,_RNCINvNtCs7qDQvy6XYpV_18test_fuzz_internal4dirs19path_from_args_typeNtNtNtCseKPbJg0qtoX_10conversion8receiver20x_target_self_fuzz__4ArgsE0B1a_
FN:140,_RNCINvNtCs7qDQvy6XYpV_18test_fuzz_internal4dirs19path_from_args_typeNtNtNtCseKPbJg0qtoX_10conversion8receiver21x_target_other_fuzz__4ArgsE0B1a_
FN:140,_RNCINvNtCs7qDQvy6XYpV_18test_fuzz_internal4dirs19path_from_args_typeNtNvNtNtCseKPbJg0qtoX_10conversion11uncloneable13target_fuzz__10write_args4ArgsE0B1c_
FN:140,_RNCINvNtCs7qDQvy6XYpV_18test_fuzz_internal4dirs19path_from_args_typeNtNvNtNtCseKPbJg0qtoX_10conversion4path13target_fuzz__10write_args4ArgsE0B1c_
FN:140,_RNCINvNtCs7qDQvy6XYpV_18test_fuzz_internal4dirs19path_from_args_typeNtNvNtNtCseKPbJg0qtoX_10conversion5array13target_fuzz__10write_args4ArgsE0B1c_
FN:140,_RNCINvNtCs7qDQvy6XYpV_18test_fuzz_internal4dirs19path_from_args_typeNtNvNtNtCseKPbJg0qtoX_10conversion7mutable13target_fuzz__10write_args4ArgsE0B1c_
FN:140,_RNCINvNtCs7qDQvy6XYpV_18test_fuzz_internal4dirs19path_from_args_typeNtNvNtNtCseKPbJg0qtoX_10conversion8lifetime13target_fuzz__10write_args4ArgsE0B1c_
FN:140,_RNCINvNtCs7qDQvy6XYpV_18test_fuzz_internal4dirs19path_from_args_typeNtNvNtNtCseKPbJg0qtoX_10conversion8receiver20x_target_self_fuzz__10write_args4ArgsE0B1c_
FN:140,_RNCINvNtCs7qDQvy6XYpV_18test_fuzz_internal4dirs19path_from_args_typeNtNvNtNtCseKPbJg0qtoX_10conversion8receiver21x_target_other_fuzz__10write_args4ArgsE0B1c_
FN:136,_RINvNtCs7qDQvy6XYpV_18test_fuzz_internal4dirs19path_from_args_typeNtNtNtCsfLz7FBcSNE7_10conversion11uncloneable13target_fuzz__4ArgsEB18_
FN:136,_RINvNtCs7qDQvy6XYpV_18test_fuzz_internal4dirs19path_from_args_typeNtNtNtCsfLz7FBcSNE7_10conversion4path13target_fuzz__4ArgsEB18_
FN:136,_RINvNtCs7qDQvy6XYpV_18test_fuzz_internal4dirs19path_from_args_typeNtNtNtCsfLz7FBcSNE7_10conversion5array13target_fuzz__4ArgsEB18_
FN:136,_RINvNtCs7qDQvy6XYpV_18test_fuzz_internal4dirs19path_from_args_typeNtNtNtCsfLz7FBcSNE7_10conversion7mutable13target_fuzz__4ArgsEB18_
FN:136,_RINvNtCs7qDQvy6XYpV_18test_fuzz_internal4dirs19path_from_args_typeNtNtNtCsfLz7FBcSNE7_10conversion8lifetime13target_fuzz__4ArgsEB18_
FN:136,_RINvNtCs7qDQvy6XYpV_18test_fuzz_internal4dirs19path_from_args_typeNtNtNtCsfLz7FBcSNE7_10conversion8receiver20x_target_self_fuzz__4ArgsEB18_
FN:136,_RINvNtCs7qDQvy6XYpV_18test_fuzz_internal4dirs19path_from_args_typeNtNtNtCsfLz7FBcSNE7_10conversion8receiver21x_target_other_fuzz__4ArgsEB18_
FN:136,_RINvNtCs7qDQvy6XYpV_18test_fuzz_internal4dirs19path_from_args_typeNtNvNtNtCsfLz7FBcSNE7_10conversion11uncloneable13target_fuzz__10write_args4ArgsEB1a_
FN:136,_RINvNtCs7qDQvy6XYpV_18test_fuzz_internal4dirs19path_from_args_typeNtNvNtNtCsfLz7FBcSNE7_10conversion4path13target_fuzz__10write_args4ArgsEB1a_
FN:136,_RINvNtCs7qDQvy6XYpV_18test_fuzz_internal4dirs19path_from_args_typeNtNvNtNtCsfLz7FBcSNE7_10conversion5array13target_fuzz__10write_args4ArgsEB1a_
FN:136,_RINvNtCs7qDQvy6XYpV_18test_fuzz_internal4dirs19path_from_args_typeNtNvNtNtCsfLz7FBcSNE7_10conversion7mutable13target_fuzz__10write_args4ArgsEB1a_
FN:136,_RINvNtCs7qDQvy6XYpV_18test_fuzz_internal4dirs19path_from_args_typeNtNvNtNtCsfLz7FBcSNE7_10conversion8lifetime13target_fuzz__10write_args4ArgsEB1a_
FN:136,_RINvNtCs7qDQvy6XYpV_18test_fuzz_internal4dirs19path_from_args_typeNtNvNtNtCsfLz7FBcSNE7_10conversion8receiver20x_target_self_fuzz__10write_args4ArgsEB1a_
FN:136,_RINvNtCs7qDQvy6XYpV_18test_fuzz_internal4dirs19path_from_args_typeNtNvNtNtCsfLz7FBcSNE7_10conversion8receiver21x_target_other_fuzz__10write_args4ArgsEB1a_
FN:32,_RINvNtCs7qDQvy6XYpV_18test_fuzz_internal4dirs31corpus_directory_from_args_typeNtNvNtNtCsfLz7FBcSNE7_10conversion11uncloneable13target_fuzz__10write_args4ArgsEB1m_
FN:32,_RINvNtCs7qDQvy6XYpV_18test_fuzz_internal4dirs31corpus_directory_from_args_typeNtNvNtNtCsfLz7FBcSNE7_10conversion4path13target_fuzz__10write_args4ArgsEB1m_
FN:32,_RINvNtCs7qDQvy6XYpV_18test_fuzz_internal4dirs31corpus_directory_from_args_typeNtNvNtNtCsfLz7FBcSNE7_10conversion5array13target_fuzz__10write_args4ArgsEB1m_
FN:32,_RINvNtCs7qDQvy6XYpV_18test_fuzz_internal4dirs31corpus_directory_from_args_typeNtNvNtNtCsfLz7FBcSNE7_10conversion7mutable13target_fuzz__10write_args4ArgsEB1m_
FN:32,_RINvNtCs7qDQvy6XYpV_18test_fuzz_internal4dirs31corpus_directory_from_args_typeNtNvNtNtCsfLz7FBcSNE7_10conversion8lifetime13target_fuzz__10write_args4ArgsEB1m_
FN:32,_RINvNtCs7qDQvy6XYpV_18test_fuzz_internal4dirs31corpus_directory_from_args_typeNtNvNtNtCsfLz7FBcSNE7_10conversion8receiver20x_target_self_fuzz__10write_args4ArgsEB1m_
FN:32,_RINvNtCs7qDQvy6XYpV_18test_fuzz_internal4dirs31corpus_directory_from_args_typeNtNvNtNtCsfLz7FBcSNE7_10conversion8receiver21x_target_other_fuzz__10write_args4ArgsEB1m_
FN:22,_RINvNtCs7qDQvy6XYpV_18test_fuzz_internal4dirs37generic_args_directory_from_args_typeNtNtNtCsfLz7FBcSNE7_10conversion11uncloneable13target_fuzz__4ArgsEB1q_
FN:22,_RINvNtCs7qDQvy6XYpV_18test_fuzz_internal4dirs37generic_args_directory_from_args_typeNtNtNtCsfLz7FBcSNE7_10conversion4path13target_fuzz__4ArgsEB1q_
FN:22,_RINvNtCs7qDQvy6XYpV_18test_fuzz_internal4dirs37generic_args_directory_from_args_typeNtNtNtCsfLz7FBcSNE7_10conversion5array13target_fuzz__4ArgsEB1q_
FN:22,_RINvNtCs7qDQvy6XYpV_18test_fuzz_internal4dirs37generic_args_directory_from_args_typeNtNtNtCsfLz7FBcSNE7_10conversion7mutable13target_fuzz__4ArgsEB1q_
FN:22,_RINvNtCs7qDQvy6XYpV_18test_fuzz_internal4dirs37generic_args_directory_from_args_typeNtNtNtCsfLz7FBcSNE7_10conversion8lifetime13target_fuzz__4ArgsEB1q_
FN:22,_RINvNtCs7qDQvy6XYpV_18test_fuzz_internal4dirs37generic_args_directory_from_args_typeNtNtNtCsfLz7FBcSNE7_10conversion8receiver20x_target_self_fuzz__4ArgsEB1q_
FN:22,_RINvNtCs7qDQvy6XYpV_18test_fuzz_internal4dirs37generic_args_directory_from_args_typeNtNtNtCsfLz7FBcSNE7_10conversion8receiver21x_target_other_fuzz__4ArgsEB1q_
FN:12,_RINvNtCs7qDQvy6XYpV_18test_fuzz_internal4dirs42impl_generic_args_directory_from_args_typeNtNtNtCsfLz7FBcSNE7_10conversion11uncloneable13target_fuzz__4ArgsEB1v_
FN:12,_RINvNtCs7qDQvy6XYpV_18test_fuzz_internal4dirs42impl_generic_args_directory_from_args_typeNtNtNtCsfLz7FBcSNE7_10conversion4path13target_fuzz__4ArgsEB1v_
FN:12,_RINvNtCs7qDQvy6XYpV_18test_fuzz_internal4dirs42impl_generic_args_directory_from_args_typeNtNtNtCsfLz7FBcSNE7_10conversion5array13target_fuzz__4ArgsEB1v_
FN:12,_RINvNtCs7qDQvy6XYpV_18test_fuzz_internal4dirs42impl_generic_args_directory_from_args_typeNtNtNtCsfLz7FBcSNE7_10conversion7mutable13target_fuzz__4ArgsEB1v_
FN:12,_RINvNtCs7qDQvy6XYpV_18test_fuzz_internal4dirs42impl_generic_args_directory_from_args_typeNtNtNtCsfLz7FBcSNE7_10conversion8lifetime13target_fuzz__4ArgsEB1v_
FN:12,_RINvNtCs7qDQvy6XYpV_18test_fuzz_internal4dirs42impl_generic_args_directory_from_args_typeNtNtNtCsfLz7FBcSNE7_10conversion8receiver20x_target_self_fuzz__4ArgsEB1v_
FN:12,_RINvNtCs7qDQvy6XYpV_18test_fuzz_internal4dirs42impl_generic_args_directory_from_args_typeNtNtNtCsfLz7FBcSNE7_10conversion8receiver21x_target_other_fuzz__4ArgsEB1v_
FN:140,_RNCINvNtCs7qDQvy6XYpV_18test_fuzz_internal4dirs19path_from_args_typeNtNtNtCsfLz7FBcSNE7_10conversion11uncloneable13target_fuzz__4ArgsE0B1a_
FN:140,_RNCINvNtCs7qDQvy6XYpV_18test_fuzz_internal4dirs19path_from_args_typeNtNtNtCsfLz7FBcSNE7_10conversion4path13target_fuzz__4ArgsE0B1a_
FN:140,_RNCINvNtCs7qDQvy6XYpV_18test_fuzz_internal4dirs19path_from_args_typeNtNtNtCsfLz7FBcSNE7_10conversion5array13target_fuzz__4ArgsE0B1a_
FN:140,_RNCINvNtCs7qDQvy6XYpV_18test_fuzz_internal4dirs19path_from_args_typeNtNtNtCsfLz7FBcSNE7_10conversion7mutable13target_fuzz__4ArgsE0B1a_
FN:140,_RNCINvNtCs7qDQvy6XYpV_18test_fuzz_internal4dirs19path_from_args_typeNtNtNtCsfLz7FBcSNE7_10conversion8lifetime13target_fuzz__4ArgsE0B1a_
FN:140,_RNCINvNtCs7qDQvy6XYpV_18test_fuzz_internal4dirs19path_from_args_typeNtNtNtCsfLz7FBcSNE7_10conversion8receiver20x_target_self_fuzz__4ArgsE0B1a_
FN:140,_RNCINvNtCs7qDQvy6XYpV_18test_fuzz_internal4dirs19path_from_args_typeNtNtNtCsfLz7FBcSNE7_10conversion8receiver21x_target_other_fuzz__4ArgsE0B1a_
FN:140,_RNCINvNtCs7qDQvy6XYpV_18test_fuzz_internal4dirs19path_from_args_typeNtNvNtNtCsfLz7FBcSNE7_10conversion11uncloneable13target_fuzz__10write_args4ArgsE0B1c_
FN:140,_RNCINvNtCs7qDQvy6XYpV_18test_fuzz_internal4dirs19path_from_args_typeNtNvNtNtCsfLz7FBcSNE7_10conversion4path13target_fuzz__10write_args4ArgsE0B1c_
FN:140,_RNCINvNtCs7qDQvy6XYpV_18test_fuzz_internal4dirs19path_from_args_typeNtNvNtNtCsfLz7FBcSNE7_10conversion5array13target_fuzz__10write_args4ArgsE0B1c_
FN:140,_RNCINvNtCs7qDQvy6XYpV_18test_fuzz_internal4dirs19path_from_args_typeNtNvNtNtCsfLz7FBcSNE7_10conversion7mutable13target_fuzz__10write_args4ArgsE0B1c_
FN:140,_RNCINvNtCs7qDQvy6XYpV_18test_fuzz_internal4dirs19path_from_args_typeNtNvNtNtCsfLz7FBcSNE7_10conversion8lifetime13target_fuzz__10write_args4ArgsE0B1c_
FN:140,_RNCINvNtCs7qDQvy6XYpV_18test_fuzz_internal4dirs19path_from_args_typeNtNvNtNtCsfLz7FBcSNE7_10conversion8receiver20x_target_self_fuzz__10write_args4ArgsE0B1c_
FN:140,_RNCINvNtCs7qDQvy6XYpV_18test_fuzz_internal4dirs19path_from_args_typeNtNvNtNtCsfLz7FBcSNE7_10conversion8receiver21x_target_other_fuzz__10write_args4ArgsE0B1c_
FN:136,_RINvNtCs7qDQvy6XYpV_18test_fuzz_internal4dirs19path_from_args_typeNtNtNtCsb1dEVcqrYVW_5debug4hang13target_fuzz__4ArgsEB18_
FN:136,_RINvNtCs7qDQvy6XYpV_18test_fuzz_internal4dirs19path_from_args_typeNtNtNtCsb1dEVcqrYVW_5debug5crash13target_fuzz__4ArgsEB18_
FN:136,_RINvNtCs7qDQvy6XYpV_18test_fuzz_internal4dirs19path_from_args_typeNtNvNtNtCsb1dEVcqrYVW_5debug4hang13target_fuzz__10write_args4ArgsEB1a_
FN:136,_RINvNtCs7qDQvy6XYpV_18test_fuzz_internal4dirs19path_from_args_typeNtNvNtNtCsb1dEVcqrYVW_5debug5crash13target_fuzz__10write_args4ArgsEB1a_
FN:32,_RINvNtCs7qDQvy6XYpV_18test_fuzz_internal4dirs31corpus_directory_from_args_typeNtNvNtNtCsb1dEVcqrYVW_5debug4hang13target_fuzz__10write_args4ArgsEB1m_
FN:32,_RINvNtCs7qDQvy6XYpV_18test_fuzz_internal4dirs31corpus_directory_from_args_typeNtNvNtNtCsb1dEVcqrYVW_5debug5crash13target_fuzz__10write_args4ArgsEB1m_
FN:22,_RINvNtCs7qDQvy6XYpV_18test_fuzz_internal4dirs37generic_args_directory_from_args_typeNtNtNtCsb1dEVcqrYVW_5debug4hang13target_fuzz__4ArgsEB1q_
FN:22,_RINvNtCs7qDQvy6XYpV_18test_fuzz_internal4dirs37generic_args_directory_from_args_typeNtNtNtCsb1dEVcqrYVW_5debug5crash13target_fuzz__4ArgsEB1q_
FN:12,_RINvNtCs7qDQvy6XYpV_18test_fuzz_internal4dirs42impl_generic_args_directory_from_args_typeNtNtNtCsb1dEVcqrYVW_5debug4hang13target_fuzz__4ArgsEB1v_
FN:12,_RINvNtCs7qDQvy6XYpV_18test_fuzz_internal4dirs42impl_generic_args_directory_from_args_typeNtNtNtCsb1dEVcqrYVW_5debug5crash13target_fuzz__4ArgsEB1v_
FN:140,_RNCINvNtCs7qDQvy6XYpV_18test_fuzz_internal4dirs19path_from_args_typeNtNtNtCsb1dEVcqrYVW_5debug4hang13target_fuzz__4ArgsE0B1a_
FN:140,_RNCINvNtCs7qDQvy6XYpV_18test_fuzz_internal4dirs19path_from_args_typeNtNtNtCsb1dEVcqrYVW_5debug5crash13target_fuzz__4ArgsE0B1a_
FN:140,_RNCINvNtCs7qDQvy6XYpV_18test_fuzz_internal4dirs19path_from_args_typeNtNvNtNtCsb1dEVcqrYVW_5debug4hang13target_fuzz__10write_args4ArgsE0B1c_
FN:140,_RNCINvNtCs7qDQvy6XYpV_18test_fuzz_internal4dirs19path_from_args_typeNtNvNtNtCsb1dEVcqrYVW_5debug5crash13target_fuzz__10write_args4ArgsE0B1c_
FN:136,_RINvNtCs7qDQvy6XYpV_18test_fuzz_internal4dirs19path_from_args_typeNtNtNtCsgcjg8UDvgFn_5debug4hang13target_fuzz__4ArgsEB18_
FN:136,_RINvNtCs7qDQvy6XYpV_18test_fuzz_internal4dirs19path_from_args_typeNtNtNtCsgcjg8UDvgFn_5debug5crash13target_fuzz__4ArgsEB18_
FN:136,_RINvNtCs7qDQvy6XYpV_18test_fuzz_internal4dirs19path_from_args_typeNtNvNtNtCsgcjg8UDvgFn_5debug4hang13target_fuzz__10write_args4ArgsEB1a_
FN:136,_RINvNtCs7qDQvy6XYpV_18test_fuzz_internal4dirs19path_from_args_typeNtNvNtNtCsgcjg8UDvgFn_5debug5crash13target_fuzz__10write_args4ArgsEB1a_
FN:32,_RINvNtCs7qDQvy6XYpV_18test_fuzz_internal4dirs31corpus_directory_from_args_typeNtNvNtNtCsgcjg8UDvgFn_5debug4hang13target_fuzz__10write_args4ArgsEB1m_
FN:32,_RINvNtCs7qDQvy6XYpV_18test_fuzz_internal4dirs31corpus_directory_from_args_typeNtNvNtNtCsgcjg8UDvgFn_5debug5crash13target_fuzz__10write_args4ArgsEB1m_
FN:22,_RINvNtCs7qDQvy6XYpV_18test_fuzz_internal4dirs37generic_args_directory_from_args_typeNtNtNtCsgcjg8UDvgFn_5debug4hang13target_fuzz__4ArgsEB1q_
FN:22,_RINvNtCs7qDQvy6XYpV_18test_fuzz_internal4dirs37generic_args_directory_from_args_typeNtNtNtCsgcjg8UDvgFn_5debug5crash13target_fuzz__4ArgsEB1q_
FN:12,_RINvNtCs7qDQvy6XYpV_18test_fuzz_internal4dirs42impl_generic_args_directory_from_args_typeNtNtNtCsgcjg8UDvgFn_5debug4hang13target_fuzz__4ArgsEB1v_
FN:12,_RINvNtCs7qDQvy6XYpV_18test_fuzz_internal4dirs42impl_generic_args_directory_from_args_typeNtNtNtCsgcjg8UDvgFn_5debug5crash13target_fuzz__4ArgsEB1v_
FN:140,_RNCINvNtCs7qDQvy6XYpV_18test_fuzz_internal4dirs19path_from_args_typeNtNtNtCsgcjg8UDvgFn_5debug4hang13target_fuzz__4ArgsE0B1a_
FN:140,_RNCINvNtCs7qDQvy6XYpV_18test_fuzz_internal4dirs19path_from_args_typeNtNtNtCsgcjg8UDvgFn_5debug5crash13target_fuzz__4ArgsE0B1a_
FN:140,_RNCINvNtCs7qDQvy6XYpV_18test_fuzz_internal4dirs19path_from_args_typeNtNvNtNtCsgcjg8UDvgFn_5debug4hang13target_fuzz__10write_args4ArgsE0B1c_
FN:140,_RNCINvNtCs7qDQvy6XYpV_18test_fuzz_internal4dirs19path_from_args_typeNtNvNtNtCsgcjg8UDvgFn_5debug5crash13target_fuzz__10write_args4ArgsE0B1c_
FN:136,_RINvNtCs7tkdMjTuzcM_18test_fuzz_internal4dirs19path_from_args_typeNtNtNtCsl8sxKVvCifM_5debug4hang13target_fuzz__4ArgsEB18_
FN:136,_RINvNtCs7tkdMjTuzcM_18test_fuzz_internal4dirs19path_from_args_typeNtNtNtCsl8sxKVvCifM_5debug5crash13target_fuzz__4ArgsEB18_
FN:136,_RINvNtCs7tkdMjTuzcM_18test_fuzz_internal4dirs19path_from_args_typeNtNvNtNtCsl8sxKVvCifM_5debug4hang13target_fuzz__10write_args4ArgsEB1a_
FN:136,_RINvNtCs7tkdMjTuzcM_18test_fuzz_internal4dirs19path_from_args_typeNtNvNtNtCsl8sxKVvCifM_5debug5crash13target_fuzz__10write_args4ArgsEB1a_
FN:32,_RINvNtCs7tkdMjTuzcM_18test_fuzz_internal4dirs31corpus_directory_from_args_typeNtNvNtNtCsl8sxKVvCifM_5debug4hang13target_fuzz__10write_args4ArgsEB1m_
FN:32,_RINvNtCs7tkdMjTuzcM_18test_fuzz_internal4dirs31corpus_directory_from_args_typeNtNvNtNtCsl8sxKVvCifM_5debug5crash13target_fuzz__10write_args4ArgsEB1m_
FN:22,_RINvNtCs7tkdMjTuzcM_18test_fuzz_internal4dirs37generic_args_directory_from_args_typeNtNtNtCsl8sxKVvCifM_5debug4hang13target_fuzz__4ArgsEB1q_
FN:22,_RINvNtCs7tkdMjTuzcM_18test_fuzz_internal4dirs37generic_args_directory_from_args_typeNtNtNtCsl8sxKVvCifM_5debug5crash13target_fuzz__4ArgsEB1q_
FN:12,_RINvNtCs7tkdMjTuzcM_18test_fuzz_internal4dirs42impl_generic_args_directory_from_args_typeNtNtNtCsl8sxKVvCifM_5debug4hang13target_fuzz__4ArgsEB1v_
FN:12,_RINvNtCs7tkdMjTuzcM_18test_fuzz_internal4dirs42impl_generic_args_directory_from_args_typeNtNtNtCsl8sxKVvCifM_5debug5crash13target_fuzz__4ArgsEB1v_
FN:140,_RNCINvNtCs7tkdMjTuzcM_18test_fuzz_internal4dirs19path_from_args_typeNtNtNtCsl8sxKVvCifM_5debug4hang13target_fuzz__4ArgsE0B1a_
FN:140,_RNCINvNtCs7tkdMjTuzcM_18test_fuzz_internal4dirs19path_from_args_typeNtNtNtCsl8sxKVvCifM_5debug5crash13target_fuzz__4ArgsE0B1a_
FN:140,_RNCINvNtCs7tkdMjTuzcM_18test_fuzz_internal4dirs19path_from_args_typeNtNvNtNtCsl8sxKVvCifM_5debug4hang13target_fuzz__10write_args4ArgsE0B1c_
FN:140,_RNCINvNtCs7tkdMjTuzcM_18test_fuzz_internal4dirs19path_from_args_typeNtNvNtNtCsl8sxKVvCifM_5debug5crash13target_fuzz__10write_args4ArgsE0B1c_
FN:136,_RINvNtCs7qDQvy6XYpV_18test_fuzz_internal4dirs19path_from_args_typeNtNtNtCsaAshMXCG0yq_7default10no_default13target_fuzz__4ArgsEB18_
FN:136,_RINvNtCs7qDQvy6XYpV_18test_fuzz_internal4dirs19path_from_args_typeNtNtNtCsaAshMXCG0yq_7default7default13target_fuzz__4ArgsEB18_
FN:136,_RINvNtCs7qDQvy6XYpV_18test_fuzz_internal4dirs19path_from_args_typeNtNvNtNtCsaAshMXCG0yq_7default10no_default13target_fuzz__10write_args4ArgsEB1a_
FN:136,_RINvNtCs7qDQvy6XYpV_18test_fuzz_internal4dirs19path_from_args_typeNtNvNtNtCsaAshMXCG0yq_7default7default13target_fuzz__10write_args4ArgsEB1a_
FN:32,_RINvNtCs7qDQvy6XYpV_18test_fuzz_internal4dirs31corpus_directory_from_args_typeNtNvNtNtCsaAshMXCG0yq_7default10no_default13target_fuzz__10write_args4ArgsEB1m_
FN:32,_RINvNtCs7qDQvy6XYpV_18test_fuzz_internal4dirs31corpus_directory_from_args_typeNtNvNtNtCsaAshMXCG0yq_7default7default13target_fuzz__10write_args4ArgsEB1m_
FN:22,_RINvNtCs7qDQvy6XYpV_18test_fuzz_internal4dirs37generic_args_directory_from_args_typeNtNtNtCsaAshMXCG0yq_7default10no_default13target_fuzz__4ArgsEB1q_
FN:22,_RINvNtCs7qDQvy6XYpV_18test_fuzz_internal4dirs37generic_args_directory_from_args_typeNtNtNtCsaAshMXCG0yq_7default7default13target_fuzz__4ArgsEB1q_
FN:12,_RINvNtCs7qDQvy6XYpV_18test_fuzz_internal4dirs42impl_generic_args_directory_from_args_typeNtNtNtCsaAshMXCG0yq_7default10no_default13target_fuzz__4ArgsEB1v_
FN:12,_RINvNtCs7qDQvy6XYpV_18test_fuzz_internal4dirs42impl_generic_args_directory_from_args_typeNtNtNtCsaAshMXCG0yq_7default7default13target_fuzz__4ArgsEB1v_
FN:140,_RNCINvNtCs7qDQvy6XYpV_18test_fuzz_internal4dirs19path_from_args_typeNtNtNtCsaAshMXCG0yq_7default10no_default13target_fuzz__4ArgsE0B1a_
FN:140,_RNCINvNtCs7qDQvy6XYpV_18test_fuzz_internal4dirs19path_from_args_typeNtNtNtCsaAshMXCG0yq_7default7default13target_fuzz__4ArgsE0B1a_
FN:140,_RNCINvNtCs7qDQvy6XYpV_18test_fuzz_internal4dirs19path_from_args_typeNtNvNtNtCsaAshMXCG0yq_7default10no_default13target_fuzz__10write_args4ArgsE0B1c_
FN:140,_RNCINvNtCs7qDQvy6XYpV_18test_fuzz_internal4dirs19path_from_args_typeNtNvNtNtCsaAshMXCG0yq_7default7default13target_fuzz__10write_args4ArgsE0B1c_
FN:136,_RINvNtCs7qDQvy6XYpV_18test_fuzz_internal4dirs19path_from_args_typeNtNtNtCskugcK1jf7rU_7default10no_default13target_fuzz__4ArgsEB18_
FN:136,_RINvNtCs7qDQvy6XYpV_18test_fuzz_internal4dirs19path_from_args_typeNtNtNtCskugcK1jf7rU_7default7default13target_fuzz__4ArgsEB18_
FN:136,_RINvNtCs7qDQvy6XYpV_18test_fuzz_internal4dirs19path_from_args_typeNtNvNtNtCskugcK1jf7rU_7default10no_default13target_fuzz__10write_args4ArgsEB1a_
FN:136,_RINvNtCs7qDQvy6XYpV_18test_fuzz_internal4dirs19path_from_args_typeNtNvNtNtCskugcK1jf7rU_7default7default13target_fuzz__10write_args4ArgsEB1a_
FN:32,_RINvNtCs7qDQvy6XYpV_18test_fuzz_internal4dirs31corpus_directory_from_args_typeNtNvNtNtCskugcK1jf7rU_7default10no_default13target_fuzz__10write_args4ArgsEB1m_
FN:32,_RINvNtCs7qDQvy6XYpV_18test_fuzz_internal4dirs31corpus_directory_from_args_typeNtNvNtNtCskugcK1jf7rU_7default7default13target_fuzz__10write_args4ArgsEB1m_
FN:22,_RINvNtCs7qDQvy6XYpV_18test_fuzz_internal4dirs37generic_args_directory_from_args_typeNtNtNtCskugcK1jf7rU_7default10no_default13target_fuzz__4ArgsEB1q_
FN:22,_RINvNtCs7qDQvy6XYpV_18test_fuzz_internal4dirs37generic_args_directory_from_args_typeNtNtNtCskugcK1jf7rU_7default7default13target_fuzz__4ArgsEB1q_
FN:12,_RINvNtCs7qDQvy6XYpV_18test_fuzz_internal4dirs42impl_generic_args_directory_from_args_typeNtNtNtCskugcK1jf7rU_7default10no_default13target_fuzz__4ArgsEB1v_
FN:12,_RINvNtCs7qDQvy6XYpV_18test_fuzz_internal4dirs42impl_generic_args_directory_from_args_typeNtNtNtCskugcK1jf7rU_7default7default13target_fuzz__4ArgsEB1v_
FN:140,_RNCINvNtCs7qDQvy6XYpV_18test_fuzz_internal4dirs19path_from_args_typeNtNtNtCskugcK1jf7rU_7default10no_default13target_fuzz__4ArgsE0B1a_
FN:140,_RNCINvNtCs7qDQvy6XYpV_18test_fuzz_internal4dirs19path_from_args_typeNtNtNtCskugcK1jf7rU_7default7default13target_fuzz__4ArgsE0B1a_
FN:140,_RNCINvNtCs7qDQvy6XYpV_18test_fuzz_internal4dirs19path_from_args_typeNtNvNtNtCskugcK1jf7rU_7default10no_default13target_fuzz__10write_args4ArgsE0B1c_
FN:140,_RNCINvNtCs7qDQvy6XYpV_18test_fuzz_internal4dirs19path_from_args_typeNtNvNtNtCskugcK1jf7rU_7default7default13target_fuzz__10write_args4ArgsE0B1c_
FN:136,_RINvNtCs7tkdMjTuzcM_18test_fuzz_internal4dirs19path_from_args_typeNtNtNtCs7Ozwe4CVtv1_7default10no_default13target_fuzz__4ArgsEB18_
FN:136,_RINvNtCs7tkdMjTuzcM_18test_fuzz_internal4dirs19path_from_args_typeNtNtNtCs7Ozwe4CVtv1_7default7default13target_fuzz__4ArgsEB18_
FN:136,_RINvNtCs7tkdMjTuzcM_18test_fuzz_internal4dirs19path_from_args_typeNtNvNtNtCs7Ozwe4CVtv1_7default10no_default13target_fuzz__10write_args4ArgsEB1a_
FN:136,_RINvNtCs7tkdMjTuzcM_18test_fuzz_internal4dirs19path_from_args_typeNtNvNtNtCs7Ozwe4CVtv1_7default7default13target_fuzz__10write_args4ArgsEB1a_
FN:32,_RINvNtCs7tkdMjTuzcM_18test_fuzz_internal4dirs31corpus_directory_from_args_typeNtNvNtNtCs7Ozwe4CVtv1_7default10no_default13target_fuzz__10write_args4ArgsEB1m_
FN:32,_RINvNtCs7tkdMjTuzcM_18test_fuzz_internal4dirs31corpus_directory_from_args_typeNtNvNtNtCs7Ozwe4CVtv1_7default7default13target_fuzz__10write_args4ArgsEB1m_
FN:22,_RINvNtCs7tkdMjTuzcM_18test_fuzz_internal4dirs37generic_args_directory_from_args_typeNtNtNtCs7Ozwe4CVtv1_7default10no_default13target_fuzz__4ArgsEB1q_
FN:22,_RINvNtCs7tkdMjTuzcM_18test_fuzz_internal4dirs37generic_args_directory_from_args_typeNtNtNtCs7Ozwe4CVtv1_7default7default13target_fuzz__4ArgsEB1q_
FN:12,_RINvNtCs7tkdMjTuzcM_18test_fuzz_internal4dirs42impl_generic_args_directory_from_args_typeNtNtNtCs7Ozwe4CVtv1_7default10no_default13target_fuzz__4ArgsEB1v_
FN:12,_RINvNtCs7tkdMjTuzcM_18test_fuzz_internal4dirs42impl_generic_args_directory_from_args_typeNtNtNtCs7Ozwe4CVtv1_7default7default13target_fuzz__4ArgsEB1v_
FN:140,_RNCINvNtCs7tkdMjTuzcM_18test_fuzz_internal4dirs19path_from_args_typeNtNtNtCs7Ozwe4CVtv1_7default10no_default13target_fuzz__4ArgsE0B1a_
FN:140,_RNCINvNtCs7tkdMjTuzcM_18test_fuzz_internal4dirs19path_from_args_typeNtNtNtCs7Ozwe4CVtv1_7default7default13target_fuzz__4ArgsE0B1a_
FN:140,_RNCINvNtCs7tkdMjTuzcM_18test_fuzz_internal4dirs19path_from_args_typeNtNvNtNtCs7Ozwe4CVtv1_7default10no_default13target_fuzz__10write_args4ArgsE0B1c_
FN:140,_RNCINvNtCs7tkdMjTuzcM_18test_fuzz_internal4dirs19path_from_args_typeNtNvNtNtCs7Ozwe4CVtv1_7default7default13target_fuzz__10write_args4ArgsE0B1c_
FN:136,_RINvNtCs7qDQvy6XYpV_18test_fuzz_internal4dirs19path_from_args_typeNtNtCsjYKnve2EfMB_4from15bar_from_fuzz__4ArgsEB16_
FN:136,_RINvNtCs7qDQvy6XYpV_18test_fuzz_internal4dirs19path_from_args_typeNtNtCsjYKnve2EfMB_4from15baz_into_fuzz__4ArgsEB16_
FN:136,_RINvNtCs7qDQvy6XYpV_18test_fuzz_internal4dirs19path_from_args_typeNtNtCsjYKnve2EfMB_4from19baz_try_from_fuzz__4ArgsEB16_
FN:136,_RINvNtCs7qDQvy6XYpV_18test_fuzz_internal4dirs19path_from_args_typeNtNvNtCsjYKnve2EfMB_4from15bar_from_fuzz__10write_args4ArgsEB18_
FN:136,_RINvNtCs7qDQvy6XYpV_18test_fuzz_internal4dirs19path_from_args_typeNtNvNtCsjYKnve2EfMB_4from15baz_into_fuzz__10write_args4ArgsEB18_
FN:136,_RINvNtCs7qDQvy6XYpV_18test_fuzz_internal4dirs19path_from_args_typeNtNvNtCsjYKnve2EfMB_4from19baz_try_from_fuzz__10write_args4ArgsEB18_
FN:32,_RINvNtCs7qDQvy6XYpV_18test_fuzz_internal4dirs31corpus_directory_from_args_typeNtNvNtCsjYKnve2EfMB_4from15bar_from_fuzz__10write_args4ArgsEB1k_
FN:32,_RINvNtCs7qDQvy6XYpV_18test_fuzz_internal4dirs31corpus_directory_from_args_typeNtNvNtCsjYKnve2EfMB_4from15baz_into_fuzz__10write_args4ArgsEB1k_
FN:32,_RINvNtCs7qDQvy6XYpV_18test_fuzz_internal4dirs31corpus_directory_from_args_typeNtNvNtCsjYKnve2EfMB_4from19baz_try_from_fuzz__10write_args4ArgsEB1k_
FN:22,_RINvNtCs7qDQvy6XYpV_18test_fuzz_internal4dirs37generic_args_directory_from_args_typeNtNtCsjYKnve2EfMB_4from15bar_from_fuzz__4ArgsEB1o_
FN:22,_RINvNtCs7qDQvy6XYpV_18test_fuzz_internal4dirs37generic_args_directory_from_args_typeNtNtCsjYKnve2EfMB_4from15baz_into_fuzz__4ArgsEB1o_
FN:22,_RINvNtCs7qDQvy6XYpV_18test_fuzz_internal4dirs37generic_args_directory_from_args_typeNtNtCsjYKnve2EfMB_4from19baz_try_from_fuzz__4ArgsEB1o_
FN:12,_RINvNtCs7qDQvy6XYpV_18test_fuzz_internal4dirs42impl_generic_args_directory_from_args_typeNtNtCsjYKnve2EfMB_4from15bar_from_fuzz__4ArgsEB1t_
FN:12,_RINvNtCs7qDQvy6XYpV_18test_fuzz_internal4dirs42impl_generic_args_directory_from_args_typeNtNtCsjYKnve2EfMB_4from15baz_into_fuzz__4ArgsEB1t_
FN:12,_RINvNtCs7qDQvy6XYpV_18test_fuzz_internal4dirs42impl_generic_args_directory_from_args_typeNtNtCsjYKnve2EfMB_4from19baz_try_from_fuzz__4ArgsEB1t_
FN:140,_RNCINvNtCs7qDQvy6XYpV_18test_fuzz_internal4dirs19path_from_args_typeNtNtCsjYKnve2EfMB_4from15bar_from_fuzz__4ArgsE0B18_
FN:140,_RNCINvNtCs7qDQvy6XYpV_18test_fuzz_internal4dirs19path_from_args_typeNtNtCsjYKnve2EfMB_4from15baz_into_fuzz__4ArgsE0B18_
FN:140,_RNCINvNtCs7qDQvy6XYpV_18test_fuzz_internal4dirs19path_from_args_typeNtNtCsjYKnve2EfMB_4from19baz_try_from_fuzz__4ArgsE0B18_
FN:140,_RNCINvNtCs7qDQvy6XYpV_18test_fuzz_internal4dirs19path_from_args_typeNtNvNtCsjYKnve2EfMB_4from15bar_from_fuzz__10write_args4ArgsE0B1a_
FN:140,_RNCINvNtCs7qDQvy6XYpV_18test_fuzz_internal4dirs19path_from_args_typeNtNvNtCsjYKnve2EfMB_4from15baz_into_fuzz__10write_args4ArgsE0B1a_
FN:140,_RNCINvNtCs7qDQvy6XYpV_18test_fuzz_internal4dirs19path_from_args_typeNtNvNtCsjYKnve2EfMB_4from19baz_try_from_fuzz__10write_args4ArgsE0B1a_
FN:136,_RINvNtCs7qDQvy6XYpV_18test_fuzz_internal4dirs19path_from_args_typeNtNtCs1URDLWWjTVx_4from15bar_from_fuzz__4ArgsEB16_
FN:136,_RINvNtCs7qDQvy6XYpV_18test_fuzz_internal4dirs19path_from_args_typeNtNtCs1URDLWWjTVx_4from15baz_into_fuzz__4ArgsEB16_
FN:136,_RINvNtCs7qDQvy6XYpV_18test_fuzz_internal4dirs19path_from_args_typeNtNtCs1URDLWWjTVx_4from19baz_try_from_fuzz__4ArgsEB16_
FN:136,_RINvNtCs7qDQvy6XYpV_18test_fuzz_internal4dirs19path_from_args_typeNtNvNtCs1URDLWWjTVx_4from15bar_from_fuzz__10write_args4ArgsEB18_
FN:136,_RINvNtCs7qDQvy6XYpV_18test_fuzz_internal4dirs19path_from_args_typeNtNvNtCs1URDLWWjTVx_4from15baz_into_fuzz__10write_args4ArgsEB18_
FN:136,_RINvNtCs7qDQvy6XYpV_18test_fuzz_internal4dirs19path_from_args_typeNtNvNtCs1URDLWWjTVx_4from19baz_try_from_fuzz__10write_args4ArgsEB18_
FN:32,_RINvNtCs7qDQvy6XYpV_18test_fuzz_internal4dirs31corpus_directory_from_args_typeNtNvNtCs1URDLWWjTVx_4from15bar_from_fuzz__10write_args4ArgsEB1k_
FN:32,_RINvNtCs7qDQvy6XYpV_18test_fuzz_internal4dirs31corpus_directory_from_args_typeNtNvNtCs1URDLWWjTVx_4from15baz_into_fuzz__10write_args4ArgsEB1k_
FN:32,_RINvNtCs7qDQvy6XYpV_18test_fuzz_internal4dirs31corpus_directory_from_args_typeNtNvNtCs1URDLWWjTVx_4from19baz_try_from_fuzz__10write_args4ArgsEB1k_
FN:22,_RINvNtCs7qDQvy6XYpV_18test_fuzz_internal4dirs37generic_args_directory_from_args_typeNtNtCs1URDLWWjTVx_4from15bar_from_fuzz__4ArgsEB1o_
FN:22,_RINvNtCs7qDQvy6XYpV_18test_fuzz_internal4dirs37generic_args_directory_from_args_typeNtNtCs1URDLWWjTVx_4from15baz_into_fuzz__4ArgsEB1o_
FN:22,_RINvNtCs7qDQvy6XYpV_18test_fuzz_internal4dirs37generic_args_directory_from_args_typeNtNtCs1URDLWWjTVx_4from19baz_try_from_fuzz__4ArgsEB1o_
FN:12,_RINvNtCs7qDQvy6XYpV_18test_fuzz_internal4dirs42impl_generic_args_directory_from_args_typeNtNtCs1URDLWWjTVx_4from15bar_from_fuzz__4ArgsEB1t_
FN:12,_RINvNtCs7qDQvy6XYpV_18test_fuzz_internal4dirs42impl_generic_args_directory_from_args_typeNtNtCs1URDLWWjTVx_4from15baz_into_fuzz__4ArgsEB1t_
FN:12,_RINvNtCs7qDQvy6XYpV_18test_fuzz_internal4dirs42impl_generic_args_directory_from_args_typeNtNtCs1URDLWWjTVx_4from19baz_try_from_fuzz__4ArgsEB1t_
FN:140,_RNCINvNtCs7qDQvy6XYpV_18test_fuzz_internal4dirs19path_from_args_typeNtNtCs1URDLWWjTVx_4from15bar_from_fuzz__4ArgsE0B18_
FN:140,_RNCINvNtCs7qDQvy6XYpV_18test_fuzz_internal4dirs19path_from_args_typeNtNtCs1URDLWWjTVx_4from15baz_into_fuzz__4ArgsE0B18_
FN:140,_RNCINvNtCs7qDQvy6XYpV_18test_fuzz_internal4dirs19path_from_args_typeNtNtCs1URDLWWjTVx_4from19baz_try_from_fuzz__4ArgsE0B18_
FN:140,_RNCINvNtCs7qDQvy6XYpV_18test_fuzz_internal4dirs19path_from_args_typeNtNvNtCs1URDLWWjTVx_4from15bar_from_fuzz__10write_args4ArgsE0B1a_
FN:140,_RNCINvNtCs7qDQvy6XYpV_18test_fuzz_internal4dirs19path_from_args_typeNtNvNtCs1URDLWWjTVx_4from15baz_into_fuzz__10write_args4ArgsE0B1a_
FN:140,_RNCINvNtCs7qDQvy6XYpV_18test_fuzz_internal4dirs19path_from_args_typeNtNvNtCs1URDLWWjTVx_4from19baz_try_from_fuzz__10write_args4ArgsE0B1a_
FN:136,_RINvNtCs7tkdMjTuzcM_18test_fuzz_internal4dirs19path_from_args_typeNtNtCsbfvKuJfSASN_4from15bar_from_fuzz__4ArgsEB16_
FN:136,_RINvNtCs7tkdMjTuzcM_18test_fuzz_internal4dirs19path_from_args_typeNtNtCsbfvKuJfSASN_4from15baz_into_fuzz__4ArgsEB16_
FN:136,_RINvNtCs7tkdMjTuzcM_18test_fuzz_internal4dirs19path_from_args_typeNtNtCsbfvKuJfSASN_4from19baz_try_from_fuzz__4ArgsEB16_
FN:136,_RINvNtCs7tkdMjTuzcM_18test_fuzz_internal4dirs19path_from_args_typeNtNvNtCsbfvKuJfSASN_4from15bar_from_fuzz__10write_args4ArgsEB18_
FN:136,_RINvNtCs7tkdMjTuzcM_18test_fuzz_internal4dirs19path_from_args_typeNtNvNtCsbfvKuJfSASN_4from15baz_into_fuzz__10write_args4ArgsEB18_
FN:136,_RINvNtCs7tkdMjTuzcM_18test_fuzz_internal4dirs19path_from_args_typeNtNvNtCsbfvKuJfSASN_4from19baz_try_from_fuzz__10write_args4ArgsEB18_
FN:32,_RINvNtCs7tkdMjTuzcM_18test_fuzz_internal4dirs31corpus_directory_from_args_typeNtNvNtCsbfvKuJfSASN_4from15bar_from_fuzz__10write_args4ArgsEB1k_
FN:32,_RINvNtCs7tkdMjTuzcM_18test_fuzz_internal4dirs31corpus_directory_from_args_typeNtNvNtCsbfvKuJfSASN_4from15baz_into_fuzz__10write_args4ArgsEB1k_
FN:32,_RINvNtCs7tkdMjTuzcM_18test_fuzz_internal4dirs31corpus_directory_from_args_typeNtNvNtCsbfvKuJfSASN_4from19baz_try_from_fuzz__10write_args4ArgsEB1k_
FN:22,_RINvNtCs7tkdMjTuzcM_18test_fuzz_internal4dirs37generic_args_directory_from_args_typeNtNtCsbfvKuJfSASN_4from15bar_from_fuzz__4ArgsEB1o_
FN:22,_RINvNtCs7tkdMjTuzcM_18test_fuzz_internal4dirs37generic_args_directory_from_args_typeNtNtCsbfvKuJfSASN_4from15baz_into_fuzz__4ArgsEB1o_
FN:22,_RINvNtCs7tkdMjTuzcM_18test_fuzz_internal4dirs37generic_args_directory_from_args_typeNtNtCsbfvKuJfSASN_4from19baz_try_from_fuzz__4ArgsEB1o_
FN:12,_RINvNtCs7tkdMjTuzcM_18test_fuzz_internal4dirs42impl_generic_args_directory_from_args_typeNtNtCsbfvKuJfSASN_4from15bar_from_fuzz__4ArgsEB1t_
FN:12,_RINvNtCs7tkdMjTuzcM_18test_fuzz_internal4dirs42impl_generic_args_directory_from_args_typeNtNtCsbfvKuJfSASN_4from15baz_into_fuzz__4ArgsEB1t_
FN:12,_RINvNtCs7tkdMjTuzcM_18test_fuzz_internal4dirs42impl_generic_args_directory_from_args_typeNtNtCsbfvKuJfSASN_4from19baz_try_from_fuzz__4ArgsEB1t_
FN:140,_RNCINvNtCs7tkdMjTuzcM_18test_fuzz_internal4dirs19path_from_args_typeNtNtCsbfvKuJfSASN_4from15bar_from_fuzz__4ArgsE0B18_
FN:140,_RNCINvNtCs7tkdMjTuzcM_18test_fuzz_internal4dirs19path_from_args_typeNtNtCsbfvKuJfSASN_4from15baz_into_fuzz__4ArgsE0B18_
FN:140,_RNCINvNtCs7tkdMjTuzcM_18test_fuzz_internal4dirs19path_from_args_typeNtNtCsbfvKuJfSASN_4from19baz_try_from_fuzz__4ArgsE0B18_
FN:140,_RNCINvNtCs7tkdMjTuzcM_18test_fuzz_internal4dirs19path_from_args_typeNtNvNtCsbfvKuJfSASN_4from15bar_from_fuzz__10write_args4ArgsE0B1a_
FN:140,_RNCINvNtCs7tkdMjTuzcM_18test_fuzz_internal4dirs19path_from_args_typeNtNvNtCsbfvKuJfSASN_4from15baz_into_fuzz__10write_args4ArgsE0B1a_
FN:140,_RNCINvNtCs7tkdMjTuzcM_18test_fuzz_internal4dirs19path_from_args_typeNtNvNtCsbfvKuJfSASN_4from19baz_try_from_fuzz__10write_args4ArgsE0B1a_
FN:136,_RINvNtCs7tkdMjTuzcM_18test_fuzz_internal4dirs19path_from_args_typeINtNtCslA1LfyM8Akf_7generic14baz_qux_fuzz__4ArgsNtB17_3BarEEB17_
FN:136,_RINvNtCs7tkdMjTuzcM_18test_fuzz_internal4dirs19path_from_args_typeINtNtCslA1LfyM8Akf_7generic20struct_target_fuzz__4ArgsNtB17_3BarEEB17_
FN:136,_RINvNtCs7tkdMjTuzcM_18test_fuzz_internal4dirs19path_from_args_typeINtNtCslA1LfyM8Akf_7generic20struct_target_fuzz__4ArgsNtB17_3FooEEB17_
FN:136,_RINvNtCs7tkdMjTuzcM_18test_fuzz_internal4dirs19path_from_args_typeINtNtCslA1LfyM8Akf_7generic26struct_target_bound_fuzz__4ArgsNtB17_3BarINtB17_3BazB20_EEEB17_
FN:136,_RINvNtCs7tkdMjTuzcM_18test_fuzz_internal4dirs19path_from_args_typeINtNtCslA1LfyM8Akf_7generic26struct_target_bound_fuzz__4ArgsNtB17_3FooINtB17_3BazB20_EEEB17_
FN:136,_RINvNtCs7tkdMjTuzcM_18test_fuzz_internal4dirs19path_from_args_typeINtNtCslA1LfyM8Akf_7generic33struct_target_where_clause_fuzz__4ArgsNtB17_3BarINtB17_3BazB27_EEEB17_
FN:136,_RINvNtCs7tkdMjTuzcM_18test_fuzz_internal4dirs19path_from_args_typeINtNtCslA1LfyM8Akf_7generic33struct_target_where_clause_fuzz__4ArgsNtB17_3FooINtB17_3BazB27_EEEB17_
FN:136,_RINvNtCs7tkdMjTuzcM_18test_fuzz_internal4dirs19path_from_args_typeINtNtNtCslA1LfyM8Akf_7generic27receiverless_trait_function20struct_target_fuzz__4ArgsNtB19_3BarEEB19_
FN:136,_RINvNtCs7tkdMjTuzcM_18test_fuzz_internal4dirs19path_from_args_typeINtNvNtCslA1LfyM8Akf_7generic14baz_qux_fuzz__10write_args4ArgsNtB19_3BarEEB19_
FN:136,_RINvNtCs7tkdMjTuzcM_18test_fuzz_internal4dirs19path_from_args_typeINtNvNtCslA1LfyM8Akf_7generic20struct_target_fuzz__10write_args4ArgsNtB19_3BarEEB19_
FN:136,_RINvNtCs7tkdMjTuzcM_18test_fuzz_internal4dirs19path_from_args_typeINtNvNtCslA1LfyM8Akf_7generic20struct_target_fuzz__10write_args4ArgsNtB19_3FooEEB19_
FN:136,_RINvNtCs7tkdMjTuzcM_18test_fuzz_internal4dirs19path_from_args_typeINtNvNtCslA1LfyM8Akf_7generic26struct_target_bound_fuzz__10write_args4ArgsNtB19_3BarINtB19_3BazB2e_EEEB19_
FN:136,_RINvNtCs7tkdMjTuzcM_18test_fuzz_internal4dirs19path_from_args_typeINtNvNtCslA1LfyM8Akf_7generic26struct_target_bound_fuzz__10write_args4ArgsNtB19_3FooINtB19_3BazB2e_EEEB19_
FN:136,_RINvNtCs7tkdMjTuzcM_18test_fuzz_internal4dirs19path_from_args_typeINtNvNtCslA1LfyM8Akf_7generic33struct_target_where_clause_fuzz__10write_args4ArgsNtB19_3BarINtB19_3BazB2l_EEEB19_
FN:136,_RINvNtCs7tkdMjTuzcM_18test_fuzz_internal4dirs19path_from_args_typeINtNvNtCslA1LfyM8Akf_7generic33struct_target_where_clause_fuzz__10write_args4ArgsNtB19_3FooINtB19_3BazB2l_EEEB19_
FN:136,_RINvNtCs7tkdMjTuzcM_18test_fuzz_internal4dirs19path_from_args_typeINtNvNtNtCslA1LfyM8Akf_7generic27receiverless_trait_function20struct_target_fuzz__10write_args4ArgsNtB1b_3BarEEB1b_
FN:136,_RINvNtCs7tkdMjTuzcM_18test_fuzz_internal4dirs19path_from_args_typeNtNtCslA1LfyM8Akf_7generic38struct_target_only_generic_args_fuzz__4ArgsEB16_
FN:32,_RINvNtCs7tkdMjTuzcM_18test_fuzz_internal4dirs31corpus_directory_from_args_typeINtNvNtCslA1LfyM8Akf_7generic14baz_qux_fuzz__10write_args4ArgsNtB1l_3BarEEB1l_
FN:32,_RINvNtCs7tkdMjTuzcM_18test_fuzz_internal4dirs31corpus_directory_from_args_typeINtNvNtCslA1LfyM8Akf_7generic20struct_target_fuzz__10write_args4ArgsNtB1l_3BarEEB1l_
FN:32,_RINvNtCs7tkdMjTuzcM_18test_fuzz_internal4dirs31corpus_directory_from_args_typeINtNvNtCslA1LfyM8Akf_7generic20struct_target_fuzz__10write_args4ArgsNtB1l_3FooEEB1l_
FN:32,_RINvNtCs7tkdMjTuzcM_18test_fuzz_internal4dirs31corpus_directory_from_args_typeINtNvNtCslA1LfyM8Akf_7generic26struct_target_bound_fuzz__10write_args4ArgsNtB1l_3BarINtB1l_3BazB2q_EEEB1l_
FN:32,_RINvNtCs7tkdMjTuzcM_18test_fuzz_internal4dirs31corpus_directory_from_args_typeINtNvNtCslA1LfyM8Akf_7generic26struct_target_bound_fuzz__10write_args4ArgsNtB1l_3FooINtB1l_3BazB2q_EEEB1l_
FN:32,_RINvNtCs7tkdMjTuzcM_18test_fuzz_internal4dirs31corpus_directory_from_args_typeINtNvNtCslA1LfyM8Akf_7generic33struct_target_where_clause_fuzz__10write_args4ArgsNtB1l_3BarINtB1l_3BazB2x_EEEB1l_
FN:32,_RINvNtCs7tkdMjTuzcM_18test_fuzz_internal4dirs31corpus_directory_from_args_typeINtNvNtCslA1LfyM8Akf_7generic33struct_target_where_clause_fuzz__10write_args4ArgsNtB1l_3FooINtB1l_3BazB2x_EEEB1l_
FN:32,_RINvNtCs7tkdMjTuzcM_18test_fuzz_internal4dirs31corpus_directory_from_args_typeINtNvNtNtCslA1LfyM8Akf_7generic27receiverless_trait_function20struct_target_fuzz__10write_args4ArgsNtB1n_3BarEEB1n_
FN:22,_RINvNtCs7tkdMjTuzcM_18test_fuzz_internal4dirs37generic_args_directory_from_args_typeINtNtCslA1LfyM8Akf_7generic14baz_qux_fuzz__4ArgsNtB1p_3BarEEB1p_
FN:22,_RINvNtCs7tkdMjTuzcM_18test_fuzz_internal4dirs37generic_args_directory_from_args_typeINtNtCslA1LfyM8Akf_7generic20struct_target_fuzz__4ArgsNtB1p_3BarEEB1p_
FN:22,_RINvNtCs7tkdMjTuzcM_18test_fuzz_internal4dirs37generic_args_directory_from_args_typeINtNtCslA1LfyM8Akf_7generic20struct_target_fuzz__4ArgsNtB1p_3FooEEB1p_
FN:22,_RINvNtCs7tkdMjTuzcM_18test_fuzz_internal4dirs37generic_args_directory_from_args_typeINtNtCslA1LfyM8Akf_7generic26struct_target_bound_fuzz__4ArgsNtB1p_3BarINtB1p_3BazB2i_EEEB1p_
FN:22,_RINvNtCs7tkdMjTuzcM_18test_fuzz_internal4dirs37generic_args_directory_from_args_typeINtNtCslA1LfyM8Akf_7generic26struct_target_bound_fuzz__4ArgsNtB1p_3FooINtB1p_3BazB2i_EEEB1p_
FN:22,_RINvNtCs7tkdMjTuzcM_18test_fuzz_internal4dirs37generic_args_directory_from_args_typeINtNtCslA1LfyM8Akf_7generic33struct_target_where_clause_fuzz__4ArgsNtB1p_3BarINtB1p_3BazB2p_EEEB1p_
FN:22,_RINvNtCs7tkdMjTuzcM_18test_fuzz_internal4dirs37generic_args_directory_from_args_typeINtNtCslA1LfyM8Akf_7generic33struct_target_where_clause_fuzz__4ArgsNtB1p_3FooINtB1p_3BazB2p_EEEB1p_
FN:22,_RINvNtCs7tkdMjTuzcM_18test_fuzz_internal4dirs37generic_args_directory_from_args_typeINtNtNtCslA1LfyM8Akf_7generic27receiverless_trait_function20struct_target_fuzz__4ArgsNtB1r_3BarEEB1r_
FN:22,_RINvNtCs7tkdMjTuzcM_18test_fuzz_internal4dirs37generic_args_directory_from_args_typeNtNtCslA1LfyM8Akf_7generic38struct_target_only_generic_args_fuzz__4ArgsEB1o_
FN:12,_RINvNtCs7tkdMjTuzcM_18test_fuzz_internal4dirs42impl_generic_args_directory_from_args_typeINtNtCslA1LfyM8Akf_7generic14baz_qux_fuzz__4ArgsNtB1u_3BarEEB1u_
FN:12,_RINvNtCs7tkdMjTuzcM_18test_fuzz_internal4dirs42impl_generic_args_directory_from_args_typeINtNtCslA1LfyM8Akf_7generic20struct_target_fuzz__4ArgsNtB1u_3BarEEB1u_
FN:12,_RINvNtCs7tkdMjTuzcM_18test_fuzz_internal4dirs42impl_generic_args_directory_from_args_typeINtNtCslA1LfyM8Akf_7generic20struct_target_fuzz__4ArgsNtB1u_3FooEEB1u_
FN:12,_RINvNtCs7tkdMjTuzcM_18test_fuzz_internal4dirs42impl_generic_args_directory_from_args_typeINtNtCslA1LfyM8Akf_7generic26struct_target_bound_fuzz__4ArgsNtB1u_3BarINtB1u_3BazB2n_EEEB1u_
FN:12,_RINvNtCs7tkdMjTuzcM_18test_fuzz_internal4dirs42impl_generic_args_directory_from_args_typeINtNtCslA1LfyM8Akf_7generic26struct_target_bound_fuzz__4ArgsNtB1u_3FooINtB1u_3BazB2n_EEEB1u_
FN:12,_RINvNtCs7tkdMjTuzcM_18test_fuzz_internal4dirs42impl_generic_args_directory_from_args_typeINtNtCslA1LfyM8Akf_7generic33struct_target_where_clause_fuzz__4ArgsNtB1u_3BarINtB1u_3BazB2u_EEEB1u_
FN:12,_RINvNtCs7tkdMjTuzcM_18test_fuzz_internal4dirs42impl_generic_args_directory_from_args_typeINtNtCslA1LfyM8Akf_7generic33struct_target_where_clause_fuzz__4ArgsNtB1u_3FooINtB1u_3BazB2u_EEEB1u_
FN:12,_RINvNtCs7tkdMjTuzcM_18test_fuzz_internal4dirs42impl_generic_args_directory_from_args_typeINtNtNtCslA1LfyM8Akf_7generic27receiverless_trait_function20struct_target_fuzz__4ArgsNtB1w_3BarEEB1w_
FN:12,_RINvNtCs7tkdMjTuzcM_18test_fuzz_internal4dirs42impl_generic_args_directory_from_args_typeNtNtCslA1LfyM8Akf_7generic38struct_target_only_generic_args_fuzz__4ArgsEB1t_
FN:140,_RNCINvNtCs7tkdMjTuzcM_18test_fuzz_internal4dirs19path_from_args_typeINtNtCslA1LfyM8Akf_7generic14baz_qux_fuzz__4ArgsNtB19_3BarEE0B19_
FN:140,_RNCINvNtCs7tkdMjTuzcM_18test_fuzz_internal4dirs19path_from_args_typeINtNtCslA1LfyM8Akf_7generic20struct_target_fuzz__4ArgsNtB19_3BarEE0B19_
FN:140,_RNCINvNtCs7tkdMjTuzcM_18test_fuzz_internal4dirs19path_from_args_typeINtNtCslA1LfyM8Akf_7generic20struct_target_fuzz__4ArgsNtB19_3FooEE0B19_
FN:140,_RNCINvNtCs7tkdMjTuzcM_18test_fuzz_internal4dirs19path_from_args_typeINtNtCslA1LfyM8Akf_7generic26struct_target_bound_fuzz__4ArgsNtB19_3BarINtB19_3BazB22_EEE0B19_
FN:140,_RNCINvNtCs7tkdMjTuzcM_18test_fuzz_internal4dirs19path_from_args_typeINtNtCslA1LfyM8Akf_7generic26struct_target_bound_fuzz__4ArgsNtB19_3FooINtB19_3BazB22_EEE0B19_
FN:140,_RNCINvNtCs7tkdMjTuzcM_18test_fuzz_internal4dirs19path_from_args_typeINtNtCslA1LfyM8Akf_7generic33struct_target_where_clause_fuzz__4ArgsNtB19_3BarINtB19_3BazB29_EEE0B19_
FN:140,_RNCINvNtCs7tkdMjTuzcM_18test_fuzz_internal4dirs19path_from_args_typeINtNtCslA1LfyM8Akf_7generic33struct_target_where_clause_fuzz__4ArgsNtB19_3FooINtB19_3BazB29_EEE0B19_
FN:140,_RNCINvNtCs7tkdMjTuzcM_18test_fuzz_internal4dirs19path_from_args_typeINtNtNtCslA1LfyM8Akf_7generic27receiverless_trait_function20struct_target_fuzz__4ArgsNtB1b_3BarEE0B1b_
FN:140,_RNCINvNtCs7tkdMjTuzcM_18test_fuzz_internal4dirs19path_from_args_typeINtNvNtCslA1LfyM8Akf_7generic14baz_qux_fuzz__10write_args4ArgsNtB1b_3BarEE0B1b_
FN:140,_RNCINvNtCs7tkdMjTuzcM_18test_fuzz_internal4dirs19path_from_args_typeINtNvNtCslA1LfyM8Akf_7generic20struct_target_fuzz__10write_args4ArgsNtB1b_3BarEE0B1b_
FN:140,_RNCINvNtCs7tkdMjTuzcM_18test_fuzz_internal4dirs19path_from_args_typeINtNvNtCslA1LfyM8Akf_7generic20struct_target_fuzz__10write_args4ArgsNtB1b_3FooEE0B1b_
FN:140,_RNCINvNtCs7tkdMjTuzcM_18test_fuzz_internal4dirs19path_from_args_typeINtNvNtCslA1LfyM8Akf_7generic26struct_target_bound_fuzz__10write_args4ArgsNtB1b_3BarINtB1b_3BazB2g_EEE0B1b_
FN:140,_RNCINvNtCs7tkdMjTuzcM_18test_fuzz_internal4dirs19path_from_args_typeINtNvNtCslA1LfyM8Akf_7generic26struct_target_bound_fuzz__10write_args4ArgsNtB1b_3FooINtB1b_3BazB2g_EEE0B1b_
FN:140,_RNCINvNtCs7tkdMjTuzcM_18test_fuzz_internal4dirs19path_from_args_typeINtNvNtCslA1LfyM8Akf_7generic33struct_target_where_clause_fuzz__10write_args4ArgsNtB1b_3BarINtB1b_3BazB2n_EEE0B1b_
FN:140,_RNCINvNtCs7tkdMjTuzcM_18test_fuzz_internal4dirs19path_from_args_typeINtNvNtCslA1LfyM8Akf_7generic33struct_target_where_clause_fuzz__10write_args4ArgsNtB1b_3FooINtB1b_3BazB2n_EEE0B1b_
FN:140,_RNCINvNtCs7tkdMjTuzcM_18test_fuzz_internal4dirs19path_from_args_typeINtNvNtNtCslA1LfyM8Akf_7generic27receiverless_trait_function20struct_target_fuzz__10write_args4ArgsNtB1d_3BarEE0B1d_
FN:140,_RNCINvNtCs7tkdMjTuzcM_18test_fuzz_internal4dirs19path_from_args_typeNtNtCslA1LfyM8Akf_7generic38struct_target_only_generic_args_fuzz__4ArgsE0B18_
FN:136,_RINvNtCs7qDQvy6XYpV_18test_fuzz_internal4dirs19path_from_args_typeINtNtCscFYsPowUGCR_7generic14baz_qux_fuzz__4ArgsNtB17_3BarEEB17_
FN:136,_RINvNtCs7qDQvy6XYpV_18test_fuzz_internal4dirs19path_from_args_typeINtNtCscFYsPowUGCR_7generic20struct_target_fuzz__4ArgsNtB17_3BarEEB17_
FN:136,_RINvNtCs7qDQvy6XYpV_18test_fuzz_internal4dirs19path_from_args_typeINtNtCscFYsPowUGCR_7generic20struct_target_fuzz__4ArgsNtB17_3FooEEB17_
FN:136,_RINvNtCs7qDQvy6XYpV_18test_fuzz_internal4dirs19path_from_args_typeINtNtCscFYsPowUGCR_7generic26struct_target_bound_fuzz__4ArgsNtB17_3BarINtB17_3BazB20_EEEB17_
FN:136,_RINvNtCs7qDQvy6XYpV_18test_fuzz_internal4dirs19path_from_args_typeINtNtCscFYsPowUGCR_7generic26struct_target_bound_fuzz__4ArgsNtB17_3FooINtB17_3BazB20_EEEB17_
FN:136,_RINvNtCs7qDQvy6XYpV_18test_fuzz_internal4dirs19path_from_args_typeINtNtCscFYsPowUGCR_7generic33struct_target_where_clause_fuzz__4ArgsNtB17_3BarINtB17_3BazB27_EEEB17_
FN:136,_RINvNtCs7qDQvy6XYpV_18test_fuzz_internal4dirs19path_from_args_typeINtNtCscFYsPowUGCR_7generic33struct_target_where_clause_fuzz__4ArgsNtB17_3FooINtB17_3BazB27_EEEB17_
FN:136,_RINvNtCs7qDQvy6XYpV_18test_fuzz_internal4dirs19path_from_args_typeINtNtNtCscFYsPowUGCR_7generic27receiverless_trait_function20struct_target_fuzz__4ArgsNtB19_3BarEEB19_
FN:136,_RINvNtCs7qDQvy6XYpV_18test_fuzz_internal4dirs19path_from_args_typeINtNvNtCscFYsPowUGCR_7generic14baz_qux_fuzz__10write_args4ArgsNtB19_3BarEEB19_
FN:136,_RINvNtCs7qDQvy6XYpV_18test_fuzz_internal4dirs19path_from_args_typeINtNvNtCscFYsPowUGCR_7generic20struct_target_fuzz__10write_args4ArgsNtB19_3BarEEB19_
FN:136,_RINvNtCs7qDQvy6XYpV_18test_fuzz_internal4dirs19path_from_args_typeINtNvNtCscFYsPowUGCR_7generic20struct_target_fuzz__10write_args4ArgsNtB19_3FooEEB19_
FN:136,_RINvNtCs7qDQvy6XYpV_18test_fuzz_internal4dirs19path_from_args_typeINtNvNtCscFYsPowUGCR_7generic26struct_target_bound_fuzz__10write_args4ArgsNtB19_3BarINtB19_3BazB2e_EEEB19_
FN:136,_RINvNtCs7qDQvy6XYpV_18test_fuzz_internal4dirs19path_from_args_typeINtNvNtCscFYsPowUGCR_7generic26struct_target_bound_fuzz__10write_args4ArgsNtB19_3FooINtB19_3BazB2e_EEEB19_
FN:136,_RINvNtCs7qDQvy6XYpV_18test_fuzz_internal4dirs19path_from_args_typeINtNvNtCscFYsPowUGCR_7generic33struct_target_where_clause_fuzz__10write_args4ArgsNtB19_3BarINtB19_3BazB2l_EEEB19_
FN:136,_RINvNtCs7qDQvy6XYpV_18test_fuzz_internal4dirs19path_from_args_typeINtNvNtCscFYsPowUGCR_7generic33struct_target_where_clause_fuzz__10write_args4ArgsNtB19_3FooINtB19_3BazB2l_EEEB19_
FN:136,_RINvNtCs7qDQvy6XYpV_18test_fuzz_internal4dirs19path_from_args_typeINtNvNtNtCscFYsPowUGCR_7generic27receiverless_trait_function20struct_target_fuzz__10write_args4ArgsNtB1b_3BarEEB1b_
FN:136,_RINvNtCs7qDQvy6XYpV_18test_fuzz_internal4dirs19path_from_args_typeNtNtCscFYsPowUGCR_7generic38struct_target_only_generic_args_fuzz__4ArgsEB16_
FN:32,_RINvNtCs7qDQvy6XYpV_18test_fuzz_internal4dirs31corpus_directory_from_args_typeINtNvNtCscFYsPowUGCR_7generic14baz_qux_fuzz__10write_args4ArgsNtB1l_3BarEEB1l_
FN:32,_RINvNtCs7qDQvy6XYpV_18test_fuzz_internal4dirs31corpus_directory_from_args_typeINtNvNtCscFYsPowUGCR_7generic20struct_target_fuzz__10write_args4ArgsNtB1l_3BarEEB1l_
FN:32,_RINvNtCs7qDQvy6XYpV_18test_fuzz_internal4dirs31corpus_directory_from_args_typeINtNvNtCscFYsPowUGCR_7generic20struct_target_fuzz__10write_args4ArgsNtB1l_3FooEEB1l_
FN:32,_RINvNtCs7qDQvy6XYpV_18test_fuzz_internal4dirs31corpus_directory_from_args_typeINtNvNtCscFYsPowUGCR_7generic26struct_target_bound_fuzz__10write_args4ArgsNtB1l_3BarINtB1l_3BazB2q_EEEB1l_
FN:32,_RINvNtCs7qDQvy6XYpV_18test_fuzz_internal4dirs31corpus_directory_from_args_typeINtNvNtCscFYsPowUGCR_7generic26struct_target_bound_fuzz__10write_args4ArgsNtB1l_3FooINtB1l_3BazB2q_EEEB1l_
FN:32,_RINvNtCs7qDQvy6XYpV_18test_fuzz_internal4dirs31corpus_directory_from_args_typeINtNvNtCscFYsPowUGCR_7generic33struct_target_where_clause_fuzz__10write_args4ArgsNtB1l_3BarINtB1l_3BazB2x_EEEB1l_
FN:32,_RINvNtCs7qDQvy6XYpV_18test_fuzz_internal4dirs31corpus_directory_from_args_typeINtNvNtCscFYsPowUGCR_7generic33struct_target_where_clause_fuzz__10write_args4ArgsNtB1l_3FooINtB1l_3BazB2x_EEEB1l_
FN:32,_RINvNtCs7qDQvy6XYpV_18test_fuzz_internal4dirs31corpus_directory_from_args_typeINtNvNtNtCscFYsPowUGCR_7generic27receiverless_trait_function20struct_target_fuzz__10write_args4ArgsNtB1n_3BarEEB1n_
FN:22,_RINvNtCs7qDQvy6XYpV_18test_fuzz_internal4dirs37generic_args_directory_from_args_typeINtNtCscFYsPowUGCR_7generic14baz_qux_fuzz__4ArgsNtB1p_3BarEEB1p_
FN:22,_RINvNtCs7qDQvy6XYpV_18test_fuzz_internal4dirs37generic_args_directory_from_args_typeINtNtCscFYsPowUGCR_7generic20struct_target_fuzz__4ArgsNtB1p_3BarEEB1p_
FN:22,_RINvNtCs7qDQvy6XYpV_18test_fuzz_internal4dirs37generic_args_directory_from_args_typeINtNtCscFYsPowUGCR_7generic20struct_target_fuzz__4ArgsNtB1p_3FooEEB1p_
FN:22,_RINvNtCs7qDQvy6XYpV_18test_fuzz_internal4dirs37generic_args_directory_from_args_typeINtNtCscFYsPowUGCR_7generic26struct_target_bound_fuzz__4ArgsNtB1p_3BarINtB1p_3BazB2i_EEEB1p_
FN:22,_RINvNtCs7qDQvy6XYpV_18test_fuzz_internal4dirs37generic_args_directory_from_args_typeINtNtCscFYsPowUGCR_7generic26struct_target_bound_fuzz__4ArgsNtB1p_3FooINtB1p_3BazB2i_EEEB1p_
FN:22,_RINvNtCs7qDQvy6XYpV_18test_fuzz_internal4dirs37generic_args_directory_from_args_typeINtNtCscFYsPowUGCR_7generic33struct_target_where_clause_fuzz__4ArgsNtB1p_3BarINtB1p_3BazB2p_EEEB1p_
FN:22,_RINvNtCs7qDQvy6XYpV_18test_fuzz_internal4dirs37generic_args_directory_from_args_typeINtNtCscFYsPowUGCR_7generic33struct_target_where_clause_fuzz__4ArgsNtB1p_3FooINtB1p_3BazB2p_EEEB1p_
FN:22,_RINvNtCs7qDQvy6XYpV_18test_fuzz_internal4dirs37generic_args_directory_from_args_typeINtNtNtCscFYsPowUGCR_7generic27receiverless_trait_function20struct_target_fuzz__4ArgsNtB1r_3BarEEB1r_
FN:22,_RINvNtCs7qDQvy6XYpV_18test_fuzz_internal4dirs37generic_args_directory_from_args_typeNtNtCscFYsPowUGCR_7generic38struct_target_only_generic_args_fuzz__4ArgsEB1o_
FN:12,_RINvNtCs7qDQvy6XYpV_18test_fuzz_internal4dirs42impl_generic_args_directory_from_args_typeINtNtCscFYsPowUGCR_7generic14baz_qux_fuzz__4ArgsNtB1u_3BarEEB1u_
FN:12,_RINvNtCs7qDQvy6XYpV_18test_fuzz_internal4dirs42impl_generic_args_directory_from_args_typeINtNtCscFYsPowUGCR_7generic20struct_target_fuzz__4ArgsNtB1u_3BarEEB1u_
FN:12,_RINvNtCs7qDQvy6XYpV_18test_fuzz_internal4dirs42impl_generic_args_directory_from_args_typeINtNtCscFYsPowUGCR_7generic20struct_target_fuzz__4ArgsNtB1u_3FooEEB1u_
FN:12,_RINvNtCs7qDQvy6XYpV_18test_fuzz_internal4dirs42impl_generic_args_directory_from_args_typeINtNtCscFYsPowUGCR_7generic26struct_target_bound_fuzz__4ArgsNtB1u_3BarINtB1u_3BazB2n_EEEB1u_
FN:12,_RINvNtCs7qDQvy6XYpV_18test_fuzz_internal4dirs42impl_generic_args_directory_from_args_typeINtNtCscFYsPowUGCR_7generic26struct_target_bound_fuzz__4ArgsNtB1u_3FooINtB1u_3BazB2n_EEEB1u_
FN:12,_RINvNtCs7qDQvy6XYpV_18test_fuzz_internal4dirs42impl_generic_args_directory_from_args_typeINtNtCscFYsPowUGCR_7generic33struct_target_where_clause_fuzz__4ArgsNtB1u_3BarINtB1u_3BazB2u_EEEB1u_
FN:12,_RINvNtCs7qDQvy6XYpV_18test_fuzz_internal4dirs42impl_generic_args_directory_from_args_typeINtNtCscFYsPowUGCR_7generic33struct_target_where_clause_fuzz__4ArgsNtB1u_3FooINtB1u_3BazB2u_EEEB1u_
FN:12,_RINvNtCs7qDQvy6XYpV_18test_fuzz_internal4dirs42impl_generic_args_directory_from_args_typeINtNtNtCscFYsPowUGCR_7generic27receiverless_trait_function20struct_target_fuzz__4ArgsNtB1w_3BarEEB1w_
FN:12,_RINvNtCs7qDQvy6XYpV_18test_fuzz_internal4dirs42impl_generic_args_directory_from_args_typeNtNtCscFYsPowUGCR_7generic38struct_target_only_generic_args_fuzz__4ArgsEB1t_
FN:140,_RNCINvNtCs7qDQvy6XYpV_18test_fuzz_internal4dirs19path_from_args_typeINtNtCscFYsPowUGCR_7generic14baz_qux_fuzz__4ArgsNtB19_3BarEE0B19_
FN:140,_RNCINvNtCs7qDQvy6XYpV_18test_fuzz_internal4dirs19path_from_args_typeINtNtCscFYsPowUGCR_7generic20struct_target_fuzz__4ArgsNtB19_3BarEE0B19_
FN:140,_RNCINvNtCs7qDQvy6XYpV_18test_fuzz_internal4dirs19path_from_args_typeINtNtCscFYsPowUGCR_7generic20struct_target_fuzz__4ArgsNtB19_3FooEE0B19_
FN:140,_RNCINvNtCs7qDQvy6XYpV_18test_fuzz_internal4dirs19path_from_args_typeINtNtCscFYsPowUGCR_7generic26struct_target_bound_fuzz__4ArgsNtB19_3BarINtB19_3BazB22_EEE0B19_
FN:140,_RNCINvNtCs7qDQvy6XYpV_18test_fuzz_internal4dirs19path_from_args_typeINtNtCscFYsPowUGCR_7generic26struct_target_bound_fuzz__4ArgsNtB19_3FooINtB19_3BazB22_EEE0B19_
FN:140,_RNCINvNtCs7qDQvy6XYpV_18test_fuzz_internal4dirs19path_from_args_typeINtNtCscFYsPowUGCR_7generic33struct_target_where_clause_fuzz__4ArgsNtB19_3BarINtB19_3BazB29_EEE0B19_
FN:140,_RNCINvNtCs7qDQvy6XYpV_18test_fuzz_internal4dirs19path_from_args_typeINtNtCscFYsPowUGCR_7generic33struct_target_where_clause_fuzz__4ArgsNtB19_3FooINtB19_3BazB29_EEE0B19_
FN:140,_RNCINvNtCs7qDQvy6XYpV_18test_fuzz_internal4dirs19path_from_args_typeINtNtNtCscFYsPowUGCR_7generic27receiverless_trait_function20struct_target_fuzz__4ArgsNtB1b_3BarEE0B1b_
FN:140,_RNCINvNtCs7qDQvy6XYpV_18test_fuzz_internal4dirs19path_from_args_typeINtNvNtCscFYsPowUGCR_7generic14baz_qux_fuzz__10write_args4ArgsNtB1b_3BarEE0B1b_
FN:140,_RNCINvNtCs7qDQvy6XYpV_18test_fuzz_internal4dirs19path_from_args_typeINtNvNtCscFYsPowUGCR_7generic20struct_target_fuzz__10write_args4ArgsNtB1b_3BarEE0B1b_
FN:140,_RNCINvNtCs7qDQvy6XYpV_18test_fuzz_internal4dirs19path_from_args_typeINtNvNtCscFYsPowUGCR_7generic20struct_target_fuzz__10write_args4ArgsNtB1b_3FooEE0B1b_
FN:140,_RNCINvNtCs7qDQvy6XYpV_18test_fuzz_internal4dirs19path_from_args_typeINtNvNtCscFYsPowUGCR_7generic26struct_target_bound_fuzz__10write_args4ArgsNtB1b_3BarINtB1b_3BazB2g_EEE0B1b_
FN:140,_RNCINvNtCs7qDQvy6XYpV_18test_fuzz_internal4dirs19path_from_args_typeINtNvNtCscFYsPowUGCR_7generic26struct_target_bound_fuzz__10write_args4ArgsNtB1b_3FooINtB1b_3BazB2g_EEE0B1b_
FN:140,_RNCINvNtCs7qDQvy6XYpV_18test_fuzz_internal4dirs19path_from_args_typeINtNvNtCscFYsPowUGCR_7generic33struct_target_where_clause_fuzz__10write_args4ArgsNtB1b_3BarINtB1b_3BazB2n_EEE0B1b_
FN:140,_RNCINvNtCs7qDQvy6XYpV_18test_fuzz_internal4dirs19path_from_args_typeINtNvNtCscFYsPowUGCR_7generic33struct_target_where_clause_fuzz__10write_args4ArgsNtB1b_3FooINtB1b_3BazB2n_EEE0B1b_
FN:140,_RNCINvNtCs7qDQvy6XYpV_18test_fuzz_internal4dirs19path_from_args_typeINtNvNtNtCscFYsPowUGCR_7generic27receiverless_trait_function20struct_target_fuzz__10write_args4ArgsNtB1d_3BarEE0B1d_
FN:140,_RNCINvNtCs7qDQvy6XYpV_18test_fuzz_internal4dirs19path_from_args_typeNtNtCscFYsPowUGCR_7generic38struct_target_only_generic_args_fuzz__4ArgsE0B18_
FN:136,_RINvNtCs7qDQvy6XYpV_18test_fuzz_internal4dirs19path_from_args_typeINtNtCscB5GQJ98reT_7generic14baz_qux_fuzz__4ArgsNtB17_3BarEEB17_
FN:136,_RINvNtCs7qDQvy6XYpV_18test_fuzz_internal4dirs19path_from_args_typeINtNtCscB5GQJ98reT_7generic20struct_target_fuzz__4ArgsNtB17_3BarEEB17_
FN:136,_RINvNtCs7qDQvy6XYpV_18test_fuzz_internal4dirs19path_from_args_typeINtNtCscB5GQJ98reT_7generic20struct_target_fuzz__4ArgsNtB17_3FooEEB17_
FN:136,_RINvNtCs7qDQvy6XYpV_18test_fuzz_internal4dirs19path_from_args_typeINtNtCscB5GQJ98reT_7generic26struct_target_bound_fuzz__4ArgsNtB17_3BarINtB17_3BazB20_EEEB17_
FN:136,_RINvNtCs7qDQvy6XYpV_18test_fuzz_internal4dirs19path_from_args_typeINtNtCscB5GQJ98reT_7generic26struct_target_bound_fuzz__4ArgsNtB17_3FooINtB17_3BazB20_EEEB17_
FN:136,_RINvNtCs7qDQvy6XYpV_18test_fuzz_internal4dirs19path_from_args_typeINtNtCscB5GQJ98reT_7generic33struct_target_where_clause_fuzz__4ArgsNtB17_3BarINtB17_3BazB27_EEEB17_
FN:136,_RINvNtCs7qDQvy6XYpV_18test_fuzz_internal4dirs19path_from_args_typeINtNtCscB5GQJ98reT_7generic33struct_target_where_clause_fuzz__4ArgsNtB17_3FooINtB17_3BazB27_EEEB17_
FN:136,_RINvNtCs7qDQvy6XYpV_18test_fuzz_internal4dirs19path_from_args_typeINtNtNtCscB5GQJ98reT_7generic27receiverless_trait_function20struct_target_fuzz__4ArgsNtB19_3BarEEB19_
FN:136,_RINvNtCs7qDQvy6XYpV_18test_fuzz_internal4dirs19path_from_args_typeINtNvNtCscB5GQJ98reT_7generic14baz_qux_fuzz__10write_args4ArgsNtB19_3BarEEB19_
FN:136,_RINvNtCs7qDQvy6XYpV_18test_fuzz_internal4dirs19path_from_args_typeINtNvNtCscB5GQJ98reT_7generic20struct_target_fuzz__10write_args4ArgsNtB19_3BarEEB19_
FN:136,_RINvNtCs7qDQvy6XYpV_18test_fuzz_internal4dirs19path_from_args_typeINtNvNtCscB5GQJ98reT_7generic20struct_target_fuzz__10write_args4ArgsNtB19_3FooEEB19_
FN:136,_RINvNtCs7qDQvy6XYpV_18test_fuzz_internal4dirs19path_from_args_typeINtNvNtCscB5GQJ98reT_7generic26struct_target_bound_fuzz__10write_args4ArgsNtB19_3BarINtB19_3BazB2e_EEEB19_
FN:136,_RINvNtCs7qDQvy6XYpV_18test_fuzz_internal4dirs19path_from_args_typeINtNvNtCscB5GQJ98reT_7generic26struct_target_bound_fuzz__10write_args4ArgsNtB19_3FooINtB19_3BazB2e_EEEB19_
FN:136,_RINvNtCs7qDQvy6XYpV_18test_fuzz_internal4dirs19path_from_args_typeINtNvNtCscB5GQJ98reT_7generic33struct_target_where_clause_fuzz__10write_args4ArgsNtB19_3BarINtB19_3BazB2l_EEEB19_
FN:136,_RINvNtCs7qDQvy6XYpV_18test_fuzz_internal4dirs19path_from_args_typeINtNvNtCscB5GQJ98reT_7generic33struct_target_where_clause_fuzz__10write_args4ArgsNtB19_3FooINtB19_3BazB2l_EEEB19_
FN:136,_RINvNtCs7qDQvy6XYpV_18test_fuzz_internal4dirs19path_from_args_typeINtNvNtNtCscB5GQJ98reT_7generic27receiverless_trait_function20struct_target_fuzz__10write_args4ArgsNtB1b_3BarEEB1b_
FN:136,_RINvNtCs7qDQvy6XYpV_18test_fuzz_internal4dirs19path_from_args_typeNtNtCscB5GQJ98reT_7generic38struct_target_only_generic_args_fuzz__4ArgsEB16_
FN:32,_RINvNtCs7qDQvy6XYpV_18test_fuzz_internal4dirs31corpus_directory_from_args_typeINtNvNtCscB5GQJ98reT_7generic14baz_qux_fuzz__10write_args4ArgsNtB1l_3BarEEB1l_
FN:32,_RINvNtCs7qDQvy6XYpV_18test_fuzz_internal4dirs31corpus_directory_from_args_typeINtNvNtCscB5GQJ98reT_7generic20struct_target_fuzz__10write_args4ArgsNtB1l_3BarEEB1l_
FN:32,_RINvNtCs7qDQvy6XYpV_18test_fuzz_internal4dirs31corpus_directory_from_args_typeINtNvNtCscB5GQJ98reT_7generic20struct_target_fuzz__10write_args4ArgsNtB1l_3FooEEB1l_
FN:32,_RINvNtCs7qDQvy6XYpV_18test_fuzz_internal4dirs31corpus_directory_from_args_typeINtNvNtCscB5GQJ98reT_7generic26struct_target_bound_fuzz__10write_args4ArgsNtB1l_3BarINtB1l_3BazB2q_EEEB1l_
FN:32,_RINvNtCs7qDQvy6XYpV_18test_fuzz_internal4dirs31corpus_directory_from_args_typeINtNvNtCscB5GQJ98reT_7generic26struct_target_bound_fuzz__10write_args4ArgsNtB1l_3FooINtB1l_3BazB2q_EEEB1l_
FN:32,_RINvNtCs7qDQvy6XYpV_18test_fuzz_internal4dirs31corpus_directory_from_args_typeINtNvNtCscB5GQJ98reT_7generic33struct_target_where_clause_fuzz__10write_args4ArgsNtB1l_3BarINtB1l_3BazB2x_EEEB1l_
FN:32,_RINvNtCs7qDQvy6XYpV_18test_fuzz_internal4dirs31corpus_directory_from_args_typeINtNvNtCscB5GQJ98reT_7generic33struct_target_where_clause_fuzz__10write_args4ArgsNtB1l_3FooINtB1l_3BazB2x_EEEB1l_
FN:32,_RINvNtCs7qDQvy6XYpV_18test_fuzz_internal4dirs31corpus_directory_from_args_typeINtNvNtNtCscB5GQJ98reT_7generic27receiverless_trait_function20struct_target_fuzz__10write_args4ArgsNtB1n_3BarEEB1n_
FN:22,_RINvNtCs7qDQvy6XYpV_18test_fuzz_internal4dirs37generic_args_directory_from_args_typeINtNtCscB5GQJ98reT_7generic14baz_qux_fuzz__4ArgsNtB1p_3BarEEB1p_
FN:22,_RINvNtCs7qDQvy6XYpV_18test_fuzz_internal4dirs37generic_args_directory_from_args_typeINtNtCscB5GQJ98reT_7generic20struct_target_fuzz__4ArgsNtB1p_3BarEEB1p_
FN:22,_RINvNtCs7qDQvy6XYpV_18test_fuzz_internal4dirs37generic_args_directory_from_args_typeINtNtCscB5GQJ98reT_7generic20struct_target_fuzz__4ArgsNtB1p_3FooEEB1p_
FN:22,_RINvNtCs7qDQvy6XYpV_18test_fuzz_internal4dirs37generic_args_directory_from_args_typeINtNtCscB5GQJ98reT_7generic26struct_target_bound_fuzz__4ArgsNtB1p_3BarINtB1p_3BazB2i_EEEB1p_
FN:22,_RINvNtCs7qDQvy6XYpV_18test_fuzz_internal4dirs37generic_args_directory_from_args_typeINtNtCscB5GQJ98reT_7generic26struct_target_bound_fuzz__4ArgsNtB1p_3FooINtB1p_3BazB2i_EEEB1p_
FN:22,_RINvNtCs7qDQvy6XYpV_18test_fuzz_internal4dirs37generic_args_directory_from_args_typeINtNtCscB5GQJ98reT_7generic33struct_target_where_clause_fuzz__4ArgsNtB1p_3BarINtB1p_3BazB2p_EEEB1p_
FN:22,_RINvNtCs7qDQvy6XYpV_18test_fuzz_internal4dirs37generic_args_directory_from_args_typeINtNtCscB5GQJ98reT_7generic33struct_target_where_clause_fuzz__4ArgsNtB1p_3FooINtB1p_3BazB2p_EEEB1p_
FN:22,_RINvNtCs7qDQvy6XYpV_18test_fuzz_internal4dirs37generic_args_directory_from_args_typeINtNtNtCscB5GQJ98reT_7generic27receiverless_trait_function20struct_target_fuzz__4ArgsNtB1r_3BarEEB1r_
FN:22,_RINvNtCs7qDQvy6XYpV_18test_fuzz_internal4dirs37generic_args_directory_from_args_typeNtNtCscB5GQJ98reT_7generic38struct_target_only_generic_args_fuzz__4ArgsEB1o_
FN:12,_RINvNtCs7qDQvy6XYpV_18test_fuzz_internal4dirs42impl_generic_args_directory_from_args_typeINtNtCscB5GQJ98reT_7generic14baz_qux_fuzz__4ArgsNtB1u_3BarEEB1u_
FN:12,_RINvNtCs7qDQvy6XYpV_18test_fuzz_internal4dirs42impl_generic_args_directory_from_args_typeINtNtCscB5GQJ98reT_7generic20struct_target_fuzz__4ArgsNtB1u_3BarEEB1u_
FN:12,_RINvNtCs7qDQvy6XYpV_18test_fuzz_internal4dirs42impl_generic_args_directory_from_args_typeINtNtCscB5GQJ98reT_7generic20struct_target_fuzz__4ArgsNtB1u_3FooEEB1u_
FN:12,_RINvNtCs7qDQvy6XYpV_18test_fuzz_internal4dirs42impl_generic_args_directory_from_args_typeINtNtCscB5GQJ98reT_7generic26struct_target_bound_fuzz__4ArgsNtB1u_3BarINtB1u_3BazB2n_EEEB1u_
FN:12,_RINvNtCs7qDQvy6XYpV_18test_fuzz_internal4dirs42impl_generic_args_directory_from_args_typeINtNtCscB5GQJ98reT_7generic26struct_target_bound_fuzz__4ArgsNtB1u_3FooINtB1u_3BazB2n_EEEB1u_
FN:12,_RINvNtCs7qDQvy6XYpV_18test_fuzz_internal4dirs42impl_generic_args_directory_from_args_typeINtNtCscB5GQJ98reT_7generic33struct_target_where_clause_fuzz__4ArgsNtB1u_3BarINtB1u_3BazB2u_EEEB1u_
FN:12,_RINvNtCs7qDQvy6XYpV_18test_fuzz_internal4dirs42impl_generic_args_directory_from_args_typeINtNtCscB5GQJ98reT_7generic33struct_target_where_clause_fuzz__4ArgsNtB1u_3FooINtB1u_3BazB2u_EEEB1u_
FN:12,_RINvNtCs7qDQvy6XYpV_18test_fuzz_internal4dirs42impl_generic_args_directory_from_args_typeINtNtNtCscB5GQJ98reT_7generic27receiverless_trait_function20struct_target_fuzz__4ArgsNtB1w_3BarEEB1w_
FN:12,_RINvNtCs7qDQvy6XYpV_18test_fuzz_internal4dirs42impl_generic_args_directory_from_args_typeNtNtCscB5GQJ98reT_7generic38struct_target_only_generic_args_fuzz__4ArgsEB1t_
FN:140,_RNCINvNtCs7qDQvy6XYpV_18test_fuzz_internal4dirs19path_from_args_typeINtNtCscB5GQJ98reT_7generic14baz_qux_fuzz__4ArgsNtB19_3BarEE0B19_
FN:140,_RNCINvNtCs7qDQvy6XYpV_18test_fuzz_internal4dirs19path_from_args_typeINtNtCscB5GQJ98reT_7generic20struct_target_fuzz__4ArgsNtB19_3BarEE0B19_
FN:140,_RNCINvNtCs7qDQvy6XYpV_18test_fuzz_internal4dirs19path_from_args_typeINtNtCscB5GQJ98reT_7generic20struct_target_fuzz__4ArgsNtB19_3FooEE0B19_
FN:140,_RNCINvNtCs7qDQvy6XYpV_18test_fuzz_internal4dirs19path_from_args_typeINtNtCscB5GQJ98reT_7generic26struct_target_bound_fuzz__4ArgsNtB19_3BarINtB19_3BazB22_EEE0B19_
FN:140,_RNCINvNtCs7qDQvy6XYpV_18test_fuzz_internal4dirs19path_from_args_typeINtNtCscB5GQJ98reT_7generic26struct_target_bound_fuzz__4ArgsNtB19_3FooINtB19_3BazB22_EEE0B19_
FN:140,_RNCINvNtCs7qDQvy6XYpV_18test_fuzz_internal4dirs19path_from_args_typeINtNtCscB5GQJ98reT_7generic33struct_target_where_clause_fuzz__4ArgsNtB19_3BarINtB19_3BazB29_EEE0B19_
FN:140,_RNCINvNtCs7qDQvy6XYpV_18test_fuzz_internal4dirs19path_from_args_typeINtNtCscB5GQJ98reT_7generic33struct_target_where_clause_fuzz__4ArgsNtB19_3FooINtB19_3BazB29_EEE0B19_
FN:140,_RNCINvNtCs7qDQvy6XYpV_18test_fuzz_internal4dirs19path_from_args_typeINtNtNtCscB5GQJ98reT_7generic27receiverless_trait_function20struct_target_fuzz__4ArgsNtB1b_3BarEE0B1b_
FN:140,_RNCINvNtCs7qDQvy6XYpV_18test_fuzz_internal4dirs19path_from_args_typeINtNvNtCscB5GQJ98reT_7generic14baz_qux_fuzz__10write_args4ArgsNtB1b_3BarEE0B1b_
FN:140,_RNCINvNtCs7qDQvy6XYpV_18test_fuzz_internal4dirs19path_from_args_typeINtNvNtCscB5GQJ98reT_7generic20struct_target_fuzz__10write_args4ArgsNtB1b_3BarEE0B1b_
FN:140,_RNCINvNtCs7qDQvy6XYpV_18test_fuzz_internal4dirs19path_from_args_typeINtNvNtCscB5GQJ98reT_7generic20struct_target_fuzz__10write_args4ArgsNtB1b_3FooEE0B1b_
FN:140,_RNCINvNtCs7qDQvy6XYpV_18test_fuzz_internal4dirs19path_from_args_typeINtNvNtCscB5GQJ98reT_7generic26struct_target_bound_fuzz__10write_args4ArgsNtB1b_3BarINtB1b_3BazB2g_EEE0B1b_
FN:140,_RNCINvNtCs7qDQvy6XYpV_18test_fuzz_internal4dirs19path_from_args_typeINtNvNtCscB5GQJ98reT_7generic26struct_target_bound_fuzz__10write_args4ArgsNtB1b_3FooINtB1b_3BazB2g_EEE0B1b_
FN:140,_RNCINvNtCs7qDQvy6XYpV_18test_fuzz_internal4dirs19path_from_args_typeINtNvNtCscB5GQJ98reT_7generic33struct_target_where_clause_fuzz__10write_args4ArgsNtB1b_3BarINtB1b_3BazB2n_EEE0B1b_
FN:140,_RNCINvNtCs7qDQvy6XYpV_18test_fuzz_internal4dirs19path_from_args_typeINtNvNtCscB5GQJ98reT_7generic33struct_target_where_clause_fuzz__10write_args4ArgsNtB1b_3FooINtB1b_3BazB2n_EEE0B1b_
FN:140,_RNCINvNtCs7qDQvy6XYpV_18test_fuzz_internal4dirs19path_from_args_typeINtNvNtNtCscB5GQJ98reT_7generic27receiverless_trait_function20struct_target_fuzz__10write_args4ArgsNtB1d_3BarEE0B1d_
FN:140,_RNCINvNtCs7qDQvy6XYpV_18test_fuzz_internal4dirs19path_from_args_typeNtNtCscB5GQJ98reT_7generic38struct_target_only_generic_args_fuzz__4ArgsE0B18_
FN:136,_RINvNtCs7tkdMjTuzcM_18test_fuzz_internal4dirs19path_from_args_typeNtNtCsb4uiOcbMbWE_11hello_world19intermediary_fuzz__4ArgsEB16_
FN:136,_RINvNtCs7tkdMjTuzcM_18test_fuzz_internal4dirs19path_from_args_typeNtNvNtCsb4uiOcbMbWE_11hello_world19intermediary_fuzz__10write_args4ArgsEB18_
FN:32,_RINvNtCs7tkdMjTuzcM_18test_fuzz_internal4dirs31corpus_directory_from_args_typeNtNvNtCsb4uiOcbMbWE_11hello_world19intermediary_fuzz__10write_args4ArgsEB1k_
FN:22,_RINvNtCs7tkdMjTuzcM_18test_fuzz_internal4dirs37generic_args_directory_from_args_typeNtNtCsb4uiOcbMbWE_11hello_world19intermediary_fuzz__4ArgsEB1o_
FN:12,_RINvNtCs7tkdMjTuzcM_18test_fuzz_internal4dirs42impl_generic_args_directory_from_args_typeNtNtCsb4uiOcbMbWE_11hello_world19intermediary_fuzz__4ArgsEB1t_
FN:140,_RNCINvNtCs7tkdMjTuzcM_18test_fuzz_internal4dirs19path_from_args_typeNtNtCsb4uiOcbMbWE_11hello_world19intermediary_fuzz__4ArgsE0B18_
FN:140,_RNCINvNtCs7tkdMjTuzcM_18test_fuzz_internal4dirs19path_from_args_typeNtNvNtCsb4uiOcbMbWE_11hello_world19intermediary_fuzz__10write_args4ArgsE0B1a_
FN:136,_RINvNtCs7qDQvy6XYpV_18test_fuzz_internal4dirs19path_from_args_typeNtNtCskdnhhtjhrrV_11hello_world19intermediary_fuzz__4ArgsEB16_
FN:136,_RINvNtCs7qDQvy6XYpV_18test_fuzz_internal4dirs19path_from_args_typeNtNvNtCskdnhhtjhrrV_11hello_world19intermediary_fuzz__10write_args4ArgsEB18_
FN:32,_RINvNtCs7qDQvy6XYpV_18test_fuzz_internal4dirs31corpus_directory_from_args_typeNtNvNtCskdnhhtjhrrV_11hello_world19intermediary_fuzz__10write_args4ArgsEB1k_
FN:22,_RINvNtCs7qDQvy6XYpV_18test_fuzz_internal4dirs37generic_args_directory_from_args_typeNtNtCskdnhhtjhrrV_11hello_world19intermediary_fuzz__4ArgsEB1o_
FN:12,_RINvNtCs7qDQvy6XYpV_18test_fuzz_internal4dirs42impl_generic_args_directory_from_args_typeNtNtCskdnhhtjhrrV_11hello_world19intermediary_fuzz__4ArgsEB1t_
FN:140,_RNCINvNtCs7qDQvy6XYpV_18test_fuzz_internal4dirs19path_from_args_typeNtNtCskdnhhtjhrrV_11hello_world19intermediary_fuzz__4ArgsE0B18_
FN:140,_RNCINvNtCs7qDQvy6XYpV_18test_fuzz_internal4dirs19path_from_args_typeNtNvNtCskdnhhtjhrrV_11hello_world19intermediary_fuzz__10write_args4ArgsE0B1a_
FN:136,_RINvNtCs7qDQvy6XYpV_18test_fuzz_internal4dirs19path_from_args_typeNtNtCsiqqUJoiizGn_11hello_world19intermediary_fuzz__4ArgsEB16_
FN:136,_RINvNtCs7qDQvy6XYpV_18test_fuzz_internal4dirs19path_from_args_typeNtNvNtCsiqqUJoiizGn_11hello_world19intermediary_fuzz__10write_args4ArgsEB18_
FN:32,_RINvNtCs7qDQvy6XYpV_18test_fuzz_internal4dirs31corpus_directory_from_args_typeNtNvNtCsiqqUJoiizGn_11hello_world19intermediary_fuzz__10write_args4ArgsEB1k_
FN:22,_RINvNtCs7qDQvy6XYpV_18test_fuzz_internal4dirs37generic_args_directory_from_args_typeNtNtCsiqqUJoiizGn_11hello_world19intermediary_fuzz__4ArgsEB1o_
FN:12,_RINvNtCs7qDQvy6XYpV_18test_fuzz_internal4dirs42impl_generic_args_directory_from_args_typeNtNtCsiqqUJoiizGn_11hello_world19intermediary_fuzz__4ArgsEB1t_
FN:140,_RNCINvNtCs7qDQvy6XYpV_18test_fuzz_internal4dirs19path_from_args_typeNtNtCsiqqUJoiizGn_11hello_world19intermediary_fuzz__4ArgsE0B18_
FN:140,_RNCINvNtCs7qDQvy6XYpV_18test_fuzz_internal4dirs19path_from_args_typeNtNvNtCsiqqUJoiizGn_11hello_world19intermediary_fuzz__10write_args4ArgsE0B1a_
FN:136,_RINvNtCs7qDQvy6XYpV_18test_fuzz_internal4dirs19path_from_args_typeNtNtCsk3BoTnCsiBy_11hello_world19intermediary_fuzz__4ArgsEB16_
FN:136,_RINvNtCs7qDQvy6XYpV_18test_fuzz_internal4dirs19path_from_args_typeNtNvNtCsk3BoTnCsiBy_11hello_world19intermediary_fuzz__10write_args4ArgsEB18_
FN:32,_RINvNtCs7qDQvy6XYpV_18test_fuzz_internal4dirs31corpus_directory_from_args_typeNtNvNtCsk3BoTnCsiBy_11hello_world19intermediary_fuzz__10write_args4ArgsEB1k_
FN:22,_RINvNtCs7qDQvy6XYpV_18test_fuzz_internal4dirs37generic_args_directory_from_args_typeNtNtCsk3BoTnCsiBy_11hello_world19intermediary_fuzz__4ArgsEB1o_
FN:12,_RINvNtCs7qDQvy6XYpV_18test_fuzz_internal4dirs42impl_generic_args_directory_from_args_typeNtNtCsk3BoTnCsiBy_11hello_world19intermediary_fuzz__4ArgsEB1t_
FN:140,_RNCINvNtCs7qDQvy6XYpV_18test_fuzz_internal4dirs19path_from_args_typeNtNtCsk3BoTnCsiBy_11hello_world19intermediary_fuzz__4ArgsE0B18_
FN:140,_RNCINvNtCs7qDQvy6XYpV_18test_fuzz_internal4dirs19path_from_args_typeNtNvNtCsk3BoTnCsiBy_11hello_world19intermediary_fuzz__10write_args4ArgsE0B1a_
FN:136,_RINvNtCs7qDQvy6XYpV_18test_fuzz_internal4dirs19path_from_args_typeNtNtCs6sCsrYIWXJb_11hello_world19intermediary_fuzz__4ArgsEB16_
FN:136,_RINvNtCs7qDQvy6XYpV_18test_fuzz_internal4dirs19path_from_args_typeNtNvNtCs6sCsrYIWXJb_11hello_world19intermediary_fuzz__10write_args4ArgsEB18_
FN:32,_RINvNtCs7qDQvy6XYpV_18test_fuzz_internal4dirs31corpus_directory_from_args_typeNtNvNtCs6sCsrYIWXJb_11hello_world19intermediary_fuzz__10write_args4ArgsEB1k_
FN:22,_RINvNtCs7qDQvy6XYpV_18test_fuzz_internal4dirs37generic_args_directory_from_args_typeNtNtCs6sCsrYIWXJb_11hello_world19intermediary_fuzz__4ArgsEB1o_
FN:12,_RINvNtCs7qDQvy6XYpV_18test_fuzz_internal4dirs42impl_generic_args_directory_from_args_typeNtNtCs6sCsrYIWXJb_11hello_world19intermediary_fuzz__4ArgsEB1t_
FN:140,_RNCINvNtCs7qDQvy6XYpV_18test_fuzz_internal4dirs19path_from_args_typeNtNtCs6sCsrYIWXJb_11hello_world19intermediary_fuzz__4ArgsE0B18_
FN:140,_RNCINvNtCs7qDQvy6XYpV_18test_fuzz_internal4dirs19path_from_args_typeNtNvNtCs6sCsrYIWXJb_11hello_world19intermediary_fuzz__10write_args4ArgsE0B1a_
FN:136,_RINvNtCs7tkdMjTuzcM_18test_fuzz_internal4dirs19path_from_args_typeNtNtCs8i4ARjknqvr_11hello_world19intermediary_fuzz__4ArgsEB16_
FN:136,_RINvNtCs7tkdMjTuzcM_18test_fuzz_internal4dirs19path_from_args_typeNtNvNtCs8i4ARjknqvr_11hello_world19intermediary_fuzz__10write_args4ArgsEB18_
FN:32,_RINvNtCs7tkdMjTuzcM_18test_fuzz_internal4dirs31corpus_directory_from_args_typeNtNvNtCs8i4ARjknqvr_11hello_world19intermediary_fuzz__10write_args4ArgsEB1k_
FN:22,_RINvNtCs7tkdMjTuzcM_18test_fuzz_internal4dirs37generic_args_directory_from_args_typeNtNtCs8i4ARjknqvr_11hello_world19intermediary_fuzz__4ArgsEB1o_
FN:12,_RINvNtCs7tkdMjTuzcM_18test_fuzz_internal4dirs42impl_generic_args_directory_from_args_typeNtNtCs8i4ARjknqvr_11hello_world19intermediary_fuzz__4ArgsEB1t_
FN:140,_RNCINvNtCs7tkdMjTuzcM_18test_fuzz_internal4dirs19path_from_args_typeNtNtCs8i4ARjknqvr_11hello_world19intermediary_fuzz__4ArgsE0B18_
FN:140,_RNCINvNtCs7tkdMjTuzcM_18test_fuzz_internal4dirs19path_from_args_typeNtNvNtCs8i4ARjknqvr_11hello_world19intermediary_fuzz__10write_args4ArgsE0B1a_
FN:136,_RINvNtCs7tkdMjTuzcM_18test_fuzz_internal4dirs19path_from_args_typeNtNtCsfEdnMwTDK26_8lifetime13target_fuzz__4ArgsEB16_
FN:136,_RINvNtCs7tkdMjTuzcM_18test_fuzz_internal4dirs19path_from_args_typeNtNvNtCsfEdnMwTDK26_8lifetime13target_fuzz__10write_args4ArgsEB18_
FN:32,_RINvNtCs7tkdMjTuzcM_18test_fuzz_internal4dirs31corpus_directory_from_args_typeNtNvNtCsfEdnMwTDK26_8lifetime13target_fuzz__10write_args4ArgsEB1k_
FN:22,_RINvNtCs7tkdMjTuzcM_18test_fuzz_internal4dirs37generic_args_directory_from_args_typeNtNtCsfEdnMwTDK26_8lifetime13target_fuzz__4ArgsEB1o_
FN:12,_RINvNtCs7tkdMjTuzcM_18test_fuzz_internal4dirs42impl_generic_args_directory_from_args_typeNtNtCsfEdnMwTDK26_8lifetime13target_fuzz__4ArgsEB1t_
FN:140,_RNCINvNtCs7tkdMjTuzcM_18test_fuzz_internal4dirs19path_from_args_typeNtNtCsfEdnMwTDK26_8lifetime13target_fuzz__4ArgsE0B18_
FN:140,_RNCINvNtCs7tkdMjTuzcM_18test_fuzz_internal4dirs19path_from_args_typeNtNvNtCsfEdnMwTDK26_8lifetime13target_fuzz__10write_args4ArgsE0B1a_
FN:136,_RINvNtCs7qDQvy6XYpV_18test_fuzz_internal4dirs19path_from_args_typeNtNtCseDVKP7ginzU_8lifetime13target_fuzz__4ArgsEB16_
FN:136,_RINvNtCs7qDQvy6XYpV_18test_fuzz_internal4dirs19path_from_args_typeNtNvNtCseDVKP7ginzU_8lifetime13target_fuzz__10write_args4ArgsEB18_
FN:32,_RINvNtCs7qDQvy6XYpV_18test_fuzz_internal4dirs31corpus_directory_from_args_typeNtNvNtCseDVKP7ginzU_8lifetime13target_fuzz__10write_args4ArgsEB1k_
FN:22,_RINvNtCs7qDQvy6XYpV_18test_fuzz_internal4dirs37generic_args_directory_from_args_typeNtNtCseDVKP7ginzU_8lifetime13target_fuzz__4ArgsEB1o_
FN:12,_RINvNtCs7qDQvy6XYpV_18test_fuzz_internal4dirs42impl_generic_args_directory_from_args_typeNtNtCseDVKP7ginzU_8lifetime13target_fuzz__4ArgsEB1t_
FN:140,_RNCINvNtCs7qDQvy6XYpV_18test_fuzz_internal4dirs19path_from_args_typeNtNtCseDVKP7ginzU_8lifetime13target_fuzz__4ArgsE0B18_
FN:140,_RNCINvNtCs7qDQvy6XYpV_18test_fuzz_internal4dirs19path_from_args_typeNtNvNtCseDVKP7ginzU_8lifetime13target_fuzz__10write_args4ArgsE0B1a_
FN:136,_RINvNtCs7qDQvy6XYpV_18test_fuzz_internal4dirs19path_from_args_typeNtNtCsakRZ1HSHWM_8lifetime13target_fuzz__4ArgsEB16_
FN:136,_RINvNtCs7qDQvy6XYpV_18test_fuzz_internal4dirs19path_from_args_typeNtNvNtCsakRZ1HSHWM_8lifetime13target_fuzz__10write_args4ArgsEB18_
FN:32,_RINvNtCs7qDQvy6XYpV_18test_fuzz_internal4dirs31corpus_directory_from_args_typeNtNvNtCsakRZ1HSHWM_8lifetime13target_fuzz__10write_args4ArgsEB1k_
FN:22,_RINvNtCs7qDQvy6XYpV_18test_fuzz_internal4dirs37generic_args_directory_from_args_typeNtNtCsakRZ1HSHWM_8lifetime13target_fuzz__4ArgsEB1o_
FN:12,_RINvNtCs7qDQvy6XYpV_18test_fuzz_internal4dirs42impl_generic_args_directory_from_args_typeNtNtCsakRZ1HSHWM_8lifetime13target_fuzz__4ArgsEB1t_
FN:140,_RNCINvNtCs7qDQvy6XYpV_18test_fuzz_internal4dirs19path_from_args_typeNtNtCsakRZ1HSHWM_8lifetime13target_fuzz__4ArgsE0B18_
FN:140,_RNCINvNtCs7qDQvy6XYpV_18test_fuzz_internal4dirs19path_from_args_typeNtNvNtCsakRZ1HSHWM_8lifetime13target_fuzz__10write_args4ArgsE0B1a_
FN:136,_RINvNtCs7qDQvy6XYpV_18test_fuzz_internal4dirs19path_from_args_typeNtNtCslH3njblBovr_11manual_leak23wrapped_key_dump_fuzz__4ArgsEB16_
FN:136,_RINvNtCs7qDQvy6XYpV_18test_fuzz_internal4dirs19path_from_args_typeNtNvNtCslH3njblBovr_11manual_leak23wrapped_key_dump_fuzz__10write_args4ArgsEB18_
FN:32,_RINvNtCs7qDQvy6XYpV_18test_fuzz_internal4dirs31corpus_directory_from_args_typeNtNvNtCslH3njblBovr_11manual_leak23wrapped_key_dump_fuzz__10write_args4ArgsEB1k_
FN:22,_RINvNtCs7qDQvy6XYpV_18test_fuzz_internal4dirs37generic_args_directory_from_args_typeNtNtCslH3njblBovr_11manual_leak23wrapped_key_dump_fuzz__4ArgsEB1o_
FN:12,_RINvNtCs7qDQvy6XYpV_18test_fuzz_internal4dirs42impl_generic_args_directory_from_args_typeNtNtCslH3njblBovr_11manual_leak23wrapped_key_dump_fuzz__4ArgsEB1t_
FN:140,_RNCINvNtCs7qDQvy6XYpV_18test_fuzz_internal4dirs19path_from_args_typeNtNtCslH3njblBovr_11manual_leak23wrapped_key_dump_fuzz__4ArgsE0B18_
FN:140,_RNCINvNtCs7qDQvy6XYpV_18test_fuzz_internal4dirs19path_from_args_typeNtNvNtCslH3njblBovr_11manual_leak23wrapped_key_dump_fuzz__10write_args4ArgsE0B1a_
FN:136,_RINvNtCs7qDQvy6XYpV_18test_fuzz_internal4dirs19path_from_args_typeNtNtCs1Ybj4Cjqhy0_11manual_leak23wrapped_key_dump_fuzz__4ArgsEB16_
FN:136,_RINvNtCs7qDQvy6XYpV_18test_fuzz_internal4dirs19path_from_args_typeNtNvNtCs1Ybj4Cjqhy0_11manual_leak23wrapped_key_dump_fuzz__10write_args4ArgsEB18_
FN:32,_RINvNtCs7qDQvy6XYpV_18test_fuzz_internal4dirs31corpus_directory_from_args_typeNtNvNtCs1Ybj4Cjqhy0_11manual_leak23wrapped_key_dump_fuzz__10write_args4ArgsEB1k_
FN:22,_RINvNtCs7qDQvy6XYpV_18test_fuzz_internal4dirs37generic_args_directory_from_args_typeNtNtCs1Ybj4Cjqhy0_11manual_leak23wrapped_key_dump_fuzz__4ArgsEB1o_
FN:12,_RINvNtCs7qDQvy6XYpV_18test_fuzz_internal4dirs42impl_generic_args_directory_from_args_typeNtNtCs1Ybj4Cjqhy0_11manual_leak23wrapped_key_dump_fuzz__4ArgsEB1t_
FN:140,_RNCINvNtCs7qDQvy6XYpV_18test_fuzz_internal4dirs19path_from_args_typeNtNtCs1Ybj4Cjqhy0_11manual_leak23wrapped_key_dump_fuzz__4ArgsE0B18_
FN:140,_RNCINvNtCs7qDQvy6XYpV_18test_fuzz_internal4dirs19path_from_args_typeNtNvNtCs1Ybj4Cjqhy0_11manual_leak23wrapped_key_dump_fuzz__10write_args4ArgsE0B1a_
FN:136,_RINvNtCs7tkdMjTuzcM_18test_fuzz_internal4dirs19path_from_args_typeNtNtCsf6WhrPqW4nR_11manual_leak23wrapped_key_dump_fuzz__4ArgsEB16_
FN:136,_RINvNtCs7tkdMjTuzcM_18test_fuzz_internal4dirs19path_from_args_typeNtNvNtCsf6WhrPqW4nR_11manual_leak23wrapped_key_dump_fuzz__10write_args4ArgsEB18_
FN:32,_RINvNtCs7tkdMjTuzcM_18test_fuzz_internal4dirs31corpus_directory_from_args_typeNtNvNtCsf6WhrPqW4nR_11manual_leak23wrapped_key_dump_fuzz__10write_args4ArgsEB1k_
FN:22,_RINvNtCs7tkdMjTuzcM_18test_fuzz_internal4dirs37generic_args_directory_from_args_typeNtNtCsf6WhrPqW4nR_11manual_leak23wrapped_key_dump_fuzz__4ArgsEB1o_
FN:12,_RINvNtCs7tkdMjTuzcM_18test_fuzz_internal4dirs42impl_generic_args_directory_from_args_typeNtNtCsf6WhrPqW4nR_11manual_leak23wrapped_key_dump_fuzz__4ArgsEB1t_
FN:140,_RNCINvNtCs7tkdMjTuzcM_18test_fuzz_internal4dirs19path_from_args_typeNtNtCsf6WhrPqW4nR_11manual_leak23wrapped_key_dump_fuzz__4ArgsE0B18_
FN:140,_RNCINvNtCs7tkdMjTuzcM_18test_fuzz_internal4dirs19path_from_args_typeNtNvNtCsf6WhrPqW4nR_11manual_leak23wrapped_key_dump_fuzz__10write_args4ArgsE0B1a_
FN:136,_RINvNtCs7tkdMjTuzcM_18test_fuzz_internal4dirs19path_from_args_typeNtNtCsg23ZCcRAAmp_7mut_ref17target_str_fuzz__4ArgsEB16_
FN:136,_RINvNtCs7tkdMjTuzcM_18test_fuzz_internal4dirs19path_from_args_typeNtNtCsg23ZCcRAAmp_7mut_ref19target_slice_fuzz__4ArgsEB16_
FN:136,_RINvNtCs7tkdMjTuzcM_18test_fuzz_internal4dirs19path_from_args_typeNtNvNtCsg23ZCcRAAmp_7mut_ref17target_str_fuzz__10write_args4ArgsEB18_
FN:136,_RINvNtCs7tkdMjTuzcM_18test_fuzz_internal4dirs19path_from_args_typeNtNvNtCsg23ZCcRAAmp_7mut_ref19target_slice_fuzz__10write_args4ArgsEB18_
FN:32,_RINvNtCs7tkdMjTuzcM_18test_fuzz_internal4dirs31corpus_directory_from_args_typeNtNvNtCsg23ZCcRAAmp_7mut_ref17target_str_fuzz__10write_args4ArgsEB1k_
FN:32,_RINvNtCs7tkdMjTuzcM_18test_fuzz_internal4dirs31corpus_directory_from_args_typeNtNvNtCsg23ZCcRAAmp_7mut_ref19target_slice_fuzz__10write_args4ArgsEB1k_
FN:22,_RINvNtCs7tkdMjTuzcM_18test_fuzz_internal4dirs37generic_args_directory_from_args_typeNtNtCsg23ZCcRAAmp_7mut_ref17target_str_fuzz__4ArgsEB1o_
FN:22,_RINvNtCs7tkdMjTuzcM_18test_fuzz_internal4dirs37generic_args_directory_from_args_typeNtNtCsg23ZCcRAAmp_7mut_ref19target_slice_fuzz__4ArgsEB1o_
FN:12,_RINvNtCs7tkdMjTuzcM_18test_fuzz_internal4dirs42impl_generic_args_directory_from_args_typeNtNtCsg23ZCcRAAmp_7mut_ref17target_str_fuzz__4ArgsEB1t_
FN:12,_RINvNtCs7tkdMjTuzcM_18test_fuzz_internal4dirs42impl_generic_args_directory_from_args_typeNtNtCsg23ZCcRAAmp_7mut_ref19target_slice_fuzz__4ArgsEB1t_
FN:140,_RNCINvNtCs7tkdMjTuzcM_18test_fuzz_internal4dirs19path_from_args_typeNtNtCsg23ZCcRAAmp_7mut_ref17target_str_fuzz__4ArgsE0B18_
FN:140,_RNCINvNtCs7tkdMjTuzcM_18test_fuzz_internal4dirs19path_from_args_typeNtNtCsg23ZCcRAAmp_7mut_ref19target_slice_fuzz__4ArgsE0B18_
FN:140,_RNCINvNtCs7tkdMjTuzcM_18test_fuzz_internal4dirs19path_from_args_typeNtNvNtCsg23ZCcRAAmp_7mut_ref17target_str_fuzz__10write_args4ArgsE0B1a_
FN:140,_RNCINvNtCs7tkdMjTuzcM_18test_fuzz_internal4dirs19path_from_args_typeNtNvNtCsg23ZCcRAAmp_7mut_ref19target_slice_fuzz__10write_args4ArgsE0B1a_
FN:136,_RINvNtCs7qDQvy6XYpV_18test_fuzz_internal4dirs19path_from_args_typeNtNtCsaOt0l7p9qaW_7mut_ref17target_str_fuzz__4ArgsEB16_
FN:136,_RINvNtCs7qDQvy6XYpV_18test_fuzz_internal4dirs19path_from_args_typeNtNtCsaOt0l7p9qaW_7mut_ref19target_slice_fuzz__4ArgsEB16_
FN:136,_RINvNtCs7qDQvy6XYpV_18test_fuzz_internal4dirs19path_from_args_typeNtNvNtCsaOt0l7p9qaW_7mut_ref17target_str_fuzz__10write_args4ArgsEB18_
FN:136,_RINvNtCs7qDQvy6XYpV_18test_fuzz_internal4dirs19path_from_args_typeNtNvNtCsaOt0l7p9qaW_7mut_ref19target_slice_fuzz__10write_args4ArgsEB18_
FN:32,_RINvNtCs7qDQvy6XYpV_18test_fuzz_internal4dirs31corpus_directory_from_args_typeNtNvNtCsaOt0l7p9qaW_7mut_ref17target_str_fuzz__10write_args4ArgsEB1k_
FN:32,_RINvNtCs7qDQvy6XYpV_18test_fuzz_internal4dirs31corpus_directory_from_args_typeNtNvNtCsaOt0l7p9qaW_7mut_ref19target_slice_fuzz__10write_args4ArgsEB1k_
FN:22,_RINvNtCs7qDQvy6XYpV_18test_fuzz_internal4dirs37generic_args_directory_from_args_typeNtNtCsaOt0l7p9qaW_7mut_ref17target_str_fuzz__4ArgsEB1o_
FN:22,_RINvNtCs7qDQvy6XYpV_18test_fuzz_internal4dirs37generic_args_directory_from_args_typeNtNtCsaOt0l7p9qaW_7mut_ref19target_slice_fuzz__4ArgsEB1o_
FN:12,_RINvNtCs7qDQvy6XYpV_18test_fuzz_internal4dirs42impl_generic_args_directory_from_args_typeNtNtCsaOt0l7p9qaW_7mut_ref17target_str_fuzz__4ArgsEB1t_
FN:12,_RINvNtCs7qDQvy6XYpV_18test_fuzz_internal4dirs42impl_generic_args_directory_from_args_typeNtNtCsaOt0l7p9qaW_7mut_ref19target_slice_fuzz__4ArgsEB1t_
FN:140,_RNCINvNtCs7qDQvy6XYpV_18test_fuzz_internal4dirs19path_from_args_typeNtNtCsaOt0l7p9qaW_7mut_ref17target_str_fuzz__4ArgsE0B18_
FN:140,_RNCINvNtCs7qDQvy6XYpV_18test_fuzz_internal4dirs19path_from_args_typeNtNtCsaOt0l7p9qaW_7mut_ref19target_slice_fuzz__4ArgsE0B18_
FN:140,_RNCINvNtCs7qDQvy6XYpV_18test_fuzz_internal4dirs19path_from_args_typeNtNvNtCsaOt0l7p9qaW_7mut_ref17target_str_fuzz__10write_args4ArgsE0B1a_
FN:140,_RNCINvNtCs7qDQvy6XYpV_18test_fuzz_internal4dirs19path_from_args_typeNtNvNtCsaOt0l7p9qaW_7mut_ref19target_slice_fuzz__10write_args4ArgsE0B1a_
FN:136,_RINvNtCs7qDQvy6XYpV_18test_fuzz_internal4dirs19path_from_args_typeNtNtCskXmci1TBXcM_7mut_ref17target_str_fuzz__4ArgsEB16_
FN:136,_RINvNtCs7qDQvy6XYpV_18test_fuzz_internal4dirs19path_from_args_typeNtNtCskXmci1TBXcM_7mut_ref19target_slice_fuzz__4ArgsEB16_
FN:136,_RINvNtCs7qDQvy6XYpV_18test_fuzz_internal4dirs19path_from_args_typeNtNvNtCskXmci1TBXcM_7mut_ref17target_str_fuzz__10write_args4ArgsEB18_
FN:136,_RINvNtCs7qDQvy6XYpV_18test_fuzz_internal4dirs19path_from_args_typeNtNvNtCskXmci1TBXcM_7mut_ref19target_slice_fuzz__10write_args4ArgsEB18_
FN:32,_RINvNtCs7qDQvy6XYpV_18test_fuzz_internal4dirs31corpus_directory_from_args_typeNtNvNtCskXmci1TBXcM_7mut_ref17target_str_fuzz__10write_args4ArgsEB1k_
FN:32,_RINvNtCs7qDQvy6XYpV_18test_fuzz_internal4dirs31corpus_directory_from_args_typeNtNvNtCskXmci1TBXcM_7mut_ref19target_slice_fuzz__10write_args4ArgsEB1k_
FN:22,_RINvNtCs7qDQvy6XYpV_18test_fuzz_internal4dirs37generic_args_directory_from_args_typeNtNtCskXmci1TBXcM_7mut_ref17target_str_fuzz__4ArgsEB1o_
FN:22,_RINvNtCs7qDQvy6XYpV_18test_fuzz_internal4dirs37generic_args_directory_from_args_typeNtNtCskXmci1TBXcM_7mut_ref19target_slice_fuzz__4ArgsEB1o_
FN:12,_RINvNtCs7qDQvy6XYpV_18test_fuzz_internal4dirs42impl_generic_args_directory_from_args_typeNtNtCskXmci1TBXcM_7mut_ref17target_str_fuzz__4ArgsEB1t_
FN:12,_RINvNtCs7qDQvy6XYpV_18test_fuzz_internal4dirs42impl_generic_args_directory_from_args_typeNtNtCskXmci1TBXcM_7mut_ref19target_slice_fuzz__4ArgsEB1t_
FN:140,_RNCINvNtCs7qDQvy6XYpV_18test_fuzz_internal4dirs19path_from_args_typeNtNtCskXmci1TBXcM_7mut_ref17target_str_fuzz__4ArgsE0B18_
FN:140,_RNCINvNtCs7qDQvy6XYpV_18test_fuzz_internal4dirs19path_from_args_typeNtNtCskXmci1TBXcM_7mut_ref19target_slice_fuzz__4ArgsE0B18_
FN:140,_RNCINvNtCs7qDQvy6XYpV_18test_fuzz_internal4dirs19path_from_args_typeNtNvNtCskXmci1TBXcM_7mut_ref17target_str_fuzz__10write_args4ArgsE0B1a_
FN:140,_RNCINvNtCs7qDQvy6XYpV_18test_fuzz_internal4dirs19path_from_args_typeNtNvNtCskXmci1TBXcM_7mut_ref19target_slice_fuzz__10write_args4ArgsE0B1a_
FN:136,_RINvNtCs7qDQvy6XYpV_18test_fuzz_internal4dirs19path_from_args_typeNtNtCs6Qj1qJpbMOz_8parallel15target_0_fuzz__4ArgsEB16_
FN:136,_RINvNtCs7qDQvy6XYpV_18test_fuzz_internal4dirs19path_from_args_typeNtNtCs6Qj1qJpbMOz_8parallel15target_1_fuzz__4ArgsEB16_
FN:136,_RINvNtCs7qDQvy6XYpV_18test_fuzz_internal4dirs19path_from_args_typeNtNtCs6Qj1qJpbMOz_8parallel15target_2_fuzz__4ArgsEB16_
FN:136,_RINvNtCs7qDQvy6XYpV_18test_fuzz_internal4dirs19path_from_args_typeNtNtCs6Qj1qJpbMOz_8parallel15target_3_fuzz__4ArgsEB16_
FN:136,_RINvNtCs7qDQvy6XYpV_18test_fuzz_internal4dirs19path_from_args_typeNtNtCs6Qj1qJpbMOz_8parallel15target_4_fuzz__4ArgsEB16_
FN:136,_RINvNtCs7qDQvy6XYpV_18test_fuzz_internal4dirs19path_from_args_typeNtNtCs6Qj1qJpbMOz_8parallel15target_5_fuzz__4ArgsEB16_
FN:136,_RINvNtCs7qDQvy6XYpV_18test_fuzz_internal4dirs19path_from_args_typeNtNvNtCs6Qj1qJpbMOz_8parallel15target_0_fuzz__10write_args4ArgsEB18_
FN:136,_RINvNtCs7qDQvy6XYpV_18test_fuzz_internal4dirs19path_from_args_typeNtNvNtCs6Qj1qJpbMOz_8parallel15target_1_fuzz__10write_args4ArgsEB18_
FN:136,_RINvNtCs7qDQvy6XYpV_18test_fuzz_internal4dirs19path_from_args_typeNtNvNtCs6Qj1qJpbMOz_8parallel15target_2_fuzz__10write_args4ArgsEB18_
FN:136,_RINvNtCs7qDQvy6XYpV_18test_fuzz_internal4dirs19path_from_args_typeNtNvNtCs6Qj1qJpbMOz_8parallel15target_3_fuzz__10write_args4ArgsEB18_
FN:136,_RINvNtCs7qDQvy6XYpV_18test_fuzz_internal4dirs19path_from_args_typeNtNvNtCs6Qj1qJpbMOz_8parallel15target_4_fuzz__10write_args4ArgsEB18_
FN:136,_RINvNtCs7qDQvy6XYpV_18test_fuzz_internal4dirs19path_from_args_typeNtNvNtCs6Qj1qJpbMOz_8parallel15target_5_fuzz__10write_args4ArgsEB18_
FN:32,_RINvNtCs7qDQvy6XYpV_18test_fuzz_internal4dirs31corpus_directory_from_args_typeNtNvNtCs6Qj1qJpbMOz_8parallel15target_0_fuzz__10write_args4ArgsEB1k_
FN:32,_RINvNtCs7qDQvy6XYpV_18test_fuzz_internal4dirs31corpus_directory_from_args_typeNtNvNtCs6Qj1qJpbMOz_8parallel15target_1_fuzz__10write_args4ArgsEB1k_
FN:32,_RINvNtCs7qDQvy6XYpV_18test_fuzz_internal4dirs31corpus_directory_from_args_typeNtNvNtCs6Qj1qJpbMOz_8parallel15target_2_fuzz__10write_args4ArgsEB1k_
FN:32,_RINvNtCs7qDQvy6XYpV_18test_fuzz_internal4dirs31corpus_directory_from_args_typeNtNvNtCs6Qj1qJpbMOz_8parallel15target_3_fuzz__10write_args4ArgsEB1k_
FN:32,_RINvNtCs7qDQvy6XYpV_18test_fuzz_internal4dirs31corpus_directory_from_args_typeNtNvNtCs6Qj1qJpbMOz_8parallel15target_4_fuzz__10write_args4ArgsEB1k_
FN:32,_RINvNtCs7qDQvy6XYpV_18test_fuzz_internal4dirs31corpus_directory_from_args_typeNtNvNtCs6Qj1qJpbMOz_8parallel15target_5_fuzz__10write_args4ArgsEB1k_
FN:22,_RINvNtCs7qDQvy6XYpV_18test_fuzz_internal4dirs37generic_args_directory_from_args_typeNtNtCs6Qj1qJpbMOz_8parallel15target_0_fuzz__4ArgsEB1o_
FN:22,_RINvNtCs7qDQvy6XYpV_18test_fuzz_internal4dirs37generic_args_directory_from_args_typeNtNtCs6Qj1qJpbMOz_8parallel15target_1_fuzz__4ArgsEB1o_
FN:22,_RINvNtCs7qDQvy6XYpV_18test_fuzz_internal4dirs37generic_args_directory_from_args_typeNtNtCs6Qj1qJpbMOz_8parallel15target_2_fuzz__4ArgsEB1o_
FN:22,_RINvNtCs7qDQvy6XYpV_18test_fuzz_internal4dirs37generic_args_directory_from_args_typeNtNtCs6Qj1qJpbMOz_8parallel15target_3_fuzz__4ArgsEB1o_
FN:22,_RINvNtCs7qDQvy6XYpV_18test_fuzz_internal4dirs37generic_args_directory_from_args_typeNtNtCs6Qj1qJpbMOz_8parallel15target_4_fuzz__4ArgsEB1o_
FN:22,_RINvNtCs7qDQvy6XYpV_18test_fuzz_internal4dirs37generic_args_directory_from_args_typeNtNtCs6Qj1qJpbMOz_8parallel15target_5_fuzz__4ArgsEB1o_
FN:12,_RINvNtCs7qDQvy6XYpV_18test_fuzz_internal4dirs42impl_generic_args_directory_from_args_typeNtNtCs6Qj1qJpbMOz_8parallel15target_0_fuzz__4ArgsEB1t_
FN:12,_RINvNtCs7qDQvy6XYpV_18test_fuzz_internal4dirs42impl_generic_args_directory_from_args_typeNtNtCs6Qj1qJpbMOz_8parallel15target_1_fuzz__4ArgsEB1t_
FN:12,_RINvNtCs7qDQvy6XYpV_18test_fuzz_internal4dirs42impl_generic_args_directory_from_args_typeNtNtCs6Qj1qJpbMOz_8parallel15target_2_fuzz__4ArgsEB1t_
FN:12,_RINvNtCs7qDQvy6XYpV_18test_fuzz_internal4dirs42impl_generic_args_directory_from_args_typeNtNtCs6Qj1qJpbMOz_8parallel15target_3_fuzz__4ArgsEB1t_
FN:12,_RINvNtCs7qDQvy6XYpV_18test_fuzz_internal4dirs42impl_generic_args_directory_from_args_typeNtNtCs6Qj1qJpbMOz_8parallel15target_4_fuzz__4ArgsEB1t_
FN:12,_RINvNtCs7qDQvy6XYpV_18test_fuzz_internal4dirs42impl_generic_args_directory_from_args_typeNtNtCs6Qj1qJpbMOz_8parallel15target_5_fuzz__4ArgsEB1t_
FN:140,_RNCINvNtCs7qDQvy6XYpV_18test_fuzz_internal4dirs19path_from_args_typeNtNtCs6Qj1qJpbMOz_8parallel15target_0_fuzz__4ArgsE0B18_
FN:140,_RNCINvNtCs7qDQvy6XYpV_18test_fuzz_internal4dirs19path_from_args_typeNtNtCs6Qj1qJpbMOz_8parallel15target_1_fuzz__4ArgsE0B18_
FN:140,_RNCINvNtCs7qDQvy6XYpV_18test_fuzz_internal4dirs19path_from_args_typeNtNtCs6Qj1qJpbMOz_8parallel15target_2_fuzz__4ArgsE0B18_
FN:140,_RNCINvNtCs7qDQvy6XYpV_18test_fuzz_internal4dirs19path_from_args_typeNtNtCs6Qj1qJpbMOz_8parallel15target_3_fuzz__4ArgsE0B18_
FN:140,_RNCINvNtCs7qDQvy6XYpV_18test_fuzz_internal4dirs19path_from_args_typeNtNtCs6Qj1qJpbMOz_8parallel15target_4_fuzz__4ArgsE0B18_
FN:140,_RNCINvNtCs7qDQvy6XYpV_18test_fuzz_internal4dirs19path_from_args_typeNtNtCs6Qj1qJpbMOz_8parallel15target_5_fuzz__4ArgsE0B18_
FN:140,_RNCINvNtCs7qDQvy6XYpV_18test_fuzz_internal4dirs19path_from_args_typeNtNvNtCs6Qj1qJpbMOz_8parallel15target_0_fuzz__10write_args4ArgsE0B1a_
FN:140,_RNCINvNtCs7qDQvy6XYpV_18test_fuzz_internal4dirs19path_from_args_typeNtNvNtCs6Qj1qJpbMOz_8parallel15target_1_fuzz__10write_args4ArgsE0B1a_
FN:140,_RNCINvNtCs7qDQvy6XYpV_18test_fuzz_internal4dirs19path_from_args_typeNtNvNtCs6Qj1qJpbMOz_8parallel15target_2_fuzz__10write_args4ArgsE0B1a_
FN:140,_RNCINvNtCs7qDQvy6XYpV_18test_fuzz_internal4dirs19path_from_args_typeNtNvNtCs6Qj1qJpbMOz_8parallel15target_3_fuzz__10write_args4ArgsE0B1a_
FN:140,_RNCINvNtCs7qDQvy6XYpV_18test_fuzz_internal4dirs19path_from_args_typeNtNvNtCs6Qj1qJpbMOz_8parallel15target_4_fuzz__10write_args4ArgsE0B1a_
FN:140,_RNCINvNtCs7qDQvy6XYpV_18test_fuzz_internal4dirs19path_from_args_typeNtNvNtCs6Qj1qJpbMOz_8parallel15target_5_fuzz__10write_args4ArgsE0B1a_
FN:136,_RINvNtCs7tkdMjTuzcM_18test_fuzz_internal4dirs19path_from_args_typeNtNtCsd2EalhRLfqm_8parallel15target_0_fuzz__4ArgsEB16_
FN:136,_RINvNtCs7tkdMjTuzcM_18test_fuzz_internal4dirs19path_from_args_typeNtNtCsd2EalhRLfqm_8parallel15target_1_fuzz__4ArgsEB16_
FN:136,_RINvNtCs7tkdMjTuzcM_18test_fuzz_internal4dirs19path_from_args_typeNtNtCsd2EalhRLfqm_8parallel15target_2_fuzz__4ArgsEB16_
FN:136,_RINvNtCs7tkdMjTuzcM_18test_fuzz_internal4dirs19path_from_args_typeNtNtCsd2EalhRLfqm_8parallel15target_3_fuzz__4ArgsEB16_
FN:136,_RINvNtCs7tkdMjTuzcM_18test_fuzz_internal4dirs19path_from_args_typeNtNtCsd2EalhRLfqm_8parallel15target_4_fuzz__4ArgsEB16_
FN:136,_RINvNtCs7tkdMjTuzcM_18test_fuzz_internal4dirs19path_from_args_typeNtNtCsd2EalhRLfqm_8parallel15target_5_fuzz__4ArgsEB16_
FN:136,_RINvNtCs7tkdMjTuzcM_18test_fuzz_internal4dirs19path_from_args_typeNtNvNtCsd2EalhRLfqm_8parallel15target_0_fuzz__10write_args4ArgsEB18_
FN:136,_RINvNtCs7tkdMjTuzcM_18test_fuzz_internal4dirs19path_from_args_typeNtNvNtCsd2EalhRLfqm_8parallel15target_1_fuzz__10write_args4ArgsEB18_
FN:136,_RINvNtCs7tkdMjTuzcM_18test_fuzz_internal4dirs19path_from_args_typeNtNvNtCsd2EalhRLfqm_8parallel15target_2_fuzz__10write_args4ArgsEB18_
FN:136,_RINvNtCs7tkdMjTuzcM_18test_fuzz_internal4dirs19path_from_args_typeNtNvNtCsd2EalhRLfqm_8parallel15target_3_fuzz__10write_args4ArgsEB18_
FN:136,_RINvNtCs7tkdMjTuzcM_18test_fuzz_internal4dirs19path_from_args_typeNtNvNtCsd2EalhRLfqm_8parallel15target_4_fuzz__10write_args4ArgsEB18_
FN:136,_RINvNtCs7tkdMjTuzcM_18test_fuzz_internal4dirs19path_from_args_typeNtNvNtCsd2EalhRLfqm_8parallel15target_5_fuzz__10write_args4ArgsEB18_
FN:32,_RINvNtCs7tkdMjTuzcM_18test_fuzz_internal4dirs31corpus_directory_from_args_typeNtNvNtCsd2EalhRLfqm_8parallel15target_0_fuzz__10write_args4ArgsEB1k_
FN:32,_RINvNtCs7tkdMjTuzcM_18test_fuzz_internal4dirs31corpus_directory_from_args_typeNtNvNtCsd2EalhRLfqm_8parallel15target_1_fuzz__10write_args4ArgsEB1k_
FN:32,_RINvNtCs7tkdMjTuzcM_18test_fuzz_internal4dirs31corpus_directory_from_args_typeNtNvNtCsd2EalhRLfqm_8parallel15target_2_fuzz__10write_args4ArgsEB1k_
FN:32,_RINvNtCs7tkdMjTuzcM_18test_fuzz_internal4dirs31corpus_directory_from_args_typeNtNvNtCsd2EalhRLfqm_8parallel15target_3_fuzz__10write_args4ArgsEB1k_
FN:32,_RINvNtCs7tkdMjTuzcM_18test_fuzz_internal4dirs31corpus_directory_from_args_typeNtNvNtCsd2EalhRLfqm_8parallel15target_4_fuzz__10write_args4ArgsEB1k_
FN:32,_RINvNtCs7tkdMjTuzcM_18test_fuzz_internal4dirs31corpus_directory_from_args_typeNtNvNtCsd2EalhRLfqm_8parallel15target_5_fuzz__10write_args4ArgsEB1k_
FN:22,_RINvNtCs7tkdMjTuzcM_18test_fuzz_internal4dirs37generic_args_directory_from_args_typeNtNtCsd2EalhRLfqm_8parallel15target_0_fuzz__4ArgsEB1o_
FN:22,_RINvNtCs7tkdMjTuzcM_18test_fuzz_internal4dirs37generic_args_directory_from_args_typeNtNtCsd2EalhRLfqm_8parallel15target_1_fuzz__4ArgsEB1o_
FN:22,_RINvNtCs7tkdMjTuzcM_18test_fuzz_internal4dirs37generic_args_directory_from_args_typeNtNtCsd2EalhRLfqm_8parallel15target_2_fuzz__4ArgsEB1o_
FN:22,_RINvNtCs7tkdMjTuzcM_18test_fuzz_internal4dirs37generic_args_directory_from_args_typeNtNtCsd2EalhRLfqm_8parallel15target_3_fuzz__4ArgsEB1o_
FN:22,_RINvNtCs7tkdMjTuzcM_18test_fuzz_internal4dirs37generic_args_directory_from_args_typeNtNtCsd2EalhRLfqm_8parallel15target_4_fuzz__4ArgsEB1o_
FN:22,_RINvNtCs7tkdMjTuzcM_18test_fuzz_internal4dirs37generic_args_directory_from_args_typeNtNtCsd2EalhRLfqm_8parallel15target_5_fuzz__4ArgsEB1o_
FN:12,_RINvNtCs7tkdMjTuzcM_18test_fuzz_internal4dirs42impl_generic_args_directory_from_args_typeNtNtCsd2EalhRLfqm_8parallel15target_0_fuzz__4ArgsEB1t_
FN:12,_RINvNtCs7tkdMjTuzcM_18test_fuzz_internal4dirs42impl_generic_args_directory_from_args_typeNtNtCsd2EalhRLfqm_8parallel15target_1_fuzz__4ArgsEB1t_
FN:12,_RINvNtCs7tkdMjTuzcM_18test_fuzz_internal4dirs42impl_generic_args_directory_from_args_typeNtNtCsd2EalhRLfqm_8parallel15target_2_fuzz__4ArgsEB1t_
FN:12,_RINvNtCs7tkdMjTuzcM_18test_fuzz_internal4dirs42impl_generic_args_directory_from_args_typeNtNtCsd2EalhRLfqm_8parallel15target_3_fuzz__4ArgsEB1t_
FN:12,_RINvNtCs7tkdMjTuzcM_18test_fuzz_internal4dirs42impl_generic_args_directory_from_args_typeNtNtCsd2EalhRLfqm_8parallel15target_4_fuzz__4ArgsEB1t_
FN:12,_RINvNtCs7tkdMjTuzcM_18test_fuzz_internal4dirs42impl_generic_args_directory_from_args_typeNtNtCsd2EalhRLfqm_8parallel15target_5_fuzz__4ArgsEB1t_
FN:140,_RNCINvNtCs7tkdMjTuzcM_18test_fuzz_internal4dirs19path_from_args_typeNtNtCsd2EalhRLfqm_8parallel15target_0_fuzz__4ArgsE0B18_
FN:140,_RNCINvNtCs7tkdMjTuzcM_18test_fuzz_internal4dirs19path_from_args_typeNtNtCsd2EalhRLfqm_8parallel15target_1_fuzz__4ArgsE0B18_
FN:140,_RNCINvNtCs7tkdMjTuzcM_18test_fuzz_internal4dirs19path_from_args_typeNtNtCsd2EalhRLfqm_8parallel15target_2_fuzz__4ArgsE0B18_
FN:140,_RNCINvNtCs7tkdMjTuzcM_18test_fuzz_internal4dirs19path_from_args_typeNtNtCsd2EalhRLfqm_8parallel15target_3_fuzz__4ArgsE0B18_
FN:140,_RNCINvNtCs7tkdMjTuzcM_18test_fuzz_internal4dirs19path_from_args_typeNtNtCsd2EalhRLfqm_8parallel15target_4_fuzz__4ArgsE0B18_
FN:140,_RNCINvNtCs7tkdMjTuzcM_18test_fuzz_internal4dirs19path_from_args_typeNtNtCsd2EalhRLfqm_8parallel15target_5_fuzz__4ArgsE0B18_
FN:140,_RNCINvNtCs7tkdMjTuzcM_18test_fuzz_internal4dirs19path_from_args_typeNtNvNtCsd2EalhRLfqm_8parallel15target_0_fuzz__10write_args4ArgsE0B1a_
FN:140,_RNCINvNtCs7tkdMjTuzcM_18test_fuzz_internal4dirs19path_from_args_typeNtNvNtCsd2EalhRLfqm_8parallel15target_1_fuzz__10write_args4ArgsE0B1a_
FN:140,_RNCINvNtCs7tkdMjTuzcM_18test_fuzz_internal4dirs19path_from_args_typeNtNvNtCsd2EalhRLfqm_8parallel15target_2_fuzz__10write_args4ArgsE0B1a_
FN:140,_RNCINvNtCs7tkdMjTuzcM_18test_fuzz_internal4dirs19path_from_args_typeNtNvNtCsd2EalhRLfqm_8parallel15target_3_fuzz__10write_args4ArgsE0B1a_
FN:140,_RNCINvNtCs7tkdMjTuzcM_18test_fuzz_internal4dirs19path_from_args_typeNtNvNtCsd2EalhRLfqm_8parallel15target_4_fuzz__10write_args4ArgsE0B1a_
FN:140,_RNCINvNtCs7tkdMjTuzcM_18test_fuzz_internal4dirs19path_from_args_typeNtNvNtCsd2EalhRLfqm_8parallel15target_5_fuzz__10write_args4ArgsE0B1a_
FN:136,_RINvNtCs7qDQvy6XYpV_18test_fuzz_internal4dirs19path_from_args_typeNtNtCsli0t1whKaEh_8parallel15target_0_fuzz__4ArgsEB16_
FN:136,_RINvNtCs7qDQvy6XYpV_18test_fuzz_internal4dirs19path_from_args_typeNtNtCsli0t1whKaEh_8parallel15target_1_fuzz__4ArgsEB16_
FN:136,_RINvNtCs7qDQvy6XYpV_18test_fuzz_internal4dirs19path_from_args_typeNtNtCsli0t1whKaEh_8parallel15target_2_fuzz__4ArgsEB16_
FN:136,_RINvNtCs7qDQvy6XYpV_18test_fuzz_internal4dirs19path_from_args_typeNtNtCsli0t1whKaEh_8parallel15target_3_fuzz__4ArgsEB16_
FN:136,_RINvNtCs7qDQvy6XYpV_18test_fuzz_internal4dirs19path_from_args_typeNtNtCsli0t1whKaEh_8parallel15target_4_fuzz__4ArgsEB16_
FN:136,_RINvNtCs7qDQvy6XYpV_18test_fuzz_internal4dirs19path_from_args_typeNtNtCsli0t1whKaEh_8parallel15target_5_fuzz__4ArgsEB16_
FN:136,_RINvNtCs7qDQvy6XYpV_18test_fuzz_internal4dirs19path_from_args_typeNtNvNtCsli0t1whKaEh_8parallel15target_0_fuzz__10write_args4ArgsEB18_
FN:136,_RINvNtCs7qDQvy6XYpV_18test_fuzz_internal4dirs19path_from_args_typeNtNvNtCsli0t1whKaEh_8parallel15target_1_fuzz__10write_args4ArgsEB18_
FN:136,_RINvNtCs7qDQvy6XYpV_18test_fuzz_internal4dirs19path_from_args_typeNtNvNtCsli0t1whKaEh_8parallel15target_2_fuzz__10write_args4ArgsEB18_
FN:136,_RINvNtCs7qDQvy6XYpV_18test_fuzz_internal4dirs19path_from_args_typeNtNvNtCsli0t1whKaEh_8parallel15target_3_fuzz__10write_args4ArgsEB18_
FN:136,_RINvNtCs7qDQvy6XYpV_18test_fuzz_internal4dirs19path_from_args_typeNtNvNtCsli0t1whKaEh_8parallel15target_4_fuzz__10write_args4ArgsEB18_
FN:136,_RINvNtCs7qDQvy6XYpV_18test_fuzz_internal4dirs19path_from_args_typeNtNvNtCsli0t1whKaEh_8parallel15target_5_fuzz__10write_args4ArgsEB18_
FN:32,_RINvNtCs7qDQvy6XYpV_18test_fuzz_internal4dirs31corpus_directory_from_args_typeNtNvNtCsli0t1whKaEh_8parallel15target_0_fuzz__10write_args4ArgsEB1k_
FN:32,_RINvNtCs7qDQvy6XYpV_18test_fuzz_internal4dirs31corpus_directory_from_args_typeNtNvNtCsli0t1whKaEh_8parallel15target_1_fuzz__10write_args4ArgsEB1k_
FN:32,_RINvNtCs7qDQvy6XYpV_18test_fuzz_internal4dirs31corpus_directory_from_args_typeNtNvNtCsli0t1whKaEh_8parallel15target_2_fuzz__10write_args4ArgsEB1k_
FN:32,_RINvNtCs7qDQvy6XYpV_18test_fuzz_internal4dirs31corpus_directory_from_args_typeNtNvNtCsli0t1whKaEh_8parallel15target_3_fuzz__10write_args4ArgsEB1k_
FN:32,_RINvNtCs7qDQvy6XYpV_18test_fuzz_internal4dirs31corpus_directory_from_args_typeNtNvNtCsli0t1whKaEh_8parallel15target_4_fuzz__10write_args4ArgsEB1k_
FN:32,_RINvNtCs7qDQvy6XYpV_18test_fuzz_internal4dirs31corpus_directory_from_args_typeNtNvNtCsli0t1whKaEh_8parallel15target_5_fuzz__10write_args4ArgsEB1k_
FN:22,_RINvNtCs7qDQvy6XYpV_18test_fuzz_internal4dirs37generic_args_directory_from_args_typeNtNtCsli0t1whKaEh_8parallel15target_0_fuzz__4ArgsEB1o_
FN:22,_RINvNtCs7qDQvy6XYpV_18test_fuzz_internal4dirs37generic_args_directory_from_args_typeNtNtCsli0t1whKaEh_8parallel15target_1_fuzz__4ArgsEB1o_
FN:22,_RINvNtCs7qDQvy6XYpV_18test_fuzz_internal4dirs37generic_args_directory_from_args_typeNtNtCsli0t1whKaEh_8parallel15target_2_fuzz__4ArgsEB1o_
FN:22,_RINvNtCs7qDQvy6XYpV_18test_fuzz_internal4dirs37generic_args_directory_from_args_typeNtNtCsli0t1whKaEh_8parallel15target_3_fuzz__4ArgsEB1o_
FN:22,_RINvNtCs7qDQvy6XYpV_18test_fuzz_internal4dirs37generic_args_directory_from_args_typeNtNtCsli0t1whKaEh_8parallel15target_4_fuzz__4ArgsEB1o_
FN:22,_RINvNtCs7qDQvy6XYpV_18test_fuzz_internal4dirs37generic_args_directory_from_args_typeNtNtCsli0t1whKaEh_8parallel15target_5_fuzz__4ArgsEB1o_
FN:12,_RINvNtCs7qDQvy6XYpV_18test_fuzz_internal4dirs42impl_generic_args_directory_from_args_typeNtNtCsli0t1whKaEh_8parallel15target_0_fuzz__4ArgsEB1t_
FN:12,_RINvNtCs7qDQvy6XYpV_18test_fuzz_internal4dirs42impl_generic_args_directory_from_args_typeNtNtCsli0t1whKaEh_8parallel15target_1_fuzz__4ArgsEB1t_
FN:12,_RINvNtCs7qDQvy6XYpV_18test_fuzz_internal4dirs42impl_generic_args_directory_from_args_typeNtNtCsli0t1whKaEh_8parallel15target_2_fuzz__4ArgsEB1t_
FN:12,_RINvNtCs7qDQvy6XYpV_18test_fuzz_internal4dirs42impl_generic_args_directory_from_args_typeNtNtCsli0t1whKaEh_8parallel15target_3_fuzz__4ArgsEB1t_
FN:12,_RINvNtCs7qDQvy6XYpV_18test_fuzz_internal4dirs42impl_generic_args_directory_from_args_typeNtNtCsli0t1whKaEh_8parallel15target_4_fuzz__4ArgsEB1t_
FN:12,_RINvNtCs7qDQvy6XYpV_18test_fuzz_internal4dirs42impl_generic_args_directory_from_args_typeNtNtCsli0t1whKaEh_8parallel15target_5_fuzz__4ArgsEB1t_
FN:140,_RNCINvNtCs7qDQvy6XYpV_18test_fuzz_internal4dirs19path_from_args_typeNtNtCsli0t1whKaEh_8parallel15target_0_fuzz__4ArgsE0B18_
FN:140,_RNCINvNtCs7qDQvy6XYpV_18test_fuzz_internal4dirs19path_from_args_typeNtNtCsli0t1whKaEh_8parallel15target_1_fuzz__4ArgsE0B18_
FN:140,_RNCINvNtCs7qDQvy6XYpV_18test_fuzz_internal4dirs19path_from_args_typeNtNtCsli0t1whKaEh_8parallel15target_2_fuzz__4ArgsE0B18_
FN:140,_RNCINvNtCs7qDQvy6XYpV_18test_fuzz_internal4dirs19path_from_args_typeNtNtCsli0t1whKaEh_8parallel15target_3_fuzz__4ArgsE0B18_
FN:140,_RNCINvNtCs7qDQvy6XYpV_18test_fuzz_internal4dirs19path_from_args_typeNtNtCsli0t1whKaEh_8parallel15target_4_fuzz__4ArgsE0B18_
FN:140,_RNCINvNtCs7qDQvy6XYpV_18test_fuzz_internal4dirs19path_from_args_typeNtNtCsli0t1whKaEh_8parallel15target_5_fuzz__4ArgsE0B18_
FN:140,_RNCINvNtCs7qDQvy6XYpV_18test_fuzz_internal4dirs19path_from_args_typeNtNvNtCsli0t1whKaEh_8parallel15target_0_fuzz__10write_args4ArgsE0B1a_
FN:140,_RNCINvNtCs7qDQvy6XYpV_18test_fuzz_internal4dirs19path_from_args_typeNtNvNtCsli0t1whKaEh_8parallel15target_1_fuzz__10write_args4ArgsE0B1a_
FN:140,_RNCINvNtCs7qDQvy6XYpV_18test_fuzz_internal4dirs19path_from_args_typeNtNvNtCsli0t1whKaEh_8parallel15target_2_fuzz__10write_args4ArgsE0B1a_
FN:140,_RNCINvNtCs7qDQvy6XYpV_18test_fuzz_internal4dirs19path_from_args_typeNtNvNtCsli0t1whKaEh_8parallel15target_3_fuzz__10write_args4ArgsE0B1a_
FN:140,_RNCINvNtCs7qDQvy6XYpV_18test_fuzz_internal4dirs19path_from_args_typeNtNvNtCsli0t1whKaEh_8parallel15target_4_fuzz__10write_args4ArgsE0B1a_
FN:140,_RNCINvNtCs7qDQvy6XYpV_18test_fuzz_internal4dirs19path_from_args_typeNtNvNtCsli0t1whKaEh_8parallel15target_5_fuzz__10write_args4ArgsE0B1a_
FN:136,_RINvNtCs7qDQvy6XYpV_18test_fuzz_internal4dirs19path_from_args_typeNtNtCs43OsMJA4dOi_14parse_duration12parse_fuzz__4ArgsEB16_
FN:136,_RINvNtCs7qDQvy6XYpV_18test_fuzz_internal4dirs19path_from_args_typeNtNvNtCs43OsMJA4dOi_14parse_duration12parse_fuzz__10write_args4ArgsEB18_
FN:32,_RINvNtCs7qDQvy6XYpV_18test_fuzz_internal4dirs31corpus_directory_from_args_typeNtNvNtCs43OsMJA4dOi_14parse_duration12parse_fuzz__10write_args4ArgsEB1k_
FN:22,_RINvNtCs7qDQvy6XYpV_18test_fuzz_internal4dirs37generic_args_directory_from_args_typeNtNtCs43OsMJA4dOi_14parse_duration12parse_fuzz__4ArgsEB1o_
FN:12,_RINvNtCs7qDQvy6XYpV_18test_fuzz_internal4dirs42impl_generic_args_directory_from_args_typeNtNtCs43OsMJA4dOi_14parse_duration12parse_fuzz__4ArgsEB1t_
FN:140,_RNCINvNtCs7qDQvy6XYpV_18test_fuzz_internal4dirs19path_from_args_typeNtNtCs43OsMJA4dOi_14parse_duration12parse_fuzz__4ArgsE0B18_
FN:140,_RNCINvNtCs7qDQvy6XYpV_18test_fuzz_internal4dirs19path_from_args_typeNtNvNtCs43OsMJA4dOi_14parse_duration12parse_fuzz__10write_args4ArgsE0B1a_
FN:136,_RINvNtCs7tkdMjTuzcM_18test_fuzz_internal4dirs19path_from_args_typeNtNtCs1ZHkx4dlC5u_14parse_duration12parse_fuzz__4ArgsEB16_
FN:136,_RINvNtCs7tkdMjTuzcM_18test_fuzz_internal4dirs19path_from_args_typeNtNvNtCs1ZHkx4dlC5u_14parse_duration12parse_fuzz__10write_args4ArgsEB18_
FN:32,_RINvNtCs7tkdMjTuzcM_18test_fuzz_internal4dirs31corpus_directory_from_args_typeNtNvNtCs1ZHkx4dlC5u_14parse_duration12parse_fuzz__10write_args4ArgsEB1k_
FN:22,_RINvNtCs7tkdMjTuzcM_18test_fuzz_internal4dirs37generic_args_directory_from_args_typeNtNtCs1ZHkx4dlC5u_14parse_duration12parse_fuzz__4ArgsEB1o_
FN:12,_RINvNtCs7tkdMjTuzcM_18test_fuzz_internal4dirs42impl_generic_args_directory_from_args_typeNtNtCs1ZHkx4dlC5u_14parse_duration12parse_fuzz__4ArgsEB1t_
FN:140,_RNCINvNtCs7tkdMjTuzcM_18test_fuzz_internal4dirs19path_from_args_typeNtNtCs1ZHkx4dlC5u_14parse_duration12parse_fuzz__4ArgsE0B18_
FN:140,_RNCINvNtCs7tkdMjTuzcM_18test_fuzz_internal4dirs19path_from_args_typeNtNvNtCs1ZHkx4dlC5u_14parse_duration12parse_fuzz__10write_args4ArgsE0B1a_
FN:136,_RINvNtCs7qDQvy6XYpV_18test_fuzz_internal4dirs19path_from_args_typeNtNtCsdKwP1BMZ14_14parse_duration12parse_fuzz__4ArgsEB16_
FN:136,_RINvNtCs7qDQvy6XYpV_18test_fuzz_internal4dirs19path_from_args_typeNtNvNtCsdKwP1BMZ14_14parse_duration12parse_fuzz__10write_args4ArgsEB18_
FN:32,_RINvNtCs7qDQvy6XYpV_18test_fuzz_internal4dirs31corpus_directory_from_args_typeNtNvNtCsdKwP1BMZ14_14parse_duration12parse_fuzz__10write_args4ArgsEB1k_
FN:22,_RINvNtCs7qDQvy6XYpV_18test_fuzz_internal4dirs37generic_args_directory_from_args_typeNtNtCsdKwP1BMZ14_14parse_duration12parse_fuzz__4ArgsEB1o_
FN:12,_RINvNtCs7qDQvy6XYpV_18test_fuzz_internal4dirs42impl_generic_args_directory_from_args_typeNtNtCsdKwP1BMZ14_14parse_duration12parse_fuzz__4ArgsEB1t_
FN:140,_RNCINvNtCs7qDQvy6XYpV_18test_fuzz_internal4dirs19path_from_args_typeNtNtCsdKwP1BMZ14_14parse_duration12parse_fuzz__4ArgsE0B18_
FN:140,_RNCINvNtCs7qDQvy6XYpV_18test_fuzz_internal4dirs19path_from_args_typeNtNvNtCsdKwP1BMZ14_14parse_duration12parse_fuzz__10write_args4ArgsE0B1a_
FN:136,_RINvNtCs7tkdMjTuzcM_18test_fuzz_internal4dirs19path_from_args_typeNtNtCs3bwG5i6Huhc_7profile13target_fuzz__4ArgsEB16_
FN:136,_RINvNtCs7tkdMjTuzcM_18test_fuzz_internal4dirs19path_from_args_typeNtNvNtCs3bwG5i6Huhc_7profile13target_fuzz__10write_args4ArgsEB18_
FN:32,_RINvNtCs7tkdMjTuzcM_18test_fuzz_internal4dirs31corpus_directory_from_args_typeNtNvNtCs3bwG5i6Huhc_7profile13target_fuzz__10write_args4ArgsEB1k_
FN:22,_RINvNtCs7tkdMjTuzcM_18test_fuzz_internal4dirs37generic_args_directory_from_args_typeNtNtCs3bwG5i6Huhc_7profile13target_fuzz__4ArgsEB1o_
FN:12,_RINvNtCs7tkdMjTuzcM_18test_fuzz_internal4dirs42impl_generic_args_directory_from_args_typeNtNtCs3bwG5i6Huhc_7profile13target_fuzz__4ArgsEB1t_
FN:140,_RNCINvNtCs7tkdMjTuzcM_18test_fuzz_internal4dirs19path_from_args_typeNtNtCs3bwG5i6Huhc_7profile13target_fuzz__4ArgsE0B18_
FN:140,_RNCINvNtCs7tkdMjTuzcM_18test_fuzz_internal4dirs19path_from_args_typeNtNvNtCs3bwG5i6Huhc_7profile13target_fuzz__10write_args4ArgsE0B1a_
FN:136,_RINvNtCs7qDQvy6XYpV_18test_fuzz_internal4dirs19path_from_args_typeNtNtCs80b9OweIe8z_7profile13target_fuzz__4ArgsEB16_
FN:136,_RINvNtCs7qDQvy6XYpV_18test_fuzz_internal4dirs19path_from_args_typeNtNvNtCs80b9OweIe8z_7profile13target_fuzz__10write_args4ArgsEB18_
FN:32,_RINvNtCs7qDQvy6XYpV_18test_fuzz_internal4dirs31corpus_directory_from_args_typeNtNvNtCs80b9OweIe8z_7profile13target_fuzz__10write_args4ArgsEB1k_
FN:22,_RINvNtCs7qDQvy6XYpV_18test_fuzz_internal4dirs37generic_args_directory_from_args_typeNtNtCs80b9OweIe8z_7profile13target_fuzz__4ArgsEB1o_
FN:12,_RINvNtCs7qDQvy6XYpV_18test_fuzz_internal4dirs42impl_generic_args_directory_from_args_typeNtNtCs80b9OweIe8z_7profile13target_fuzz__4ArgsEB1t_
FN:140,_RNCINvNtCs7qDQvy6XYpV_18test_fuzz_internal4dirs19path_from_args_typeNtNtCs80b9OweIe8z_7profile13target_fuzz__4ArgsE0B18_
FN:140,_RNCINvNtCs7qDQvy6XYpV_18test_fuzz_internal4dirs19path_from_args_typeNtNvNtCs80b9OweIe8z_7profile13target_fuzz__10write_args4ArgsE0B1a_
FN:136,_RINvNtCs7qDQvy6XYpV_18test_fuzz_internal4dirs19path_from_args_typeNtNtCs7qmmcbC6VW5_7profile13target_fuzz__4ArgsEB16_
FN:136,_RINvNtCs7qDQvy6XYpV_18test_fuzz_internal4dirs19path_from_args_typeNtNvNtCs7qmmcbC6VW5_7profile13target_fuzz__10write_args4ArgsEB18_
FN:32,_RINvNtCs7qDQvy6XYpV_18test_fuzz_internal4dirs31corpus_directory_from_args_typeNtNvNtCs7qmmcbC6VW5_7profile13target_fuzz__10write_args4ArgsEB1k_
FN:22,_RINvNtCs7qDQvy6XYpV_18test_fuzz_internal4dirs37generic_args_directory_from_args_typeNtNtCs7qmmcbC6VW5_7profile13target_fuzz__4ArgsEB1o_
FN:12,_RINvNtCs7qDQvy6XYpV_18test_fuzz_internal4dirs42impl_generic_args_directory_from_args_typeNtNtCs7qmmcbC6VW5_7profile13target_fuzz__4ArgsEB1t_
FN:140,_RNCINvNtCs7qDQvy6XYpV_18test_fuzz_internal4dirs19path_from_args_typeNtNtCs7qmmcbC6VW5_7profile13target_fuzz__4ArgsE0B18_
FN:140,_RNCINvNtCs7qDQvy6XYpV_18test_fuzz_internal4dirs19path_from_args_typeNtNvNtCs7qmmcbC6VW5_7profile13target_fuzz__10write_args4ArgsE0B1a_
FN:136,_RINvNtCs7qDQvy6XYpV_18test_fuzz_internal4dirs19path_from_args_typeNtNtCs2nn7Q0ZsJaY_6qwerty13target_fuzz__4ArgsEB16_
FN:136,_RINvNtCs7qDQvy6XYpV_18test_fuzz_internal4dirs19path_from_args_typeNtNvNtCs2nn7Q0ZsJaY_6qwerty13target_fuzz__10write_args4ArgsEB18_
FN:32,_RINvNtCs7qDQvy6XYpV_18test_fuzz_internal4dirs31corpus_directory_from_args_typeNtNvNtCs2nn7Q0ZsJaY_6qwerty13target_fuzz__10write_args4ArgsEB1k_
FN:22,_RINvNtCs7qDQvy6XYpV_18test_fuzz_internal4dirs37generic_args_directory_from_args_typeNtNtCs2nn7Q0ZsJaY_6qwerty13target_fuzz__4ArgsEB1o_
FN:12,_RINvNtCs7qDQvy6XYpV_18test_fuzz_internal4dirs42impl_generic_args_directory_from_args_typeNtNtCs2nn7Q0ZsJaY_6qwerty13target_fuzz__4ArgsEB1t_
FN:140,_RNCINvNtCs7qDQvy6XYpV_18test_fuzz_internal4dirs19path_from_args_typeNtNtCs2nn7Q0ZsJaY_6qwerty13target_fuzz__4ArgsE0B18_
FN:140,_RNCINvNtCs7qDQvy6XYpV_18test_fuzz_internal4dirs19path_from_args_typeNtNvNtCs2nn7Q0ZsJaY_6qwerty13target_fuzz__10write_args4ArgsE0B1a_
FN:136,_RINvNtCs7tkdMjTuzcM_18test_fuzz_internal4dirs19path_from_args_typeNtNtCs3luYp0Istsn_6qwerty13target_fuzz__4ArgsEB16_
FN:136,_RINvNtCs7tkdMjTuzcM_18test_fuzz_internal4dirs19path_from_args_typeNtNvNtCs3luYp0Istsn_6qwerty13target_fuzz__10write_args4ArgsEB18_
FN:32,_RINvNtCs7tkdMjTuzcM_18test_fuzz_internal4dirs31corpus_directory_from_args_typeNtNvNtCs3luYp0Istsn_6qwerty13target_fuzz__10write_args4ArgsEB1k_
FN:22,_RINvNtCs7tkdMjTuzcM_18test_fuzz_internal4dirs37generic_args_directory_from_args_typeNtNtCs3luYp0Istsn_6qwerty13target_fuzz__4ArgsEB1o_
FN:12,_RINvNtCs7tkdMjTuzcM_18test_fuzz_internal4dirs42impl_generic_args_directory_from_args_typeNtNtCs3luYp0Istsn_6qwerty13target_fuzz__4ArgsEB1t_
FN:140,_RNCINvNtCs7tkdMjTuzcM_18test_fuzz_internal4dirs19path_from_args_typeNtNtCs3luYp0Istsn_6qwerty13target_fuzz__4ArgsE0B18_
FN:140,_RNCINvNtCs7tkdMjTuzcM_18test_fuzz_internal4dirs19path_from_args_typeNtNvNtCs3luYp0Istsn_6qwerty13target_fuzz__10write_args4ArgsE0B1a_
FN:136,_RINvNtCs7qDQvy6XYpV_18test_fuzz_internal4dirs19path_from_args_typeNtNtCs8fxzZCH268U_6qwerty13target_fuzz__4ArgsEB16_
FN:136,_RINvNtCs7qDQvy6XYpV_18test_fuzz_internal4dirs19path_from_args_typeNtNvNtCs8fxzZCH268U_6qwerty13target_fuzz__10write_args4ArgsEB18_
FN:32,_RINvNtCs7qDQvy6XYpV_18test_fuzz_internal4dirs31corpus_directory_from_args_typeNtNvNtCs8fxzZCH268U_6qwerty13target_fuzz__10write_args4ArgsEB1k_
FN:22,_RINvNtCs7qDQvy6XYpV_18test_fuzz_internal4dirs37generic_args_directory_from_args_typeNtNtCs8fxzZCH268U_6qwerty13target_fuzz__4ArgsEB1o_
FN:12,_RINvNtCs7qDQvy6XYpV_18test_fuzz_internal4dirs42impl_generic_args_directory_from_args_typeNtNtCs8fxzZCH268U_6qwerty13target_fuzz__4ArgsEB1t_
FN:140,_RNCINvNtCs7qDQvy6XYpV_18test_fuzz_internal4dirs19path_from_args_typeNtNtCs8fxzZCH268U_6qwerty13target_fuzz__4ArgsE0B18_
FN:140,_RNCINvNtCs7qDQvy6XYpV_18test_fuzz_internal4dirs19path_from_args_typeNtNvNtCs8fxzZCH268U_6qwerty13target_fuzz__10write_args4ArgsE0B1a_
FN:136,_RINvNtCs7qDQvy6XYpV_18test_fuzz_internal4dirs19path_from_args_typeNtNtCs5kGvPr5XtxA_6rename10bar_fuzz__4ArgsEB16_
FN:136,_RINvNtCs7qDQvy6XYpV_18test_fuzz_internal4dirs19path_from_args_typeNtNvNtCs5kGvPr5XtxA_6rename10bar_fuzz__10write_args4ArgsEB18_
FN:32,_RINvNtCs7qDQvy6XYpV_18test_fuzz_internal4dirs31corpus_directory_from_args_typeNtNvNtCs5kGvPr5XtxA_6rename10bar_fuzz__10write_args4ArgsEB1k_
FN:22,_RINvNtCs7qDQvy6XYpV_18test_fuzz_internal4dirs37generic_args_directory_from_args_typeNtNtCs5kGvPr5XtxA_6rename10bar_fuzz__4ArgsEB1o_
FN:12,_RINvNtCs7qDQvy6XYpV_18test_fuzz_internal4dirs42impl_generic_args_directory_from_args_typeNtNtCs5kGvPr5XtxA_6rename10bar_fuzz__4ArgsEB1t_
FN:140,_RNCINvNtCs7qDQvy6XYpV_18test_fuzz_internal4dirs19path_from_args_typeNtNtCs5kGvPr5XtxA_6rename10bar_fuzz__4ArgsE0B18_
FN:140,_RNCINvNtCs7qDQvy6XYpV_18test_fuzz_internal4dirs19path_from_args_typeNtNvNtCs5kGvPr5XtxA_6rename10bar_fuzz__10write_args4ArgsE0B1a_
FN:136,_RINvNtCs7tkdMjTuzcM_18test_fuzz_internal4dirs19path_from_args_typeNtNtCs5y3QLrNz5O3_6rename10bar_fuzz__4ArgsEB16_
FN:136,_RINvNtCs7tkdMjTuzcM_18test_fuzz_internal4dirs19path_from_args_typeNtNvNtCs5y3QLrNz5O3_6rename10bar_fuzz__10write_args4ArgsEB18_
FN:32,_RINvNtCs7tkdMjTuzcM_18test_fuzz_internal4dirs31corpus_directory_from_args_typeNtNvNtCs5y3QLrNz5O3_6rename10bar_fuzz__10write_args4ArgsEB1k_
FN:22,_RINvNtCs7tkdMjTuzcM_18test_fuzz_internal4dirs37generic_args_directory_from_args_typeNtNtCs5y3QLrNz5O3_6rename10bar_fuzz__4ArgsEB1o_
FN:12,_RINvNtCs7tkdMjTuzcM_18test_fuzz_internal4dirs42impl_generic_args_directory_from_args_typeNtNtCs5y3QLrNz5O3_6rename10bar_fuzz__4ArgsEB1t_
FN:140,_RNCINvNtCs7tkdMjTuzcM_18test_fuzz_internal4dirs19path_from_args_typeNtNtCs5y3QLrNz5O3_6rename10bar_fuzz__4ArgsE0B18_
FN:140,_RNCINvNtCs7tkdMjTuzcM_18test_fuzz_internal4dirs19path_from_args_typeNtNvNtCs5y3QLrNz5O3_6rename10bar_fuzz__10write_args4ArgsE0B1a_
FN:136,_RINvNtCs7qDQvy6XYpV_18test_fuzz_internal4dirs19path_from_args_typeNtNtCsfevUP4KSlUK_6rename10bar_fuzz__4ArgsEB16_
FN:136,_RINvNtCs7qDQvy6XYpV_18test_fuzz_internal4dirs19path_from_args_typeNtNvNtCsfevUP4KSlUK_6rename10bar_fuzz__10write_args4ArgsEB18_
FN:32,_RINvNtCs7qDQvy6XYpV_18test_fuzz_internal4dirs31corpus_directory_from_args_typeNtNvNtCsfevUP4KSlUK_6rename10bar_fuzz__10write_args4ArgsEB1k_
FN:22,_RINvNtCs7qDQvy6XYpV_18test_fuzz_internal4dirs37generic_args_directory_from_args_typeNtNtCsfevUP4KSlUK_6rename10bar_fuzz__4ArgsEB1o_
FN:12,_RINvNtCs7qDQvy6XYpV_18test_fuzz_internal4dirs42impl_generic_args_directory_from_args_typeNtNtCsfevUP4KSlUK_6rename10bar_fuzz__4ArgsEB1t_
FN:140,_RNCINvNtCs7qDQvy6XYpV_18test_fuzz_internal4dirs19path_from_args_typeNtNtCsfevUP4KSlUK_6rename10bar_fuzz__4ArgsE0B18_
FN:140,_RNCINvNtCs7qDQvy6XYpV_18test_fuzz_internal4dirs19path_from_args_typeNtNvNtCsfevUP4KSlUK_6rename10bar_fuzz__10write_args4ArgsE0B1a_
FN:136,_RINvNtCs7tkdMjTuzcM_18test_fuzz_internal4dirs19path_from_args_typeINtNtCs4buqBA47Usg_11return_type16swap_swap_fuzz__4ArgsubEEB17_
FN:136,_RINvNtCs7tkdMjTuzcM_18test_fuzz_internal4dirs19path_from_args_typeINtNvNtCs4buqBA47Usg_11return_type16swap_swap_fuzz__10write_args4ArgsubEEB19_
FN:32,_RINvNtCs7tkdMjTuzcM_18test_fuzz_internal4dirs31corpus_directory_from_args_typeINtNvNtCs4buqBA47Usg_11return_type16swap_swap_fuzz__10write_args4ArgsubEEB1l_
FN:22,_RINvNtCs7tkdMjTuzcM_18test_fuzz_internal4dirs37generic_args_directory_from_args_typeINtNtCs4buqBA47Usg_11return_type16swap_swap_fuzz__4ArgsubEEB1p_
FN:12,_RINvNtCs7tkdMjTuzcM_18test_fuzz_internal4dirs42impl_generic_args_directory_from_args_typeINtNtCs4buqBA47Usg_11return_type16swap_swap_fuzz__4ArgsubEEB1u_
FN:140,_RNCINvNtCs7tkdMjTuzcM_18test_fuzz_internal4dirs19path_from_args_typeINtNtCs4buqBA47Usg_11return_type16swap_swap_fuzz__4ArgsubEE0B19_
FN:140,_RNCINvNtCs7tkdMjTuzcM_18test_fuzz_internal4dirs19path_from_args_typeINtNvNtCs4buqBA47Usg_11return_type16swap_swap_fuzz__10write_args4ArgsubEE0B1b_
FN:136,_RINvNtCs7qDQvy6XYpV_18test_fuzz_internal4dirs19path_from_args_typeINtNtCs16j12OPDxOb_11return_type16swap_swap_fuzz__4ArgsubEEB17_
FN:136,_RINvNtCs7qDQvy6XYpV_18test_fuzz_internal4dirs19path_from_args_typeINtNvNtCs16j12OPDxOb_11return_type16swap_swap_fuzz__10write_args4ArgsubEEB19_
FN:32,_RINvNtCs7qDQvy6XYpV_18test_fuzz_internal4dirs31corpus_directory_from_args_typeINtNvNtCs16j12OPDxOb_11return_type16swap_swap_fuzz__10write_args4ArgsubEEB1l_
FN:22,_RINvNtCs7qDQvy6XYpV_18test_fuzz_internal4dirs37generic_args_directory_from_args_typeINtNtCs16j12OPDxOb_11return_type16swap_swap_fuzz__4ArgsubEEB1p_
FN:12,_RINvNtCs7qDQvy6XYpV_18test_fuzz_internal4dirs42impl_generic_args_directory_from_args_typeINtNtCs16j12OPDxOb_11return_type16swap_swap_fuzz__4ArgsubEEB1u_
FN:140,_RNCINvNtCs7qDQvy6XYpV_18test_fuzz_internal4dirs19path_from_args_typeINtNtCs16j12OPDxOb_11return_type16swap_swap_fuzz__4ArgsubEE0B19_
FN:140,_RNCINvNtCs7qDQvy6XYpV_18test_fuzz_internal4dirs19path_from_args_typeINtNvNtCs16j12OPDxOb_11return_type16swap_swap_fuzz__10write_args4ArgsubEE0B1b_
FN:136,_RINvNtCs7qDQvy6XYpV_18test_fuzz_internal4dirs19path_from_args_typeINtNtCskuhvJTDbJdO_11return_type16swap_swap_fuzz__4ArgsubEEB17_
FN:136,_RINvNtCs7qDQvy6XYpV_18test_fuzz_internal4dirs19path_from_args_typeINtNvNtCskuhvJTDbJdO_11return_type16swap_swap_fuzz__10write_args4ArgsubEEB19_
FN:32,_RINvNtCs7qDQvy6XYpV_18test_fuzz_internal4dirs31corpus_directory_from_args_typeINtNvNtCskuhvJTDbJdO_11return_type16swap_swap_fuzz__10write_args4ArgsubEEB1l_
FN:22,_RINvNtCs7qDQvy6XYpV_18test_fuzz_internal4dirs37generic_args_directory_from_args_typeINtNtCskuhvJTDbJdO_11return_type16swap_swap_fuzz__4ArgsubEEB1p_
FN:12,_RINvNtCs7qDQvy6XYpV_18test_fuzz_internal4dirs42impl_generic_args_directory_from_args_typeINtNtCskuhvJTDbJdO_11return_type16swap_swap_fuzz__4ArgsubEEB1u_
FN:140,_RNCINvNtCs7qDQvy6XYpV_18test_fuzz_internal4dirs19path_from_args_typeINtNtCskuhvJTDbJdO_11return_type16swap_swap_fuzz__4ArgsubEE0B19_
FN:140,_RNCINvNtCs7qDQvy6XYpV_18test_fuzz_internal4dirs19path_from_args_typeINtNvNtCskuhvJTDbJdO_11return_type16swap_swap_fuzz__10write_args4ArgsubEE0B1b_
FN:136,_RINvNtCs7qDQvy6XYpV_18test_fuzz_internal4dirs19path_from_args_typeNtNtCsk0RfXBYiXkW_19self_ty_in_mod_name20struct_target_fuzz__4ArgsEB16_
FN:136,_RINvNtCs7qDQvy6XYpV_18test_fuzz_internal4dirs19path_from_args_typeNtNvNtCsk0RfXBYiXkW_19self_ty_in_mod_name20struct_target_fuzz__10write_args4ArgsEB18_
FN:32,_RINvNtCs7qDQvy6XYpV_18test_fuzz_internal4dirs31corpus_directory_from_args_typeNtNvNtCsk0RfXBYiXkW_19self_ty_in_mod_name20struct_target_fuzz__10write_args4ArgsEB1k_
FN:22,_RINvNtCs7qDQvy6XYpV_18test_fuzz_internal4dirs37generic_args_directory_from_args_typeNtNtCsk0RfXBYiXkW_19self_ty_in_mod_name20struct_target_fuzz__4ArgsEB1o_
FN:12,_RINvNtCs7qDQvy6XYpV_18test_fuzz_internal4dirs42impl_generic_args_directory_from_args_typeNtNtCsk0RfXBYiXkW_19self_ty_in_mod_name20struct_target_fuzz__4ArgsEB1t_
FN:140,_RNCINvNtCs7qDQvy6XYpV_18test_fuzz_internal4dirs19path_from_args_typeNtNtCsk0RfXBYiXkW_19self_ty_in_mod_name20struct_target_fuzz__4ArgsE0B18_
FN:140,_RNCINvNtCs7qDQvy6XYpV_18test_fuzz_internal4dirs19path_from_args_typeNtNvNtCsk0RfXBYiXkW_19self_ty_in_mod_name20struct_target_fuzz__10write_args4ArgsE0B1a_
FN:136,_RINvNtCs7tkdMjTuzcM_18test_fuzz_internal4dirs19path_from_args_typeNtNtCs2UDPBYP1fQx_19self_ty_in_mod_name20struct_target_fuzz__4ArgsEB16_
FN:136,_RINvNtCs7tkdMjTuzcM_18test_fuzz_internal4dirs19path_from_args_typeNtNvNtCs2UDPBYP1fQx_19self_ty_in_mod_name20struct_target_fuzz__10write_args4ArgsEB18_
FN:32,_RINvNtCs7tkdMjTuzcM_18test_fuzz_internal4dirs31corpus_directory_from_args_typeNtNvNtCs2UDPBYP1fQx_19self_ty_in_mod_name20struct_target_fuzz__10write_args4ArgsEB1k_
FN:22,_RINvNtCs7tkdMjTuzcM_18test_fuzz_internal4dirs37generic_args_directory_from_args_typeNtNtCs2UDPBYP1fQx_19self_ty_in_mod_name20struct_target_fuzz__4ArgsEB1o_
FN:12,_RINvNtCs7tkdMjTuzcM_18test_fuzz_internal4dirs42impl_generic_args_directory_from_args_typeNtNtCs2UDPBYP1fQx_19self_ty_in_mod_name20struct_target_fuzz__4ArgsEB1t_
FN:140,_RNCINvNtCs7tkdMjTuzcM_18test_fuzz_internal4dirs19path_from_args_typeNtNtCs2UDPBYP1fQx_19self_ty_in_mod_name20struct_target_fuzz__4ArgsE0B18_
FN:140,_RNCINvNtCs7tkdMjTuzcM_18test_fuzz_internal4dirs19path_from_args_typeNtNvNtCs2UDPBYP1fQx_19self_ty_in_mod_name20struct_target_fuzz__10write_args4ArgsE0B1a_
FN:136,_RINvNtCs7qDQvy6XYpV_18test_fuzz_internal4dirs19path_from_args_typeNtNtCsae250jbXXZS_19self_ty_in_mod_name20struct_target_fuzz__4ArgsEB16_
FN:136,_RINvNtCs7qDQvy6XYpV_18test_fuzz_internal4dirs19path_from_args_typeNtNvNtCsae250jbXXZS_19self_ty_in_mod_name20struct_target_fuzz__10write_args4ArgsEB18_
FN:32,_RINvNtCs7qDQvy6XYpV_18test_fuzz_internal4dirs31corpus_directory_from_args_typeNtNvNtCsae250jbXXZS_19self_ty_in_mod_name20struct_target_fuzz__10write_args4ArgsEB1k_
FN:22,_RINvNtCs7qDQvy6XYpV_18test_fuzz_internal4dirs37generic_args_directory_from_args_typeNtNtCsae250jbXXZS_19self_ty_in_mod_name20struct_target_fuzz__4ArgsEB1o_
FN:12,_RINvNtCs7qDQvy6XYpV_18test_fuzz_internal4dirs42impl_generic_args_directory_from_args_typeNtNtCsae250jbXXZS_19self_ty_in_mod_name20struct_target_fuzz__4ArgsEB1t_
FN:140,_RNCINvNtCs7qDQvy6XYpV_18test_fuzz_internal4dirs19path_from_args_typeNtNtCsae250jbXXZS_19self_ty_in_mod_name20struct_target_fuzz__4ArgsE0B18_
FN:140,_RNCINvNtCs7qDQvy6XYpV_18test_fuzz_internal4dirs19path_from_args_typeNtNvNtCsae250jbXXZS_19self_ty_in_mod_name20struct_target_fuzz__10write_args4ArgsE0B1a_
FN:136,_RINvNtCs7qDQvy6XYpV_18test_fuzz_internal4dirs19path_from_args_typeNtNtNtCsbdltwx5QZD6_5serde10byte_array13target_fuzz__4ArgsEB18_
FN:136,_RINvNtCs7qDQvy6XYpV_18test_fuzz_internal4dirs19path_from_args_typeNtNtNtCsbdltwx5QZD6_5serde11unit_struct13target_fuzz__4ArgsEB18_
FN:136,_RINvNtCs7qDQvy6XYpV_18test_fuzz_internal4dirs19path_from_args_typeNtNtNtCsbdltwx5QZD6_5serde12tuple_struct13target_fuzz__4ArgsEB18_
FN:136,_RINvNtCs7qDQvy6XYpV_18test_fuzz_internal4dirs19path_from_args_typeNtNtNtCsbdltwx5QZD6_5serde12unit_variant13target_fuzz__4ArgsEB18_
FN:136,_RINvNtCs7qDQvy6XYpV_18test_fuzz_internal4dirs19path_from_args_typeNtNtNtCsbdltwx5QZD6_5serde13tuple_variant13target_fuzz__4ArgsEB18_
FN:136,_RINvNtCs7qDQvy6XYpV_18test_fuzz_internal4dirs19path_from_args_typeNtNtNtCsbdltwx5QZD6_5serde14newtype_struct13target_fuzz__4ArgsEB18_
FN:136,_RINvNtCs7qDQvy6XYpV_18test_fuzz_internal4dirs19path_from_args_typeNtNtNtCsbdltwx5QZD6_5serde14struct_variant13target_fuzz__4ArgsEB18_
FN:136,_RINvNtCs7qDQvy6XYpV_18test_fuzz_internal4dirs19path_from_args_typeNtNtNtCsbdltwx5QZD6_5serde15newtype_variant13target_fuzz__4ArgsEB18_
FN:136,_RINvNtCs7qDQvy6XYpV_18test_fuzz_internal4dirs19path_from_args_typeNtNtNtCsbdltwx5QZD6_5serde3map13target_fuzz__4ArgsEB18_
FN:136,_RINvNtCs7qDQvy6XYpV_18test_fuzz_internal4dirs19path_from_args_typeNtNtNtCsbdltwx5QZD6_5serde3seq13target_fuzz__4ArgsEB18_
FN:136,_RINvNtCs7qDQvy6XYpV_18test_fuzz_internal4dirs19path_from_args_typeNtNtNtCsbdltwx5QZD6_5serde4unit13target_fuzz__4ArgsEB18_
FN:136,_RINvNtCs7qDQvy6XYpV_18test_fuzz_internal4dirs19path_from_args_typeNtNtNtCsbdltwx5QZD6_5serde5tuple13target_fuzz__4ArgsEB18_
FN:136,_RINvNtCs7qDQvy6XYpV_18test_fuzz_internal4dirs19path_from_args_typeNtNtNtCsbdltwx5QZD6_5serde6option13target_fuzz__4ArgsEB18_
FN:136,_RINvNtCs7qDQvy6XYpV_18test_fuzz_internal4dirs19path_from_args_typeNtNtNtCsbdltwx5QZD6_5serde6string13target_fuzz__4ArgsEB18_
FN:136,_RINvNtCs7qDQvy6XYpV_18test_fuzz_internal4dirs19path_from_args_typeNtNtNtCsbdltwx5QZD6_5serde6strukt13target_fuzz__4ArgsEB18_
FN:136,_RINvNtCs7qDQvy6XYpV_18test_fuzz_internal4dirs19path_from_args_typeNtNvNtNtCsbdltwx5QZD6_5serde10byte_array13target_fuzz__10write_args4ArgsEB1a_
FN:136,_RINvNtCs7qDQvy6XYpV_18test_fuzz_internal4dirs19path_from_args_typeNtNvNtNtCsbdltwx5QZD6_5serde11unit_struct13target_fuzz__10write_args4ArgsEB1a_
FN:136,_RINvNtCs7qDQvy6XYpV_18test_fuzz_internal4dirs19path_from_args_typeNtNvNtNtCsbdltwx5QZD6_5serde12tuple_struct13target_fuzz__10write_args4ArgsEB1a_
FN:136,_RINvNtCs7qDQvy6XYpV_18test_fuzz_internal4dirs19path_from_args_typeNtNvNtNtCsbdltwx5QZD6_5serde12unit_variant13target_fuzz__10write_args4ArgsEB1a_
FN:136,_RINvNtCs7qDQvy6XYpV_18test_fuzz_internal4dirs19path_from_args_typeNtNvNtNtCsbdltwx5QZD6_5serde13tuple_variant13target_fuzz__10write_args4ArgsEB1a_
FN:136,_RINvNtCs7qDQvy6XYpV_18test_fuzz_internal4dirs19path_from_args_typeNtNvNtNtCsbdltwx5QZD6_5serde14newtype_struct13target_fuzz__10write_args4ArgsEB1a_
FN:136,_RINvNtCs7qDQvy6XYpV_18test_fuzz_internal4dirs19path_from_args_typeNtNvNtNtCsbdltwx5QZD6_5serde14struct_variant13target_fuzz__10write_args4ArgsEB1a_
FN:136,_RINvNtCs7qDQvy6XYpV_18test_fuzz_internal4dirs19path_from_args_typeNtNvNtNtCsbdltwx5QZD6_5serde15newtype_variant13target_fuzz__10write_args4ArgsEB1a_
FN:136,_RINvNtCs7qDQvy6XYpV_18test_fuzz_internal4dirs19path_from_args_typeNtNvNtNtCsbdltwx5QZD6_5serde3map13target_fuzz__10write_args4ArgsEB1a_
FN:136,_RINvNtCs7qDQvy6XYpV_18test_fuzz_internal4dirs19path_from_args_typeNtNvNtNtCsbdltwx5QZD6_5serde3seq13target_fuzz__10write_args4ArgsEB1a_
FN:136,_RINvNtCs7qDQvy6XYpV_18test_fuzz_internal4dirs19path_from_args_typeNtNvNtNtCsbdltwx5QZD6_5serde4unit13target_fuzz__10write_args4ArgsEB1a_
FN:136,_RINvNtCs7qDQvy6XYpV_18test_fuzz_internal4dirs19path_from_args_typeNtNvNtNtCsbdltwx5QZD6_5serde5tuple13target_fuzz__10write_args4ArgsEB1a_
FN:136,_RINvNtCs7qDQvy6XYpV_18test_fuzz_internal4dirs19path_from_args_typeNtNvNtNtCsbdltwx5QZD6_5serde6option13target_fuzz__10write_args4ArgsEB1a_
FN:136,_RINvNtCs7qDQvy6XYpV_18test_fuzz_internal4dirs19path_from_args_typeNtNvNtNtCsbdltwx5QZD6_5serde6string13target_fuzz__10write_args4ArgsEB1a_
FN:136,_RINvNtCs7qDQvy6XYpV_18test_fuzz_internal4dirs19path_from_args_typeNtNvNtNtCsbdltwx5QZD6_5serde6strukt13target_fuzz__10write_args4ArgsEB1a_
FN:32,_RINvNtCs7qDQvy6XYpV_18test_fuzz_internal4dirs31corpus_directory_from_args_typeNtNvNtNtCsbdltwx5QZD6_5serde10byte_array13target_fuzz__10write_args4ArgsEB1m_
FN:32,_RINvNtCs7qDQvy6XYpV_18test_fuzz_internal4dirs31corpus_directory_from_args_typeNtNvNtNtCsbdltwx5QZD6_5serde11unit_struct13target_fuzz__10write_args4ArgsEB1m_
FN:32,_RINvNtCs7qDQvy6XYpV_18test_fuzz_internal4dirs31corpus_directory_from_args_typeNtNvNtNtCsbdltwx5QZD6_5serde12tuple_struct13target_fuzz__10write_args4ArgsEB1m_
FN:32,_RINvNtCs7qDQvy6XYpV_18test_fuzz_internal4dirs31corpus_directory_from_args_typeNtNvNtNtCsbdltwx5QZD6_5serde12unit_variant13target_fuzz__10write_args4ArgsEB1m_
FN:32,_RINvNtCs7qDQvy6XYpV_18test_fuzz_internal4dirs31corpus_directory_from_args_typeNtNvNtNtCsbdltwx5QZD6_5serde13tuple_variant13target_fuzz__10write_args4ArgsEB1m_
FN:32,_RINvNtCs7qDQvy6XYpV_18test_fuzz_internal4dirs31corpus_directory_from_args_typeNtNvNtNtCsbdltwx5QZD6_5serde14newtype_struct13target_fuzz__10write_args4ArgsEB1m_
FN:32,_RINvNtCs7qDQvy6XYpV_18test_fuzz_internal4dirs31corpus_directory_from_args_typeNtNvNtNtCsbdltwx5QZD6_5serde14struct_variant13target_fuzz__10write_args4ArgsEB1m_
FN:32,_RINvNtCs7qDQvy6XYpV_18test_fuzz_internal4dirs31corpus_directory_from_args_typeNtNvNtNtCsbdltwx5QZD6_5serde15newtype_variant13target_fuzz__10write_args4ArgsEB1m_
FN:32,_RINvNtCs7qDQvy6XYpV_18test_fuzz_internal4dirs31corpus_directory_from_args_typeNtNvNtNtCsbdltwx5QZD6_5serde3map13target_fuzz__10write_args4ArgsEB1m_
FN:32,_RINvNtCs7qDQvy6XYpV_18test_fuzz_internal4dirs31corpus_directory_from_args_typeNtNvNtNtCsbdltwx5QZD6_5serde3seq13target_fuzz__10write_args4ArgsEB1m_
FN:32,_RINvNtCs7qDQvy6XYpV_18test_fuzz_internal4dirs31corpus_directory_from_args_typeNtNvNtNtCsbdltwx5QZD6_5serde4unit13target_fuzz__10write_args4ArgsEB1m_
FN:32,_RINvNtCs7qDQvy6XYpV_18test_fuzz_internal4dirs31corpus_directory_from_args_typeNtNvNtNtCsbdltwx5QZD6_5serde5tuple13target_fuzz__10write_args4ArgsEB1m_
FN:32,_RINvNtCs7qDQvy6XYpV_18test_fuzz_internal4dirs31corpus_directory_from_args_typeNtNvNtNtCsbdltwx5QZD6_5serde6option13target_fuzz__10write_args4ArgsEB1m_
FN:32,_RINvNtCs7qDQvy6XYpV_18test_fuzz_internal4dirs31corpus_directory_from_args_typeNtNvNtNtCsbdltwx5QZD6_5serde6string13target_fuzz__10write_args4ArgsEB1m_
FN:32,_RINvNtCs7qDQvy6XYpV_18test_fuzz_internal4dirs31corpus_directory_from_args_typeNtNvNtNtCsbdltwx5QZD6_5serde6strukt13target_fuzz__10write_args4ArgsEB1m_
FN:22,_RINvNtCs7qDQvy6XYpV_18test_fuzz_internal4dirs37generic_args_directory_from_args_typeNtNtNtCsbdltwx5QZD6_5serde10byte_array13target_fuzz__4ArgsEB1q_
FN:22,_RINvNtCs7qDQvy6XYpV_18test_fuzz_internal4dirs37generic_args_directory_from_args_typeNtNtNtCsbdltwx5QZD6_5serde11unit_struct13target_fuzz__4ArgsEB1q_
FN:22,_RINvNtCs7qDQvy6XYpV_18test_fuzz_internal4dirs37generic_args_directory_from_args_typeNtNtNtCsbdltwx5QZD6_5serde12tuple_struct13target_fuzz__4ArgsEB1q_
FN:22,_RINvNtCs7qDQvy6XYpV_18test_fuzz_internal4dirs37generic_args_directory_from_args_typeNtNtNtCsbdltwx5QZD6_5serde12unit_variant13target_fuzz__4ArgsEB1q_
FN:22,_RINvNtCs7qDQvy6XYpV_18test_fuzz_internal4dirs37generic_args_directory_from_args_typeNtNtNtCsbdltwx5QZD6_5serde13tuple_variant13target_fuzz__4ArgsEB1q_
FN:22,_RINvNtCs7qDQvy6XYpV_18test_fuzz_internal4dirs37generic_args_directory_from_args_typeNtNtNtCsbdltwx5QZD6_5serde14newtype_struct13target_fuzz__4ArgsEB1q_
FN:22,_RINvNtCs7qDQvy6XYpV_18test_fuzz_internal4dirs37generic_args_directory_from_args_typeNtNtNtCsbdltwx5QZD6_5serde14struct_variant13target_fuzz__4ArgsEB1q_
FN:22,_RINvNtCs7qDQvy6XYpV_18test_fuzz_internal4dirs37generic_args_directory_from_args_typeNtNtNtCsbdltwx5QZD6_5serde15newtype_variant13target_fuzz__4ArgsEB1q_
FN:22,_RINvNtCs7qDQvy6XYpV_18test_fuzz_internal4dirs37generic_args_directory_from_args_typeNtNtNtCsbdltwx5QZD6_5serde3map13target_fuzz__4ArgsEB1q_
FN:22,_RINvNtCs7qDQvy6XYpV_18test_fuzz_internal4dirs37generic_args_directory_from_args_typeNtNtNtCsbdltwx5QZD6_5serde3seq13target_fuzz__4ArgsEB1q_
FN:22,_RINvNtCs7qDQvy6XYpV_18test_fuzz_internal4dirs37generic_args_directory_from_args_typeNtNtNtCsbdltwx5QZD6_5serde4unit13target_fuzz__4ArgsEB1q_
FN:22,_RINvNtCs7qDQvy6XYpV_18test_fuzz_internal4dirs37generic_args_directory_from_args_typeNtNtNtCsbdltwx5QZD6_5serde5tuple13target_fuzz__4ArgsEB1q_
FN:22,_RINvNtCs7qDQvy6XYpV_18test_fuzz_internal4dirs37generic_args_directory_from_args_typeNtNtNtCsbdltwx5QZD6_5serde6option13target_fuzz__4ArgsEB1q_
FN:22,_RINvNtCs7qDQvy6XYpV_18test_fuzz_internal4dirs37generic_args_directory_from_args_typeNtNtNtCsbdltwx5QZD6_5serde6string13target_fuzz__4ArgsEB1q_
FN:22,_RINvNtCs7qDQvy6XYpV_18test_fuzz_internal4dirs37generic_args_directory_from_args_typeNtNtNtCsbdltwx5QZD6_5serde6strukt13target_fuzz__4ArgsEB1q_
FN:12,_RINvNtCs7qDQvy6XYpV_18test_fuzz_internal4dirs42impl_generic_args_directory_from_args_typeNtNtNtCsbdltwx5QZD6_5serde10byte_array13target_fuzz__4ArgsEB1v_
FN:12,_RINvNtCs7qDQvy6XYpV_18test_fuzz_internal4dirs42impl_generic_args_directory_from_args_typeNtNtNtCsbdltwx5QZD6_5serde11unit_struct13target_fuzz__4ArgsEB1v_
FN:12,_RINvNtCs7qDQvy6XYpV_18test_fuzz_internal4dirs42impl_generic_args_directory_from_args_typeNtNtNtCsbdltwx5QZD6_5serde12tuple_struct13target_fuzz__4ArgsEB1v_
FN:12,_RINvNtCs7qDQvy6XYpV_18test_fuzz_internal4dirs42impl_generic_args_directory_from_args_typeNtNtNtCsbdltwx5QZD6_5serde12unit_variant13target_fuzz__4ArgsEB1v_
FN:12,_RINvNtCs7qDQvy6XYpV_18test_fuzz_internal4dirs42impl_generic_args_directory_from_args_typeNtNtNtCsbdltwx5QZD6_5serde13tuple_variant13target_fuzz__4ArgsEB1v_
FN:12,_RINvNtCs7qDQvy6XYpV_18test_fuzz_internal4dirs42impl_generic_args_directory_from_args_typeNtNtNtCsbdltwx5QZD6_5serde14newtype_struct13target_fuzz__4ArgsEB1v_
FN:12,_RINvNtCs7qDQvy6XYpV_18test_fuzz_internal4dirs42impl_generic_args_directory_from_args_typeNtNtNtCsbdltwx5QZD6_5serde14struct_variant13target_fuzz__4ArgsEB1v_
FN:12,_RINvNtCs7qDQvy6XYpV_18test_fuzz_internal4dirs42impl_generic_args_directory_from_args_typeNtNtNtCsbdltwx5QZD6_5serde15newtype_variant13target_fuzz__4ArgsEB1v_
FN:12,_RINvNtCs7qDQvy6XYpV_18test_fuzz_internal4dirs42impl_generic_args_directory_from_args_typeNtNtNtCsbdltwx5QZD6_5serde3map13target_fuzz__4ArgsEB1v_
FN:12,_RINvNtCs7qDQvy6XYpV_18test_fuzz_internal4dirs42impl_generic_args_directory_from_args_typeNtNtNtCsbdltwx5QZD6_5serde3seq13target_fuzz__4ArgsEB1v_
FN:12,_RINvNtCs7qDQvy6XYpV_18test_fuzz_internal4dirs42impl_generic_args_directory_from_args_typeNtNtNtCsbdltwx5QZD6_5serde4unit13target_fuzz__4ArgsEB1v_
FN:12,_RINvNtCs7qDQvy6XYpV_18test_fuzz_internal4dirs42impl_generic_args_directory_from_args_typeNtNtNtCsbdltwx5QZD6_5serde5tuple13target_fuzz__4ArgsEB1v_
FN:12,_RINvNtCs7qDQvy6XYpV_18test_fuzz_internal4dirs42impl_generic_args_directory_from_args_typeNtNtNtCsbdltwx5QZD6_5serde6option13target_fuzz__4ArgsEB1v_
FN:12,_RINvNtCs7qDQvy6XYpV_18test_fuzz_internal4dirs42impl_generic_args_directory_from_args_typeNtNtNtCsbdltwx5QZD6_5serde6string13target_fuzz__4ArgsEB1v_
FN:12,_RINvNtCs7qDQvy6XYpV_18test_fuzz_internal4dirs42impl_generic_args_directory_from_args_typeNtNtNtCsbdltwx5QZD6_5serde6strukt13target_fuzz__4ArgsEB1v_
FN:140,_RNCINvNtCs7qDQvy6XYpV_18test_fuzz_internal4dirs19path_from_args_typeNtNtNtCsbdltwx5QZD6_5serde10byte_array13target_fuzz__4ArgsE0B1a_
FN:140,_RNCINvNtCs7qDQvy6XYpV_18test_fuzz_internal4dirs19path_from_args_typeNtNtNtCsbdltwx5QZD6_5serde11unit_struct13target_fuzz__4ArgsE0B1a_
FN:140,_RNCINvNtCs7qDQvy6XYpV_18test_fuzz_internal4dirs19path_from_args_typeNtNtNtCsbdltwx5QZD6_5serde12tuple_struct13target_fuzz__4ArgsE0B1a_
FN:140,_RNCINvNtCs7qDQvy6XYpV_18test_fuzz_internal4dirs19path_from_args_typeNtNtNtCsbdltwx5QZD6_5serde12unit_variant13target_fuzz__4ArgsE0B1a_
FN:140,_RNCINvNtCs7qDQvy6XYpV_18test_fuzz_internal4dirs19path_from_args_typeNtNtNtCsbdltwx5QZD6_5serde13tuple_variant13target_fuzz__4ArgsE0B1a_
FN:140,_RNCINvNtCs7qDQvy6XYpV_18test_fuzz_internal4dirs19path_from_args_typeNtNtNtCsbdltwx5QZD6_5serde14newtype_struct13target_fuzz__4ArgsE0B1a_
FN:140,_RNCINvNtCs7qDQvy6XYpV_18test_fuzz_internal4dirs19path_from_args_typeNtNtNtCsbdltwx5QZD6_5serde14struct_variant13target_fuzz__4ArgsE0B1a_
FN:140,_RNCINvNtCs7qDQvy6XYpV_18test_fuzz_internal4dirs19path_from_args_typeNtNtNtCsbdltwx5QZD6_5serde15newtype_variant13target_fuzz__4ArgsE0B1a_
FN:140,_RNCINvNtCs7qDQvy6XYpV_18test_fuzz_internal4dirs19path_from_args_typeNtNtNtCsbdltwx5QZD6_5serde3map13target_fuzz__4ArgsE0B1a_
FN:140,_RNCINvNtCs7qDQvy6XYpV_18test_fuzz_internal4dirs19path_from_args_typeNtNtNtCsbdltwx5QZD6_5serde3seq13target_fuzz__4ArgsE0B1a_
FN:140,_RNCINvNtCs7qDQvy6XYpV_18test_fuzz_internal4dirs19path_from_args_typeNtNtNtCsbdltwx5QZD6_5serde4unit13target_fuzz__4ArgsE0B1a_
FN:140,_RNCINvNtCs7qDQvy6XYpV_18test_fuzz_internal4dirs19path_from_args_typeNtNtNtCsbdltwx5QZD6_5serde5tuple13target_fuzz__4ArgsE0B1a_
FN:140,_RNCINvNtCs7qDQvy6XYpV_18test_fuzz_internal4dirs19path_from_args_typeNtNtNtCsbdltwx5QZD6_5serde6option13target_fuzz__4ArgsE0B1a_
FN:140,_RNCINvNtCs7qDQvy6XYpV_18test_fuzz_internal4dirs19path_from_args_typeNtNtNtCsbdltwx5QZD6_5serde6string13target_fuzz__4ArgsE0B1a_
FN:140,_RNCINvNtCs7qDQvy6XYpV_18test_fuzz_internal4dirs19path_from_args_typeNtNtNtCsbdltwx5QZD6_5serde6strukt13target_fuzz__4ArgsE0B1a_
FN:140,_RNCINvNtCs7qDQvy6XYpV_18test_fuzz_internal4dirs19path_from_args_typeNtNvNtNtCsbdltwx5QZD6_5serde10byte_array13target_fuzz__10write_args4ArgsE0B1c_
FN:140,_RNCINvNtCs7qDQvy6XYpV_18test_fuzz_internal4dirs19path_from_args_typeNtNvNtNtCsbdltwx5QZD6_5serde11unit_struct13target_fuzz__10write_args4ArgsE0B1c_
FN:140,_RNCINvNtCs7qDQvy6XYpV_18test_fuzz_internal4dirs19path_from_args_typeNtNvNtNtCsbdltwx5QZD6_5serde12tuple_struct13target_fuzz__10write_args4ArgsE0B1c_
FN:140,_RNCINvNtCs7qDQvy6XYpV_18test_fuzz_internal4dirs19path_from_args_typeNtNvNtNtCsbdltwx5QZD6_5serde12unit_variant13target_fuzz__10write_args4ArgsE0B1c_
FN:140,_RNCINvNtCs7qDQvy6XYpV_18test_fuzz_internal4dirs19path_from_args_typeNtNvNtNtCsbdltwx5QZD6_5serde13tuple_variant13target_fuzz__10write_args4ArgsE0B1c_
FN:140,_RNCINvNtCs7qDQvy6XYpV_18test_fuzz_internal4dirs19path_from_args_typeNtNvNtNtCsbdltwx5QZD6_5serde14newtype_struct13target_fuzz__10write_args4ArgsE0B1c_
FN:140,_RNCINvNtCs7qDQvy6XYpV_18test_fuzz_internal4dirs19path_from_args_typeNtNvNtNtCsbdltwx5QZD6_5serde14struct_variant13target_fuzz__10write_args4ArgsE0B1c_
FN:140,_RNCINvNtCs7qDQvy6XYpV_18test_fuzz_internal4dirs19path_from_args_typeNtNvNtNtCsbdltwx5QZD6_5serde15newtype_variant13target_fuzz__10write_args4ArgsE0B1c_
FN:140,_RNCINvNtCs7qDQvy6XYpV_18test_fuzz_internal4dirs19path_from_args_typeNtNvNtNtCsbdltwx5QZD6_5serde3map13target_fuzz__10write_args4ArgsE0B1c_
FN:140,_RNCINvNtCs7qDQvy6XYpV_18test_fuzz_internal4dirs19path_from_args_typeNtNvNtNtCsbdltwx5QZD6_5serde3seq13target_fuzz__10write_args4ArgsE0B1c_
FN:140,_RNCINvNtCs7qDQvy6XYpV_18test_fuzz_internal4dirs19path_from_args_typeNtNvNtNtCsbdltwx5QZD6_5serde4unit13target_fuzz__10write_args4ArgsE0B1c_
FN:140,_RNCINvNtCs7qDQvy6XYpV_18test_fuzz_internal4dirs19path_from_args_typeNtNvNtNtCsbdltwx5QZD6_5serde5tuple13target_fuzz__10write_args4ArgsE0B1c_
FN:140,_RNCINvNtCs7qDQvy6XYpV_18test_fuzz_internal4dirs19path_from_args_typeNtNvNtNtCsbdltwx5QZD6_5serde6option13target_fuzz__10write_args4ArgsE0B1c_
FN:140,_RNCINvNtCs7qDQvy6XYpV_18test_fuzz_internal4dirs19path_from_args_typeNtNvNtNtCsbdltwx5QZD6_5serde6string13target_fuzz__10write_args4ArgsE0B1c_
FN:140,_RNCINvNtCs7qDQvy6XYpV_18test_fuzz_internal4dirs19path_from_args_typeNtNvNtNtCsbdltwx5QZD6_5serde6strukt13target_fuzz__10write_args4ArgsE0B1c_
FN:136,_RINvNtCs7qDQvy6XYpV_18test_fuzz_internal4dirs19path_from_args_typeNtNtNtCsjcSeXGBWWd5_5serde10byte_array13target_fuzz__4ArgsEB18_
FN:136,_RINvNtCs7qDQvy6XYpV_18test_fuzz_internal4dirs19path_from_args_typeNtNtNtCsjcSeXGBWWd5_5serde11unit_struct13target_fuzz__4ArgsEB18_
FN:136,_RINvNtCs7qDQvy6XYpV_18test_fuzz_internal4dirs19path_from_args_typeNtNtNtCsjcSeXGBWWd5_5serde12tuple_struct13target_fuzz__4ArgsEB18_
FN:136,_RINvNtCs7qDQvy6XYpV_18test_fuzz_internal4dirs19path_from_args_typeNtNtNtCsjcSeXGBWWd5_5serde12unit_variant13target_fuzz__4ArgsEB18_
FN:136,_RINvNtCs7qDQvy6XYpV_18test_fuzz_internal4dirs19path_from_args_typeNtNtNtCsjcSeXGBWWd5_5serde13tuple_variant13target_fuzz__4ArgsEB18_
FN:136,_RINvNtCs7qDQvy6XYpV_18test_fuzz_internal4dirs19path_from_args_typeNtNtNtCsjcSeXGBWWd5_5serde14newtype_struct13target_fuzz__4ArgsEB18_
FN:136,_RINvNtCs7qDQvy6XYpV_18test_fuzz_internal4dirs19path_from_args_typeNtNtNtCsjcSeXGBWWd5_5serde14struct_variant13target_fuzz__4ArgsEB18_
FN:136,_RINvNtCs7qDQvy6XYpV_18test_fuzz_internal4dirs19path_from_args_typeNtNtNtCsjcSeXGBWWd5_5serde15newtype_variant13target_fuzz__4ArgsEB18_
FN:136,_RINvNtCs7qDQvy6XYpV_18test_fuzz_internal4dirs19path_from_args_typeNtNtNtCsjcSeXGBWWd5_5serde3map13target_fuzz__4ArgsEB18_
FN:136,_RINvNtCs7qDQvy6XYpV_18test_fuzz_internal4dirs19path_from_args_typeNtNtNtCsjcSeXGBWWd5_5serde3seq13target_fuzz__4ArgsEB18_
FN:136,_RINvNtCs7qDQvy6XYpV_18test_fuzz_internal4dirs19path_from_args_typeNtNtNtCsjcSeXGBWWd5_5serde4unit13target_fuzz__4ArgsEB18_
FN:136,_RINvNtCs7qDQvy6XYpV_18test_fuzz_internal4dirs19path_from_args_typeNtNtNtCsjcSeXGBWWd5_5serde5tuple13target_fuzz__4ArgsEB18_
FN:136,_RINvNtCs7qDQvy6XYpV_18test_fuzz_internal4dirs19path_from_args_typeNtNtNtCsjcSeXGBWWd5_5serde6option13target_fuzz__4ArgsEB18_
FN:136,_RINvNtCs7qDQvy6XYpV_18test_fuzz_internal4dirs19path_from_args_typeNtNtNtCsjcSeXGBWWd5_5serde6string13target_fuzz__4ArgsEB18_
FN:136,_RINvNtCs7qDQvy6XYpV_18test_fuzz_internal4dirs19path_from_args_typeNtNtNtCsjcSeXGBWWd5_5serde6strukt13target_fuzz__4ArgsEB18_
FN:136,_RINvNtCs7qDQvy6XYpV_18test_fuzz_internal4dirs19path_from_args_typeNtNvNtNtCsjcSeXGBWWd5_5serde10byte_array13target_fuzz__10write_args4ArgsEB1a_
FN:136,_RINvNtCs7qDQvy6XYpV_18test_fuzz_internal4dirs19path_from_args_typeNtNvNtNtCsjcSeXGBWWd5_5serde11unit_struct13target_fuzz__10write_args4ArgsEB1a_
FN:136,_RINvNtCs7qDQvy6XYpV_18test_fuzz_internal4dirs19path_from_args_typeNtNvNtNtCsjcSeXGBWWd5_5serde12tuple_struct13target_fuzz__10write_args4ArgsEB1a_
FN:136,_RINvNtCs7qDQvy6XYpV_18test_fuzz_internal4dirs19path_from_args_typeNtNvNtNtCsjcSeXGBWWd5_5serde12unit_variant13target_fuzz__10write_args4ArgsEB1a_
FN:136,_RINvNtCs7qDQvy6XYpV_18test_fuzz_internal4dirs19path_from_args_typeNtNvNtNtCsjcSeXGBWWd5_5serde13tuple_variant13target_fuzz__10write_args4ArgsEB1a_
FN:136,_RINvNtCs7qDQvy6XYpV_18test_fuzz_internal4dirs19path_from_args_typeNtNvNtNtCsjcSeXGBWWd5_5serde14newtype_struct13target_fuzz__10write_args4ArgsEB1a_
FN:136,_RINvNtCs7qDQvy6XYpV_18test_fuzz_internal4dirs19path_from_args_typeNtNvNtNtCsjcSeXGBWWd5_5serde14struct_variant13target_fuzz__10write_args4ArgsEB1a_
FN:136,_RINvNtCs7qDQvy6XYpV_18test_fuzz_internal4dirs19path_from_args_typeNtNvNtNtCsjcSeXGBWWd5_5serde15newtype_variant13target_fuzz__10write_args4ArgsEB1a_
FN:136,_RINvNtCs7qDQvy6XYpV_18test_fuzz_internal4dirs19path_from_args_typeNtNvNtNtCsjcSeXGBWWd5_5serde3map13target_fuzz__10write_args4ArgsEB1a_
FN:136,_RINvNtCs7qDQvy6XYpV_18test_fuzz_internal4dirs19path_from_args_typeNtNvNtNtCsjcSeXGBWWd5_5serde3seq13target_fuzz__10write_args4ArgsEB1a_
FN:136,_RINvNtCs7qDQvy6XYpV_18test_fuzz_internal4dirs19path_from_args_typeNtNvNtNtCsjcSeXGBWWd5_5serde4unit13target_fuzz__10write_args4ArgsEB1a_
FN:136,_RINvNtCs7qDQvy6XYpV_18test_fuzz_internal4dirs19path_from_args_typeNtNvNtNtCsjcSeXGBWWd5_5serde5tuple13target_fuzz__10write_args4ArgsEB1a_
FN:136,_RINvNtCs7qDQvy6XYpV_18test_fuzz_internal4dirs19path_from_args_typeNtNvNtNtCsjcSeXGBWWd5_5serde6option13target_fuzz__10write_args4ArgsEB1a_
FN:136,_RINvNtCs7qDQvy6XYpV_18test_fuzz_internal4dirs19path_from_args_typeNtNvNtNtCsjcSeXGBWWd5_5serde6string13target_fuzz__10write_args4ArgsEB1a_
FN:136,_RINvNtCs7qDQvy6XYpV_18test_fuzz_internal4dirs19path_from_args_typeNtNvNtNtCsjcSeXGBWWd5_5serde6strukt13target_fuzz__10write_args4ArgsEB1a_
FN:32,_RINvNtCs7qDQvy6XYpV_18test_fuzz_internal4dirs31corpus_directory_from_args_typeNtNvNtNtCsjcSeXGBWWd5_5serde10byte_array13target_fuzz__10write_args4ArgsEB1m_
FN:32,_RINvNtCs7qDQvy6XYpV_18test_fuzz_internal4dirs31corpus_directory_from_args_typeNtNvNtNtCsjcSeXGBWWd5_5serde11unit_struct13target_fuzz__10write_args4ArgsEB1m_
FN:32,_RINvNtCs7qDQvy6XYpV_18test_fuzz_internal4dirs31corpus_directory_from_args_typeNtNvNtNtCsjcSeXGBWWd5_5serde12tuple_struct13target_fuzz__10write_args4ArgsEB1m_
FN:32,_RINvNtCs7qDQvy6XYpV_18test_fuzz_internal4dirs31corpus_directory_from_args_typeNtNvNtNtCsjcSeXGBWWd5_5serde12unit_variant13target_fuzz__10write_args4ArgsEB1m_
FN:32,_RINvNtCs7qDQvy6XYpV_18test_fuzz_internal4dirs31corpus_directory_from_args_typeNtNvNtNtCsjcSeXGBWWd5_5serde13tuple_variant13target_fuzz__10write_args4ArgsEB1m_
FN:32,_RINvNtCs7qDQvy6XYpV_18test_fuzz_internal4dirs31corpus_directory_from_args_typeNtNvNtNtCsjcSeXGBWWd5_5serde14newtype_struct13target_fuzz__10write_args4ArgsEB1m_
FN:32,_RINvNtCs7qDQvy6XYpV_18test_fuzz_internal4dirs31corpus_directory_from_args_typeNtNvNtNtCsjcSeXGBWWd5_5serde14struct_variant13target_fuzz__10write_args4ArgsEB1m_
FN:32,_RINvNtCs7qDQvy6XYpV_18test_fuzz_internal4dirs31corpus_directory_from_args_typeNtNvNtNtCsjcSeXGBWWd5_5serde15newtype_variant13target_fuzz__10write_args4ArgsEB1m_
FN:32,_RINvNtCs7qDQvy6XYpV_18test_fuzz_internal4dirs31corpus_directory_from_args_typeNtNvNtNtCsjcSeXGBWWd5_5serde3map13target_fuzz__10write_args4ArgsEB1m_
FN:32,_RINvNtCs7qDQvy6XYpV_18test_fuzz_internal4dirs31corpus_directory_from_args_typeNtNvNtNtCsjcSeXGBWWd5_5serde3seq13target_fuzz__10write_args4ArgsEB1m_
FN:32,_RINvNtCs7qDQvy6XYpV_18test_fuzz_internal4dirs31corpus_directory_from_args_typeNtNvNtNtCsjcSeXGBWWd5_5serde4unit13target_fuzz__10write_args4ArgsEB1m_
FN:32,_RINvNtCs7qDQvy6XYpV_18test_fuzz_internal4dirs31corpus_directory_from_args_typeNtNvNtNtCsjcSeXGBWWd5_5serde5tuple13target_fuzz__10write_args4ArgsEB1m_
FN:32,_RINvNtCs7qDQvy6XYpV_18test_fuzz_internal4dirs31corpus_directory_from_args_typeNtNvNtNtCsjcSeXGBWWd5_5serde6option13target_fuzz__10write_args4ArgsEB1m_
FN:32,_RINvNtCs7qDQvy6XYpV_18test_fuzz_internal4dirs31corpus_directory_from_args_typeNtNvNtNtCsjcSeXGBWWd5_5serde6string13target_fuzz__10write_args4ArgsEB1m_
FN:32,_RINvNtCs7qDQvy6XYpV_18test_fuzz_internal4dirs31corpus_directory_from_args_typeNtNvNtNtCsjcSeXGBWWd5_5serde6strukt13target_fuzz__10write_args4ArgsEB1m_
FN:22,_RINvNtCs7qDQvy6XYpV_18test_fuzz_internal4dirs37generic_args_directory_from_args_typeNtNtNtCsjcSeXGBWWd5_5serde10byte_array13target_fuzz__4ArgsEB1q_
FN:22,_RINvNtCs7qDQvy6XYpV_18test_fuzz_internal4dirs37generic_args_directory_from_args_typeNtNtNtCsjcSeXGBWWd5_5serde11unit_struct13target_fuzz__4ArgsEB1q_
FN:22,_RINvNtCs7qDQvy6XYpV_18test_fuzz_internal4dirs37generic_args_directory_from_args_typeNtNtNtCsjcSeXGBWWd5_5serde12tuple_struct13target_fuzz__4ArgsEB1q_
FN:22,_RINvNtCs7qDQvy6XYpV_18test_fuzz_internal4dirs37generic_args_directory_from_args_typeNtNtNtCsjcSeXGBWWd5_5serde12unit_variant13target_fuzz__4ArgsEB1q_
FN:22,_RINvNtCs7qDQvy6XYpV_18test_fuzz_internal4dirs37generic_args_directory_from_args_typeNtNtNtCsjcSeXGBWWd5_5serde13tuple_variant13target_fuzz__4ArgsEB1q_
FN:22,_RINvNtCs7qDQvy6XYpV_18test_fuzz_internal4dirs37generic_args_directory_from_args_typeNtNtNtCsjcSeXGBWWd5_5serde14newtype_struct13target_fuzz__4ArgsEB1q_
FN:22,_RINvNtCs7qDQvy6XYpV_18test_fuzz_internal4dirs37generic_args_directory_from_args_typeNtNtNtCsjcSeXGBWWd5_5serde14struct_variant13target_fuzz__4ArgsEB1q_
FN:22,_RINvNtCs7qDQvy6XYpV_18test_fuzz_internal4dirs37generic_args_directory_from_args_typeNtNtNtCsjcSeXGBWWd5_5serde15newtype_variant13target_fuzz__4ArgsEB1q_
FN:22,_RINvNtCs7qDQvy6XYpV_18test_fuzz_internal4dirs37generic_args_directory_from_args_typeNtNtNtCsjcSeXGBWWd5_5serde3map13target_fuzz__4ArgsEB1q_
FN:22,_RINvNtCs7qDQvy6XYpV_18test_fuzz_internal4dirs37generic_args_directory_from_args_typeNtNtNtCsjcSeXGBWWd5_5serde3seq13target_fuzz__4ArgsEB1q_
FN:22,_RINvNtCs7qDQvy6XYpV_18test_fuzz_internal4dirs37generic_args_directory_from_args_typeNtNtNtCsjcSeXGBWWd5_5serde4unit13target_fuzz__4ArgsEB1q_
FN:22,_RINvNtCs7qDQvy6XYpV_18test_fuzz_internal4dirs37generic_args_directory_from_args_typeNtNtNtCsjcSeXGBWWd5_5serde5tuple13target_fuzz__4ArgsEB1q_
FN:22,_RINvNtCs7qDQvy6XYpV_18test_fuzz_internal4dirs37generic_args_directory_from_args_typeNtNtNtCsjcSeXGBWWd5_5serde6option13target_fuzz__4ArgsEB1q_
FN:22,_RINvNtCs7qDQvy6XYpV_18test_fuzz_internal4dirs37generic_args_directory_from_args_typeNtNtNtCsjcSeXGBWWd5_5serde6string13target_fuzz__4ArgsEB1q_
FN:22,_RINvNtCs7qDQvy6XYpV_18test_fuzz_internal4dirs37generic_args_directory_from_args_typeNtNtNtCsjcSeXGBWWd5_5serde6strukt13target_fuzz__4ArgsEB1q_
FN:12,_RINvNtCs7qDQvy6XYpV_18test_fuzz_internal4dirs42impl_generic_args_directory_from_args_typeNtNtNtCsjcSeXGBWWd5_5serde10byte_array13target_fuzz__4ArgsEB1v_
FN:12,_RINvNtCs7qDQvy6XYpV_18test_fuzz_internal4dirs42impl_generic_args_directory_from_args_typeNtNtNtCsjcSeXGBWWd5_5serde11unit_struct13target_fuzz__4ArgsEB1v_
FN:12,_RINvNtCs7qDQvy6XYpV_18test_fuzz_internal4dirs42impl_generic_args_directory_from_args_typeNtNtNtCsjcSeXGBWWd5_5serde12tuple_struct13target_fuzz__4ArgsEB1v_
FN:12,_RINvNtCs7qDQvy6XYpV_18test_fuzz_internal4dirs42impl_generic_args_directory_from_args_typeNtNtNtCsjcSeXGBWWd5_5serde12unit_variant13target_fuzz__4ArgsEB1v_
FN:12,_RINvNtCs7qDQvy6XYpV_18test_fuzz_internal4dirs42impl_generic_args_directory_from_args_typeNtNtNtCsjcSeXGBWWd5_5serde13tuple_variant13target_fuzz__4ArgsEB1v_
FN:12,_RINvNtCs7qDQvy6XYpV_18test_fuzz_internal4dirs42impl_generic_args_directory_from_args_typeNtNtNtCsjcSeXGBWWd5_5serde14newtype_struct13target_fuzz__4ArgsEB1v_
FN:12,_RINvNtCs7qDQvy6XYpV_18test_fuzz_internal4dirs42impl_generic_args_directory_from_args_typeNtNtNtCsjcSeXGBWWd5_5serde14struct_variant13target_fuzz__4ArgsEB1v_
FN:12,_RINvNtCs7qDQvy6XYpV_18test_fuzz_internal4dirs42impl_generic_args_directory_from_args_typeNtNtNtCsjcSeXGBWWd5_5serde15newtype_variant13target_fuzz__4ArgsEB1v_
FN:12,_RINvNtCs7qDQvy6XYpV_18test_fuzz_internal4dirs42impl_generic_args_directory_from_args_typeNtNtNtCsjcSeXGBWWd5_5serde3map13target_fuzz__4ArgsEB1v_
FN:12,_RINvNtCs7qDQvy6XYpV_18test_fuzz_internal4dirs42impl_generic_args_directory_from_args_typeNtNtNtCsjcSeXGBWWd5_5serde3seq13target_fuzz__4ArgsEB1v_
FN:12,_RINvNtCs7qDQvy6XYpV_18test_fuzz_internal4dirs42impl_generic_args_directory_from_args_typeNtNtNtCsjcSeXGBWWd5_5serde4unit13target_fuzz__4ArgsEB1v_
FN:12,_RINvNtCs7qDQvy6XYpV_18test_fuzz_internal4dirs42impl_generic_args_directory_from_args_typeNtNtNtCsjcSeXGBWWd5_5serde5tuple13target_fuzz__4ArgsEB1v_
FN:12,_RINvNtCs7qDQvy6XYpV_18test_fuzz_internal4dirs42impl_generic_args_directory_from_args_typeNtNtNtCsjcSeXGBWWd5_5serde6option13target_fuzz__4ArgsEB1v_
FN:12,_RINvNtCs7qDQvy6XYpV_18test_fuzz_internal4dirs42impl_generic_args_directory_from_args_typeNtNtNtCsjcSeXGBWWd5_5serde6string13target_fuzz__4ArgsEB1v_
FN:12,_RINvNtCs7qDQvy6XYpV_18test_fuzz_internal4dirs42impl_generic_args_directory_from_args_typeNtNtNtCsjcSeXGBWWd5_5serde6strukt13target_fuzz__4ArgsEB1v_
FN:140,_RNCINvNtCs7qDQvy6XYpV_18test_fuzz_internal4dirs19path_from_args_typeNtNtNtCsjcSeXGBWWd5_5serde10byte_array13target_fuzz__4ArgsE0B1a_
FN:140,_RNCINvNtCs7qDQvy6XYpV_18test_fuzz_internal4dirs19path_from_args_typeNtNtNtCsjcSeXGBWWd5_5serde11unit_struct13target_fuzz__4ArgsE0B1a_
FN:140,_RNCINvNtCs7qDQvy6XYpV_18test_fuzz_internal4dirs19path_from_args_typeNtNtNtCsjcSeXGBWWd5_5serde12tuple_struct13target_fuzz__4ArgsE0B1a_
FN:140,_RNCINvNtCs7qDQvy6XYpV_18test_fuzz_internal4dirs19path_from_args_typeNtNtNtCsjcSeXGBWWd5_5serde12unit_variant13target_fuzz__4ArgsE0B1a_
FN:140,_RNCINvNtCs7qDQvy6XYpV_18test_fuzz_internal4dirs19path_from_args_typeNtNtNtCsjcSeXGBWWd5_5serde13tuple_variant13target_fuzz__4ArgsE0B1a_
FN:140,_RNCINvNtCs7qDQvy6XYpV_18test_fuzz_internal4dirs19path_from_args_typeNtNtNtCsjcSeXGBWWd5_5serde14newtype_struct13target_fuzz__4ArgsE0B1a_
FN:140,_RNCINvNtCs7qDQvy6XYpV_18test_fuzz_internal4dirs19path_from_args_typeNtNtNtCsjcSeXGBWWd5_5serde14struct_variant13target_fuzz__4ArgsE0B1a_
FN:140,_RNCINvNtCs7qDQvy6XYpV_18test_fuzz_internal4dirs19path_from_args_typeNtNtNtCsjcSeXGBWWd5_5serde15newtype_variant13target_fuzz__4ArgsE0B1a_
FN:140,_RNCINvNtCs7qDQvy6XYpV_18test_fuzz_internal4dirs19path_from_args_typeNtNtNtCsjcSeXGBWWd5_5serde3map13target_fuzz__4ArgsE0B1a_
FN:140,_RNCINvNtCs7qDQvy6XYpV_18test_fuzz_internal4dirs19path_from_args_typeNtNtNtCsjcSeXGBWWd5_5serde3seq13target_fuzz__4ArgsE0B1a_
FN:140,_RNCINvNtCs7qDQvy6XYpV_18test_fuzz_internal4dirs19path_from_args_typeNtNtNtCsjcSeXGBWWd5_5serde4unit13target_fuzz__4ArgsE0B1a_
FN:140,_RNCINvNtCs7qDQvy6XYpV_18test_fuzz_internal4dirs19path_from_args_typeNtNtNtCsjcSeXGBWWd5_5serde5tuple13target_fuzz__4ArgsE0B1a_
FN:140,_RNCINvNtCs7qDQvy6XYpV_18test_fuzz_internal4dirs19path_from_args_typeNtNtNtCsjcSeXGBWWd5_5serde6option13target_fuzz__4ArgsE0B1a_
FN:140,_RNCINvNtCs7qDQvy6XYpV_18test_fuzz_internal4dirs19path_from_args_typeNtNtNtCsjcSeXGBWWd5_5serde6string13target_fuzz__4ArgsE0B1a_
FN:140,_RNCINvNtCs7qDQvy6XYpV_18test_fuzz_internal4dirs19path_from_args_typeNtNtNtCsjcSeXGBWWd5_5serde6strukt13target_fuzz__4ArgsE0B1a_
FN:140,_RNCINvNtCs7qDQvy6XYpV_18test_fuzz_internal4dirs19path_from_args_typeNtNvNtNtCsjcSeXGBWWd5_5serde10byte_array13target_fuzz__10write_args4ArgsE0B1c_
FN:140,_RNCINvNtCs7qDQvy6XYpV_18test_fuzz_internal4dirs19path_from_args_typeNtNvNtNtCsjcSeXGBWWd5_5serde11unit_struct13target_fuzz__10write_args4ArgsE0B1c_
FN:140,_RNCINvNtCs7qDQvy6XYpV_18test_fuzz_internal4dirs19path_from_args_typeNtNvNtNtCsjcSeXGBWWd5_5serde12tuple_struct13target_fuzz__10write_args4ArgsE0B1c_
FN:140,_RNCINvNtCs7qDQvy6XYpV_18test_fuzz_internal4dirs19path_from_args_typeNtNvNtNtCsjcSeXGBWWd5_5serde12unit_variant13target_fuzz__10write_args4ArgsE0B1c_
FN:140,_RNCINvNtCs7qDQvy6XYpV_18test_fuzz_internal4dirs19path_from_args_typeNtNvNtNtCsjcSeXGBWWd5_5serde13tuple_variant13target_fuzz__10write_args4ArgsE0B1c_
FN:140,_RNCINvNtCs7qDQvy6XYpV_18test_fuzz_internal4dirs19path_from_args_typeNtNvNtNtCsjcSeXGBWWd5_5serde14newtype_struct13target_fuzz__10write_args4ArgsE0B1c_
FN:140,_RNCINvNtCs7qDQvy6XYpV_18test_fuzz_internal4dirs19path_from_args_typeNtNvNtNtCsjcSeXGBWWd5_5serde14struct_variant13target_fuzz__10write_args4ArgsE0B1c_
FN:140,_RNCINvNtCs7qDQvy6XYpV_18test_fuzz_internal4dirs19path_from_args_typeNtNvNtNtCsjcSeXGBWWd5_5serde15newtype_variant13target_fuzz__10write_args4ArgsE0B1c_
FN:140,_RNCINvNtCs7qDQvy6XYpV_18test_fuzz_internal4dirs19path_from_args_typeNtNvNtNtCsjcSeXGBWWd5_5serde3map13target_fuzz__10write_args4ArgsE0B1c_
FN:140,_RNCINvNtCs7qDQvy6XYpV_18test_fuzz_internal4dirs19path_from_args_typeNtNvNtNtCsjcSeXGBWWd5_5serde3seq13target_fuzz__10write_args4ArgsE0B1c_
FN:140,_RNCINvNtCs7qDQvy6XYpV_18test_fuzz_internal4dirs19path_from_args_typeNtNvNtNtCsjcSeXGBWWd5_5serde4unit13target_fuzz__10write_args4ArgsE0B1c_
FN:140,_RNCINvNtCs7qDQvy6XYpV_18test_fuzz_internal4dirs19path_from_args_typeNtNvNtNtCsjcSeXGBWWd5_5serde5tuple13target_fuzz__10write_args4ArgsE0B1c_
FN:140,_RNCINvNtCs7qDQvy6XYpV_18test_fuzz_internal4dirs19path_from_args_typeNtNvNtNtCsjcSeXGBWWd5_5serde6option13target_fuzz__10write_args4ArgsE0B1c_
FN:140,_RNCINvNtCs7qDQvy6XYpV_18test_fuzz_internal4dirs19path_from_args_typeNtNvNtNtCsjcSeXGBWWd5_5serde6string13target_fuzz__10write_args4ArgsE0B1c_
FN:140,_RNCINvNtCs7qDQvy6XYpV_18test_fuzz_internal4dirs19path_from_args_typeNtNvNtNtCsjcSeXGBWWd5_5serde6strukt13target_fuzz__10write_args4ArgsE0B1c_
FN:136,_RINvNtCs7tkdMjTuzcM_18test_fuzz_internal4dirs19path_from_args_typeNtNtNtCs1SoYQDD3VK8_5serde10byte_array13target_fuzz__4ArgsEB18_
FN:136,_RINvNtCs7tkdMjTuzcM_18test_fuzz_internal4dirs19path_from_args_typeNtNtNtCs1SoYQDD3VK8_5serde11unit_struct13target_fuzz__4ArgsEB18_
FN:136,_RINvNtCs7tkdMjTuzcM_18test_fuzz_internal4dirs19path_from_args_typeNtNtNtCs1SoYQDD3VK8_5serde12tuple_struct13target_fuzz__4ArgsEB18_
FN:136,_RINvNtCs7tkdMjTuzcM_18test_fuzz_internal4dirs19path_from_args_typeNtNtNtCs1SoYQDD3VK8_5serde12unit_variant13target_fuzz__4ArgsEB18_
FN:136,_RINvNtCs7tkdMjTuzcM_18test_fuzz_internal4dirs19path_from_args_typeNtNtNtCs1SoYQDD3VK8_5serde13tuple_variant13target_fuzz__4ArgsEB18_
FN:136,_RINvNtCs7tkdMjTuzcM_18test_fuzz_internal4dirs19path_from_args_typeNtNtNtCs1SoYQDD3VK8_5serde14newtype_struct13target_fuzz__4ArgsEB18_
FN:136,_RINvNtCs7tkdMjTuzcM_18test_fuzz_internal4dirs19path_from_args_typeNtNtNtCs1SoYQDD3VK8_5serde14struct_variant13target_fuzz__4ArgsEB18_
FN:136,_RINvNtCs7tkdMjTuzcM_18test_fuzz_internal4dirs19path_from_args_typeNtNtNtCs1SoYQDD3VK8_5serde15newtype_variant13target_fuzz__4ArgsEB18_
FN:136,_RINvNtCs7tkdMjTuzcM_18test_fuzz_internal4dirs19path_from_args_typeNtNtNtCs1SoYQDD3VK8_5serde3map13target_fuzz__4ArgsEB18_
FN:136,_RINvNtCs7tkdMjTuzcM_18test_fuzz_internal4dirs19path_from_args_typeNtNtNtCs1SoYQDD3VK8_5serde3seq13target_fuzz__4ArgsEB18_
FN:136,_RINvNtCs7tkdMjTuzcM_18test_fuzz_internal4dirs19path_from_args_typeNtNtNtCs1SoYQDD3VK8_5serde4unit13target_fuzz__4ArgsEB18_
FN:136,_RINvNtCs7tkdMjTuzcM_18test_fuzz_internal4dirs19path_from_args_typeNtNtNtCs1SoYQDD3VK8_5serde5tuple13target_fuzz__4ArgsEB18_
FN:136,_RINvNtCs7tkdMjTuzcM_18test_fuzz_internal4dirs19path_from_args_typeNtNtNtCs1SoYQDD3VK8_5serde6option13target_fuzz__4ArgsEB18_
FN:136,_RINvNtCs7tkdMjTuzcM_18test_fuzz_internal4dirs19path_from_args_typeNtNtNtCs1SoYQDD3VK8_5serde6string13target_fuzz__4ArgsEB18_
FN:136,_RINvNtCs7tkdMjTuzcM_18test_fuzz_internal4dirs19path_from_args_typeNtNtNtCs1SoYQDD3VK8_5serde6strukt13target_fuzz__4ArgsEB18_
FN:136,_RINvNtCs7tkdMjTuzcM_18test_fuzz_internal4dirs19path_from_args_typeNtNvNtNtCs1SoYQDD3VK8_5serde10byte_array13target_fuzz__10write_args4ArgsEB1a_
FN:136,_RINvNtCs7tkdMjTuzcM_18test_fuzz_internal4dirs19path_from_args_typeNtNvNtNtCs1SoYQDD3VK8_5serde11unit_struct13target_fuzz__10write_args4ArgsEB1a_
FN:136,_RINvNtCs7tkdMjTuzcM_18test_fuzz_internal4dirs19path_from_args_typeNtNvNtNtCs1SoYQDD3VK8_5serde12tuple_struct13target_fuzz__10write_args4ArgsEB1a_
FN:136,_RINvNtCs7tkdMjTuzcM_18test_fuzz_internal4dirs19path_from_args_typeNtNvNtNtCs1SoYQDD3VK8_5serde12unit_variant13target_fuzz__10write_args4ArgsEB1a_
FN:136,_RINvNtCs7tkdMjTuzcM_18test_fuzz_internal4dirs19path_from_args_typeNtNvNtNtCs1SoYQDD3VK8_5serde13tuple_variant13target_fuzz__10write_args4ArgsEB1a_
FN:136,_RINvNtCs7tkdMjTuzcM_18test_fuzz_internal4dirs19path_from_args_typeNtNvNtNtCs1SoYQDD3VK8_5serde14newtype_struct13target_fuzz__10write_args4ArgsEB1a_
FN:136,_RINvNtCs7tkdMjTuzcM_18test_fuzz_internal4dirs19path_from_args_typeNtNvNtNtCs1SoYQDD3VK8_5serde14struct_variant13target_fuzz__10write_args4ArgsEB1a_
FN:136,_RINvNtCs7tkdMjTuzcM_18test_fuzz_internal4dirs19path_from_args_typeNtNvNtNtCs1SoYQDD3VK8_5serde15newtype_variant13target_fuzz__10write_args4ArgsEB1a_
FN:136,_RINvNtCs7tkdMjTuzcM_18test_fuzz_internal4dirs19path_from_args_typeNtNvNtNtCs1SoYQDD3VK8_5serde3map13target_fuzz__10write_args4ArgsEB1a_
FN:136,_RINvNtCs7tkdMjTuzcM_18test_fuzz_internal4dirs19path_from_args_typeNtNvNtNtCs1SoYQDD3VK8_5serde3seq13target_fuzz__10write_args4ArgsEB1a_
FN:136,_RINvNtCs7tkdMjTuzcM_18test_fuzz_internal4dirs19path_from_args_typeNtNvNtNtCs1SoYQDD3VK8_5serde4unit13target_fuzz__10write_args4ArgsEB1a_
FN:136,_RINvNtCs7tkdMjTuzcM_18test_fuzz_internal4dirs19path_from_args_typeNtNvNtNtCs1SoYQDD3VK8_5serde5tuple13target_fuzz__10write_args4ArgsEB1a_
FN:136,_RINvNtCs7tkdMjTuzcM_18test_fuzz_internal4dirs19path_from_args_typeNtNvNtNtCs1SoYQDD3VK8_5serde6option13target_fuzz__10write_args4ArgsEB1a_
FN:136,_RINvNtCs7tkdMjTuzcM_18test_fuzz_internal4dirs19path_from_args_typeNtNvNtNtCs1SoYQDD3VK8_5serde6string13target_fuzz__10write_args4ArgsEB1a_
FN:136,_RINvNtCs7tkdMjTuzcM_18test_fuzz_internal4dirs19path_from_args_typeNtNvNtNtCs1SoYQDD3VK8_5serde6strukt13target_fuzz__10write_args4ArgsEB1a_
FN:32,_RINvNtCs7tkdMjTuzcM_18test_fuzz_internal4dirs31corpus_directory_from_args_typeNtNvNtNtCs1SoYQDD3VK8_5serde10byte_array13target_fuzz__10write_args4ArgsEB1m_
FN:32,_RINvNtCs7tkdMjTuzcM_18test_fuzz_internal4dirs31corpus_directory_from_args_typeNtNvNtNtCs1SoYQDD3VK8_5serde11unit_struct13target_fuzz__10write_args4ArgsEB1m_
FN:32,_RINvNtCs7tkdMjTuzcM_18test_fuzz_internal4dirs31corpus_directory_from_args_typeNtNvNtNtCs1SoYQDD3VK8_5serde12tuple_struct13target_fuzz__10write_args4ArgsEB1m_
FN:32,_RINvNtCs7tkdMjTuzcM_18test_fuzz_internal4dirs31corpus_directory_from_args_typeNtNvNtNtCs1SoYQDD3VK8_5serde12unit_variant13target_fuzz__10write_args4ArgsEB1m_
FN:32,_RINvNtCs7tkdMjTuzcM_18test_fuzz_internal4dirs31corpus_directory_from_args_typeNtNvNtNtCs1SoYQDD3VK8_5serde13tuple_variant13target_fuzz__10write_args4ArgsEB1m_
FN:32,_RINvNtCs7tkdMjTuzcM_18test_fuzz_internal4dirs31corpus_directory_from_args_typeNtNvNtNtCs1SoYQDD3VK8_5serde14newtype_struct13target_fuzz__10write_args4ArgsEB1m_
FN:32,_RINvNtCs7tkdMjTuzcM_18test_fuzz_internal4dirs31corpus_directory_from_args_typeNtNvNtNtCs1SoYQDD3VK8_5serde14struct_variant13target_fuzz__10write_args4ArgsEB1m_
FN:32,_RINvNtCs7tkdMjTuzcM_18test_fuzz_internal4dirs31corpus_directory_from_args_typeNtNvNtNtCs1SoYQDD3VK8_5serde15newtype_variant13target_fuzz__10write_args4ArgsEB1m_
FN:32,_RINvNtCs7tkdMjTuzcM_18test_fuzz_internal4dirs31corpus_directory_from_args_typeNtNvNtNtCs1SoYQDD3VK8_5serde3map13target_fuzz__10write_args4ArgsEB1m_
FN:32,_RINvNtCs7tkdMjTuzcM_18test_fuzz_internal4dirs31corpus_directory_from_args_typeNtNvNtNtCs1SoYQDD3VK8_5serde3seq13target_fuzz__10write_args4ArgsEB1m_
FN:32,_RINvNtCs7tkdMjTuzcM_18test_fuzz_internal4dirs31corpus_directory_from_args_typeNtNvNtNtCs1SoYQDD3VK8_5serde4unit13target_fuzz__10write_args4ArgsEB1m_
FN:32,_RINvNtCs7tkdMjTuzcM_18test_fuzz_internal4dirs31corpus_directory_from_args_typeNtNvNtNtCs1SoYQDD3VK8_5serde5tuple13target_fuzz__10write_args4ArgsEB1m_
FN:32,_RINvNtCs7tkdMjTuzcM_18test_fuzz_internal4dirs31corpus_directory_from_args_typeNtNvNtNtCs1SoYQDD3VK8_5serde6option13target_fuzz__10write_args4ArgsEB1m_
FN:32,_RINvNtCs7tkdMjTuzcM_18test_fuzz_internal4dirs31corpus_directory_from_args_typeNtNvNtNtCs1SoYQDD3VK8_5serde6string13target_fuzz__10write_args4ArgsEB1m_
FN:32,_RINvNtCs7tkdMjTuzcM_18test_fuzz_internal4dirs31corpus_directory_from_args_typeNtNvNtNtCs1SoYQDD3VK8_5serde6strukt13target_fuzz__10write_args4ArgsEB1m_
FN:22,_RINvNtCs7tkdMjTuzcM_18test_fuzz_internal4dirs37generic_args_directory_from_args_typeNtNtNtCs1SoYQDD3VK8_5serde10byte_array13target_fuzz__4ArgsEB1q_
FN:22,_RINvNtCs7tkdMjTuzcM_18test_fuzz_internal4dirs37generic_args_directory_from_args_typeNtNtNtCs1SoYQDD3VK8_5serde11unit_struct13target_fuzz__4ArgsEB1q_
FN:22,_RINvNtCs7tkdMjTuzcM_18test_fuzz_internal4dirs37generic_args_directory_from_args_typeNtNtNtCs1SoYQDD3VK8_5serde12tuple_struct13target_fuzz__4ArgsEB1q_
FN:22,_RINvNtCs7tkdMjTuzcM_18test_fuzz_internal4dirs37generic_args_directory_from_args_typeNtNtNtCs1SoYQDD3VK8_5serde12unit_variant13target_fuzz__4ArgsEB1q_
FN:22,_RINvNtCs7tkdMjTuzcM_18test_fuzz_internal4dirs37generic_args_directory_from_args_typeNtNtNtCs1SoYQDD3VK8_5serde13tuple_variant13target_fuzz__4ArgsEB1q_
FN:22,_RINvNtCs7tkdMjTuzcM_18test_fuzz_internal4dirs37generic_args_directory_from_args_typeNtNtNtCs1SoYQDD3VK8_5serde14newtype_struct13target_fuzz__4ArgsEB1q_
FN:22,_RINvNtCs7tkdMjTuzcM_18test_fuzz_internal4dirs37generic_args_directory_from_args_typeNtNtNtCs1SoYQDD3VK8_5serde14struct_variant13target_fuzz__4ArgsEB1q_
FN:22,_RINvNtCs7tkdMjTuzcM_18test_fuzz_internal4dirs37generic_args_directory_from_args_typeNtNtNtCs1SoYQDD3VK8_5serde15newtype_variant13target_fuzz__4ArgsEB1q_
FN:22,_RINvNtCs7tkdMjTuzcM_18test_fuzz_internal4dirs37generic_args_directory_from_args_typeNtNtNtCs1SoYQDD3VK8_5serde3map13target_fuzz__4ArgsEB1q_
FN:22,_RINvNtCs7tkdMjTuzcM_18test_fuzz_internal4dirs37generic_args_directory_from_args_typeNtNtNtCs1SoYQDD3VK8_5serde3seq13target_fuzz__4ArgsEB1q_
FN:22,_RINvNtCs7tkdMjTuzcM_18test_fuzz_internal4dirs37generic_args_directory_from_args_typeNtNtNtCs1SoYQDD3VK8_5serde4unit13target_fuzz__4ArgsEB1q_
FN:22,_RINvNtCs7tkdMjTuzcM_18test_fuzz_internal4dirs37generic_args_directory_from_args_typeNtNtNtCs1SoYQDD3VK8_5serde5tuple13target_fuzz__4ArgsEB1q_
FN:22,_RINvNtCs7tkdMjTuzcM_18test_fuzz_internal4dirs37generic_args_directory_from_args_typeNtNtNtCs1SoYQDD3VK8_5serde6option13target_fuzz__4ArgsEB1q_
FN:22,_RINvNtCs7tkdMjTuzcM_18test_fuzz_internal4dirs37generic_args_directory_from_args_typeNtNtNtCs1SoYQDD3VK8_5serde6string13target_fuzz__4ArgsEB1q_
FN:22,_RINvNtCs7tkdMjTuzcM_18test_fuzz_internal4dirs37generic_args_directory_from_args_typeNtNtNtCs1SoYQDD3VK8_5serde6strukt13target_fuzz__4ArgsEB1q_
FN:12,_RINvNtCs7tkdMjTuzcM_18test_fuzz_internal4dirs42impl_generic_args_directory_from_args_typeNtNtNtCs1SoYQDD3VK8_5serde10byte_array13target_fuzz__4ArgsEB1v_
FN:12,_RINvNtCs7tkdMjTuzcM_18test_fuzz_internal4dirs42impl_generic_args_directory_from_args_typeNtNtNtCs1SoYQDD3VK8_5serde11unit_struct13target_fuzz__4ArgsEB1v_
FN:12,_RINvNtCs7tkdMjTuzcM_18test_fuzz_internal4dirs42impl_generic_args_directory_from_args_typeNtNtNtCs1SoYQDD3VK8_5serde12tuple_struct13target_fuzz__4ArgsEB1v_
FN:12,_RINvNtCs7tkdMjTuzcM_18test_fuzz_internal4dirs42impl_generic_args_directory_from_args_typeNtNtNtCs1SoYQDD3VK8_5serde12unit_variant13target_fuzz__4ArgsEB1v_
FN:12,_RINvNtCs7tkdMjTuzcM_18test_fuzz_internal4dirs42impl_generic_args_directory_from_args_typeNtNtNtCs1SoYQDD3VK8_5serde13tuple_variant13target_fuzz__4ArgsEB1v_
FN:12,_RINvNtCs7tkdMjTuzcM_18test_fuzz_internal4dirs42impl_generic_args_directory_from_args_typeNtNtNtCs1SoYQDD3VK8_5serde14newtype_struct13target_fuzz__4ArgsEB1v_
FN:12,_RINvNtCs7tkdMjTuzcM_18test_fuzz_internal4dirs42impl_generic_args_directory_from_args_typeNtNtNtCs1SoYQDD3VK8_5serde14struct_variant13target_fuzz__4ArgsEB1v_
FN:12,_RINvNtCs7tkdMjTuzcM_18test_fuzz_internal4dirs42impl_generic_args_directory_from_args_typeNtNtNtCs1SoYQDD3VK8_5serde15newtype_variant13target_fuzz__4ArgsEB1v_
FN:12,_RINvNtCs7tkdMjTuzcM_18test_fuzz_internal4dirs42impl_generic_args_directory_from_args_typeNtNtNtCs1SoYQDD3VK8_5serde3map13target_fuzz__4ArgsEB1v_
FN:12,_RINvNtCs7tkdMjTuzcM_18test_fuzz_internal4dirs42impl_generic_args_directory_from_args_typeNtNtNtCs1SoYQDD3VK8_5serde3seq13target_fuzz__4ArgsEB1v_
FN:12,_RINvNtCs7tkdMjTuzcM_18test_fuzz_internal4dirs42impl_generic_args_directory_from_args_typeNtNtNtCs1SoYQDD3VK8_5serde4unit13target_fuzz__4ArgsEB1v_
FN:12,_RINvNtCs7tkdMjTuzcM_18test_fuzz_internal4dirs42impl_generic_args_directory_from_args_typeNtNtNtCs1SoYQDD3VK8_5serde5tuple13target_fuzz__4ArgsEB1v_
FN:12,_RINvNtCs7tkdMjTuzcM_18test_fuzz_internal4dirs42impl_generic_args_directory_from_args_typeNtNtNtCs1SoYQDD3VK8_5serde6option13target_fuzz__4ArgsEB1v_
FN:12,_RINvNtCs7tkdMjTuzcM_18test_fuzz_internal4dirs42impl_generic_args_directory_from_args_typeNtNtNtCs1SoYQDD3VK8_5serde6string13target_fuzz__4ArgsEB1v_
FN:12,_RINvNtCs7tkdMjTuzcM_18test_fuzz_internal4dirs42impl_generic_args_directory_from_args_typeNtNtNtCs1SoYQDD3VK8_5serde6strukt13target_fuzz__4ArgsEB1v_
FN:140,_RNCINvNtCs7tkdMjTuzcM_18test_fuzz_internal4dirs19path_from_args_typeNtNtNtCs1SoYQDD3VK8_5serde10byte_array13target_fuzz__4ArgsE0B1a_
FN:140,_RNCINvNtCs7tkdMjTuzcM_18test_fuzz_internal4dirs19path_from_args_typeNtNtNtCs1SoYQDD3VK8_5serde11unit_struct13target_fuzz__4ArgsE0B1a_
FN:140,_RNCINvNtCs7tkdMjTuzcM_18test_fuzz_internal4dirs19path_from_args_typeNtNtNtCs1SoYQDD3VK8_5serde12tuple_struct13target_fuzz__4ArgsE0B1a_
FN:140,_RNCINvNtCs7tkdMjTuzcM_18test_fuzz_internal4dirs19path_from_args_typeNtNtNtCs1SoYQDD3VK8_5serde12unit_variant13target_fuzz__4ArgsE0B1a_
FN:140,_RNCINvNtCs7tkdMjTuzcM_18test_fuzz_internal4dirs19path_from_args_typeNtNtNtCs1SoYQDD3VK8_5serde13tuple_variant13target_fuzz__4ArgsE0B1a_
FN:140,_RNCINvNtCs7tkdMjTuzcM_18test_fuzz_internal4dirs19path_from_args_typeNtNtNtCs1SoYQDD3VK8_5serde14newtype_struct13target_fuzz__4ArgsE0B1a_
FN:140,_RNCINvNtCs7tkdMjTuzcM_18test_fuzz_internal4dirs19path_from_args_typeNtNtNtCs1SoYQDD3VK8_5serde14struct_variant13target_fuzz__4ArgsE0B1a_
FN:140,_RNCINvNtCs7tkdMjTuzcM_18test_fuzz_internal4dirs19path_from_args_typeNtNtNtCs1SoYQDD3VK8_5serde15newtype_variant13target_fuzz__4ArgsE0B1a_
FN:140,_RNCINvNtCs7tkdMjTuzcM_18test_fuzz_internal4dirs19path_from_args_typeNtNtNtCs1SoYQDD3VK8_5serde3map13target_fuzz__4ArgsE0B1a_
FN:140,_RNCINvNtCs7tkdMjTuzcM_18test_fuzz_internal4dirs19path_from_args_typeNtNtNtCs1SoYQDD3VK8_5serde3seq13target_fuzz__4ArgsE0B1a_
FN:140,_RNCINvNtCs7tkdMjTuzcM_18test_fuzz_internal4dirs19path_from_args_typeNtNtNtCs1SoYQDD3VK8_5serde4unit13target_fuzz__4ArgsE0B1a_
FN:140,_RNCINvNtCs7tkdMjTuzcM_18test_fuzz_internal4dirs19path_from_args_typeNtNtNtCs1SoYQDD3VK8_5serde5tuple13target_fuzz__4ArgsE0B1a_
FN:140,_RNCINvNtCs7tkdMjTuzcM_18test_fuzz_internal4dirs19path_from_args_typeNtNtNtCs1SoYQDD3VK8_5serde6option13target_fuzz__4ArgsE0B1a_
FN:140,_RNCINvNtCs7tkdMjTuzcM_18test_fuzz_internal4dirs19path_from_args_typeNtNtNtCs1SoYQDD3VK8_5serde6string13target_fuzz__4ArgsE0B1a_
FN:140,_RNCINvNtCs7tkdMjTuzcM_18test_fuzz_internal4dirs19path_from_args_typeNtNtNtCs1SoYQDD3VK8_5serde6strukt13target_fuzz__4ArgsE0B1a_
FN:140,_RNCINvNtCs7tkdMjTuzcM_18test_fuzz_internal4dirs19path_from_args_typeNtNvNtNtCs1SoYQDD3VK8_5serde10byte_array13target_fuzz__10write_args4ArgsE0B1c_
FN:140,_RNCINvNtCs7tkdMjTuzcM_18test_fuzz_internal4dirs19path_from_args_typeNtNvNtNtCs1SoYQDD3VK8_5serde11unit_struct13target_fuzz__10write_args4ArgsE0B1c_
FN:140,_RNCINvNtCs7tkdMjTuzcM_18test_fuzz_internal4dirs19path_from_args_typeNtNvNtNtCs1SoYQDD3VK8_5serde12tuple_struct13target_fuzz__10write_args4ArgsE0B1c_
FN:140,_RNCINvNtCs7tkdMjTuzcM_18test_fuzz_internal4dirs19path_from_args_typeNtNvNtNtCs1SoYQDD3VK8_5serde12unit_variant13target_fuzz__10write_args4ArgsE0B1c_
FN:140,_RNCINvNtCs7tkdMjTuzcM_18test_fuzz_internal4dirs19path_from_args_typeNtNvNtNtCs1SoYQDD3VK8_5serde13tuple_variant13target_fuzz__10write_args4ArgsE0B1c_
FN:140,_RNCINvNtCs7tkdMjTuzcM_18test_fuzz_internal4dirs19path_from_args_typeNtNvNtNtCs1SoYQDD3VK8_5serde14newtype_struct13target_fuzz__10write_args4ArgsE0B1c_
FN:140,_RNCINvNtCs7tkdMjTuzcM_18test_fuzz_internal4dirs19path_from_args_typeNtNvNtNtCs1SoYQDD3VK8_5serde14struct_variant13target_fuzz__10write_args4ArgsE0B1c_
FN:140,_RNCINvNtCs7tkdMjTuzcM_18test_fuzz_internal4dirs19path_from_args_typeNtNvNtNtCs1SoYQDD3VK8_5serde15newtype_variant13target_fuzz__10write_args4ArgsE0B1c_
FN:140,_RNCINvNtCs7tkdMjTuzcM_18test_fuzz_internal4dirs19path_from_args_typeNtNvNtNtCs1SoYQDD3VK8_5serde3map13target_fuzz__10write_args4ArgsE0B1c_
FN:140,_RNCINvNtCs7tkdMjTuzcM_18test_fuzz_internal4dirs19path_from_args_typeNtNvNtNtCs1SoYQDD3VK8_5serde3seq13target_fuzz__10write_args4ArgsE0B1c_
FN:140,_RNCINvNtCs7tkdMjTuzcM_18test_fuzz_internal4dirs19path_from_args_typeNtNvNtNtCs1SoYQDD3VK8_5serde4unit13target_fuzz__10write_args4ArgsE0B1c_
FN:140,_RNCINvNtCs7tkdMjTuzcM_18test_fuzz_internal4dirs19path_from_args_typeNtNvNtNtCs1SoYQDD3VK8_5serde5tuple13target_fuzz__10write_args4ArgsE0B1c_
FN:140,_RNCINvNtCs7tkdMjTuzcM_18test_fuzz_internal4dirs19path_from_args_typeNtNvNtNtCs1SoYQDD3VK8_5serde6option13target_fuzz__10write_args4ArgsE0B1c_
FN:140,_RNCINvNtCs7tkdMjTuzcM_18test_fuzz_internal4dirs19path_from_args_typeNtNvNtNtCs1SoYQDD3VK8_5serde6string13target_fuzz__10write_args4ArgsE0B1c_
FN:140,_RNCINvNtCs7tkdMjTuzcM_18test_fuzz_internal4dirs19path_from_args_typeNtNvNtNtCs1SoYQDD3VK8_5serde6strukt13target_fuzz__10write_args4ArgsE0B1c_
FN:136,_RINvNtCs7qDQvy6XYpV_18test_fuzz_internal4dirs19path_from_args_typeNtNtCse1dW2A7tO57_10serde_attr13target_fuzz__4ArgsEB16_
FN:136,_RINvNtCs7qDQvy6XYpV_18test_fuzz_internal4dirs19path_from_args_typeNtNvNtCse1dW2A7tO57_10serde_attr13target_fuzz__10write_args4ArgsEB18_
FN:32,_RINvNtCs7qDQvy6XYpV_18test_fuzz_internal4dirs31corpus_directory_from_args_typeNtNvNtCse1dW2A7tO57_10serde_attr13target_fuzz__10write_args4ArgsEB1k_
FN:22,_RINvNtCs7qDQvy6XYpV_18test_fuzz_internal4dirs37generic_args_directory_from_args_typeNtNtCse1dW2A7tO57_10serde_attr13target_fuzz__4ArgsEB1o_
FN:12,_RINvNtCs7qDQvy6XYpV_18test_fuzz_internal4dirs42impl_generic_args_directory_from_args_typeNtNtCse1dW2A7tO57_10serde_attr13target_fuzz__4ArgsEB1t_
FN:140,_RNCINvNtCs7qDQvy6XYpV_18test_fuzz_internal4dirs19path_from_args_typeNtNtCse1dW2A7tO57_10serde_attr13target_fuzz__4ArgsE0B18_
FN:140,_RNCINvNtCs7qDQvy6XYpV_18test_fuzz_internal4dirs19path_from_args_typeNtNvNtCse1dW2A7tO57_10serde_attr13target_fuzz__10write_args4ArgsE0B1a_
FN:136,_RINvNtCs7tkdMjTuzcM_18test_fuzz_internal4dirs19path_from_args_typeNtNtCsiHwGo1R4TOm_10serde_attr13target_fuzz__4ArgsEB16_
FN:136,_RINvNtCs7tkdMjTuzcM_18test_fuzz_internal4dirs19path_from_args_typeNtNvNtCsiHwGo1R4TOm_10serde_attr13target_fuzz__10write_args4ArgsEB18_
FN:32,_RINvNtCs7tkdMjTuzcM_18test_fuzz_internal4dirs31corpus_directory_from_args_typeNtNvNtCsiHwGo1R4TOm_10serde_attr13target_fuzz__10write_args4ArgsEB1k_
FN:22,_RINvNtCs7tkdMjTuzcM_18test_fuzz_internal4dirs37generic_args_directory_from_args_typeNtNtCsiHwGo1R4TOm_10serde_attr13target_fuzz__4ArgsEB1o_
FN:12,_RINvNtCs7tkdMjTuzcM_18test_fuzz_internal4dirs42impl_generic_args_directory_from_args_typeNtNtCsiHwGo1R4TOm_10serde_attr13target_fuzz__4ArgsEB1t_
FN:140,_RNCINvNtCs7tkdMjTuzcM_18test_fuzz_internal4dirs19path_from_args_typeNtNtCsiHwGo1R4TOm_10serde_attr13target_fuzz__4ArgsE0B18_
FN:140,_RNCINvNtCs7tkdMjTuzcM_18test_fuzz_internal4dirs19path_from_args_typeNtNvNtCsiHwGo1R4TOm_10serde_attr13target_fuzz__10write_args4ArgsE0B1a_
FN:136,_RINvNtCs7qDQvy6XYpV_18test_fuzz_internal4dirs19path_from_args_typeNtNtCshADnmsIT5b7_10serde_attr13target_fuzz__4ArgsEB16_
FN:136,_RINvNtCs7qDQvy6XYpV_18test_fuzz_internal4dirs19path_from_args_typeNtNvNtCshADnmsIT5b7_10serde_attr13target_fuzz__10write_args4ArgsEB18_
FN:32,_RINvNtCs7qDQvy6XYpV_18test_fuzz_internal4dirs31corpus_directory_from_args_typeNtNvNtCshADnmsIT5b7_10serde_attr13target_fuzz__10write_args4ArgsEB1k_
FN:22,_RINvNtCs7qDQvy6XYpV_18test_fuzz_internal4dirs37generic_args_directory_from_args_typeNtNtCshADnmsIT5b7_10serde_attr13target_fuzz__4ArgsEB1o_
FN:12,_RINvNtCs7qDQvy6XYpV_18test_fuzz_internal4dirs42impl_generic_args_directory_from_args_typeNtNtCshADnmsIT5b7_10serde_attr13target_fuzz__4ArgsEB1t_
FN:140,_RNCINvNtCs7qDQvy6XYpV_18test_fuzz_internal4dirs19path_from_args_typeNtNtCshADnmsIT5b7_10serde_attr13target_fuzz__4ArgsE0B18_
FN:140,_RNCINvNtCs7qDQvy6XYpV_18test_fuzz_internal4dirs19path_from_args_typeNtNvNtCshADnmsIT5b7_10serde_attr13target_fuzz__10write_args4ArgsE0B1a_
FN:136,_RINvNtCs7tkdMjTuzcM_18test_fuzz_internal4dirs19path_from_args_typeNtNtCscP0tqnGvMPv_14test_fuzz_impl17struct_bar_fuzz__4ArgsEB16_
FN:136,_RINvNtCs7tkdMjTuzcM_18test_fuzz_internal4dirs19path_from_args_typeNtNtCscP0tqnGvMPv_14test_fuzz_impl17struct_foo_fuzz__4ArgsEB16_
FN:136,_RINvNtCs7tkdMjTuzcM_18test_fuzz_internal4dirs19path_from_args_typeNtNvNtCscP0tqnGvMPv_14test_fuzz_impl17struct_bar_fuzz__10write_args4ArgsEB18_
FN:136,_RINvNtCs7tkdMjTuzcM_18test_fuzz_internal4dirs19path_from_args_typeNtNvNtCscP0tqnGvMPv_14test_fuzz_impl17struct_foo_fuzz__10write_args4ArgsEB18_
FN:32,_RINvNtCs7tkdMjTuzcM_18test_fuzz_internal4dirs31corpus_directory_from_args_typeNtNvNtCscP0tqnGvMPv_14test_fuzz_impl17struct_bar_fuzz__10write_args4ArgsEB1k_
FN:32,_RINvNtCs7tkdMjTuzcM_18test_fuzz_internal4dirs31corpus_directory_from_args_typeNtNvNtCscP0tqnGvMPv_14test_fuzz_impl17struct_foo_fuzz__10write_args4ArgsEB1k_
FN:22,_RINvNtCs7tkdMjTuzcM_18test_fuzz_internal4dirs37generic_args_directory_from_args_typeNtNtCscP0tqnGvMPv_14test_fuzz_impl17struct_bar_fuzz__4ArgsEB1o_
FN:22,_RINvNtCs7tkdMjTuzcM_18test_fuzz_internal4dirs37generic_args_directory_from_args_typeNtNtCscP0tqnGvMPv_14test_fuzz_impl17struct_foo_fuzz__4ArgsEB1o_
FN:12,_RINvNtCs7tkdMjTuzcM_18test_fuzz_internal4dirs42impl_generic_args_directory_from_args_typeNtNtCscP0tqnGvMPv_14test_fuzz_impl17struct_bar_fuzz__4ArgsEB1t_
FN:12,_RINvNtCs7tkdMjTuzcM_18test_fuzz_internal4dirs42impl_generic_args_directory_from_args_typeNtNtCscP0tqnGvMPv_14test_fuzz_impl17struct_foo_fuzz__4ArgsEB1t_
FN:140,_RNCINvNtCs7tkdMjTuzcM_18test_fuzz_internal4dirs19path_from_args_typeNtNtCscP0tqnGvMPv_14test_fuzz_impl17struct_bar_fuzz__4ArgsE0B18_
FN:140,_RNCINvNtCs7tkdMjTuzcM_18test_fuzz_internal4dirs19path_from_args_typeNtNtCscP0tqnGvMPv_14test_fuzz_impl17struct_foo_fuzz__4ArgsE0B18_
FN:140,_RNCINvNtCs7tkdMjTuzcM_18test_fuzz_internal4dirs19path_from_args_typeNtNvNtCscP0tqnGvMPv_14test_fuzz_impl17struct_bar_fuzz__10write_args4ArgsE0B1a_
FN:140,_RNCINvNtCs7tkdMjTuzcM_18test_fuzz_internal4dirs19path_from_args_typeNtNvNtCscP0tqnGvMPv_14test_fuzz_impl17struct_foo_fuzz__10write_args4ArgsE0B1a_
FN:136,_RINvNtCs7qDQvy6XYpV_18test_fuzz_internal4dirs19path_from_args_typeNtNtCskJVKdVyHrLv_14test_fuzz_impl17struct_bar_fuzz__4ArgsEB16_
FN:136,_RINvNtCs7qDQvy6XYpV_18test_fuzz_internal4dirs19path_from_args_typeNtNtCskJVKdVyHrLv_14test_fuzz_impl17struct_foo_fuzz__4ArgsEB16_
FN:136,_RINvNtCs7qDQvy6XYpV_18test_fuzz_internal4dirs19path_from_args_typeNtNvNtCskJVKdVyHrLv_14test_fuzz_impl17struct_bar_fuzz__10write_args4ArgsEB18_
FN:136,_RINvNtCs7qDQvy6XYpV_18test_fuzz_internal4dirs19path_from_args_typeNtNvNtCskJVKdVyHrLv_14test_fuzz_impl17struct_foo_fuzz__10write_args4ArgsEB18_
FN:32,_RINvNtCs7qDQvy6XYpV_18test_fuzz_internal4dirs31corpus_directory_from_args_typeNtNvNtCskJVKdVyHrLv_14test_fuzz_impl17struct_bar_fuzz__10write_args4ArgsEB1k_
FN:32,_RINvNtCs7qDQvy6XYpV_18test_fuzz_internal4dirs31corpus_directory_from_args_typeNtNvNtCskJVKdVyHrLv_14test_fuzz_impl17struct_foo_fuzz__10write_args4ArgsEB1k_
FN:22,_RINvNtCs7qDQvy6XYpV_18test_fuzz_internal4dirs37generic_args_directory_from_args_typeNtNtCskJVKdVyHrLv_14test_fuzz_impl17struct_bar_fuzz__4ArgsEB1o_
FN:22,_RINvNtCs7qDQvy6XYpV_18test_fuzz_internal4dirs37generic_args_directory_from_args_typeNtNtCskJVKdVyHrLv_14test_fuzz_impl17struct_foo_fuzz__4ArgsEB1o_
FN:12,_RINvNtCs7qDQvy6XYpV_18test_fuzz_internal4dirs42impl_generic_args_directory_from_args_typeNtNtCskJVKdVyHrLv_14test_fuzz_impl17struct_bar_fuzz__4ArgsEB1t_
FN:12,_RINvNtCs7qDQvy6XYpV_18test_fuzz_internal4dirs42impl_generic_args_directory_from_args_typeNtNtCskJVKdVyHrLv_14test_fuzz_impl17struct_foo_fuzz__4ArgsEB1t_
FN:140,_RNCINvNtCs7qDQvy6XYpV_18test_fuzz_internal4dirs19path_from_args_typeNtNtCskJVKdVyHrLv_14test_fuzz_impl17struct_bar_fuzz__4ArgsE0B18_
FN:140,_RNCINvNtCs7qDQvy6XYpV_18test_fuzz_internal4dirs19path_from_args_typeNtNtCskJVKdVyHrLv_14test_fuzz_impl17struct_foo_fuzz__4ArgsE0B18_
FN:140,_RNCINvNtCs7qDQvy6XYpV_18test_fuzz_internal4dirs19path_from_args_typeNtNvNtCskJVKdVyHrLv_14test_fuzz_impl17struct_bar_fuzz__10write_args4ArgsE0B1a_
FN:140,_RNCINvNtCs7qDQvy6XYpV_18test_fuzz_internal4dirs19path_from_args_typeNtNvNtCskJVKdVyHrLv_14test_fuzz_impl17struct_foo_fuzz__10write_args4ArgsE0B1a_
FN:136,_RINvNtCs7qDQvy6XYpV_18test_fuzz_internal4dirs19path_from_args_typeNtNtCs5EH7ZKPdI2D_14test_fuzz_impl17struct_bar_fuzz__4ArgsEB16_
FN:136,_RINvNtCs7qDQvy6XYpV_18test_fuzz_internal4dirs19path_from_args_typeNtNtCs5EH7ZKPdI2D_14test_fuzz_impl17struct_foo_fuzz__4ArgsEB16_
FN:136,_RINvNtCs7qDQvy6XYpV_18test_fuzz_internal4dirs19path_from_args_typeNtNvNtCs5EH7ZKPdI2D_14test_fuzz_impl17struct_bar_fuzz__10write_args4ArgsEB18_
FN:136,_RINvNtCs7qDQvy6XYpV_18test_fuzz_internal4dirs19path_from_args_typeNtNvNtCs5EH7ZKPdI2D_14test_fuzz_impl17struct_foo_fuzz__10write_args4ArgsEB18_
FN:32,_RINvNtCs7qDQvy6XYpV_18test_fuzz_internal4dirs31corpus_directory_from_args_typeNtNvNtCs5EH7ZKPdI2D_14test_fuzz_impl17struct_bar_fuzz__10write_args4ArgsEB1k_
FN:32,_RINvNtCs7qDQvy6XYpV_18test_fuzz_internal4dirs31corpus_directory_from_args_typeNtNvNtCs5EH7ZKPdI2D_14test_fuzz_impl17struct_foo_fuzz__10write_args4ArgsEB1k_
FN:22,_RINvNtCs7qDQvy6XYpV_18test_fuzz_internal4dirs37generic_args_directory_from_args_typeNtNtCs5EH7ZKPdI2D_14test_fuzz_impl17struct_bar_fuzz__4ArgsEB1o_
FN:22,_RINvNtCs7qDQvy6XYpV_18test_fuzz_internal4dirs37generic_args_directory_from_args_typeNtNtCs5EH7ZKPdI2D_14test_fuzz_impl17struct_foo_fuzz__4ArgsEB1o_
FN:12,_RINvNtCs7qDQvy6XYpV_18test_fuzz_internal4dirs42impl_generic_args_directory_from_args_typeNtNtCs5EH7ZKPdI2D_14test_fuzz_impl17struct_bar_fuzz__4ArgsEB1t_
FN:12,_RINvNtCs7qDQvy6XYpV_18test_fuzz_internal4dirs42impl_generic_args_directory_from_args_typeNtNtCs5EH7ZKPdI2D_14test_fuzz_impl17struct_foo_fuzz__4ArgsEB1t_
FN:140,_RNCINvNtCs7qDQvy6XYpV_18test_fuzz_internal4dirs19path_from_args_typeNtNtCs5EH7ZKPdI2D_14test_fuzz_impl17struct_bar_fuzz__4ArgsE0B18_
FN:140,_RNCINvNtCs7qDQvy6XYpV_18test_fuzz_internal4dirs19path_from_args_typeNtNtCs5EH7ZKPdI2D_14test_fuzz_impl17struct_foo_fuzz__4ArgsE0B18_
FN:140,_RNCINvNtCs7qDQvy6XYpV_18test_fuzz_internal4dirs19path_from_args_typeNtNvNtCs5EH7ZKPdI2D_14test_fuzz_impl17struct_bar_fuzz__10write_args4ArgsE0B1a_
FN:140,_RNCINvNtCs7qDQvy6XYpV_18test_fuzz_internal4dirs19path_from_args_typeNtNvNtCs5EH7ZKPdI2D_14test_fuzz_impl17struct_foo_fuzz__10write_args4ArgsE0B1a_
FN:136,_RINvNtCs7qDQvy6XYpV_18test_fuzz_internal4dirs19path_from_args_typeNtNtCsiHLqJey6pNr_7unserde13target_fuzz__4ArgsEB16_
FN:136,_RINvNtCs7qDQvy6XYpV_18test_fuzz_internal4dirs19path_from_args_typeNtNtCsiHLqJey6pNr_7unserde27target_in_production_fuzz__4ArgsEB16_
FN:22,_RINvNtCs7qDQvy6XYpV_18test_fuzz_internal4dirs37generic_args_directory_from_args_typeNtNtCsiHLqJey6pNr_7unserde13target_fuzz__4ArgsEB1o_
FN:22,_RINvNtCs7qDQvy6XYpV_18test_fuzz_internal4dirs37generic_args_directory_from_args_typeNtNtCsiHLqJey6pNr_7unserde27target_in_production_fuzz__4ArgsEB1o_
FN:12,_RINvNtCs7qDQvy6XYpV_18test_fuzz_internal4dirs42impl_generic_args_directory_from_args_typeNtNtCsiHLqJey6pNr_7unserde13target_fuzz__4ArgsEB1t_
FN:12,_RINvNtCs7qDQvy6XYpV_18test_fuzz_internal4dirs42impl_generic_args_directory_from_args_typeNtNtCsiHLqJey6pNr_7unserde27target_in_production_fuzz__4ArgsEB1t_
FN:140,_RNCINvNtCs7qDQvy6XYpV_18test_fuzz_internal4dirs19path_from_args_typeNtNtCsiHLqJey6pNr_7unserde13target_fuzz__4ArgsE0B18_
FN:140,_RNCINvNtCs7qDQvy6XYpV_18test_fuzz_internal4dirs19path_from_args_typeNtNtCsiHLqJey6pNr_7unserde27target_in_production_fuzz__4ArgsE0B18_
FN:136,_RINvNtCs7tkdMjTuzcM_18test_fuzz_internal4dirs19path_from_args_typeNtNtCslzjnfDmkuZ2_7unserde13target_fuzz__4ArgsEB16_
FN:136,_RINvNtCs7tkdMjTuzcM_18test_fuzz_internal4dirs19path_from_args_typeNtNtCslzjnfDmkuZ2_7unserde27target_in_production_fuzz__4ArgsEB16_
FN:22,_RINvNtCs7tkdMjTuzcM_18test_fuzz_internal4dirs37generic_args_directory_from_args_typeNtNtCslzjnfDmkuZ2_7unserde13target_fuzz__4ArgsEB1o_
FN:22,_RINvNtCs7tkdMjTuzcM_18test_fuzz_internal4dirs37generic_args_directory_from_args_typeNtNtCslzjnfDmkuZ2_7unserde27target_in_production_fuzz__4ArgsEB1o_
FN:12,_RINvNtCs7tkdMjTuzcM_18test_fuzz_internal4dirs42impl_generic_args_directory_from_args_typeNtNtCslzjnfDmkuZ2_7unserde13target_fuzz__4ArgsEB1t_
FN:12,_RINvNtCs7tkdMjTuzcM_18test_fuzz_internal4dirs42impl_generic_args_directory_from_args_typeNtNtCslzjnfDmkuZ2_7unserde27target_in_production_fuzz__4ArgsEB1t_
FN:140,_RNCINvNtCs7tkdMjTuzcM_18test_fuzz_internal4dirs19path_from_args_typeNtNtCslzjnfDmkuZ2_7unserde13target_fuzz__4ArgsE0B18_
FN:140,_RNCINvNtCs7tkdMjTuzcM_18test_fuzz_internal4dirs19path_from_args_typeNtNtCslzjnfDmkuZ2_7unserde27target_in_production_fuzz__4ArgsE0B18_
FN:136,_RINvNtCs7qDQvy6XYpV_18test_fuzz_internal4dirs19path_from_args_typeNtNtCs4mFuY1lAtpT_7unserde13target_fuzz__4ArgsEB16_
FN:136,_RINvNtCs7qDQvy6XYpV_18test_fuzz_internal4dirs19path_from_args_typeNtNtCs4mFuY1lAtpT_7unserde27target_in_production_fuzz__4ArgsEB16_
FN:22,_RINvNtCs7qDQvy6XYpV_18test_fuzz_internal4dirs37generic_args_directory_from_args_typeNtNtCs4mFuY1lAtpT_7unserde13target_fuzz__4ArgsEB1o_
FN:22,_RINvNtCs7qDQvy6XYpV_18test_fuzz_internal4dirs37generic_args_directory_from_args_typeNtNtCs4mFuY1lAtpT_7unserde27target_in_production_fuzz__4ArgsEB1o_
FN:12,_RINvNtCs7qDQvy6XYpV_18test_fuzz_internal4dirs42impl_generic_args_directory_from_args_typeNtNtCs4mFuY1lAtpT_7unserde13target_fuzz__4ArgsEB1t_
FN:12,_RINvNtCs7qDQvy6XYpV_18test_fuzz_internal4dirs42impl_generic_args_directory_from_args_typeNtNtCs4mFuY1lAtpT_7unserde27target_in_production_fuzz__4ArgsEB1t_
FN:140,_RNCINvNtCs7qDQvy6XYpV_18test_fuzz_internal4dirs19path_from_args_typeNtNtCs4mFuY1lAtpT_7unserde13target_fuzz__4ArgsE0B18_
FN:140,_RNCINvNtCs7qDQvy6XYpV_18test_fuzz_internal4dirs19path_from_args_typeNtNtCs4mFuY1lAtpT_7unserde27target_in_production_fuzz__4ArgsE0B18_
FNDA:0,_RINvNtCs7qDQvy6XYpV_18test_fuzz_internal4dirs19path_from_args_typeNtNtCsgIkjcW1KA6G_5alloc13target_fuzz__4ArgsEB16_
FNDA:0,_RINvNtCs7qDQvy6XYpV_18test_fuzz_internal4dirs19path_from_args_typeNtNvNtCsgIkjcW1KA6G_5alloc13target_fuzz__10write_args4ArgsEB18_
FNDA:0,_RINvNtCs7qDQvy6XYpV_18test_fuzz_internal4dirs31corpus_directory_from_args_typeNtNvNtCsgIkjcW1KA6G_5alloc13target_fuzz__10write_args4ArgsEB1k_
FNDA:0,_RINvNtCs7qDQvy6XYpV_18test_fuzz_internal4dirs37generic_args_directory_from_args_typeNtNtCsgIkjcW1KA6G_5alloc13target_fuzz__4ArgsEB1o_
FNDA:0,_RINvNtCs7qDQvy6XYpV_18test_fuzz_internal4dirs42impl_generic_args_directory_from_args_typeNtNtCsgIkjcW1KA6G_5alloc13target_fuzz__4ArgsEB1t_
FNDA:0,_RNCINvNtCs7qDQvy6XYpV_18test_fuzz_internal4dirs19path_from_args_typeNtNtCsgIkjcW1KA6G_5alloc13target_fuzz__4ArgsE0B18_
FNDA:0,_RNCINvNtCs7qDQvy6XYpV_18test_fuzz_internal4dirs19path_from_args_typeNtNvNtCsgIkjcW1KA6G_5alloc13target_fuzz__10write_args4ArgsE0B1a_
FNDA:0,_RINvNtCs7qDQvy6XYpV_18test_fuzz_internal4dirs19path_from_args_typepEB4_
FNDA:0,_RINvNtCs7qDQvy6XYpV_18test_fuzz_internal4dirs31corpus_directory_from_args_typepEB4_
FNDA:0,_RINvNtCs7qDQvy6XYpV_18test_fuzz_internal4dirs37generic_args_directory_from_args_typepEB4_
FNDA:0,_RINvNtCs7qDQvy6XYpV_18test_fuzz_internal4dirs42impl_generic_args_directory_from_args_typepEB4_
FNDA:0,_RNCINvNtCs7qDQvy6XYpV_18test_fuzz_internal4dirs19path_from_args_typepE0B6_
FNDA:0,_RNCNvNtCs7qDQvy6XYpV_18test_fuzz_internal4dirs8maybe_id0B5_
FNDA:0,_RNvNtCs7qDQvy6XYpV_18test_fuzz_internal4dirs12path_segment
FNDA:0,_RNvNtCs7qDQvy6XYpV_18test_fuzz_internal4dirs14workspace_root
FNDA:0,_RNvNtCs7qDQvy6XYpV_18test_fuzz_internal4dirs16corpus_directory
FNDA:0,_RNvNtCs7qDQvy6XYpV_18test_fuzz_internal4dirs16output_directory
FNDA:0,_RNvNtCs7qDQvy6XYpV_18test_fuzz_internal4dirs16path_from_target
FNDA:0,_RNvNtCs7qDQvy6XYpV_18test_fuzz_internal4dirs16target_directory
FNDA:0,_RNvNtCs7qDQvy6XYpV_18test_fuzz_internal4dirs22generic_args_directory
FNDA:0,_RNvNtCs7qDQvy6XYpV_18test_fuzz_internal4dirs27hangs_directory_from_target
FNDA:0,_RNvNtCs7qDQvy6XYpV_18test_fuzz_internal4dirs27impl_generic_args_directory
FNDA:0,_RNvNtCs7qDQvy6XYpV_18test_fuzz_internal4dirs27queue_directory_from_target
FNDA:0,_RNvNtCs7qDQvy6XYpV_18test_fuzz_internal4dirs28corpus_directory_from_target
FNDA:0,_RNvNtCs7qDQvy6XYpV_18test_fuzz_internal4dirs28output_directory_from_target
FNDA:0,_RNvNtCs7qDQvy6XYpV_18test_fuzz_internal4dirs29crashes_directory_from_target
FNDA:0,_RNvNtCs7qDQvy6XYpV_18test_fuzz_internal4dirs34generic_args_directory_from_target
FNDA:0,_RNvNtCs7qDQvy6XYpV_18test_fuzz_internal4dirs39impl_generic_args_directory_from_target
FNDA:0,_RNvNtCs7qDQvy6XYpV_18test_fuzz_internal4dirs8maybe_id
FNDA:0,_RNvNtCs7qDQvy6XYpV_18test_fuzz_internal4dirs9thread_id
FNDA:0,_RNvNtCs7qDQvy6XYpV_18test_fuzz_internal4dirs9workspace
FNDA:0,_RINvNtCs7tkdMjTuzcM_18test_fuzz_internal4dirs19path_from_args_typeNtNtCs4N18HtGFFUR_5alloc13target_fuzz__4ArgsEB16_
FNDA:0,_RINvNtCs7tkdMjTuzcM_18test_fuzz_internal4dirs19path_from_args_typeNtNvNtCs4N18HtGFFUR_5alloc13target_fuzz__10write_args4ArgsEB18_
FNDA:0,_RINvNtCs7tkdMjTuzcM_18test_fuzz_internal4dirs31corpus_directory_from_args_typeNtNvNtCs4N18HtGFFUR_5alloc13target_fuzz__10write_args4ArgsEB1k_
FNDA:0,_RINvNtCs7tkdMjTuzcM_18test_fuzz_internal4dirs37generic_args_directory_from_args_typeNtNtCs4N18HtGFFUR_5alloc13target_fuzz__4ArgsEB1o_
FNDA:0,_RINvNtCs7tkdMjTuzcM_18test_fuzz_internal4dirs42impl_generic_args_directory_from_args_typeNtNtCs4N18HtGFFUR_5alloc13target_fuzz__4ArgsEB1t_
FNDA:0,_RNCINvNtCs7tkdMjTuzcM_18test_fuzz_internal4dirs19path_from_args_typeNtNtCs4N18HtGFFUR_5alloc13target_fuzz__4ArgsE0B18_
FNDA:0,_RNCINvNtCs7tkdMjTuzcM_18test_fuzz_internal4dirs19path_from_args_typeNtNvNtCs4N18HtGFFUR_5alloc13target_fuzz__10write_args4ArgsE0B1a_
FNDA:0,_RINvNtCs7tkdMjTuzcM_18test_fuzz_internal4dirs19path_from_args_typepEB4_
FNDA:0,_RINvNtCs7tkdMjTuzcM_18test_fuzz_internal4dirs31corpus_directory_from_args_typepEB4_
FNDA:0,_RINvNtCs7tkdMjTuzcM_18test_fuzz_internal4dirs37generic_args_directory_from_args_typepEB4_
FNDA:0,_RINvNtCs7tkdMjTuzcM_18test_fuzz_internal4dirs42impl_generic_args_directory_from_args_typepEB4_
FNDA:0,_RNCINvNtCs7tkdMjTuzcM_18test_fuzz_internal4dirs19path_from_args_typepE0B6_
FNDA:0,_RNvNtCs7tkdMjTuzcM_18test_fuzz_internal4dirs12path_segment
FNDA:0,_RNvNtCs7tkdMjTuzcM_18test_fuzz_internal4dirs14workspace_root
FNDA:0,_RNvNtCs7tkdMjTuzcM_18test_fuzz_internal4dirs16corpus_directory
FNDA:0,_RNvNtCs7tkdMjTuzcM_18test_fuzz_internal4dirs16output_directory
FNDA:0,_RNvNtCs7tkdMjTuzcM_18test_fuzz_internal4dirs16path_from_target
FNDA:0,_RNvNtCs7tkdMjTuzcM_18test_fuzz_internal4dirs16target_directory
FNDA:0,_RNvNtCs7tkdMjTuzcM_18test_fuzz_internal4dirs22generic_args_directory
FNDA:0,_RNvNtCs7tkdMjTuzcM_18test_fuzz_internal4dirs27hangs_directory_from_target
FNDA:0,_RNvNtCs7tkdMjTuzcM_18test_fuzz_internal4dirs27impl_generic_args_directory
FNDA:0,_RNvNtCs7tkdMjTuzcM_18test_fuzz_internal4dirs27queue_directory_from_target
FNDA:0,_RNvNtCs7tkdMjTuzcM_18test_fuzz_internal4dirs28corpus_directory_from_target
FNDA:0,_RNvNtCs7tkdMjTuzcM_18test_fuzz_internal4dirs28output_directory_from_target
FNDA:0,_RNvNtCs7tkdMjTuzcM_18test_fuzz_internal4dirs29crashes_directory_from_target
FNDA:0,_RNvNtCs7tkdMjTuzcM_18test_fuzz_internal4dirs34generic_args_directory_from_target
FNDA:0,_RNvNtCs7tkdMjTuzcM_18test_fuzz_internal4dirs39impl_generic_args_directory_from_target
FNDA:0,_RNvNtCs7tkdMjTuzcM_18test_fuzz_internal4dirs8maybe_id
FNDA:0,_RNvNtCs7tkdMjTuzcM_18test_fuzz_internal4dirs9thread_id
FNDA:0,_RNvNtCs7tkdMjTuzcM_18test_fuzz_internal4dirs9workspace
FNDA:0,_RNCNvNtCs7tkdMjTuzcM_18test_fuzz_internal4dirs8maybe_id0B5_
FNDA:0,_RINvNtCs7qDQvy6XYpV_18test_fuzz_internal4dirs19path_from_args_typeNtNtCs4yETEQZarcM_5alloc13target_fuzz__4ArgsEB16_
FNDA:0,_RINvNtCs7qDQvy6XYpV_18test_fuzz_internal4dirs19path_from_args_typeNtNvNtCs4yETEQZarcM_5alloc13target_fuzz__10write_args4ArgsEB18_
FNDA:0,_RINvNtCs7qDQvy6XYpV_18test_fuzz_internal4dirs31corpus_directory_from_args_typeNtNvNtCs4yETEQZarcM_5alloc13target_fuzz__10write_args4ArgsEB1k_
FNDA:0,_RINvNtCs7qDQvy6XYpV_18test_fuzz_internal4dirs37generic_args_directory_from_args_typeNtNtCs4yETEQZarcM_5alloc13target_fuzz__4ArgsEB1o_
FNDA:0,_RINvNtCs7qDQvy6XYpV_18test_fuzz_internal4dirs42impl_generic_args_directory_from_args_typeNtNtCs4yETEQZarcM_5alloc13target_fuzz__4ArgsEB1t_
FNDA:0,_RNCINvNtCs7qDQvy6XYpV_18test_fuzz_internal4dirs19path_from_args_typeNtNtCs4yETEQZarcM_5alloc13target_fuzz__4ArgsE0B18_
FNDA:0,_RNCINvNtCs7qDQvy6XYpV_18test_fuzz_internal4dirs19path_from_args_typeNtNvNtCs4yETEQZarcM_5alloc13target_fuzz__10write_args4ArgsE0B1a_
FNDA:0,_RINvNtCs7qDQvy6XYpV_18test_fuzz_internal4dirs19path_from_args_typeNtNtCscRmF3GD5ZpW_3arc13target_fuzz__4ArgsEB16_
FNDA:0,_RINvNtCs7qDQvy6XYpV_18test_fuzz_internal4dirs19path_from_args_typeNtNvNtCscRmF3GD5ZpW_3arc13target_fuzz__10write_args4ArgsEB18_
FNDA:0,_RINvNtCs7qDQvy6XYpV_18test_fuzz_internal4dirs31corpus_directory_from_args_typeNtNvNtCscRmF3GD5ZpW_3arc13target_fuzz__10write_args4ArgsEB1k_
FNDA:0,_RINvNtCs7qDQvy6XYpV_18test_fuzz_internal4dirs37generic_args_directory_from_args_typeNtNtCscRmF3GD5ZpW_3arc13target_fuzz__4ArgsEB1o_
FNDA:0,_RINvNtCs7qDQvy6XYpV_18test_fuzz_internal4dirs42impl_generic_args_directory_from_args_typeNtNtCscRmF3GD5ZpW_3arc13target_fuzz__4ArgsEB1t_
FNDA:0,_RNCINvNtCs7qDQvy6XYpV_18test_fuzz_internal4dirs19path_from_args_typeNtNtCscRmF3GD5ZpW_3arc13target_fuzz__4ArgsE0B18_
FNDA:0,_RNCINvNtCs7qDQvy6XYpV_18test_fuzz_internal4dirs19path_from_args_typeNtNvNtCscRmF3GD5ZpW_3arc13target_fuzz__10write_args4ArgsE0B1a_
FNDA:0,_RINvNtCs7qDQvy6XYpV_18test_fuzz_internal4dirs19path_from_args_typeNtNtCs6h78RqNvxg8_3arc13target_fuzz__4ArgsEB16_
FNDA:0,_RINvNtCs7qDQvy6XYpV_18test_fuzz_internal4dirs19path_from_args_typeNtNvNtCs6h78RqNvxg8_3arc13target_fuzz__10write_args4ArgsEB18_
FNDA:0,_RINvNtCs7qDQvy6XYpV_18test_fuzz_internal4dirs31corpus_directory_from_args_typeNtNvNtCs6h78RqNvxg8_3arc13target_fuzz__10write_args4ArgsEB1k_
FNDA:0,_RINvNtCs7qDQvy6XYpV_18test_fuzz_internal4dirs37generic_args_directory_from_args_typeNtNtCs6h78RqNvxg8_3arc13target_fuzz__4ArgsEB1o_
FNDA:0,_RINvNtCs7qDQvy6XYpV_18test_fuzz_internal4dirs42impl_generic_args_directory_from_args_typeNtNtCs6h78RqNvxg8_3arc13target_fuzz__4ArgsEB1t_
FNDA:0,_RNCINvNtCs7qDQvy6XYpV_18test_fuzz_internal4dirs19path_from_args_typeNtNtCs6h78RqNvxg8_3arc13target_fuzz__4ArgsE0B18_
FNDA:0,_RNCINvNtCs7qDQvy6XYpV_18test_fuzz_internal4dirs19path_from_args_typeNtNvNtCs6h78RqNvxg8_3arc13target_fuzz__10write_args4ArgsE0B1a_
FNDA:0,_RINvNtCs7tkdMjTuzcM_18test_fuzz_internal4dirs19path_from_args_typeNtNtCs9osIRDYkut1_3arc13target_fuzz__4ArgsEB16_
FNDA:0,_RINvNtCs7tkdMjTuzcM_18test_fuzz_internal4dirs19path_from_args_typeNtNvNtCs9osIRDYkut1_3arc13target_fuzz__10write_args4ArgsEB18_
FNDA:0,_RINvNtCs7tkdMjTuzcM_18test_fuzz_internal4dirs31corpus_directory_from_args_typeNtNvNtCs9osIRDYkut1_3arc13target_fuzz__10write_args4ArgsEB1k_
FNDA:0,_RINvNtCs7tkdMjTuzcM_18test_fuzz_internal4dirs37generic_args_directory_from_args_typeNtNtCs9osIRDYkut1_3arc13target_fuzz__4ArgsEB1o_
FNDA:0,_RINvNtCs7tkdMjTuzcM_18test_fuzz_internal4dirs42impl_generic_args_directory_from_args_typeNtNtCs9osIRDYkut1_3arc13target_fuzz__4ArgsEB1t_
FNDA:0,_RNCINvNtCs7tkdMjTuzcM_18test_fuzz_internal4dirs19path_from_args_typeNtNtCs9osIRDYkut1_3arc13target_fuzz__4ArgsE0B18_
FNDA:0,_RNCINvNtCs7tkdMjTuzcM_18test_fuzz_internal4dirs19path_from_args_typeNtNvNtCs9osIRDYkut1_3arc13target_fuzz__10write_args4ArgsE0B1a_
FNDA:0,_RINvNtCs7qDQvy6XYpV_18test_fuzz_internal4dirs19path_from_args_typeNtNtCsjdfzKIN8Gq0_6assert13target_fuzz__4ArgsEB16_
FNDA:0,_RINvNtCs7qDQvy6XYpV_18test_fuzz_internal4dirs19path_from_args_typeNtNvNtCsjdfzKIN8Gq0_6assert13target_fuzz__10write_args4ArgsEB18_
FNDA:0,_RINvNtCs7qDQvy6XYpV_18test_fuzz_internal4dirs31corpus_directory_from_args_typeNtNvNtCsjdfzKIN8Gq0_6assert13target_fuzz__10write_args4ArgsEB1k_
FNDA:0,_RINvNtCs7qDQvy6XYpV_18test_fuzz_internal4dirs37generic_args_directory_from_args_typeNtNtCsjdfzKIN8Gq0_6assert13target_fuzz__4ArgsEB1o_
FNDA:0,_RINvNtCs7qDQvy6XYpV_18test_fuzz_internal4dirs42impl_generic_args_directory_from_args_typeNtNtCsjdfzKIN8Gq0_6assert13target_fuzz__4ArgsEB1t_
FNDA:0,_RNCINvNtCs7qDQvy6XYpV_18test_fuzz_internal4dirs19path_from_args_typeNtNtCsjdfzKIN8Gq0_6assert13target_fuzz__4ArgsE0B18_
FNDA:0,_RNCINvNtCs7qDQvy6XYpV_18test_fuzz_internal4dirs19path_from_args_typeNtNvNtCsjdfzKIN8Gq0_6assert13target_fuzz__10write_args4ArgsE0B1a_
FNDA:0,_RINvNtCs7qDQvy6XYpV_18test_fuzz_internal4dirs19path_from_args_typeNtNtCsjRaCTmDyugU_6assert13target_fuzz__4ArgsEB16_
FNDA:0,_RINvNtCs7qDQvy6XYpV_18test_fuzz_internal4dirs19path_from_args_typeNtNvNtCsjRaCTmDyugU_6assert13target_fuzz__10write_args4ArgsEB18_
FNDA:0,_RINvNtCs7qDQvy6XYpV_18test_fuzz_internal4dirs31corpus_directory_from_args_typeNtNvNtCsjRaCTmDyugU_6assert13target_fuzz__10write_args4ArgsEB1k_
FNDA:0,_RINvNtCs7qDQvy6XYpV_18test_fuzz_internal4dirs37generic_args_directory_from_args_typeNtNtCsjRaCTmDyugU_6assert13target_fuzz__4ArgsEB1o_
FNDA:0,_RINvNtCs7qDQvy6XYpV_18test_fuzz_internal4dirs42impl_generic_args_directory_from_args_typeNtNtCsjRaCTmDyugU_6assert13target_fuzz__4ArgsEB1t_
FNDA:0,_RNCINvNtCs7qDQvy6XYpV_18test_fuzz_internal4dirs19path_from_args_typeNtNtCsjRaCTmDyugU_6assert13target_fuzz__4ArgsE0B18_
FNDA:0,_RNCINvNtCs7qDQvy6XYpV_18test_fuzz_internal4dirs19path_from_args_typeNtNvNtCsjRaCTmDyugU_6assert13target_fuzz__10write_args4ArgsE0B1a_
FNDA:0,_RINvNtCs7tkdMjTuzcM_18test_fuzz_internal4dirs19path_from_args_typeNtNtCsjogtLd8pnUT_6assert13target_fuzz__4ArgsEB16_
FNDA:0,_RINvNtCs7tkdMjTuzcM_18test_fuzz_internal4dirs19path_from_args_typeNtNvNtCsjogtLd8pnUT_6assert13target_fuzz__10write_args4ArgsEB18_
FNDA:0,_RINvNtCs7tkdMjTuzcM_18test_fuzz_internal4dirs31corpus_directory_from_args_typeNtNvNtCsjogtLd8pnUT_6assert13target_fuzz__10write_args4ArgsEB1k_
FNDA:0,_RINvNtCs7tkdMjTuzcM_18test_fuzz_internal4dirs37generic_args_directory_from_args_typeNtNtCsjogtLd8pnUT_6assert13target_fuzz__4ArgsEB1o_
FNDA:0,_RINvNtCs7tkdMjTuzcM_18test_fuzz_internal4dirs42impl_generic_args_directory_from_args_typeNtNtCsjogtLd8pnUT_6assert13target_fuzz__4ArgsEB1t_
FNDA:0,_RNCINvNtCs7tkdMjTuzcM_18test_fuzz_internal4dirs19path_from_args_typeNtNtCsjogtLd8pnUT_6assert13target_fuzz__4ArgsE0B18_
FNDA:0,_RNCINvNtCs7tkdMjTuzcM_18test_fuzz_internal4dirs19path_from_args_typeNtNvNtCsjogtLd8pnUT_6assert13target_fuzz__10write_args4ArgsE0B1a_
FNDA:0,_RINvNtCs7qDQvy6XYpV_18test_fuzz_internal4dirs19path_from_args_typeINtNtCsb5coM0ghPbL_15associated_type20serializes_to_fuzz__4ArgsNtB17_7AddressEEB17_
FNDA:0,_RINvNtCs7qDQvy6XYpV_18test_fuzz_internal4dirs19path_from_args_typeINtNvNtCsb5coM0ghPbL_15associated_type20serializes_to_fuzz__10write_args4ArgsNtB19_7AddressEEB19_
FNDA:0,_RINvNtCs7qDQvy6XYpV_18test_fuzz_internal4dirs31corpus_directory_from_args_typeINtNvNtCsb5coM0ghPbL_15associated_type20serializes_to_fuzz__10write_args4ArgsNtB1l_7AddressEEB1l_
FNDA:0,_RINvNtCs7qDQvy6XYpV_18test_fuzz_internal4dirs37generic_args_directory_from_args_typeINtNtCsb5coM0ghPbL_15associated_type20serializes_to_fuzz__4ArgsNtB1p_7AddressEEB1p_
FNDA:0,_RINvNtCs7qDQvy6XYpV_18test_fuzz_internal4dirs42impl_generic_args_directory_from_args_typeINtNtCsb5coM0ghPbL_15associated_type20serializes_to_fuzz__4ArgsNtB1u_7AddressEEB1u_
FNDA:0,_RNCINvNtCs7qDQvy6XYpV_18test_fuzz_internal4dirs19path_from_args_typeINtNtCsb5coM0ghPbL_15associated_type20serializes_to_fuzz__4ArgsNtB19_7AddressEE0B19_
FNDA:0,_RNCINvNtCs7qDQvy6XYpV_18test_fuzz_internal4dirs19path_from_args_typeINtNvNtCsb5coM0ghPbL_15associated_type20serializes_to_fuzz__10write_args4ArgsNtB1b_7AddressEE0B1b_
FNDA:0,_RINvNtCs7qDQvy6XYpV_18test_fuzz_internal4dirs19path_from_args_typeINtNtCscifRXp3YgIu_15associated_type20serializes_to_fuzz__4ArgsNtB17_7AddressEEB17_
FNDA:0,_RINvNtCs7qDQvy6XYpV_18test_fuzz_internal4dirs19path_from_args_typeINtNvNtCscifRXp3YgIu_15associated_type20serializes_to_fuzz__10write_args4ArgsNtB19_7AddressEEB19_
FNDA:0,_RINvNtCs7qDQvy6XYpV_18test_fuzz_internal4dirs31corpus_directory_from_args_typeINtNvNtCscifRXp3YgIu_15associated_type20serializes_to_fuzz__10write_args4ArgsNtB1l_7AddressEEB1l_
FNDA:0,_RINvNtCs7qDQvy6XYpV_18test_fuzz_internal4dirs37generic_args_directory_from_args_typeINtNtCscifRXp3YgIu_15associated_type20serializes_to_fuzz__4ArgsNtB1p_7AddressEEB1p_
FNDA:0,_RINvNtCs7qDQvy6XYpV_18test_fuzz_internal4dirs42impl_generic_args_directory_from_args_typeINtNtCscifRXp3YgIu_15associated_type20serializes_to_fuzz__4ArgsNtB1u_7AddressEEB1u_
FNDA:0,_RNCINvNtCs7qDQvy6XYpV_18test_fuzz_internal4dirs19path_from_args_typeINtNtCscifRXp3YgIu_15associated_type20serializes_to_fuzz__4ArgsNtB19_7AddressEE0B19_
FNDA:0,_RNCINvNtCs7qDQvy6XYpV_18test_fuzz_internal4dirs19path_from_args_typeINtNvNtCscifRXp3YgIu_15associated_type20serializes_to_fuzz__10write_args4ArgsNtB1b_7AddressEE0B1b_
FNDA:0,_RINvNtCs7tkdMjTuzcM_18test_fuzz_internal4dirs19path_from_args_typeINtNtCsl6zEQTYg4co_15associated_type20serializes_to_fuzz__4ArgsNtB17_7AddressEEB17_
FNDA:0,_RINvNtCs7tkdMjTuzcM_18test_fuzz_internal4dirs19path_from_args_typeINtNvNtCsl6zEQTYg4co_15associated_type20serializes_to_fuzz__10write_args4ArgsNtB19_7AddressEEB19_
FNDA:0,_RINvNtCs7tkdMjTuzcM_18test_fuzz_internal4dirs31corpus_directory_from_args_typeINtNvNtCsl6zEQTYg4co_15associated_type20serializes_to_fuzz__10write_args4ArgsNtB1l_7AddressEEB1l_
FNDA:0,_RINvNtCs7tkdMjTuzcM_18test_fuzz_internal4dirs37generic_args_directory_from_args_typeINtNtCsl6zEQTYg4co_15associated_type20serializes_to_fuzz__4ArgsNtB1p_7AddressEEB1p_
FNDA:0,_RINvNtCs7tkdMjTuzcM_18test_fuzz_internal4dirs42impl_generic_args_directory_from_args_typeINtNtCsl6zEQTYg4co_15associated_type20serializes_to_fuzz__4ArgsNtB1u_7AddressEEB1u_
FNDA:0,_RNCINvNtCs7tkdMjTuzcM_18test_fuzz_internal4dirs19path_from_args_typeINtNtCsl6zEQTYg4co_15associated_type20serializes_to_fuzz__4ArgsNtB19_7AddressEE0B19_
FNDA:0,_RNCINvNtCs7tkdMjTuzcM_18test_fuzz_internal4dirs19path_from_args_typeINtNvNtCsl6zEQTYg4co_15associated_type20serializes_to_fuzz__10write_args4ArgsNtB1b_7AddressEE0B1b_
FNDA:0,_RINvNtCs7qDQvy6XYpV_18test_fuzz_internal4dirs19path_from_args_typeNtNtNtCsbvjJBtxq0cj_13auto_generate6signed13target_fuzz__4ArgsEB18_
FNDA:0,_RINvNtCs7qDQvy6XYpV_18test_fuzz_internal4dirs19path_from_args_typeNtNtNtCsbvjJBtxq0cj_13auto_generate8unsigned13target_fuzz__4ArgsEB18_
FNDA:0,_RINvNtCs7qDQvy6XYpV_18test_fuzz_internal4dirs19path_from_args_typeNtNvNtNtCsbvjJBtxq0cj_13auto_generate6signed13target_fuzz__10write_args4ArgsEB1a_
FNDA:0,_RINvNtCs7qDQvy6XYpV_18test_fuzz_internal4dirs19path_from_args_typeNtNvNtNtCsbvjJBtxq0cj_13auto_generate8unsigned13target_fuzz__10write_args4ArgsEB1a_
FNDA:0,_RINvNtCs7qDQvy6XYpV_18test_fuzz_internal4dirs31corpus_directory_from_args_typeNtNvNtNtCsbvjJBtxq0cj_13auto_generate6signed13target_fuzz__10write_args4ArgsEB1m_
FNDA:0,_RINvNtCs7qDQvy6XYpV_18test_fuzz_internal4dirs31corpus_directory_from_args_typeNtNvNtNtCsbvjJBtxq0cj_13auto_generate8unsigned13target_fuzz__10write_args4ArgsEB1m_
FNDA:0,_RINvNtCs7qDQvy6XYpV_18test_fuzz_internal4dirs37generic_args_directory_from_args_typeNtNtNtCsbvjJBtxq0cj_13auto_generate6signed13target_fuzz__4ArgsEB1q_
FNDA:0,_RINvNtCs7qDQvy6XYpV_18test_fuzz_internal4dirs37generic_args_directory_from_args_typeNtNtNtCsbvjJBtxq0cj_13auto_generate8unsigned13target_fuzz__4ArgsEB1q_
FNDA:0,_RINvNtCs7qDQvy6XYpV_18test_fuzz_internal4dirs42impl_generic_args_directory_from_args_typeNtNtNtCsbvjJBtxq0cj_13auto_generate6signed13target_fuzz__4ArgsEB1v_
FNDA:0,_RINvNtCs7qDQvy6XYpV_18test_fuzz_internal4dirs42impl_generic_args_directory_from_args_typeNtNtNtCsbvjJBtxq0cj_13auto_generate8unsigned13target_fuzz__4ArgsEB1v_
FNDA:0,_RNCINvNtCs7qDQvy6XYpV_18test_fuzz_internal4dirs19path_from_args_typeNtNtNtCsbvjJBtxq0cj_13auto_generate6signed13target_fuzz__4ArgsE0B1a_
FNDA:0,_RNCINvNtCs7qDQvy6XYpV_18test_fuzz_internal4dirs19path_from_args_typeNtNtNtCsbvjJBtxq0cj_13auto_generate8unsigned13target_fuzz__4ArgsE0B1a_
FNDA:0,_RNCINvNtCs7qDQvy6XYpV_18test_fuzz_internal4dirs19path_from_args_typeNtNvNtNtCsbvjJBtxq0cj_13auto_generate6signed13target_fuzz__10write_args4ArgsE0B1c_
FNDA:0,_RNCINvNtCs7qDQvy6XYpV_18test_fuzz_internal4dirs19path_from_args_typeNtNvNtNtCsbvjJBtxq0cj_13auto_generate8unsigned13target_fuzz__10write_args4ArgsE0B1c_
FNDA:0,_RINvNtCs7qDQvy6XYpV_18test_fuzz_internal4dirs19path_from_args_typeNtNtNtCs80yJKyN2fFa_13auto_generate6signed13target_fuzz__4ArgsEB18_
FNDA:0,_RINvNtCs7qDQvy6XYpV_18test_fuzz_internal4dirs19path_from_args_typeNtNtNtCs80yJKyN2fFa_13auto_generate8unsigned13target_fuzz__4ArgsEB18_
FNDA:0,_RINvNtCs7qDQvy6XYpV_18test_fuzz_internal4dirs19path_from_args_typeNtNvNtNtCs80yJKyN2fFa_13auto_generate6signed13target_fuzz__10write_args4ArgsEB1a_
FNDA:0,_RINvNtCs7qDQvy6XYpV_18test_fuzz_internal4dirs19path_from_args_typeNtNvNtNtCs80yJKyN2fFa_13auto_generate8unsigned13target_fuzz__10write_args4ArgsEB1a_
FNDA:0,_RINvNtCs7qDQvy6XYpV_18test_fuzz_internal4dirs31corpus_directory_from_args_typeNtNvNtNtCs80yJKyN2fFa_13auto_generate6signed13target_fuzz__10write_args4ArgsEB1m_
FNDA:0,_RINvNtCs7qDQvy6XYpV_18test_fuzz_internal4dirs31corpus_directory_from_args_typeNtNvNtNtCs80yJKyN2fFa_13auto_generate8unsigned13target_fuzz__10write_args4ArgsEB1m_
FNDA:0,_RINvNtCs7qDQvy6XYpV_18test_fuzz_internal4dirs37generic_args_directory_from_args_typeNtNtNtCs80yJKyN2fFa_13auto_generate6signed13target_fuzz__4ArgsEB1q_
FNDA:0,_RINvNtCs7qDQvy6XYpV_18test_fuzz_internal4dirs37generic_args_directory_from_args_typeNtNtNtCs80yJKyN2fFa_13auto_generate8unsigned13target_fuzz__4ArgsEB1q_
FNDA:0,_RINvNtCs7qDQvy6XYpV_18test_fuzz_internal4dirs42impl_generic_args_directory_from_args_typeNtNtNtCs80yJKyN2fFa_13auto_generate6signed13target_fuzz__4ArgsEB1v_
FNDA:0,_RINvNtCs7qDQvy6XYpV_18test_fuzz_internal4dirs42impl_generic_args_directory_from_args_typeNtNtNtCs80yJKyN2fFa_13auto_generate8unsigned13target_fuzz__4ArgsEB1v_
FNDA:0,_RNCINvNtCs7qDQvy6XYpV_18test_fuzz_internal4dirs19path_from_args_typeNtNtNtCs80yJKyN2fFa_13auto_generate6signed13target_fuzz__4ArgsE0B1a_
FNDA:0,_RNCINvNtCs7qDQvy6XYpV_18test_fuzz_internal4dirs19path_from_args_typeNtNtNtCs80yJKyN2fFa_13auto_generate8unsigned13target_fuzz__4ArgsE0B1a_
FNDA:0,_RNCINvNtCs7qDQvy6XYpV_18test_fuzz_internal4dirs19path_from_args_typeNtNvNtNtCs80yJKyN2fFa_13auto_generate6signed13target_fuzz__10write_args4ArgsE0B1c_
FNDA:0,_RNCINvNtCs7qDQvy6XYpV_18test_fuzz_internal4dirs19path_from_args_typeNtNvNtNtCs80yJKyN2fFa_13auto_generate8unsigned13target_fuzz__10write_args4ArgsE0B1c_
FNDA:0,_RINvNtCs7tkdMjTuzcM_18test_fuzz_internal4dirs19path_from_args_typeNtNtNtCs7nMLI42MKCZ_13auto_generate6signed13target_fuzz__4ArgsEB18_
FNDA:0,_RINvNtCs7tkdMjTuzcM_18test_fuzz_internal4dirs19path_from_args_typeNtNtNtCs7nMLI42MKCZ_13auto_generate8unsigned13target_fuzz__4ArgsEB18_
FNDA:0,_RINvNtCs7tkdMjTuzcM_18test_fuzz_internal4dirs19path_from_args_typeNtNvNtNtCs7nMLI42MKCZ_13auto_generate6signed13target_fuzz__10write_args4ArgsEB1a_
FNDA:0,_RINvNtCs7tkdMjTuzcM_18test_fuzz_internal4dirs19path_from_args_typeNtNvNtNtCs7nMLI42MKCZ_13auto_generate8unsigned13target_fuzz__10write_args4ArgsEB1a_
FNDA:0,_RINvNtCs7tkdMjTuzcM_18test_fuzz_internal4dirs31corpus_directory_from_args_typeNtNvNtNtCs7nMLI42MKCZ_13auto_generate6signed13target_fuzz__10write_args4ArgsEB1m_
FNDA:0,_RINvNtCs7tkdMjTuzcM_18test_fuzz_internal4dirs31corpus_directory_from_args_typeNtNvNtNtCs7nMLI42MKCZ_13auto_generate8unsigned13target_fuzz__10write_args4ArgsEB1m_
FNDA:0,_RINvNtCs7tkdMjTuzcM_18test_fuzz_internal4dirs37generic_args_directory_from_args_typeNtNtNtCs7nMLI42MKCZ_13auto_generate6signed13target_fuzz__4ArgsEB1q_
FNDA:0,_RINvNtCs7tkdMjTuzcM_18test_fuzz_internal4dirs37generic_args_directory_from_args_typeNtNtNtCs7nMLI42MKCZ_13auto_generate8unsigned13target_fuzz__4ArgsEB1q_
FNDA:0,_RINvNtCs7tkdMjTuzcM_18test_fuzz_internal4dirs42impl_generic_args_directory_from_args_typeNtNtNtCs7nMLI42MKCZ_13auto_generate6signed13target_fuzz__4ArgsEB1v_
FNDA:0,_RINvNtCs7tkdMjTuzcM_18test_fuzz_internal4dirs42impl_generic_args_directory_from_args_typeNtNtNtCs7nMLI42MKCZ_13auto_generate8unsigned13target_fuzz__4ArgsEB1v_
FNDA:0,_RNCINvNtCs7tkdMjTuzcM_18test_fuzz_internal4dirs19path_from_args_typeNtNtNtCs7nMLI42MKCZ_13auto_generate6signed13target_fuzz__4ArgsE0B1a_
FNDA:0,_RNCINvNtCs7tkdMjTuzcM_18test_fuzz_internal4dirs19path_from_args_typeNtNtNtCs7nMLI42MKCZ_13auto_generate8unsigned13target_fuzz__4ArgsE0B1a_
FNDA:0,_RNCINvNtCs7tkdMjTuzcM_18test_fuzz_internal4dirs19path_from_args_typeNtNvNtNtCs7nMLI42MKCZ_13auto_generate6signed13target_fuzz__10write_args4ArgsE0B1c_
FNDA:0,_RNCINvNtCs7tkdMjTuzcM_18test_fuzz_internal4dirs19path_from_args_typeNtNvNtNtCs7nMLI42MKCZ_13auto_generate8unsigned13target_fuzz__10write_args4ArgsE0B1c_
FNDA:0,_RINvNtCs7tkdMjTuzcM_18test_fuzz_internal4dirs19path_from_args_typeNtNtCslbWeq7plg0h_16calm_and_panicky11calm_fuzz__4ArgsEB16_
FNDA:0,_RINvNtCs7tkdMjTuzcM_18test_fuzz_internal4dirs19path_from_args_typeNtNtCslbWeq7plg0h_16calm_and_panicky14panicky_fuzz__4ArgsEB16_
FNDA:0,_RINvNtCs7tkdMjTuzcM_18test_fuzz_internal4dirs19path_from_args_typeNtNvNtCslbWeq7plg0h_16calm_and_panicky11calm_fuzz__10write_args4ArgsEB18_
FNDA:0,_RINvNtCs7tkdMjTuzcM_18test_fuzz_internal4dirs19path_from_args_typeNtNvNtCslbWeq7plg0h_16calm_and_panicky14panicky_fuzz__10write_args4ArgsEB18_
FNDA:0,_RINvNtCs7tkdMjTuzcM_18test_fuzz_internal4dirs31corpus_directory_from_args_typeNtNvNtCslbWeq7plg0h_16calm_and_panicky11calm_fuzz__10write_args4ArgsEB1k_
FNDA:0,_RINvNtCs7tkdMjTuzcM_18test_fuzz_internal4dirs31corpus_directory_from_args_typeNtNvNtCslbWeq7plg0h_16calm_and_panicky14panicky_fuzz__10write_args4ArgsEB1k_
FNDA:0,_RINvNtCs7tkdMjTuzcM_18test_fuzz_internal4dirs37generic_args_directory_from_args_typeNtNtCslbWeq7plg0h_16calm_and_panicky11calm_fuzz__4ArgsEB1o_
FNDA:0,_RINvNtCs7tkdMjTuzcM_18test_fuzz_internal4dirs37generic_args_directory_from_args_typeNtNtCslbWeq7plg0h_16calm_and_panicky14panicky_fuzz__4ArgsEB1o_
FNDA:0,_RINvNtCs7tkdMjTuzcM_18test_fuzz_internal4dirs42impl_generic_args_directory_from_args_typeNtNtCslbWeq7plg0h_16calm_and_panicky11calm_fuzz__4ArgsEB1t_
FNDA:0,_RINvNtCs7tkdMjTuzcM_18test_fuzz_internal4dirs42impl_generic_args_directory_from_args_typeNtNtCslbWeq7plg0h_16calm_and_panicky14panicky_fuzz__4ArgsEB1t_
FNDA:0,_RNCINvNtCs7tkdMjTuzcM_18test_fuzz_internal4dirs19path_from_args_typeNtNtCslbWeq7plg0h_16calm_and_panicky11calm_fuzz__4ArgsE0B18_
FNDA:0,_RNCINvNtCs7tkdMjTuzcM_18test_fuzz_internal4dirs19path_from_args_typeNtNtCslbWeq7plg0h_16calm_and_panicky14panicky_fuzz__4ArgsE0B18_
FNDA:0,_RNCINvNtCs7tkdMjTuzcM_18test_fuzz_internal4dirs19path_from_args_typeNtNvNtCslbWeq7plg0h_16calm_and_panicky11calm_fuzz__10write_args4ArgsE0B1a_
FNDA:0,_RNCINvNtCs7tkdMjTuzcM_18test_fuzz_internal4dirs19path_from_args_typeNtNvNtCslbWeq7plg0h_16calm_and_panicky14panicky_fuzz__10write_args4ArgsE0B1a_
FNDA:0,_RINvNtCs7qDQvy6XYpV_18test_fuzz_internal4dirs19path_from_args_typeNtNtCs4HkUNT6A1sF_16calm_and_panicky11calm_fuzz__4ArgsEB16_
FNDA:0,_RINvNtCs7qDQvy6XYpV_18test_fuzz_internal4dirs19path_from_args_typeNtNtCs4HkUNT6A1sF_16calm_and_panicky14panicky_fuzz__4ArgsEB16_
FNDA:0,_RINvNtCs7qDQvy6XYpV_18test_fuzz_internal4dirs19path_from_args_typeNtNvNtCs4HkUNT6A1sF_16calm_and_panicky11calm_fuzz__10write_args4ArgsEB18_
FNDA:0,_RINvNtCs7qDQvy6XYpV_18test_fuzz_internal4dirs19path_from_args_typeNtNvNtCs4HkUNT6A1sF_16calm_and_panicky14panicky_fuzz__10write_args4ArgsEB18_
FNDA:0,_RINvNtCs7qDQvy6XYpV_18test_fuzz_internal4dirs31corpus_directory_from_args_typeNtNvNtCs4HkUNT6A1sF_16calm_and_panicky11calm_fuzz__10write_args4ArgsEB1k_
FNDA:0,_RINvNtCs7qDQvy6XYpV_18test_fuzz_internal4dirs31corpus_directory_from_args_typeNtNvNtCs4HkUNT6A1sF_16calm_and_panicky14panicky_fuzz__10write_args4ArgsEB1k_
FNDA:0,_RINvNtCs7qDQvy6XYpV_18test_fuzz_internal4dirs37generic_args_directory_from_args_typeNtNtCs4HkUNT6A1sF_16calm_and_panicky11calm_fuzz__4ArgsEB1o_
FNDA:0,_RINvNtCs7qDQvy6XYpV_18test_fuzz_internal4dirs37generic_args_directory_from_args_typeNtNtCs4HkUNT6A1sF_16calm_and_panicky14panicky_fuzz__4ArgsEB1o_
FNDA:0,_RINvNtCs7qDQvy6XYpV_18test_fuzz_internal4dirs42impl_generic_args_directory_from_args_typeNtNtCs4HkUNT6A1sF_16calm_and_panicky11calm_fuzz__4ArgsEB1t_
FNDA:0,_RINvNtCs7qDQvy6XYpV_18test_fuzz_internal4dirs42impl_generic_args_directory_from_args_typeNtNtCs4HkUNT6A1sF_16calm_and_panicky14panicky_fuzz__4ArgsEB1t_
FNDA:0,_RNCINvNtCs7qDQvy6XYpV_18test_fuzz_internal4dirs19path_from_args_typeNtNtCs4HkUNT6A1sF_16calm_and_panicky11calm_fuzz__4ArgsE0B18_
FNDA:0,_RNCINvNtCs7qDQvy6XYpV_18test_fuzz_internal4dirs19path_from_args_typeNtNtCs4HkUNT6A1sF_16calm_and_panicky14panicky_fuzz__4ArgsE0B18_
FNDA:0,_RNCINvNtCs7qDQvy6XYpV_18test_fuzz_internal4dirs19path_from_args_typeNtNvNtCs4HkUNT6A1sF_16calm_and_panicky11calm_fuzz__10write_args4ArgsE0B1a_
FNDA:0,_RNCINvNtCs7qDQvy6XYpV_18test_fuzz_internal4dirs19path_from_args_typeNtNvNtCs4HkUNT6A1sF_16calm_and_panicky14panicky_fuzz__10write_args4ArgsE0B1a_
FNDA:0,_RINvNtCs7qDQvy6XYpV_18test_fuzz_internal4dirs19path_from_args_typeNtNtCseojpp1QgtFC_16calm_and_panicky11calm_fuzz__4ArgsEB16_
FNDA:0,_RINvNtCs7qDQvy6XYpV_18test_fuzz_internal4dirs19path_from_args_typeNtNtCseojpp1QgtFC_16calm_and_panicky14panicky_fuzz__4ArgsEB16_
FNDA:0,_RINvNtCs7qDQvy6XYpV_18test_fuzz_internal4dirs19path_from_args_typeNtNvNtCseojpp1QgtFC_16calm_and_panicky11calm_fuzz__10write_args4ArgsEB18_
FNDA:0,_RINvNtCs7qDQvy6XYpV_18test_fuzz_internal4dirs19path_from_args_typeNtNvNtCseojpp1QgtFC_16calm_and_panicky14panicky_fuzz__10write_args4ArgsEB18_
FNDA:0,_RINvNtCs7qDQvy6XYpV_18test_fuzz_internal4dirs31corpus_directory_from_args_typeNtNvNtCseojpp1QgtFC_16calm_and_panicky11calm_fuzz__10write_args4ArgsEB1k_
FNDA:0,_RINvNtCs7qDQvy6XYpV_18test_fuzz_internal4dirs31corpus_directory_from_args_typeNtNvNtCseojpp1QgtFC_16calm_and_panicky14panicky_fuzz__10write_args4ArgsEB1k_
FNDA:0,_RINvNtCs7qDQvy6XYpV_18test_fuzz_internal4dirs37generic_args_directory_from_args_typeNtNtCseojpp1QgtFC_16calm_and_panicky11calm_fuzz__4ArgsEB1o_
FNDA:0,_RINvNtCs7qDQvy6XYpV_18test_fuzz_internal4dirs37generic_args_directory_from_args_typeNtNtCseojpp1QgtFC_16calm_and_panicky14panicky_fuzz__4ArgsEB1o_
FNDA:0,_RINvNtCs7qDQvy6XYpV_18test_fuzz_internal4dirs42impl_generic_args_directory_from_args_typeNtNtCseojpp1QgtFC_16calm_and_panicky11calm_fuzz__4ArgsEB1t_
FNDA:0,_RINvNtCs7qDQvy6XYpV_18test_fuzz_internal4dirs42impl_generic_args_directory_from_args_typeNtNtCseojpp1QgtFC_16calm_and_panicky14panicky_fuzz__4ArgsEB1t_
FNDA:0,_RNCINvNtCs7qDQvy6XYpV_18test_fuzz_internal4dirs19path_from_args_typeNtNtCseojpp1QgtFC_16calm_and_panicky11calm_fuzz__4ArgsE0B18_
FNDA:0,_RNCINvNtCs7qDQvy6XYpV_18test_fuzz_internal4dirs19path_from_args_typeNtNtCseojpp1QgtFC_16calm_and_panicky14panicky_fuzz__4ArgsE0B18_
FNDA:0,_RNCINvNtCs7qDQvy6XYpV_18test_fuzz_internal4dirs19path_from_args_typeNtNvNtCseojpp1QgtFC_16calm_and_panicky11calm_fuzz__10write_args4ArgsE0B1a_
FNDA:0,_RNCINvNtCs7qDQvy6XYpV_18test_fuzz_internal4dirs19path_from_args_typeNtNvNtCseojpp1QgtFC_16calm_and_panicky14panicky_fuzz__10write_args4ArgsE0B1a_
FNDA:0,_RINvNtCs7qDQvy6XYpV_18test_fuzz_internal4dirs19path_from_args_typeNtNtCsjhY1ImnXkI9_4cast13target_fuzz__4ArgsEB16_
FNDA:0,_RINvNtCs7qDQvy6XYpV_18test_fuzz_internal4dirs19path_from_args_typeNtNvNtCsjhY1ImnXkI9_4cast13target_fuzz__10write_args4ArgsEB18_
FNDA:0,_RINvNtCs7qDQvy6XYpV_18test_fuzz_internal4dirs31corpus_directory_from_args_typeNtNvNtCsjhY1ImnXkI9_4cast13target_fuzz__10write_args4ArgsEB1k_
FNDA:0,_RINvNtCs7qDQvy6XYpV_18test_fuzz_internal4dirs37generic_args_directory_from_args_typeNtNtCsjhY1ImnXkI9_4cast13target_fuzz__4ArgsEB1o_
FNDA:0,_RINvNtCs7qDQvy6XYpV_18test_fuzz_internal4dirs42impl_generic_args_directory_from_args_typeNtNtCsjhY1ImnXkI9_4cast13target_fuzz__4ArgsEB1t_
FNDA:0,_RNCINvNtCs7qDQvy6XYpV_18test_fuzz_internal4dirs19path_from_args_typeNtNtCsjhY1ImnXkI9_4cast13target_fuzz__4ArgsE0B18_
FNDA:0,_RNCINvNtCs7qDQvy6XYpV_18test_fuzz_internal4dirs19path_from_args_typeNtNvNtCsjhY1ImnXkI9_4cast13target_fuzz__10write_args4ArgsE0B1a_
FNDA:0,_RINvNtCs7tkdMjTuzcM_18test_fuzz_internal4dirs19path_from_args_typeNtNtCs1jUaTML6Qbs_4cast13target_fuzz__4ArgsEB16_
FNDA:0,_RINvNtCs7tkdMjTuzcM_18test_fuzz_internal4dirs19path_from_args_typeNtNvNtCs1jUaTML6Qbs_4cast13target_fuzz__10write_args4ArgsEB18_
FNDA:0,_RINvNtCs7tkdMjTuzcM_18test_fuzz_internal4dirs31corpus_directory_from_args_typeNtNvNtCs1jUaTML6Qbs_4cast13target_fuzz__10write_args4ArgsEB1k_
FNDA:0,_RINvNtCs7tkdMjTuzcM_18test_fuzz_internal4dirs37generic_args_directory_from_args_typeNtNtCs1jUaTML6Qbs_4cast13target_fuzz__4ArgsEB1o_
FNDA:0,_RINvNtCs7tkdMjTuzcM_18test_fuzz_internal4dirs42impl_generic_args_directory_from_args_typeNtNtCs1jUaTML6Qbs_4cast13target_fuzz__4ArgsEB1t_
FNDA:0,_RNCINvNtCs7tkdMjTuzcM_18test_fuzz_internal4dirs19path_from_args_typeNtNtCs1jUaTML6Qbs_4cast13target_fuzz__4ArgsE0B18_
FNDA:0,_RNCINvNtCs7tkdMjTuzcM_18test_fuzz_internal4dirs19path_from_args_typeNtNvNtCs1jUaTML6Qbs_4cast13target_fuzz__10write_args4ArgsE0B1a_
FNDA:0,_RINvNtCs7qDQvy6XYpV_18test_fuzz_internal4dirs19path_from_args_typeNtNtCs8WGZuoBAMqB_4cast13target_fuzz__4ArgsEB16_
FNDA:0,_RINvNtCs7qDQvy6XYpV_18test_fuzz_internal4dirs19path_from_args_typeNtNvNtCs8WGZuoBAMqB_4cast13target_fuzz__10write_args4ArgsEB18_
FNDA:0,_RINvNtCs7qDQvy6XYpV_18test_fuzz_internal4dirs31corpus_directory_from_args_typeNtNvNtCs8WGZuoBAMqB_4cast13target_fuzz__10write_args4ArgsEB1k_
FNDA:0,_RINvNtCs7qDQvy6XYpV_18test_fuzz_internal4dirs37generic_args_directory_from_args_typeNtNtCs8WGZuoBAMqB_4cast13target_fuzz__4ArgsEB1o_
FNDA:0,_RINvNtCs7qDQvy6XYpV_18test_fuzz_internal4dirs42impl_generic_args_directory_from_args_typeNtNtCs8WGZuoBAMqB_4cast13target_fuzz__4ArgsEB1t_
FNDA:0,_RNCINvNtCs7qDQvy6XYpV_18test_fuzz_internal4dirs19path_from_args_typeNtNtCs8WGZuoBAMqB_4cast13target_fuzz__4ArgsE0B18_
FNDA:0,_RNCINvNtCs7qDQvy6XYpV_18test_fuzz_internal4dirs19path_from_args_typeNtNvNtCs8WGZuoBAMqB_4cast13target_fuzz__10write_args4ArgsE0B1a_
FNDA:0,_RINvNtCs7qDQvy6XYpV_18test_fuzz_internal4dirs19path_from_args_typeNtNtCsiWHYe4yttEG_9collision11test_fuzz__4ArgsEB16_
FNDA:0,_RINvNtCs7qDQvy6XYpV_18test_fuzz_internal4dirs19path_from_args_typeNtNvNtCsiWHYe4yttEG_9collision11test_fuzz__10write_args4ArgsEB18_
FNDA:0,_RINvNtCs7qDQvy6XYpV_18test_fuzz_internal4dirs31corpus_directory_from_args_typeNtNvNtCsiWHYe4yttEG_9collision11test_fuzz__10write_args4ArgsEB1k_
FNDA:0,_RINvNtCs7qDQvy6XYpV_18test_fuzz_internal4dirs37generic_args_directory_from_args_typeNtNtCsiWHYe4yttEG_9collision11test_fuzz__4ArgsEB1o_
FNDA:0,_RINvNtCs7qDQvy6XYpV_18test_fuzz_internal4dirs42impl_generic_args_directory_from_args_typeNtNtCsiWHYe4yttEG_9collision11test_fuzz__4ArgsEB1t_
FNDA:0,_RNCINvNtCs7qDQvy6XYpV_18test_fuzz_internal4dirs19path_from_args_typeNtNtCsiWHYe4yttEG_9collision11test_fuzz__4ArgsE0B18_
FNDA:0,_RNCINvNtCs7qDQvy6XYpV_18test_fuzz_internal4dirs19path_from_args_typeNtNvNtCsiWHYe4yttEG_9collision11test_fuzz__10write_args4ArgsE0B1a_
FNDA:0,_RINvNtCs7tkdMjTuzcM_18test_fuzz_internal4dirs19path_from_args_typeNtNtCskTSnVUQ8fe0_9collision11test_fuzz__4ArgsEB16_
FNDA:0,_RINvNtCs7tkdMjTuzcM_18test_fuzz_internal4dirs19path_from_args_typeNtNvNtCskTSnVUQ8fe0_9collision11test_fuzz__10write_args4ArgsEB18_
FNDA:0,_RINvNtCs7tkdMjTuzcM_18test_fuzz_internal4dirs31corpus_directory_from_args_typeNtNvNtCskTSnVUQ8fe0_9collision11test_fuzz__10write_args4ArgsEB1k_
FNDA:0,_RINvNtCs7tkdMjTuzcM_18test_fuzz_internal4dirs37generic_args_directory_from_args_typeNtNtCskTSnVUQ8fe0_9collision11test_fuzz__4ArgsEB1o_
FNDA:0,_RINvNtCs7tkdMjTuzcM_18test_fuzz_internal4dirs42impl_generic_args_directory_from_args_typeNtNtCskTSnVUQ8fe0_9collision11test_fuzz__4ArgsEB1t_
FNDA:0,_RNCINvNtCs7tkdMjTuzcM_18test_fuzz_internal4dirs19path_from_args_typeNtNtCskTSnVUQ8fe0_9collision11test_fuzz__4ArgsE0B18_
FNDA:0,_RNCINvNtCs7tkdMjTuzcM_18test_fuzz_internal4dirs19path_from_args_typeNtNvNtCskTSnVUQ8fe0_9collision11test_fuzz__10write_args4ArgsE0B1a_
FNDA:0,_RINvNtCs7qDQvy6XYpV_18test_fuzz_internal4dirs19path_from_args_typeNtNtCs2vl1NOPLUTF_9collision11test_fuzz__4ArgsEB16_
FNDA:0,_RINvNtCs7qDQvy6XYpV_18test_fuzz_internal4dirs19path_from_args_typeNtNvNtCs2vl1NOPLUTF_9collision11test_fuzz__10write_args4ArgsEB18_
FNDA:0,_RINvNtCs7qDQvy6XYpV_18test_fuzz_internal4dirs31corpus_directory_from_args_typeNtNvNtCs2vl1NOPLUTF_9collision11test_fuzz__10write_args4ArgsEB1k_
FNDA:0,_RINvNtCs7qDQvy6XYpV_18test_fuzz_internal4dirs37generic_args_directory_from_args_typeNtNtCs2vl1NOPLUTF_9collision11test_fuzz__4ArgsEB1o_
FNDA:0,_RINvNtCs7qDQvy6XYpV_18test_fuzz_internal4dirs42impl_generic_args_directory_from_args_typeNtNtCs2vl1NOPLUTF_9collision11test_fuzz__4ArgsEB1t_
FNDA:0,_RNCINvNtCs7qDQvy6XYpV_18test_fuzz_internal4dirs19path_from_args_typeNtNtCs2vl1NOPLUTF_9collision11test_fuzz__4ArgsE0B18_
FNDA:0,_RNCINvNtCs7qDQvy6XYpV_18test_fuzz_internal4dirs19path_from_args_typeNtNvNtCs2vl1NOPLUTF_9collision11test_fuzz__10write_args4ArgsE0B1a_
FNDA:0,_RINvNtCs7tkdMjTuzcM_18test_fuzz_internal4dirs19path_from_args_typeNtNtNtCsiVpTKIby35L_10conversion11uncloneable13target_fuzz__4ArgsEB18_
FNDA:0,_RINvNtCs7tkdMjTuzcM_18test_fuzz_internal4dirs19path_from_args_typeNtNtNtCsiVpTKIby35L_10conversion4path13target_fuzz__4ArgsEB18_
FNDA:0,_RINvNtCs7tkdMjTuzcM_18test_fuzz_internal4dirs19path_from_args_typeNtNtNtCsiVpTKIby35L_10conversion5array13target_fuzz__4ArgsEB18_
FNDA:0,_RINvNtCs7tkdMjTuzcM_18test_fuzz_internal4dirs19path_from_args_typeNtNtNtCsiVpTKIby35L_10conversion7mutable13target_fuzz__4ArgsEB18_
FNDA:0,_RINvNtCs7tkdMjTuzcM_18test_fuzz_internal4dirs19path_from_args_typeNtNtNtCsiVpTKIby35L_10conversion8lifetime13target_fuzz__4ArgsEB18_
FNDA:0,_RINvNtCs7tkdMjTuzcM_18test_fuzz_internal4dirs19path_from_args_typeNtNtNtCsiVpTKIby35L_10conversion8receiver20x_target_self_fuzz__4ArgsEB18_
FNDA:0,_RINvNtCs7tkdMjTuzcM_18test_fuzz_internal4dirs19path_from_args_typeNtNtNtCsiVpTKIby35L_10conversion8receiver21x_target_other_fuzz__4ArgsEB18_
FNDA:0,_RINvNtCs7tkdMjTuzcM_18test_fuzz_internal4dirs19path_from_args_typeNtNvNtNtCsiVpTKIby35L_10conversion11uncloneable13target_fuzz__10write_args4ArgsEB1a_
FNDA:0,_RINvNtCs7tkdMjTuzcM_18test_fuzz_internal4dirs19path_from_args_typeNtNvNtNtCsiVpTKIby35L_10conversion4path13target_fuzz__10write_args4ArgsEB1a_
FNDA:0,_RINvNtCs7tkdMjTuzcM_18test_fuzz_internal4dirs19path_from_args_typeNtNvNtNtCsiVpTKIby35L_10conversion5array13target_fuzz__10write_args4ArgsEB1a_
FNDA:0,_RINvNtCs7tkdMjTuzcM_18test_fuzz_internal4dirs19path_from_args_typeNtNvNtNtCsiVpTKIby35L_10conversion7mutable13target_fuzz__10write_args4ArgsEB1a_
FNDA:0,_RINvNtCs7tkdMjTuzcM_18test_fuzz_internal4dirs19path_from_args_typeNtNvNtNtCsiVpTKIby35L_10conversion8lifetime13target_fuzz__10write_args4ArgsEB1a_
FNDA:0,_RINvNtCs7tkdMjTuzcM_18test_fuzz_internal4dirs19path_from_args_typeNtNvNtNtCsiVpTKIby35L_10conversion8receiver20x_target_self_fuzz__10write_args4ArgsEB1a_
FNDA:0,_RINvNtCs7tkdMjTuzcM_18test_fuzz_internal4dirs19path_from_args_typeNtNvNtNtCsiVpTKIby35L_10conversion8receiver21x_target_other_fuzz__10write_args4ArgsEB1a_
FNDA:0,_RINvNtCs7tkdMjTuzcM_18test_fuzz_internal4dirs31corpus_directory_from_args_typeNtNvNtNtCsiVpTKIby35L_10conversion11uncloneable13target_fuzz__10write_args4ArgsEB1m_
FNDA:0,_RINvNtCs7tkdMjTuzcM_18test_fuzz_internal4dirs31corpus_directory_from_args_typeNtNvNtNtCsiVpTKIby35L_10conversion4path13target_fuzz__10write_args4ArgsEB1m_
FNDA:0,_RINvNtCs7tkdMjTuzcM_18test_fuzz_internal4dirs31corpus_directory_from_args_typeNtNvNtNtCsiVpTKIby35L_10conversion5array13target_fuzz__10write_args4ArgsEB1m_
FNDA:0,_RINvNtCs7tkdMjTuzcM_18test_fuzz_internal4dirs31corpus_directory_from_args_typeNtNvNtNtCsiVpTKIby35L_10conversion7mutable13target_fuzz__10write_args4ArgsEB1m_
FNDA:0,_RINvNtCs7tkdMjTuzcM_18test_fuzz_internal4dirs31corpus_directory_from_args_typeNtNvNtNtCsiVpTKIby35L_10conversion8lifetime13target_fuzz__10write_args4ArgsEB1m_
FNDA:0,_RINvNtCs7tkdMjTuzcM_18test_fuzz_internal4dirs31corpus_directory_from_args_typeNtNvNtNtCsiVpTKIby35L_10conversion8receiver20x_target_self_fuzz__10write_args4ArgsEB1m_
FNDA:0,_RINvNtCs7tkdMjTuzcM_18test_fuzz_internal4dirs31corpus_directory_from_args_typeNtNvNtNtCsiVpTKIby35L_10conversion8receiver21x_target_other_fuzz__10write_args4ArgsEB1m_
FNDA:0,_RINvNtCs7tkdMjTuzcM_18test_fuzz_internal4dirs37generic_args_directory_from_args_typeNtNtNtCsiVpTKIby35L_10conversion11uncloneable13target_fuzz__4ArgsEB1q_
FNDA:0,_RINvNtCs7tkdMjTuzcM_18test_fuzz_internal4dirs37generic_args_directory_from_args_typeNtNtNtCsiVpTKIby35L_10conversion4path13target_fuzz__4ArgsEB1q_
FNDA:0,_RINvNtCs7tkdMjTuzcM_18test_fuzz_internal4dirs37generic_args_directory_from_args_typeNtNtNtCsiVpTKIby35L_10conversion5array13target_fuzz__4ArgsEB1q_
FNDA:0,_RINvNtCs7tkdMjTuzcM_18test_fuzz_internal4dirs37generic_args_directory_from_args_typeNtNtNtCsiVpTKIby35L_10conversion7mutable13target_fuzz__4ArgsEB1q_
FNDA:0,_RINvNtCs7tkdMjTuzcM_18test_fuzz_internal4dirs37generic_args_directory_from_args_typeNtNtNtCsiVpTKIby35L_10conversion8lifetime13target_fuzz__4ArgsEB1q_
FNDA:0,_RINvNtCs7tkdMjTuzcM_18test_fuzz_internal4dirs37generic_args_directory_from_args_typeNtNtNtCsiVpTKIby35L_10conversion8receiver20x_target_self_fuzz__4ArgsEB1q_
FNDA:0,_RINvNtCs7tkdMjTuzcM_18test_fuzz_internal4dirs37generic_args_directory_from_args_typeNtNtNtCsiVpTKIby35L_10conversion8receiver21x_target_other_fuzz__4ArgsEB1q_
FNDA:0,_RINvNtCs7tkdMjTuzcM_18test_fuzz_internal4dirs42impl_generic_args_directory_from_args_typeNtNtNtCsiVpTKIby35L_10conversion11uncloneable13target_fuzz__4ArgsEB1v_
FNDA:0,_RINvNtCs7tkdMjTuzcM_18test_fuzz_internal4dirs42impl_generic_args_directory_from_args_typeNtNtNtCsiVpTKIby35L_10conversion4path13target_fuzz__4ArgsEB1v_
FNDA:0,_RINvNtCs7tkdMjTuzcM_18test_fuzz_internal4dirs42impl_generic_args_directory_from_args_typeNtNtNtCsiVpTKIby35L_10conversion5array13target_fuzz__4ArgsEB1v_
FNDA:0,_RINvNtCs7tkdMjTuzcM_18test_fuzz_internal4dirs42impl_generic_args_directory_from_args_typeNtNtNtCsiVpTKIby35L_10conversion7mutable13target_fuzz__4ArgsEB1v_
FNDA:0,_RINvNtCs7tkdMjTuzcM_18test_fuzz_internal4dirs42impl_generic_args_directory_from_args_typeNtNtNtCsiVpTKIby35L_10conversion8lifetime13target_fuzz__4ArgsEB1v_
FNDA:0,_RINvNtCs7tkdMjTuzcM_18test_fuzz_internal4dirs42impl_generic_args_directory_from_args_typeNtNtNtCsiVpTKIby35L_10conversion8receiver20x_target_self_fuzz__4ArgsEB1v_
FNDA:0,_RINvNtCs7tkdMjTuzcM_18test_fuzz_internal4dirs42impl_generic_args_directory_from_args_typeNtNtNtCsiVpTKIby35L_10conversion8receiver21x_target_other_fuzz__4ArgsEB1v_
FNDA:0,_RNCINvNtCs7tkdMjTuzcM_18test_fuzz_internal4dirs19path_from_args_typeNtNtNtCsiVpTKIby35L_10conversion11uncloneable13target_fuzz__4ArgsE0B1a_
FNDA:0,_RNCINvNtCs7tkdMjTuzcM_18test_fuzz_internal4dirs19path_from_args_typeNtNtNtCsiVpTKIby35L_10conversion4path13target_fuzz__4ArgsE0B1a_
FNDA:0,_RNCINvNtCs7tkdMjTuzcM_18test_fuzz_internal4dirs19path_from_args_typeNtNtNtCsiVpTKIby35L_10conversion5array13target_fuzz__4ArgsE0B1a_
FNDA:0,_RNCINvNtCs7tkdMjTuzcM_18test_fuzz_internal4dirs19path_from_args_typeNtNtNtCsiVpTKIby35L_10conversion7mutable13target_fuzz__4ArgsE0B1a_
FNDA:0,_RNCINvNtCs7tkdMjTuzcM_18test_fuzz_internal4dirs19path_from_args_typeNtNtNtCsiVpTKIby35L_10conversion8lifetime13target_fuzz__4ArgsE0B1a_
FNDA:0,_RNCINvNtCs7tkdMjTuzcM_18test_fuzz_internal4dirs19path_from_args_typeNtNtNtCsiVpTKIby35L_10conversion8receiver20x_target_self_fuzz__4ArgsE0B1a_
FNDA:0,_RNCINvNtCs7tkdMjTuzcM_18test_fuzz_internal4dirs19path_from_args_typeNtNtNtCsiVpTKIby35L_10conversion8receiver21x_target_other_fuzz__4ArgsE0B1a_
FNDA:0,_RNCINvNtCs7tkdMjTuzcM_18test_fuzz_internal4dirs19path_from_args_typeNtNvNtNtCsiVpTKIby35L_10conversion11uncloneable13target_fuzz__10write_args4ArgsE0B1c_
FNDA:0,_RNCINvNtCs7tkdMjTuzcM_18test_fuzz_internal4dirs19path_from_args_typeNtNvNtNtCsiVpTKIby35L_10conversion4path13target_fuzz__10write_args4ArgsE0B1c_
FNDA:0,_RNCINvNtCs7tkdMjTuzcM_18test_fuzz_internal4dirs19path_from_args_typeNtNvNtNtCsiVpTKIby35L_10conversion5array13target_fuzz__10write_args4ArgsE0B1c_
FNDA:0,_RNCINvNtCs7tkdMjTuzcM_18test_fuzz_internal4dirs19path_from_args_typeNtNvNtNtCsiVpTKIby35L_10conversion7mutable13target_fuzz__10write_args4ArgsE0B1c_
FNDA:0,_RNCINvNtCs7tkdMjTuzcM_18test_fuzz_internal4dirs19path_from_args_typeNtNvNtNtCsiVpTKIby35L_10conversion8lifetime13target_fuzz__10write_args4ArgsE0B1c_
FNDA:0,_RNCINvNtCs7tkdMjTuzcM_18test_fuzz_internal4dirs19path_from_args_typeNtNvNtNtCsiVpTKIby35L_10conversion8receiver20x_target_self_fuzz__10write_args4ArgsE0B1c_
FNDA:0,_RNCINvNtCs7tkdMjTuzcM_18test_fuzz_internal4dirs19path_from_args_typeNtNvNtNtCsiVpTKIby35L_10conversion8receiver21x_target_other_fuzz__10write_args4ArgsE0B1c_
FNDA:0,_RINvNtCs7qDQvy6XYpV_18test_fuzz_internal4dirs19path_from_args_typeNtNtNtCseKPbJg0qtoX_10conversion11uncloneable13target_fuzz__4ArgsEB18_
FNDA:0,_RINvNtCs7qDQvy6XYpV_18test_fuzz_internal4dirs19path_from_args_typeNtNtNtCseKPbJg0qtoX_10conversion4path13target_fuzz__4ArgsEB18_
FNDA:0,_RINvNtCs7qDQvy6XYpV_18test_fuzz_internal4dirs19path_from_args_typeNtNtNtCseKPbJg0qtoX_10conversion5array13target_fuzz__4ArgsEB18_
FNDA:0,_RINvNtCs7qDQvy6XYpV_18test_fuzz_internal4dirs19path_from_args_typeNtNtNtCseKPbJg0qtoX_10conversion7mutable13target_fuzz__4ArgsEB18_
FNDA:0,_RINvNtCs7qDQvy6XYpV_18test_fuzz_internal4dirs19path_from_args_typeNtNtNtCseKPbJg0qtoX_10conversion8lifetime13target_fuzz__4ArgsEB18_
FNDA:0,_RINvNtCs7qDQvy6XYpV_18test_fuzz_internal4dirs19path_from_args_typeNtNtNtCseKPbJg0qtoX_10conversion8receiver20x_target_self_fuzz__4ArgsEB18_
FNDA:0,_RINvNtCs7qDQvy6XYpV_18test_fuzz_internal4dirs19path_from_args_typeNtNtNtCseKPbJg0qtoX_10conversion8receiver21x_target_other_fuzz__4ArgsEB18_
FNDA:0,_RINvNtCs7qDQvy6XYpV_18test_fuzz_internal4dirs19path_from_args_typeNtNvNtNtCseKPbJg0qtoX_10conversion11uncloneable13target_fuzz__10write_args4ArgsEB1a_
FNDA:0,_RINvNtCs7qDQvy6XYpV_18test_fuzz_internal4dirs19path_from_args_typeNtNvNtNtCseKPbJg0qtoX_10conversion4path13target_fuzz__10write_args4ArgsEB1a_
FNDA:0,_RINvNtCs7qDQvy6XYpV_18test_fuzz_internal4dirs19path_from_args_typeNtNvNtNtCseKPbJg0qtoX_10conversion5array13target_fuzz__10write_args4ArgsEB1a_
FNDA:0,_RINvNtCs7qDQvy6XYpV_18test_fuzz_internal4dirs19path_from_args_typeNtNvNtNtCseKPbJg0qtoX_10conversion7mutable13target_fuzz__10write_args4ArgsEB1a_
FNDA:0,_RINvNtCs7qDQvy6XYpV_18test_fuzz_internal4dirs19path_from_args_typeNtNvNtNtCseKPbJg0qtoX_10conversion8lifetime13target_fuzz__10write_args4ArgsEB1a_
FNDA:0,_RINvNtCs7qDQvy6XYpV_18test_fuzz_internal4dirs19path_from_args_typeNtNvNtNtCseKPbJg0qtoX_10conversion8receiver20x_target_self_fuzz__10write_args4ArgsEB1a_
FNDA:0,_RINvNtCs7qDQvy6XYpV_18test_fuzz_internal4dirs19path_from_args_typeNtNvNtNtCseKPbJg0qtoX_10conversion8receiver21x_target_other_fuzz__10write_args4ArgsEB1a_
FNDA:0,_RINvNtCs7qDQvy6XYpV_18test_fuzz_internal4dirs31corpus_directory_from_args_typeNtNvNtNtCseKPbJg0qtoX_10conversion11uncloneable13target_fuzz__10write_args4ArgsEB1m_
FNDA:0,_RINvNtCs7qDQvy6XYpV_18test_fuzz_internal4dirs31corpus_directory_from_args_typeNtNvNtNtCseKPbJg0qtoX_10conversion4path13target_fuzz__10write_args4ArgsEB1m_
FNDA:0,_RINvNtCs7qDQvy6XYpV_18test_fuzz_internal4dirs31corpus_directory_from_args_typeNtNvNtNtCseKPbJg0qtoX_10conversion5array13target_fuzz__10write_args4ArgsEB1m_
FNDA:0,_RINvNtCs7qDQvy6XYpV_18test_fuzz_internal4dirs31corpus_directory_from_args_typeNtNvNtNtCseKPbJg0qtoX_10conversion7mutable13target_fuzz__10write_args4ArgsEB1m_
FNDA:0,_RINvNtCs7qDQvy6XYpV_18test_fuzz_internal4dirs31corpus_directory_from_args_typeNtNvNtNtCseKPbJg0qtoX_10conversion8lifetime13target_fuzz__10write_args4ArgsEB1m_
FNDA:0,_RINvNtCs7qDQvy6XYpV_18test_fuzz_internal4dirs31corpus_directory_from_args_typeNtNvNtNtCseKPbJg0qtoX_10conversion8receiver20x_target_self_fuzz__10write_args4ArgsEB1m_
FNDA:0,_RINvNtCs7qDQvy6XYpV_18test_fuzz_internal4dirs31corpus_directory_from_args_typeNtNvNtNtCseKPbJg0qtoX_10conversion8receiver21x_target_other_fuzz__10write_args4ArgsEB1m_
FNDA:0,_RINvNtCs7qDQvy6XYpV_18test_fuzz_internal4dirs37generic_args_directory_from_args_typeNtNtNtCseKPbJg0qtoX_10conversion11uncloneable13target_fuzz__4ArgsEB1q_
FNDA:0,_RINvNtCs7qDQvy6XYpV_18test_fuzz_internal4dirs37generic_args_directory_from_args_typeNtNtNtCseKPbJg0qtoX_10conversion4path13target_fuzz__4ArgsEB1q_
FNDA:0,_RINvNtCs7qDQvy6XYpV_18test_fuzz_internal4dirs37generic_args_directory_from_args_typeNtNtNtCseKPbJg0qtoX_10conversion5array13target_fuzz__4ArgsEB1q_
FNDA:0,_RINvNtCs7qDQvy6XYpV_18test_fuzz_internal4dirs37generic_args_directory_from_args_typeNtNtNtCseKPbJg0qtoX_10conversion7mutable13target_fuzz__4ArgsEB1q_
FNDA:0,_RINvNtCs7qDQvy6XYpV_18test_fuzz_internal4dirs37generic_args_directory_from_args_typeNtNtNtCseKPbJg0qtoX_10conversion8lifetime13target_fuzz__4ArgsEB1q_
FNDA:0,_RINvNtCs7qDQvy6XYpV_18test_fuzz_internal4dirs37generic_args_directory_from_args_typeNtNtNtCseKPbJg0qtoX_10conversion8receiver20x_target_self_fuzz__4ArgsEB1q_
FNDA:0,_RINvNtCs7qDQvy6XYpV_18test_fuzz_internal4dirs37generic_args_directory_from_args_typeNtNtNtCseKPbJg0qtoX_10conversion8receiver21x_target_other_fuzz__4ArgsEB1q_
FNDA:0,_RINvNtCs7qDQvy6XYpV_18test_fuzz_internal4dirs42impl_generic_args_directory_from_args_typeNtNtNtCseKPbJg0qtoX_10conversion11uncloneable13target_fuzz__4ArgsEB1v_
FNDA:0,_RINvNtCs7qDQvy6XYpV_18test_fuzz_internal4dirs42impl_generic_args_directory_from_args_typeNtNtNtCseKPbJg0qtoX_10conversion4path13target_fuzz__4ArgsEB1v_
FNDA:0,_RINvNtCs7qDQvy6XYpV_18test_fuzz_internal4dirs42impl_generic_args_directory_from_args_typeNtNtNtCseKPbJg0qtoX_10conversion5array13target_fuzz__4ArgsEB1v_
FNDA:0,_RINvNtCs7qDQvy6XYpV_18test_fuzz_internal4dirs42impl_generic_args_directory_from_args_typeNtNtNtCseKPbJg0qtoX_10conversion7mutable13target_fuzz__4ArgsEB1v_
FNDA:0,_RINvNtCs7qDQvy6XYpV_18test_fuzz_internal4dirs42impl_generic_args_directory_from_args_typeNtNtNtCseKPbJg0qtoX_10conversion8lifetime13target_fuzz__4ArgsEB1v_
FNDA:0,_RINvNtCs7qDQvy6XYpV_18test_fuzz_internal4dirs42impl_generic_args_directory_from_args_typeNtNtNtCseKPbJg0qtoX_10conversion8receiver20x_target_self_fuzz__4ArgsEB1v_
FNDA:0,_RINvNtCs7qDQvy6XYpV_18test_fuzz_internal4dirs42impl_generic_args_directory_from_args_typeNtNtNtCseKPbJg0qtoX_10conversion8receiver21x_target_other_fuzz__4ArgsEB1v_
FNDA:0,_RNCINvNtCs7qDQvy6XYpV_18test_fuzz_internal4dirs19path_from_args_typeNtNtNtCseKPbJg0qtoX_10conversion11uncloneable13target_fuzz__4ArgsE0B1a_
FNDA:0,_RNCINvNtCs7qDQvy6XYpV_18test_fuzz_internal4dirs19path_from_args_typeNtNtNtCseKPbJg0qtoX_10conversion4path13target_fuzz__4ArgsE0B1a_
FNDA:0,_RNCINvNtCs7qDQvy6XYpV_18test_fuzz_internal4dirs19path_from_args_typeNtNtNtCseKPbJg0qtoX_10conversion5array13target_fuzz__4ArgsE0B1a_
FNDA:0,_RNCINvNtCs7qDQvy6XYpV_18test_fuzz_internal4dirs19path_from_args_typeNtNtNtCseKPbJg0qtoX_10conversion7mutable13target_fuzz__4ArgsE0B1a_
FNDA:0,_RNCINvNtCs7qDQvy6XYpV_18test_fuzz_internal4dirs19path_from_args_typeNtNtNtCseKPbJg0qtoX_10conversion8lifetime13target_fuzz__4ArgsE0B1a_
FNDA:0,_RNCINvNtCs7qDQvy6XYpV_18test_fuzz_internal4dirs19path_from_args_typeNtNtNtCseKPbJg0qtoX_10conversion8receiver20x_target_self_fuzz__4ArgsE0B1a_
FNDA:0,_RNCINvNtCs7qDQvy6XYpV_18test_fuzz_internal4dirs19path_from_args_typeNtNtNtCseKPbJg0qtoX_10conversion8receiver21x_target_other_fuzz__4ArgsE0B1a_
FNDA:0,_RNCINvNtCs7qDQvy6XYpV_18test_fuzz_internal4dirs19path_from_args_typeNtNvNtNtCseKPbJg0qtoX_10conversion11uncloneable13target_fuzz__10write_args4ArgsE0B1c_
FNDA:0,_RNCINvNtCs7qDQvy6XYpV_18test_fuzz_internal4dirs19path_from_args_typeNtNvNtNtCseKPbJg0qtoX_10conversion4path13target_fuzz__10write_args4ArgsE0B1c_
FNDA:0,_RNCINvNtCs7qDQvy6XYpV_18test_fuzz_internal4dirs19path_from_args_typeNtNvNtNtCseKPbJg0qtoX_10conversion5array13target_fuzz__10write_args4ArgsE0B1c_
FNDA:0,_RNCINvNtCs7qDQvy6XYpV_18test_fuzz_internal4dirs19path_from_args_typeNtNvNtNtCseKPbJg0qtoX_10conversion7mutable13target_fuzz__10write_args4ArgsE0B1c_
FNDA:0,_RNCINvNtCs7qDQvy6XYpV_18test_fuzz_internal4dirs19path_from_args_typeNtNvNtNtCseKPbJg0qtoX_10conversion8lifetime13target_fuzz__10write_args4ArgsE0B1c_
FNDA:0,_RNCINvNtCs7qDQvy6XYpV_18test_fuzz_internal4dirs19path_from_args_typeNtNvNtNtCseKPbJg0qtoX_10conversion8receiver20x_target_self_fuzz__10write_args4ArgsE0B1c_
FNDA:0,_RNCINvNtCs7qDQvy6XYpV_18test_fuzz_internal4dirs19path_from_args_typeNtNvNtNtCseKPbJg0qtoX_10conversion8receiver21x_target_other_fuzz__10write_args4ArgsE0B1c_
FNDA:0,_RINvNtCs7qDQvy6XYpV_18test_fuzz_internal4dirs19path_from_args_typeNtNtNtCsfLz7FBcSNE7_10conversion11uncloneable13target_fuzz__4ArgsEB18_
FNDA:0,_RINvNtCs7qDQvy6XYpV_18test_fuzz_internal4dirs19path_from_args_typeNtNtNtCsfLz7FBcSNE7_10conversion4path13target_fuzz__4ArgsEB18_
FNDA:0,_RINvNtCs7qDQvy6XYpV_18test_fuzz_internal4dirs19path_from_args_typeNtNtNtCsfLz7FBcSNE7_10conversion5array13target_fuzz__4ArgsEB18_
FNDA:0,_RINvNtCs7qDQvy6XYpV_18test_fuzz_internal4dirs19path_from_args_typeNtNtNtCsfLz7FBcSNE7_10conversion7mutable13target_fuzz__4ArgsEB18_
FNDA:0,_RINvNtCs7qDQvy6XYpV_18test_fuzz_internal4dirs19path_from_args_typeNtNtNtCsfLz7FBcSNE7_10conversion8lifetime13target_fuzz__4ArgsEB18_
FNDA:0,_RINvNtCs7qDQvy6XYpV_18test_fuzz_internal4dirs19path_from_args_typeNtNtNtCsfLz7FBcSNE7_10conversion8receiver20x_target_self_fuzz__4ArgsEB18_
FNDA:0,_RINvNtCs7qDQvy6XYpV_18test_fuzz_internal4dirs19path_from_args_typeNtNtNtCsfLz7FBcSNE7_10conversion8receiver21x_target_other_fuzz__4ArgsEB18_
FNDA:0,_RINvNtCs7qDQvy6XYpV_18test_fuzz_internal4dirs19path_from_args_typeNtNvNtNtCsfLz7FBcSNE7_10conversion11uncloneable13target_fuzz__10write_args4ArgsEB1a_
FNDA:0,_RINvNtCs7qDQvy6XYpV_18test_fuzz_internal4dirs19path_from_args_typeNtNvNtNtCsfLz7FBcSNE7_10conversion4path13target_fuzz__10write_args4ArgsEB1a_
FNDA:0,_RINvNtCs7qDQvy6XYpV_18test_fuzz_internal4dirs19path_from_args_typeNtNvNtNtCsfLz7FBcSNE7_10conversion5array13target_fuzz__10write_args4ArgsEB1a_
FNDA:0,_RINvNtCs7qDQvy6XYpV_18test_fuzz_internal4dirs19path_from_args_typeNtNvNtNtCsfLz7FBcSNE7_10conversion7mutable13target_fuzz__10write_args4ArgsEB1a_
FNDA:0,_RINvNtCs7qDQvy6XYpV_18test_fuzz_internal4dirs19path_from_args_typeNtNvNtNtCsfLz7FBcSNE7_10conversion8lifetime13target_fuzz__10write_args4ArgsEB1a_
FNDA:0,_RINvNtCs7qDQvy6XYpV_18test_fuzz_internal4dirs19path_from_args_typeNtNvNtNtCsfLz7FBcSNE7_10conversion8receiver20x_target_self_fuzz__10write_args4ArgsEB1a_
FNDA:0,_RINvNtCs7qDQvy6XYpV_18test_fuzz_internal4dirs19path_from_args_typeNtNvNtNtCsfLz7FBcSNE7_10conversion8receiver21x_target_other_fuzz__10write_args4ArgsEB1a_
FNDA:0,_RINvNtCs7qDQvy6XYpV_18test_fuzz_internal4dirs31corpus_directory_from_args_typeNtNvNtNtCsfLz7FBcSNE7_10conversion11uncloneable13target_fuzz__10write_args4ArgsEB1m_
FNDA:0,_RINvNtCs7qDQvy6XYpV_18test_fuzz_internal4dirs31corpus_directory_from_args_typeNtNvNtNtCsfLz7FBcSNE7_10conversion4path13target_fuzz__10write_args4ArgsEB1m_
FNDA:0,_RINvNtCs7qDQvy6XYpV_18test_fuzz_internal4dirs31corpus_directory_from_args_typeNtNvNtNtCsfLz7FBcSNE7_10conversion5array13target_fuzz__10write_args4ArgsEB1m_
FNDA:0,_RINvNtCs7qDQvy6XYpV_18test_fuzz_internal4dirs31corpus_directory_from_args_typeNtNvNtNtCsfLz7FBcSNE7_10conversion7mutable13target_fuzz__10write_args4ArgsEB1m_
FNDA:0,_RINvNtCs7qDQvy6XYpV_18test_fuzz_internal4dirs31corpus_directory_from_args_typeNtNvNtNtCsfLz7FBcSNE7_10conversion8lifetime13target_fuzz__10write_args4ArgsEB1m_
FNDA:0,_RINvNtCs7qDQvy6XYpV_18test_fuzz_internal4dirs31corpus_directory_from_args_typeNtNvNtNtCsfLz7FBcSNE7_10conversion8receiver20x_target_self_fuzz__10write_args4ArgsEB1m_
FNDA:0,_RINvNtCs7qDQvy6XYpV_18test_fuzz_internal4dirs31corpus_directory_from_args_typeNtNvNtNtCsfLz7FBcSNE7_10conversion8receiver21x_target_other_fuzz__10write_args4ArgsEB1m_
FNDA:0,_RINvNtCs7qDQvy6XYpV_18test_fuzz_internal4dirs37generic_args_directory_from_args_typeNtNtNtCsfLz7FBcSNE7_10conversion11uncloneable13target_fuzz__4ArgsEB1q_
FNDA:0,_RINvNtCs7qDQvy6XYpV_18test_fuzz_internal4dirs37generic_args_directory_from_args_typeNtNtNtCsfLz7FBcSNE7_10conversion4path13target_fuzz__4ArgsEB1q_
FNDA:0,_RINvNtCs7qDQvy6XYpV_18test_fuzz_internal4dirs37generic_args_directory_from_args_typeNtNtNtCsfLz7FBcSNE7_10conversion5array13target_fuzz__4ArgsEB1q_
FNDA:0,_RINvNtCs7qDQvy6XYpV_18test_fuzz_internal4dirs37generic_args_directory_from_args_typeNtNtNtCsfLz7FBcSNE7_10conversion7mutable13target_fuzz__4ArgsEB1q_
FNDA:0,_RINvNtCs7qDQvy6XYpV_18test_fuzz_internal4dirs37generic_args_directory_from_args_typeNtNtNtCsfLz7FBcSNE7_10conversion8lifetime13target_fuzz__4ArgsEB1q_
FNDA:0,_RINvNtCs7qDQvy6XYpV_18test_fuzz_internal4dirs37generic_args_directory_from_args_typeNtNtNtCsfLz7FBcSNE7_10conversion8receiver20x_target_self_fuzz__4ArgsEB1q_
FNDA:0,_RINvNtCs7qDQvy6XYpV_18test_fuzz_internal4dirs37generic_args_directory_from_args_typeNtNtNtCsfLz7FBcSNE7_10conversion8receiver21x_target_other_fuzz__4ArgsEB1q_
FNDA:0,_RINvNtCs7qDQvy6XYpV_18test_fuzz_internal4dirs42impl_generic_args_directory_from_args_typeNtNtNtCsfLz7FBcSNE7_10conversion11uncloneable13target_fuzz__4ArgsEB1v_
FNDA:0,_RINvNtCs7qDQvy6XYpV_18test_fuzz_internal4dirs42impl_generic_args_directory_from_args_typeNtNtNtCsfLz7FBcSNE7_10conversion4path13target_fuzz__4ArgsEB1v_
FNDA:0,_RINvNtCs7qDQvy6XYpV_18test_fuzz_internal4dirs42impl_generic_args_directory_from_args_typeNtNtNtCsfLz7FBcSNE7_10conversion5array13target_fuzz__4ArgsEB1v_
FNDA:0,_RINvNtCs7qDQvy6XYpV_18test_fuzz_internal4dirs42impl_generic_args_directory_from_args_typeNtNtNtCsfLz7FBcSNE7_10conversion7mutable13target_fuzz__4ArgsEB1v_
FNDA:0,_RINvNtCs7qDQvy6XYpV_18test_fuzz_internal4dirs42impl_generic_args_directory_from_args_typeNtNtNtCsfLz7FBcSNE7_10conversion8lifetime13target_fuzz__4ArgsEB1v_
FNDA:0,_RINvNtCs7qDQvy6XYpV_18test_fuzz_internal4dirs42impl_generic_args_directory_from_args_typeNtNtNtCsfLz7FBcSNE7_10conversion8receiver20x_target_self_fuzz__4ArgsEB1v_
FNDA:0,_RINvNtCs7qDQvy6XYpV_18test_fuzz_internal4dirs42impl_generic_args_directory_from_args_typeNtNtNtCsfLz7FBcSNE7_10conversion8receiver21x_target_other_fuzz__4ArgsEB1v_
FNDA:0,_RNCINvNtCs7qDQvy6XYpV_18test_fuzz_internal4dirs19path_from_args_typeNtNtNtCsfLz7FBcSNE7_10conversion11uncloneable13target_fuzz__4ArgsE0B1a_
FNDA:0,_RNCINvNtCs7qDQvy6XYpV_18test_fuzz_internal4dirs19path_from_args_typeNtNtNtCsfLz7FBcSNE7_10conversion4path13target_fuzz__4ArgsE0B1a_
FNDA:0,_RNCINvNtCs7qDQvy6XYpV_18test_fuzz_internal4dirs19path_from_args_typeNtNtNtCsfLz7FBcSNE7_10conversion5array13target_fuzz__4ArgsE0B1a_
FNDA:0,_RNCINvNtCs7qDQvy6XYpV_18test_fuzz_internal4dirs19path_from_args_typeNtNtNtCsfLz7FBcSNE7_10conversion7mutable13target_fuzz__4ArgsE0B1a_
FNDA:0,_RNCINvNtCs7qDQvy6XYpV_18test_fuzz_internal4dirs19path_from_args_typeNtNtNtCsfLz7FBcSNE7_10conversion8lifetime13target_fuzz__4ArgsE0B1a_
FNDA:0,_RNCINvNtCs7qDQvy6XYpV_18test_fuzz_internal4dirs19path_from_args_typeNtNtNtCsfLz7FBcSNE7_10conversion8receiver20x_target_self_fuzz__4ArgsE0B1a_
FNDA:0,_RNCINvNtCs7qDQvy6XYpV_18test_fuzz_internal4dirs19path_from_args_typeNtNtNtCsfLz7FBcSNE7_10conversion8receiver21x_target_other_fuzz__4ArgsE0B1a_
FNDA:0,_RNCINvNtCs7qDQvy6XYpV_18test_fuzz_internal4dirs19path_from_args_typeNtNvNtNtCsfLz7FBcSNE7_10conversion11uncloneable13target_fuzz__10write_args4ArgsE0B1c_
FNDA:0,_RNCINvNtCs7qDQvy6XYpV_18test_fuzz_internal4dirs19path_from_args_typeNtNvNtNtCsfLz7FBcSNE7_10conversion4path13target_fuzz__10write_args4ArgsE0B1c_
FNDA:0,_RNCINvNtCs7qDQvy6XYpV_18test_fuzz_internal4dirs19path_from_args_typeNtNvNtNtCsfLz7FBcSNE7_10conversion5array13target_fuzz__10write_args4ArgsE0B1c_
FNDA:0,_RNCINvNtCs7qDQvy6XYpV_18test_fuzz_internal4dirs19path_from_args_typeNtNvNtNtCsfLz7FBcSNE7_10conversion7mutable13target_fuzz__10write_args4ArgsE0B1c_
FNDA:0,_RNCINvNtCs7qDQvy6XYpV_18test_fuzz_internal4dirs19path_from_args_typeNtNvNtNtCsfLz7FBcSNE7_10conversion8lifetime13target_fuzz__10write_args4ArgsE0B1c_
FNDA:0,_RNCINvNtCs7qDQvy6XYpV_18test_fuzz_internal4dirs19path_from_args_typeNtNvNtNtCsfLz7FBcSNE7_10conversion8receiver20x_target_self_fuzz__10write_args4ArgsE0B1c_
FNDA:0,_RNCINvNtCs7qDQvy6XYpV_18test_fuzz_internal4dirs19path_from_args_typeNtNvNtNtCsfLz7FBcSNE7_10conversion8receiver21x_target_other_fuzz__10write_args4ArgsE0B1c_
FNDA:0,_RINvNtCs7qDQvy6XYpV_18test_fuzz_internal4dirs19path_from_args_typeNtNtNtCsb1dEVcqrYVW_5debug4hang13target_fuzz__4ArgsEB18_
FNDA:0,_RINvNtCs7qDQvy6XYpV_18test_fuzz_internal4dirs19path_from_args_typeNtNtNtCsb1dEVcqrYVW_5debug5crash13target_fuzz__4ArgsEB18_
FNDA:0,_RINvNtCs7qDQvy6XYpV_18test_fuzz_internal4dirs19path_from_args_typeNtNvNtNtCsb1dEVcqrYVW_5debug4hang13target_fuzz__10write_args4ArgsEB1a_
FNDA:0,_RINvNtCs7qDQvy6XYpV_18test_fuzz_internal4dirs19path_from_args_typeNtNvNtNtCsb1dEVcqrYVW_5debug5crash13target_fuzz__10write_args4ArgsEB1a_
FNDA:0,_RINvNtCs7qDQvy6XYpV_18test_fuzz_internal4dirs31corpus_directory_from_args_typeNtNvNtNtCsb1dEVcqrYVW_5debug4hang13target_fuzz__10write_args4ArgsEB1m_
FNDA:0,_RINvNtCs7qDQvy6XYpV_18test_fuzz_internal4dirs31corpus_directory_from_args_typeNtNvNtNtCsb1dEVcqrYVW_5debug5crash13target_fuzz__10write_args4ArgsEB1m_
FNDA:0,_RINvNtCs7qDQvy6XYpV_18test_fuzz_internal4dirs37generic_args_directory_from_args_typeNtNtNtCsb1dEVcqrYVW_5debug4hang13target_fuzz__4ArgsEB1q_
FNDA:0,_RINvNtCs7qDQvy6XYpV_18test_fuzz_internal4dirs37generic_args_directory_from_args_typeNtNtNtCsb1dEVcqrYVW_5debug5crash13target_fuzz__4ArgsEB1q_
FNDA:0,_RINvNtCs7qDQvy6XYpV_18test_fuzz_internal4dirs42impl_generic_args_directory_from_args_typeNtNtNtCsb1dEVcqrYVW_5debug4hang13target_fuzz__4ArgsEB1v_
FNDA:0,_RINvNtCs7qDQvy6XYpV_18test_fuzz_internal4dirs42impl_generic_args_directory_from_args_typeNtNtNtCsb1dEVcqrYVW_5debug5crash13target_fuzz__4ArgsEB1v_
FNDA:0,_RNCINvNtCs7qDQvy6XYpV_18test_fuzz_internal4dirs19path_from_args_typeNtNtNtCsb1dEVcqrYVW_5debug4hang13target_fuzz__4ArgsE0B1a_
FNDA:0,_RNCINvNtCs7qDQvy6XYpV_18test_fuzz_internal4dirs19path_from_args_typeNtNtNtCsb1dEVcqrYVW_5debug5crash13target_fuzz__4ArgsE0B1a_
FNDA:0,_RNCINvNtCs7qDQvy6XYpV_18test_fuzz_internal4dirs19path_from_args_typeNtNvNtNtCsb1dEVcqrYVW_5debug4hang13target_fuzz__10write_args4ArgsE0B1c_
FNDA:0,_RNCINvNtCs7qDQvy6XYpV_18test_fuzz_internal4dirs19path_from_args_typeNtNvNtNtCsb1dEVcqrYVW_5debug5crash13target_fuzz__10write_args4ArgsE0B1c_
FNDA:0,_RINvNtCs7qDQvy6XYpV_18test_fuzz_internal4dirs19path_from_args_typeNtNtNtCsgcjg8UDvgFn_5debug4hang13target_fuzz__4ArgsEB18_
FNDA:0,_RINvNtCs7qDQvy6XYpV_18test_fuzz_internal4dirs19path_from_args_typeNtNtNtCsgcjg8UDvgFn_5debug5crash13target_fuzz__4ArgsEB18_
FNDA:0,_RINvNtCs7qDQvy6XYpV_18test_fuzz_internal4dirs19path_from_args_typeNtNvNtNtCsgcjg8UDvgFn_5debug4hang13target_fuzz__10write_args4ArgsEB1a_
FNDA:0,_RINvNtCs7qDQvy6XYpV_18test_fuzz_internal4dirs19path_from_args_typeNtNvNtNtCsgcjg8UDvgFn_5debug5crash13target_fuzz__10write_args4ArgsEB1a_
FNDA:0,_RINvNtCs7qDQvy6XYpV_18test_fuzz_internal4dirs31corpus_directory_from_args_typeNtNvNtNtCsgcjg8UDvgFn_5debug4hang13target_fuzz__10write_args4ArgsEB1m_
FNDA:0,_RINvNtCs7qDQvy6XYpV_18test_fuzz_internal4dirs31corpus_directory_from_args_typeNtNvNtNtCsgcjg8UDvgFn_5debug5crash13target_fuzz__10write_args4ArgsEB1m_
FNDA:0,_RINvNtCs7qDQvy6XYpV_18test_fuzz_internal4dirs37generic_args_directory_from_args_typeNtNtNtCsgcjg8UDvgFn_5debug4hang13target_fuzz__4ArgsEB1q_
FNDA:0,_RINvNtCs7qDQvy6XYpV_18test_fuzz_internal4dirs37generic_args_directory_from_args_typeNtNtNtCsgcjg8UDvgFn_5debug5crash13target_fuzz__4ArgsEB1q_
FNDA:0,_RINvNtCs7qDQvy6XYpV_18test_fuzz_internal4dirs42impl_generic_args_directory_from_args_typeNtNtNtCsgcjg8UDvgFn_5debug4hang13target_fuzz__4ArgsEB1v_
FNDA:0,_RINvNtCs7qDQvy6XYpV_18test_fuzz_internal4dirs42impl_generic_args_directory_from_args_typeNtNtNtCsgcjg8UDvgFn_5debug5crash13target_fuzz__4ArgsEB1v_
FNDA:0,_RNCINvNtCs7qDQvy6XYpV_18test_fuzz_internal4dirs19path_from_args_typeNtNtNtCsgcjg8UDvgFn_5debug4hang13target_fuzz__4ArgsE0B1a_
FNDA:0,_RNCINvNtCs7qDQvy6XYpV_18test_fuzz_internal4dirs19path_from_args_typeNtNtNtCsgcjg8UDvgFn_5debug5crash13target_fuzz__4ArgsE0B1a_
FNDA:0,_RNCINvNtCs7qDQvy6XYpV_18test_fuzz_internal4dirs19path_from_args_typeNtNvNtNtCsgcjg8UDvgFn_5debug4hang13target_fuzz__10write_args4ArgsE0B1c_
FNDA:0,_RNCINvNtCs7qDQvy6XYpV_18test_fuzz_internal4dirs19path_from_args_typeNtNvNtNtCsgcjg8UDvgFn_5debug5crash13target_fuzz__10write_args4ArgsE0B1c_
FNDA:0,_RINvNtCs7tkdMjTuzcM_18test_fuzz_internal4dirs19path_from_args_typeNtNtNtCsl8sxKVvCifM_5debug4hang13target_fuzz__4ArgsEB18_
FNDA:0,_RINvNtCs7tkdMjTuzcM_18test_fuzz_internal4dirs19path_from_args_typeNtNtNtCsl8sxKVvCifM_5debug5crash13target_fuzz__4ArgsEB18_
FNDA:0,_RINvNtCs7tkdMjTuzcM_18test_fuzz_internal4dirs19path_from_args_typeNtNvNtNtCsl8sxKVvCifM_5debug4hang13target_fuzz__10write_args4ArgsEB1a_
FNDA:0,_RINvNtCs7tkdMjTuzcM_18test_fuzz_internal4dirs19path_from_args_typeNtNvNtNtCsl8sxKVvCifM_5debug5crash13target_fuzz__10write_args4ArgsEB1a_
FNDA:0,_RINvNtCs7tkdMjTuzcM_18test_fuzz_internal4dirs31corpus_directory_from_args_typeNtNvNtNtCsl8sxKVvCifM_5debug4hang13target_fuzz__10write_args4ArgsEB1m_
FNDA:0,_RINvNtCs7tkdMjTuzcM_18test_fuzz_internal4dirs31corpus_directory_from_args_typeNtNvNtNtCsl8sxKVvCifM_5debug5crash13target_fuzz__10write_args4ArgsEB1m_
FNDA:0,_RINvNtCs7tkdMjTuzcM_18test_fuzz_internal4dirs37generic_args_directory_from_args_typeNtNtNtCsl8sxKVvCifM_5debug4hang13target_fuzz__4ArgsEB1q_
FNDA:0,_RINvNtCs7tkdMjTuzcM_18test_fuzz_internal4dirs37generic_args_directory_from_args_typeNtNtNtCsl8sxKVvCifM_5debug5crash13target_fuzz__4ArgsEB1q_
FNDA:0,_RINvNtCs7tkdMjTuzcM_18test_fuzz_internal4dirs42impl_generic_args_directory_from_args_typeNtNtNtCsl8sxKVvCifM_5debug4hang13target_fuzz__4ArgsEB1v_
FNDA:0,_RINvNtCs7tkdMjTuzcM_18test_fuzz_internal4dirs42impl_generic_args_directory_from_args_typeNtNtNtCsl8sxKVvCifM_5debug5crash13target_fuzz__4ArgsEB1v_
FNDA:0,_RNCINvNtCs7tkdMjTuzcM_18test_fuzz_internal4dirs19path_from_args_typeNtNtNtCsl8sxKVvCifM_5debug4hang13target_fuzz__4ArgsE0B1a_
FNDA:0,_RNCINvNtCs7tkdMjTuzcM_18test_fuzz_internal4dirs19path_from_args_typeNtNtNtCsl8sxKVvCifM_5debug5crash13target_fuzz__4ArgsE0B1a_
FNDA:0,_RNCINvNtCs7tkdMjTuzcM_18test_fuzz_internal4dirs19path_from_args_typeNtNvNtNtCsl8sxKVvCifM_5debug4hang13target_fuzz__10write_args4ArgsE0B1c_
FNDA:0,_RNCINvNtCs7tkdMjTuzcM_18test_fuzz_internal4dirs19path_from_args_typeNtNvNtNtCsl8sxKVvCifM_5debug5crash13target_fuzz__10write_args4ArgsE0B1c_
FNDA:0,_RINvNtCs7qDQvy6XYpV_18test_fuzz_internal4dirs19path_from_args_typeNtNtNtCsaAshMXCG0yq_7default10no_default13target_fuzz__4ArgsEB18_
FNDA:0,_RINvNtCs7qDQvy6XYpV_18test_fuzz_internal4dirs19path_from_args_typeNtNtNtCsaAshMXCG0yq_7default7default13target_fuzz__4ArgsEB18_
FNDA:0,_RINvNtCs7qDQvy6XYpV_18test_fuzz_internal4dirs19path_from_args_typeNtNvNtNtCsaAshMXCG0yq_7default10no_default13target_fuzz__10write_args4ArgsEB1a_
FNDA:0,_RINvNtCs7qDQvy6XYpV_18test_fuzz_internal4dirs19path_from_args_typeNtNvNtNtCsaAshMXCG0yq_7default7default13target_fuzz__10write_args4ArgsEB1a_
FNDA:0,_RINvNtCs7qDQvy6XYpV_18test_fuzz_internal4dirs31corpus_directory_from_args_typeNtNvNtNtCsaAshMXCG0yq_7default10no_default13target_fuzz__10write_args4ArgsEB1m_
FNDA:0,_RINvNtCs7qDQvy6XYpV_18test_fuzz_internal4dirs31corpus_directory_from_args_typeNtNvNtNtCsaAshMXCG0yq_7default7default13target_fuzz__10write_args4ArgsEB1m_
FNDA:0,_RINvNtCs7qDQvy6XYpV_18test_fuzz_internal4dirs37generic_args_directory_from_args_typeNtNtNtCsaAshMXCG0yq_7default10no_default13target_fuzz__4ArgsEB1q_
FNDA:0,_RINvNtCs7qDQvy6XYpV_18test_fuzz_internal4dirs37generic_args_directory_from_args_typeNtNtNtCsaAshMXCG0yq_7default7default13target_fuzz__4ArgsEB1q_
FNDA:0,_RINvNtCs7qDQvy6XYpV_18test_fuzz_internal4dirs42impl_generic_args_directory_from_args_typeNtNtNtCsaAshMXCG0yq_7default10no_default13target_fuzz__4ArgsEB1v_
FNDA:0,_RINvNtCs7qDQvy6XYpV_18test_fuzz_internal4dirs42impl_generic_args_directory_from_args_typeNtNtNtCsaAshMXCG0yq_7default7default13target_fuzz__4ArgsEB1v_
FNDA:0,_RNCINvNtCs7qDQvy6XYpV_18test_fuzz_internal4dirs19path_from_args_typeNtNtNtCsaAshMXCG0yq_7default10no_default13target_fuzz__4ArgsE0B1a_
FNDA:0,_RNCINvNtCs7qDQvy6XYpV_18test_fuzz_internal4dirs19path_from_args_typeNtNtNtCsaAshMXCG0yq_7default7default13target_fuzz__4ArgsE0B1a_
FNDA:0,_RNCINvNtCs7qDQvy6XYpV_18test_fuzz_internal4dirs19path_from_args_typeNtNvNtNtCsaAshMXCG0yq_7default10no_default13target_fuzz__10write_args4ArgsE0B1c_
FNDA:0,_RNCINvNtCs7qDQvy6XYpV_18test_fuzz_internal4dirs19path_from_args_typeNtNvNtNtCsaAshMXCG0yq_7default7default13target_fuzz__10write_args4ArgsE0B1c_
FNDA:0,_RINvNtCs7qDQvy6XYpV_18test_fuzz_internal4dirs19path_from_args_typeNtNtNtCskugcK1jf7rU_7default10no_default13target_fuzz__4ArgsEB18_
FNDA:0,_RINvNtCs7qDQvy6XYpV_18test_fuzz_internal4dirs19path_from_args_typeNtNtNtCskugcK1jf7rU_7default7default13target_fuzz__4ArgsEB18_
FNDA:0,_RINvNtCs7qDQvy6XYpV_18test_fuzz_internal4dirs19path_from_args_typeNtNvNtNtCskugcK1jf7rU_7default10no_default13target_fuzz__10write_args4ArgsEB1a_
FNDA:0,_RINvNtCs7qDQvy6XYpV_18test_fuzz_internal4dirs19path_from_args_typeNtNvNtNtCskugcK1jf7rU_7default7default13target_fuzz__10write_args4ArgsEB1a_
FNDA:0,_RINvNtCs7qDQvy6XYpV_18test_fuzz_internal4dirs31corpus_directory_from_args_typeNtNvNtNtCskugcK1jf7rU_7default10no_default13target_fuzz__10write_args4ArgsEB1m_
FNDA:0,_RINvNtCs7qDQvy6XYpV_18test_fuzz_internal4dirs31corpus_directory_from_args_typeNtNvNtNtCskugcK1jf7rU_7default7default13target_fuzz__10write_args4ArgsEB1m_
FNDA:0,_RINvNtCs7qDQvy6XYpV_18test_fuzz_internal4dirs37generic_args_directory_from_args_typeNtNtNtCskugcK1jf7rU_7default10no_default13target_fuzz__4ArgsEB1q_
FNDA:0,_RINvNtCs7qDQvy6XYpV_18test_fuzz_internal4dirs37generic_args_directory_from_args_typeNtNtNtCskugcK1jf7rU_7default7default13target_fuzz__4ArgsEB1q_
FNDA:0,_RINvNtCs7qDQvy6XYpV_18test_fuzz_internal4dirs42impl_generic_args_directory_from_args_typeNtNtNtCskugcK1jf7rU_7default10no_default13target_fuzz__4ArgsEB1v_
FNDA:0,_RINvNtCs7qDQvy6XYpV_18test_fuzz_internal4dirs42impl_generic_args_directory_from_args_typeNtNtNtCskugcK1jf7rU_7default7default13target_fuzz__4ArgsEB1v_
FNDA:0,_RNCINvNtCs7qDQvy6XYpV_18test_fuzz_internal4dirs19path_from_args_typeNtNtNtCskugcK1jf7rU_7default10no_default13target_fuzz__4ArgsE0B1a_
FNDA:0,_RNCINvNtCs7qDQvy6XYpV_18test_fuzz_internal4dirs19path_from_args_typeNtNtNtCskugcK1jf7rU_7default7default13target_fuzz__4ArgsE0B1a_
FNDA:0,_RNCINvNtCs7qDQvy6XYpV_18test_fuzz_internal4dirs19path_from_args_typeNtNvNtNtCskugcK1jf7rU_7default10no_default13target_fuzz__10write_args4ArgsE0B1c_
FNDA:0,_RNCINvNtCs7qDQvy6XYpV_18test_fuzz_internal4dirs19path_from_args_typeNtNvNtNtCskugcK1jf7rU_7default7default13target_fuzz__10write_args4ArgsE0B1c_
FNDA:0,_RINvNtCs7tkdMjTuzcM_18test_fuzz_internal4dirs19path_from_args_typeNtNtNtCs7Ozwe4CVtv1_7default10no_default13target_fuzz__4ArgsEB18_
FNDA:0,_RINvNtCs7tkdMjTuzcM_18test_fuzz_internal4dirs19path_from_args_typeNtNtNtCs7Ozwe4CVtv1_7default7default13target_fuzz__4ArgsEB18_
FNDA:0,_RINvNtCs7tkdMjTuzcM_18test_fuzz_internal4dirs19path_from_args_typeNtNvNtNtCs7Ozwe4CVtv1_7default10no_default13target_fuzz__10write_args4ArgsEB1a_
FNDA:0,_RINvNtCs7tkdMjTuzcM_18test_fuzz_internal4dirs19path_from_args_typeNtNvNtNtCs7Ozwe4CVtv1_7default7default13target_fuzz__10write_args4ArgsEB1a_
FNDA:0,_RINvNtCs7tkdMjTuzcM_18test_fuzz_internal4dirs31corpus_directory_from_args_typeNtNvNtNtCs7Ozwe4CVtv1_7default10no_default13target_fuzz__10write_args4ArgsEB1m_
FNDA:0,_RINvNtCs7tkdMjTuzcM_18test_fuzz_internal4dirs31corpus_directory_from_args_typeNtNvNtNtCs7Ozwe4CVtv1_7default7default13target_fuzz__10write_args4ArgsEB1m_
FNDA:0,_RINvNtCs7tkdMjTuzcM_18test_fuzz_internal4dirs37generic_args_directory_from_args_typeNtNtNtCs7Ozwe4CVtv1_7default10no_default13target_fuzz__4ArgsEB1q_
FNDA:0,_RINvNtCs7tkdMjTuzcM_18test_fuzz_internal4dirs37generic_args_directory_from_args_typeNtNtNtCs7Ozwe4CVtv1_7default7default13target_fuzz__4ArgsEB1q_
FNDA:0,_RINvNtCs7tkdMjTuzcM_18test_fuzz_internal4dirs42impl_generic_args_directory_from_args_typeNtNtNtCs7Ozwe4CVtv1_7default10no_default13target_fuzz__4ArgsEB1v_
FNDA:0,_RINvNtCs7tkdMjTuzcM_18test_fuzz_internal4dirs42impl_generic_args_directory_from_args_typeNtNtNtCs7Ozwe4CVtv1_7default7default13target_fuzz__4ArgsEB1v_
FNDA:0,_RNCINvNtCs7tkdMjTuzcM_18test_fuzz_internal4dirs19path_from_args_typeNtNtNtCs7Ozwe4CVtv1_7default10no_default13target_fuzz__4ArgsE0B1a_
FNDA:0,_RNCINvNtCs7tkdMjTuzcM_18test_fuzz_internal4dirs19path_from_args_typeNtNtNtCs7Ozwe4CVtv1_7default7default13target_fuzz__4ArgsE0B1a_
FNDA:0,_RNCINvNtCs7tkdMjTuzcM_18test_fuzz_internal4dirs19path_from_args_typeNtNvNtNtCs7Ozwe4CVtv1_7default10no_default13target_fuzz__10write_args4ArgsE0B1c_
FNDA:0,_RNCINvNtCs7tkdMjTuzcM_18test_fuzz_internal4dirs19path_from_args_typeNtNvNtNtCs7Ozwe4CVtv1_7default7default13target_fuzz__10write_args4ArgsE0B1c_
FNDA:0,_RINvNtCs7qDQvy6XYpV_18test_fuzz_internal4dirs19path_from_args_typeNtNtCsjYKnve2EfMB_4from15bar_from_fuzz__4ArgsEB16_
FNDA:0,_RINvNtCs7qDQvy6XYpV_18test_fuzz_internal4dirs19path_from_args_typeNtNtCsjYKnve2EfMB_4from15baz_into_fuzz__4ArgsEB16_
FNDA:0,_RINvNtCs7qDQvy6XYpV_18test_fuzz_internal4dirs19path_from_args_typeNtNtCsjYKnve2EfMB_4from19baz_try_from_fuzz__4ArgsEB16_
FNDA:0,_RINvNtCs7qDQvy6XYpV_18test_fuzz_internal4dirs19path_from_args_typeNtNvNtCsjYKnve2EfMB_4from15bar_from_fuzz__10write_args4ArgsEB18_
FNDA:0,_RINvNtCs7qDQvy6XYpV_18test_fuzz_internal4dirs19path_from_args_typeNtNvNtCsjYKnve2EfMB_4from15baz_into_fuzz__10write_args4ArgsEB18_
FNDA:0,_RINvNtCs7qDQvy6XYpV_18test_fuzz_internal4dirs19path_from_args_typeNtNvNtCsjYKnve2EfMB_4from19baz_try_from_fuzz__10write_args4ArgsEB18_
FNDA:0,_RINvNtCs7qDQvy6XYpV_18test_fuzz_internal4dirs31corpus_directory_from_args_typeNtNvNtCsjYKnve2EfMB_4from15bar_from_fuzz__10write_args4ArgsEB1k_
FNDA:0,_RINvNtCs7qDQvy6XYpV_18test_fuzz_internal4dirs31corpus_directory_from_args_typeNtNvNtCsjYKnve2EfMB_4from15baz_into_fuzz__10write_args4ArgsEB1k_
FNDA:0,_RINvNtCs7qDQvy6XYpV_18test_fuzz_internal4dirs31corpus_directory_from_args_typeNtNvNtCsjYKnve2EfMB_4from19baz_try_from_fuzz__10write_args4ArgsEB1k_
FNDA:0,_RINvNtCs7qDQvy6XYpV_18test_fuzz_internal4dirs37generic_args_directory_from_args_typeNtNtCsjYKnve2EfMB_4from15bar_from_fuzz__4ArgsEB1o_
FNDA:0,_RINvNtCs7qDQvy6XYpV_18test_fuzz_internal4dirs37generic_args_directory_from_args_typeNtNtCsjYKnve2EfMB_4from15baz_into_fuzz__4ArgsEB1o_
FNDA:0,_RINvNtCs7qDQvy6XYpV_18test_fuzz_internal4dirs37generic_args_directory_from_args_typeNtNtCsjYKnve2EfMB_4from19baz_try_from_fuzz__4ArgsEB1o_
FNDA:0,_RINvNtCs7qDQvy6XYpV_18test_fuzz_internal4dirs42impl_generic_args_directory_from_args_typeNtNtCsjYKnve2EfMB_4from15bar_from_fuzz__4ArgsEB1t_
FNDA:0,_RINvNtCs7qDQvy6XYpV_18test_fuzz_internal4dirs42impl_generic_args_directory_from_args_typeNtNtCsjYKnve2EfMB_4from15baz_into_fuzz__4ArgsEB1t_
FNDA:0,_RINvNtCs7qDQvy6XYpV_18test_fuzz_internal4dirs42impl_generic_args_directory_from_args_typeNtNtCsjYKnve2EfMB_4from19baz_try_from_fuzz__4ArgsEB1t_
FNDA:0,_RNCINvNtCs7qDQvy6XYpV_18test_fuzz_internal4dirs19path_from_args_typeNtNtCsjYKnve2EfMB_4from15bar_from_fuzz__4ArgsE0B18_
FNDA:0,_RNCINvNtCs7qDQvy6XYpV_18test_fuzz_internal4dirs19path_from_args_typeNtNtCsjYKnve2EfMB_4from15baz_into_fuzz__4ArgsE0B18_
FNDA:0,_RNCINvNtCs7qDQvy6XYpV_18test_fuzz_internal4dirs19path_from_args_typeNtNtCsjYKnve2EfMB_4from19baz_try_from_fuzz__4ArgsE0B18_
FNDA:0,_RNCINvNtCs7qDQvy6XYpV_18test_fuzz_internal4dirs19path_from_args_typeNtNvNtCsjYKnve2EfMB_4from15bar_from_fuzz__10write_args4ArgsE0B1a_
FNDA:0,_RNCINvNtCs7qDQvy6XYpV_18test_fuzz_internal4dirs19path_from_args_typeNtNvNtCsjYKnve2EfMB_4from15baz_into_fuzz__10write_args4ArgsE0B1a_
FNDA:0,_RNCINvNtCs7qDQvy6XYpV_18test_fuzz_internal4dirs19path_from_args_typeNtNvNtCsjYKnve2EfMB_4from19baz_try_from_fuzz__10write_args4ArgsE0B1a_
FNDA:0,_RINvNtCs7qDQvy6XYpV_18test_fuzz_internal4dirs19path_from_args_typeNtNtCs1URDLWWjTVx_4from15bar_from_fuzz__4ArgsEB16_
FNDA:0,_RINvNtCs7qDQvy6XYpV_18test_fuzz_internal4dirs19path_from_args_typeNtNtCs1URDLWWjTVx_4from15baz_into_fuzz__4ArgsEB16_
FNDA:0,_RINvNtCs7qDQvy6XYpV_18test_fuzz_internal4dirs19path_from_args_typeNtNtCs1URDLWWjTVx_4from19baz_try_from_fuzz__4ArgsEB16_
FNDA:0,_RINvNtCs7qDQvy6XYpV_18test_fuzz_internal4dirs19path_from_args_typeNtNvNtCs1URDLWWjTVx_4from15bar_from_fuzz__10write_args4ArgsEB18_
FNDA:0,_RINvNtCs7qDQvy6XYpV_18test_fuzz_internal4dirs19path_from_args_typeNtNvNtCs1URDLWWjTVx_4from15baz_into_fuzz__10write_args4ArgsEB18_
FNDA:0,_RINvNtCs7qDQvy6XYpV_18test_fuzz_internal4dirs19path_from_args_typeNtNvNtCs1URDLWWjTVx_4from19baz_try_from_fuzz__10write_args4ArgsEB18_
FNDA:0,_RINvNtCs7qDQvy6XYpV_18test_fuzz_internal4dirs31corpus_directory_from_args_typeNtNvNtCs1URDLWWjTVx_4from15bar_from_fuzz__10write_args4ArgsEB1k_
FNDA:0,_RINvNtCs7qDQvy6XYpV_18test_fuzz_internal4dirs31corpus_directory_from_args_typeNtNvNtCs1URDLWWjTVx_4from15baz_into_fuzz__10write_args4ArgsEB1k_
FNDA:0,_RINvNtCs7qDQvy6XYpV_18test_fuzz_internal4dirs31corpus_directory_from_args_typeNtNvNtCs1URDLWWjTVx_4from19baz_try_from_fuzz__10write_args4ArgsEB1k_
FNDA:0,_RINvNtCs7qDQvy6XYpV_18test_fuzz_internal4dirs37generic_args_directory_from_args_typeNtNtCs1URDLWWjTVx_4from15bar_from_fuzz__4ArgsEB1o_
FNDA:0,_RINvNtCs7qDQvy6XYpV_18test_fuzz_internal4dirs37generic_args_directory_from_args_typeNtNtCs1URDLWWjTVx_4from15baz_into_fuzz__4ArgsEB1o_
FNDA:0,_RINvNtCs7qDQvy6XYpV_18test_fuzz_internal4dirs37generic_args_directory_from_args_typeNtNtCs1URDLWWjTVx_4from19baz_try_from_fuzz__4ArgsEB1o_
FNDA:0,_RINvNtCs7qDQvy6XYpV_18test_fuzz_internal4dirs42impl_generic_args_directory_from_args_typeNtNtCs1URDLWWjTVx_4from15bar_from_fuzz__4ArgsEB1t_
FNDA:0,_RINvNtCs7qDQvy6XYpV_18test_fuzz_internal4dirs42impl_generic_args_directory_from_args_typeNtNtCs1URDLWWjTVx_4from15baz_into_fuzz__4ArgsEB1t_
FNDA:0,_RINvNtCs7qDQvy6XYpV_18test_fuzz_internal4dirs42impl_generic_args_directory_from_args_typeNtNtCs1URDLWWjTVx_4from19baz_try_from_fuzz__4ArgsEB1t_
FNDA:0,_RNCINvNtCs7qDQvy6XYpV_18test_fuzz_internal4dirs19path_from_args_typeNtNtCs1URDLWWjTVx_4from15bar_from_fuzz__4ArgsE0B18_
FNDA:0,_RNCINvNtCs7qDQvy6XYpV_18test_fuzz_internal4dirs19path_from_args_typeNtNtCs1URDLWWjTVx_4from15baz_into_fuzz__4ArgsE0B18_
FNDA:0,_RNCINvNtCs7qDQvy6XYpV_18test_fuzz_internal4dirs19path_from_args_typeNtNtCs1URDLWWjTVx_4from19baz_try_from_fuzz__4ArgsE0B18_
FNDA:0,_RNCINvNtCs7qDQvy6XYpV_18test_fuzz_internal4dirs19path_from_args_typeNtNvNtCs1URDLWWjTVx_4from15bar_from_fuzz__10write_args4ArgsE0B1a_
FNDA:0,_RNCINvNtCs7qDQvy6XYpV_18test_fuzz_internal4dirs19path_from_args_typeNtNvNtCs1URDLWWjTVx_4from15baz_into_fuzz__10write_args4ArgsE0B1a_
FNDA:0,_RNCINvNtCs7qDQvy6XYpV_18test_fuzz_internal4dirs19path_from_args_typeNtNvNtCs1URDLWWjTVx_4from19baz_try_from_fuzz__10write_args4ArgsE0B1a_
FNDA:0,_RINvNtCs7tkdMjTuzcM_18test_fuzz_internal4dirs19path_from_args_typeNtNtCsbfvKuJfSASN_4from15bar_from_fuzz__4ArgsEB16_
FNDA:0,_RINvNtCs7tkdMjTuzcM_18test_fuzz_internal4dirs19path_from_args_typeNtNtCsbfvKuJfSASN_4from15baz_into_fuzz__4ArgsEB16_
FNDA:0,_RINvNtCs7tkdMjTuzcM_18test_fuzz_internal4dirs19path_from_args_typeNtNtCsbfvKuJfSASN_4from19baz_try_from_fuzz__4ArgsEB16_
FNDA:0,_RINvNtCs7tkdMjTuzcM_18test_fuzz_internal4dirs19path_from_args_typeNtNvNtCsbfvKuJfSASN_4from15bar_from_fuzz__10write_args4ArgsEB18_
FNDA:0,_RINvNtCs7tkdMjTuzcM_18test_fuzz_internal4dirs19path_from_args_typeNtNvNtCsbfvKuJfSASN_4from15baz_into_fuzz__10write_args4ArgsEB18_
FNDA:0,_RINvNtCs7tkdMjTuzcM_18test_fuzz_internal4dirs19path_from_args_typeNtNvNtCsbfvKuJfSASN_4from19baz_try_from_fuzz__10write_args4ArgsEB18_
FNDA:0,_RINvNtCs7tkdMjTuzcM_18test_fuzz_internal4dirs31corpus_directory_from_args_typeNtNvNtCsbfvKuJfSASN_4from15bar_from_fuzz__10write_args4ArgsEB1k_
FNDA:0,_RINvNtCs7tkdMjTuzcM_18test_fuzz_internal4dirs31corpus_directory_from_args_typeNtNvNtCsbfvKuJfSASN_4from15baz_into_fuzz__10write_args4ArgsEB1k_
FNDA:0,_RINvNtCs7tkdMjTuzcM_18test_fuzz_internal4dirs31corpus_directory_from_args_typeNtNvNtCsbfvKuJfSASN_4from19baz_try_from_fuzz__10write_args4ArgsEB1k_
FNDA:0,_RINvNtCs7tkdMjTuzcM_18test_fuzz_internal4dirs37generic_args_directory_from_args_typeNtNtCsbfvKuJfSASN_4from15bar_from_fuzz__4ArgsEB1o_
FNDA:0,_RINvNtCs7tkdMjTuzcM_18test_fuzz_internal4dirs37generic_args_directory_from_args_typeNtNtCsbfvKuJfSASN_4from15baz_into_fuzz__4ArgsEB1o_
FNDA:0,_RINvNtCs7tkdMjTuzcM_18test_fuzz_internal4dirs37generic_args_directory_from_args_typeNtNtCsbfvKuJfSASN_4from19baz_try_from_fuzz__4ArgsEB1o_
FNDA:0,_RINvNtCs7tkdMjTuzcM_18test_fuzz_internal4dirs42impl_generic_args_directory_from_args_typeNtNtCsbfvKuJfSASN_4from15bar_from_fuzz__4ArgsEB1t_
FNDA:0,_RINvNtCs7tkdMjTuzcM_18test_fuzz_internal4dirs42impl_generic_args_directory_from_args_typeNtNtCsbfvKuJfSASN_4from15baz_into_fuzz__4ArgsEB1t_
FNDA:0,_RINvNtCs7tkdMjTuzcM_18test_fuzz_internal4dirs42impl_generic_args_directory_from_args_typeNtNtCsbfvKuJfSASN_4from19baz_try_from_fuzz__4ArgsEB1t_
FNDA:0,_RNCINvNtCs7tkdMjTuzcM_18test_fuzz_internal4dirs19path_from_args_typeNtNtCsbfvKuJfSASN_4from15bar_from_fuzz__4ArgsE0B18_
FNDA:0,_RNCINvNtCs7tkdMjTuzcM_18test_fuzz_internal4dirs19path_from_args_typeNtNtCsbfvKuJfSASN_4from15baz_into_fuzz__4ArgsE0B18_
FNDA:0,_RNCINvNtCs7tkdMjTuzcM_18test_fuzz_internal4dirs19path_from_args_typeNtNtCsbfvKuJfSASN_4from19baz_try_from_fuzz__4ArgsE0B18_
FNDA:0,_RNCINvNtCs7tkdMjTuzcM_18test_fuzz_internal4dirs19path_from_args_typeNtNvNtCsbfvKuJfSASN_4from15bar_from_fuzz__10write_args4ArgsE0B1a_
FNDA:0,_RNCINvNtCs7tkdMjTuzcM_18test_fuzz_internal4dirs19path_from_args_typeNtNvNtCsbfvKuJfSASN_4from15baz_into_fuzz__10write_args4ArgsE0B1a_
FNDA:0,_RNCINvNtCs7tkdMjTuzcM_18test_fuzz_internal4dirs19path_from_args_typeNtNvNtCsbfvKuJfSASN_4from19baz_try_from_fuzz__10write_args4ArgsE0B1a_
FNDA:0,_RINvNtCs7tkdMjTuzcM_18test_fuzz_internal4dirs19path_from_args_typeINtNtCslA1LfyM8Akf_7generic14baz_qux_fuzz__4ArgsNtB17_3BarEEB17_
FNDA:0,_RINvNtCs7tkdMjTuzcM_18test_fuzz_internal4dirs19path_from_args_typeINtNtCslA1LfyM8Akf_7generic20struct_target_fuzz__4ArgsNtB17_3BarEEB17_
FNDA:0,_RINvNtCs7tkdMjTuzcM_18test_fuzz_internal4dirs19path_from_args_typeINtNtCslA1LfyM8Akf_7generic20struct_target_fuzz__4ArgsNtB17_3FooEEB17_
FNDA:0,_RINvNtCs7tkdMjTuzcM_18test_fuzz_internal4dirs19path_from_args_typeINtNtCslA1LfyM8Akf_7generic26struct_target_bound_fuzz__4ArgsNtB17_3BarINtB17_3BazB20_EEEB17_
FNDA:0,_RINvNtCs7tkdMjTuzcM_18test_fuzz_internal4dirs19path_from_args_typeINtNtCslA1LfyM8Akf_7generic26struct_target_bound_fuzz__4ArgsNtB17_3FooINtB17_3BazB20_EEEB17_
FNDA:0,_RINvNtCs7tkdMjTuzcM_18test_fuzz_internal4dirs19path_from_args_typeINtNtCslA1LfyM8Akf_7generic33struct_target_where_clause_fuzz__4ArgsNtB17_3BarINtB17_3BazB27_EEEB17_
FNDA:0,_RINvNtCs7tkdMjTuzcM_18test_fuzz_internal4dirs19path_from_args_typeINtNtCslA1LfyM8Akf_7generic33struct_target_where_clause_fuzz__4ArgsNtB17_3FooINtB17_3BazB27_EEEB17_
FNDA:0,_RINvNtCs7tkdMjTuzcM_18test_fuzz_internal4dirs19path_from_args_typeINtNtNtCslA1LfyM8Akf_7generic27receiverless_trait_function20struct_target_fuzz__4ArgsNtB19_3BarEEB19_
FNDA:0,_RINvNtCs7tkdMjTuzcM_18test_fuzz_internal4dirs19path_from_args_typeINtNvNtCslA1LfyM8Akf_7generic14baz_qux_fuzz__10write_args4ArgsNtB19_3BarEEB19_
FNDA:0,_RINvNtCs7tkdMjTuzcM_18test_fuzz_internal4dirs19path_from_args_typeINtNvNtCslA1LfyM8Akf_7generic20struct_target_fuzz__10write_args4ArgsNtB19_3BarEEB19_
FNDA:0,_RINvNtCs7tkdMjTuzcM_18test_fuzz_internal4dirs19path_from_args_typeINtNvNtCslA1LfyM8Akf_7generic20struct_target_fuzz__10write_args4ArgsNtB19_3FooEEB19_
FNDA:0,_RINvNtCs7tkdMjTuzcM_18test_fuzz_internal4dirs19path_from_args_typeINtNvNtCslA1LfyM8Akf_7generic26struct_target_bound_fuzz__10write_args4ArgsNtB19_3BarINtB19_3BazB2e_EEEB19_
FNDA:0,_RINvNtCs7tkdMjTuzcM_18test_fuzz_internal4dirs19path_from_args_typeINtNvNtCslA1LfyM8Akf_7generic26struct_target_bound_fuzz__10write_args4ArgsNtB19_3FooINtB19_3BazB2e_EEEB19_
FNDA:0,_RINvNtCs7tkdMjTuzcM_18test_fuzz_internal4dirs19path_from_args_typeINtNvNtCslA1LfyM8Akf_7generic33struct_target_where_clause_fuzz__10write_args4ArgsNtB19_3BarINtB19_3BazB2l_EEEB19_
FNDA:0,_RINvNtCs7tkdMjTuzcM_18test_fuzz_internal4dirs19path_from_args_typeINtNvNtCslA1LfyM8Akf_7generic33struct_target_where_clause_fuzz__10write_args4ArgsNtB19_3FooINtB19_3BazB2l_EEEB19_
FNDA:0,_RINvNtCs7tkdMjTuzcM_18test_fuzz_internal4dirs19path_from_args_typeINtNvNtNtCslA1LfyM8Akf_7generic27receiverless_trait_function20struct_target_fuzz__10write_args4ArgsNtB1b_3BarEEB1b_
FNDA:0,_RINvNtCs7tkdMjTuzcM_18test_fuzz_internal4dirs19path_from_args_typeNtNtCslA1LfyM8Akf_7generic38struct_target_only_generic_args_fuzz__4ArgsEB16_
FNDA:0,_RINvNtCs7tkdMjTuzcM_18test_fuzz_internal4dirs31corpus_directory_from_args_typeINtNvNtCslA1LfyM8Akf_7generic14baz_qux_fuzz__10write_args4ArgsNtB1l_3BarEEB1l_
FNDA:0,_RINvNtCs7tkdMjTuzcM_18test_fuzz_internal4dirs31corpus_directory_from_args_typeINtNvNtCslA1LfyM8Akf_7generic20struct_target_fuzz__10write_args4ArgsNtB1l_3BarEEB1l_
FNDA:0,_RINvNtCs7tkdMjTuzcM_18test_fuzz_internal4dirs31corpus_directory_from_args_typeINtNvNtCslA1LfyM8Akf_7generic20struct_target_fuzz__10write_args4ArgsNtB1l_3FooEEB1l_
FNDA:0,_RINvNtCs7tkdMjTuzcM_18test_fuzz_internal4dirs31corpus_directory_from_args_typeINtNvNtCslA1LfyM8Akf_7generic26struct_target_bound_fuzz__10write_args4ArgsNtB1l_3BarINtB1l_3BazB2q_EEEB1l_
FNDA:0,_RINvNtCs7tkdMjTuzcM_18test_fuzz_internal4dirs31corpus_directory_from_args_typeINtNvNtCslA1LfyM8Akf_7generic26struct_target_bound_fuzz__10write_args4ArgsNtB1l_3FooINtB1l_3BazB2q_EEEB1l_
FNDA:0,_RINvNtCs7tkdMjTuzcM_18test_fuzz_internal4dirs31corpus_directory_from_args_typeINtNvNtCslA1LfyM8Akf_7generic33struct_target_where_clause_fuzz__10write_args4ArgsNtB1l_3BarINtB1l_3BazB2x_EEEB1l_
FNDA:0,_RINvNtCs7tkdMjTuzcM_18test_fuzz_internal4dirs31corpus_directory_from_args_typeINtNvNtCslA1LfyM8Akf_7generic33struct_target_where_clause_fuzz__10write_args4ArgsNtB1l_3FooINtB1l_3BazB2x_EEEB1l_
FNDA:0,_RINvNtCs7tkdMjTuzcM_18test_fuzz_internal4dirs31corpus_directory_from_args_typeINtNvNtNtCslA1LfyM8Akf_7generic27receiverless_trait_function20struct_target_fuzz__10write_args4ArgsNtB1n_3BarEEB1n_
FNDA:0,_RINvNtCs7tkdMjTuzcM_18test_fuzz_internal4dirs37generic_args_directory_from_args_typeINtNtCslA1LfyM8Akf_7generic14baz_qux_fuzz__4ArgsNtB1p_3BarEEB1p_
FNDA:0,_RINvNtCs7tkdMjTuzcM_18test_fuzz_internal4dirs37generic_args_directory_from_args_typeINtNtCslA1LfyM8Akf_7generic20struct_target_fuzz__4ArgsNtB1p_3BarEEB1p_
FNDA:0,_RINvNtCs7tkdMjTuzcM_18test_fuzz_internal4dirs37generic_args_directory_from_args_typeINtNtCslA1LfyM8Akf_7generic20struct_target_fuzz__4ArgsNtB1p_3FooEEB1p_
FNDA:0,_RINvNtCs7tkdMjTuzcM_18test_fuzz_internal4dirs37generic_args_directory_from_args_typeINtNtCslA1LfyM8Akf_7generic26struct_target_bound_fuzz__4ArgsNtB1p_3BarINtB1p_3BazB2i_EEEB1p_
FNDA:0,_RINvNtCs7tkdMjTuzcM_18test_fuzz_internal4dirs37generic_args_directory_from_args_typeINtNtCslA1LfyM8Akf_7generic26struct_target_bound_fuzz__4ArgsNtB1p_3FooINtB1p_3BazB2i_EEEB1p_
FNDA:0,_RINvNtCs7tkdMjTuzcM_18test_fuzz_internal4dirs37generic_args_directory_from_args_typeINtNtCslA1LfyM8Akf_7generic33struct_target_where_clause_fuzz__4ArgsNtB1p_3BarINtB1p_3BazB2p_EEEB1p_
FNDA:0,_RINvNtCs7tkdMjTuzcM_18test_fuzz_internal4dirs37generic_args_directory_from_args_typeINtNtCslA1LfyM8Akf_7generic33struct_target_where_clause_fuzz__4ArgsNtB1p_3FooINtB1p_3BazB2p_EEEB1p_
FNDA:0,_RINvNtCs7tkdMjTuzcM_18test_fuzz_internal4dirs37generic_args_directory_from_args_typeINtNtNtCslA1LfyM8Akf_7generic27receiverless_trait_function20struct_target_fuzz__4ArgsNtB1r_3BarEEB1r_
FNDA:0,_RINvNtCs7tkdMjTuzcM_18test_fuzz_internal4dirs37generic_args_directory_from_args_typeNtNtCslA1LfyM8Akf_7generic38struct_target_only_generic_args_fuzz__4ArgsEB1o_
FNDA:0,_RINvNtCs7tkdMjTuzcM_18test_fuzz_internal4dirs42impl_generic_args_directory_from_args_typeINtNtCslA1LfyM8Akf_7generic14baz_qux_fuzz__4ArgsNtB1u_3BarEEB1u_
FNDA:0,_RINvNtCs7tkdMjTuzcM_18test_fuzz_internal4dirs42impl_generic_args_directory_from_args_typeINtNtCslA1LfyM8Akf_7generic20struct_target_fuzz__4ArgsNtB1u_3BarEEB1u_
FNDA:0,_RINvNtCs7tkdMjTuzcM_18test_fuzz_internal4dirs42impl_generic_args_directory_from_args_typeINtNtCslA1LfyM8Akf_7generic20struct_target_fuzz__4ArgsNtB1u_3FooEEB1u_
FNDA:0,_RINvNtCs7tkdMjTuzcM_18test_fuzz_internal4dirs42impl_generic_args_directory_from_args_typeINtNtCslA1LfyM8Akf_7generic26struct_target_bound_fuzz__4ArgsNtB1u_3BarINtB1u_3BazB2n_EEEB1u_
FNDA:0,_RINvNtCs7tkdMjTuzcM_18test_fuzz_internal4dirs42impl_generic_args_directory_from_args_typeINtNtCslA1LfyM8Akf_7generic26struct_target_bound_fuzz__4ArgsNtB1u_3FooINtB1u_3BazB2n_EEEB1u_
FNDA:0,_RINvNtCs7tkdMjTuzcM_18test_fuzz_internal4dirs42impl_generic_args_directory_from_args_typeINtNtCslA1LfyM8Akf_7generic33struct_target_where_clause_fuzz__4ArgsNtB1u_3BarINtB1u_3BazB2u_EEEB1u_
FNDA:0,_RINvNtCs7tkdMjTuzcM_18test_fuzz_internal4dirs42impl_generic_args_directory_from_args_typeINtNtCslA1LfyM8Akf_7generic33struct_target_where_clause_fuzz__4ArgsNtB1u_3FooINtB1u_3BazB2u_EEEB1u_
FNDA:0,_RINvNtCs7tkdMjTuzcM_18test_fuzz_internal4dirs42impl_generic_args_directory_from_args_typeINtNtNtCslA1LfyM8Akf_7generic27receiverless_trait_function20struct_target_fuzz__4ArgsNtB1w_3BarEEB1w_
FNDA:0,_RINvNtCs7tkdMjTuzcM_18test_fuzz_internal4dirs42impl_generic_args_directory_from_args_typeNtNtCslA1LfyM8Akf_7generic38struct_target_only_generic_args_fuzz__4ArgsEB1t_
FNDA:0,_RNCINvNtCs7tkdMjTuzcM_18test_fuzz_internal4dirs19path_from_args_typeINtNtCslA1LfyM8Akf_7generic14baz_qux_fuzz__4ArgsNtB19_3BarEE0B19_
FNDA:0,_RNCINvNtCs7tkdMjTuzcM_18test_fuzz_internal4dirs19path_from_args_typeINtNtCslA1LfyM8Akf_7generic20struct_target_fuzz__4ArgsNtB19_3BarEE0B19_
FNDA:0,_RNCINvNtCs7tkdMjTuzcM_18test_fuzz_internal4dirs19path_from_args_typeINtNtCslA1LfyM8Akf_7generic20struct_target_fuzz__4ArgsNtB19_3FooEE0B19_
FNDA:0,_RNCINvNtCs7tkdMjTuzcM_18test_fuzz_internal4dirs19path_from_args_typeINtNtCslA1LfyM8Akf_7generic26struct_target_bound_fuzz__4ArgsNtB19_3BarINtB19_3BazB22_EEE0B19_
FNDA:0,_RNCINvNtCs7tkdMjTuzcM_18test_fuzz_internal4dirs19path_from_args_typeINtNtCslA1LfyM8Akf_7generic26struct_target_bound_fuzz__4ArgsNtB19_3FooINtB19_3BazB22_EEE0B19_
FNDA:0,_RNCINvNtCs7tkdMjTuzcM_18test_fuzz_internal4dirs19path_from_args_typeINtNtCslA1LfyM8Akf_7generic33struct_target_where_clause_fuzz__4ArgsNtB19_3BarINtB19_3BazB29_EEE0B19_
FNDA:0,_RNCINvNtCs7tkdMjTuzcM_18test_fuzz_internal4dirs19path_from_args_typeINtNtCslA1LfyM8Akf_7generic33struct_target_where_clause_fuzz__4ArgsNtB19_3FooINtB19_3BazB29_EEE0B19_
FNDA:0,_RNCINvNtCs7tkdMjTuzcM_18test_fuzz_internal4dirs19path_from_args_typeINtNtNtCslA1LfyM8Akf_7generic27receiverless_trait_function20struct_target_fuzz__4ArgsNtB1b_3BarEE0B1b_
FNDA:0,_RNCINvNtCs7tkdMjTuzcM_18test_fuzz_internal4dirs19path_from_args_typeINtNvNtCslA1LfyM8Akf_7generic14baz_qux_fuzz__10write_args4ArgsNtB1b_3BarEE0B1b_
FNDA:0,_RNCINvNtCs7tkdMjTuzcM_18test_fuzz_internal4dirs19path_from_args_typeINtNvNtCslA1LfyM8Akf_7generic20struct_target_fuzz__10write_args4ArgsNtB1b_3BarEE0B1b_
FNDA:0,_RNCINvNtCs7tkdMjTuzcM_18test_fuzz_internal4dirs19path_from_args_typeINtNvNtCslA1LfyM8Akf_7generic20struct_target_fuzz__10write_args4ArgsNtB1b_3FooEE0B1b_
FNDA:0,_RNCINvNtCs7tkdMjTuzcM_18test_fuzz_internal4dirs19path_from_args_typeINtNvNtCslA1LfyM8Akf_7generic26struct_target_bound_fuzz__10write_args4ArgsNtB1b_3BarINtB1b_3BazB2g_EEE0B1b_
FNDA:0,_RNCINvNtCs7tkdMjTuzcM_18test_fuzz_internal4dirs19path_from_args_typeINtNvNtCslA1LfyM8Akf_7generic26struct_target_bound_fuzz__10write_args4ArgsNtB1b_3FooINtB1b_3BazB2g_EEE0B1b_
FNDA:0,_RNCINvNtCs7tkdMjTuzcM_18test_fuzz_internal4dirs19path_from_args_typeINtNvNtCslA1LfyM8Akf_7generic33struct_target_where_clause_fuzz__10write_args4ArgsNtB1b_3BarINtB1b_3BazB2n_EEE0B1b_
FNDA:0,_RNCINvNtCs7tkdMjTuzcM_18test_fuzz_internal4dirs19path_from_args_typeINtNvNtCslA1LfyM8Akf_7generic33struct_target_where_clause_fuzz__10write_args4ArgsNtB1b_3FooINtB1b_3BazB2n_EEE0B1b_
FNDA:0,_RNCINvNtCs7tkdMjTuzcM_18test_fuzz_internal4dirs19path_from_args_typeINtNvNtNtCslA1LfyM8Akf_7generic27receiverless_trait_function20struct_target_fuzz__10write_args4ArgsNtB1d_3BarEE0B1d_
FNDA:0,_RNCINvNtCs7tkdMjTuzcM_18test_fuzz_internal4dirs19path_from_args_typeNtNtCslA1LfyM8Akf_7generic38struct_target_only_generic_args_fuzz__4ArgsE0B18_
FNDA:0,_RINvNtCs7qDQvy6XYpV_18test_fuzz_internal4dirs19path_from_args_typeINtNtCscFYsPowUGCR_7generic14baz_qux_fuzz__4ArgsNtB17_3BarEEB17_
FNDA:0,_RINvNtCs7qDQvy6XYpV_18test_fuzz_internal4dirs19path_from_args_typeINtNtCscFYsPowUGCR_7generic20struct_target_fuzz__4ArgsNtB17_3BarEEB17_
FNDA:0,_RINvNtCs7qDQvy6XYpV_18test_fuzz_internal4dirs19path_from_args_typeINtNtCscFYsPowUGCR_7generic20struct_target_fuzz__4ArgsNtB17_3FooEEB17_
FNDA:0,_RINvNtCs7qDQvy6XYpV_18test_fuzz_internal4dirs19path_from_args_typeINtNtCscFYsPowUGCR_7generic26struct_target_bound_fuzz__4ArgsNtB17_3BarINtB17_3BazB20_EEEB17_
FNDA:0,_RINvNtCs7qDQvy6XYpV_18test_fuzz_internal4dirs19path_from_args_typeINtNtCscFYsPowUGCR_7generic26struct_target_bound_fuzz__4ArgsNtB17_3FooINtB17_3BazB20_EEEB17_
FNDA:0,_RINvNtCs7qDQvy6XYpV_18test_fuzz_internal4dirs19path_from_args_typeINtNtCscFYsPowUGCR_7generic33struct_target_where_clause_fuzz__4ArgsNtB17_3BarINtB17_3BazB27_EEEB17_
FNDA:0,_RINvNtCs7qDQvy6XYpV_18test_fuzz_internal4dirs19path_from_args_typeINtNtCscFYsPowUGCR_7generic33struct_target_where_clause_fuzz__4ArgsNtB17_3FooINtB17_3BazB27_EEEB17_
FNDA:0,_RINvNtCs7qDQvy6XYpV_18test_fuzz_internal4dirs19path_from_args_typeINtNtNtCscFYsPowUGCR_7generic27receiverless_trait_function20struct_target_fuzz__4ArgsNtB19_3BarEEB19_
FNDA:0,_RINvNtCs7qDQvy6XYpV_18test_fuzz_internal4dirs19path_from_args_typeINtNvNtCscFYsPowUGCR_7generic14baz_qux_fuzz__10write_args4ArgsNtB19_3BarEEB19_
FNDA:0,_RINvNtCs7qDQvy6XYpV_18test_fuzz_internal4dirs19path_from_args_typeINtNvNtCscFYsPowUGCR_7generic20struct_target_fuzz__10write_args4ArgsNtB19_3BarEEB19_
FNDA:0,_RINvNtCs7qDQvy6XYpV_18test_fuzz_internal4dirs19path_from_args_typeINtNvNtCscFYsPowUGCR_7generic20struct_target_fuzz__10write_args4ArgsNtB19_3FooEEB19_
FNDA:0,_RINvNtCs7qDQvy6XYpV_18test_fuzz_internal4dirs19path_from_args_typeINtNvNtCscFYsPowUGCR_7generic26struct_target_bound_fuzz__10write_args4ArgsNtB19_3BarINtB19_3BazB2e_EEEB19_
FNDA:0,_RINvNtCs7qDQvy6XYpV_18test_fuzz_internal4dirs19path_from_args_typeINtNvNtCscFYsPowUGCR_7generic26struct_target_bound_fuzz__10write_args4ArgsNtB19_3FooINtB19_3BazB2e_EEEB19_
FNDA:0,_RINvNtCs7qDQvy6XYpV_18test_fuzz_internal4dirs19path_from_args_typeINtNvNtCscFYsPowUGCR_7generic33struct_target_where_clause_fuzz__10write_args4ArgsNtB19_3BarINtB19_3BazB2l_EEEB19_
FNDA:0,_RINvNtCs7qDQvy6XYpV_18test_fuzz_internal4dirs19path_from_args_typeINtNvNtCscFYsPowUGCR_7generic33struct_target_where_clause_fuzz__10write_args4ArgsNtB19_3FooINtB19_3BazB2l_EEEB19_
FNDA:0,_RINvNtCs7qDQvy6XYpV_18test_fuzz_internal4dirs19path_from_args_typeINtNvNtNtCscFYsPowUGCR_7generic27receiverless_trait_function20struct_target_fuzz__10write_args4ArgsNtB1b_3BarEEB1b_
FNDA:0,_RINvNtCs7qDQvy6XYpV_18test_fuzz_internal4dirs19path_from_args_typeNtNtCscFYsPowUGCR_7generic38struct_target_only_generic_args_fuzz__4ArgsEB16_
FNDA:0,_RINvNtCs7qDQvy6XYpV_18test_fuzz_internal4dirs31corpus_directory_from_args_typeINtNvNtCscFYsPowUGCR_7generic14baz_qux_fuzz__10write_args4ArgsNtB1l_3BarEEB1l_
FNDA:0,_RINvNtCs7qDQvy6XYpV_18test_fuzz_internal4dirs31corpus_directory_from_args_typeINtNvNtCscFYsPowUGCR_7generic20struct_target_fuzz__10write_args4ArgsNtB1l_3BarEEB1l_
FNDA:0,_RINvNtCs7qDQvy6XYpV_18test_fuzz_internal4dirs31corpus_directory_from_args_typeINtNvNtCscFYsPowUGCR_7generic20struct_target_fuzz__10write_args4ArgsNtB1l_3FooEEB1l_
FNDA:0,_RINvNtCs7qDQvy6XYpV_18test_fuzz_internal4dirs31corpus_directory_from_args_typeINtNvNtCscFYsPowUGCR_7generic26struct_target_bound_fuzz__10write_args4ArgsNtB1l_3BarINtB1l_3BazB2q_EEEB1l_
FNDA:0,_RINvNtCs7qDQvy6XYpV_18test_fuzz_internal4dirs31corpus_directory_from_args_typeINtNvNtCscFYsPowUGCR_7generic26struct_target_bound_fuzz__10write_args4ArgsNtB1l_3FooINtB1l_3BazB2q_EEEB1l_
FNDA:0,_RINvNtCs7qDQvy6XYpV_18test_fuzz_internal4dirs31corpus_directory_from_args_typeINtNvNtCscFYsPowUGCR_7generic33struct_target_where_clause_fuzz__10write_args4ArgsNtB1l_3BarINtB1l_3BazB2x_EEEB1l_
FNDA:0,_RINvNtCs7qDQvy6XYpV_18test_fuzz_internal4dirs31corpus_directory_from_args_typeINtNvNtCscFYsPowUGCR_7generic33struct_target_where_clause_fuzz__10write_args4ArgsNtB1l_3FooINtB1l_3BazB2x_EEEB1l_
FNDA:0,_RINvNtCs7qDQvy6XYpV_18test_fuzz_internal4dirs31corpus_directory_from_args_typeINtNvNtNtCscFYsPowUGCR_7generic27receiverless_trait_function20struct_target_fuzz__10write_args4ArgsNtB1n_3BarEEB1n_
FNDA:0,_RINvNtCs7qDQvy6XYpV_18test_fuzz_internal4dirs37generic_args_directory_from_args_typeINtNtCscFYsPowUGCR_7generic14baz_qux_fuzz__4ArgsNtB1p_3BarEEB1p_
FNDA:0,_RINvNtCs7qDQvy6XYpV_18test_fuzz_internal4dirs37generic_args_directory_from_args_typeINtNtCscFYsPowUGCR_7generic20struct_target_fuzz__4ArgsNtB1p_3BarEEB1p_
FNDA:0,_RINvNtCs7qDQvy6XYpV_18test_fuzz_internal4dirs37generic_args_directory_from_args_typeINtNtCscFYsPowUGCR_7generic20struct_target_fuzz__4ArgsNtB1p_3FooEEB1p_
FNDA:0,_RINvNtCs7qDQvy6XYpV_18test_fuzz_internal4dirs37generic_args_directory_from_args_typeINtNtCscFYsPowUGCR_7generic26struct_target_bound_fuzz__4ArgsNtB1p_3BarINtB1p_3BazB2i_EEEB1p_
FNDA:0,_RINvNtCs7qDQvy6XYpV_18test_fuzz_internal4dirs37generic_args_directory_from_args_typeINtNtCscFYsPowUGCR_7generic26struct_target_bound_fuzz__4ArgsNtB1p_3FooINtB1p_3BazB2i_EEEB1p_
FNDA:0,_RINvNtCs7qDQvy6XYpV_18test_fuzz_internal4dirs37generic_args_directory_from_args_typeINtNtCscFYsPowUGCR_7generic33struct_target_where_clause_fuzz__4ArgsNtB1p_3BarINtB1p_3BazB2p_EEEB1p_
FNDA:0,_RINvNtCs7qDQvy6XYpV_18test_fuzz_internal4dirs37generic_args_directory_from_args_typeINtNtCscFYsPowUGCR_7generic33struct_target_where_clause_fuzz__4ArgsNtB1p_3FooINtB1p_3BazB2p_EEEB1p_
FNDA:0,_RINvNtCs7qDQvy6XYpV_18test_fuzz_internal4dirs37generic_args_directory_from_args_typeINtNtNtCscFYsPowUGCR_7generic27receiverless_trait_function20struct_target_fuzz__4ArgsNtB1r_3BarEEB1r_
FNDA:0,_RINvNtCs7qDQvy6XYpV_18test_fuzz_internal4dirs37generic_args_directory_from_args_typeNtNtCscFYsPowUGCR_7generic38struct_target_only_generic_args_fuzz__4ArgsEB1o_
FNDA:0,_RINvNtCs7qDQvy6XYpV_18test_fuzz_internal4dirs42impl_generic_args_directory_from_args_typeINtNtCscFYsPowUGCR_7generic14baz_qux_fuzz__4ArgsNtB1u_3BarEEB1u_
FNDA:0,_RINvNtCs7qDQvy6XYpV_18test_fuzz_internal4dirs42impl_generic_args_directory_from_args_typeINtNtCscFYsPowUGCR_7generic20struct_target_fuzz__4ArgsNtB1u_3BarEEB1u_
FNDA:0,_RINvNtCs7qDQvy6XYpV_18test_fuzz_internal4dirs42impl_generic_args_directory_from_args_typeINtNtCscFYsPowUGCR_7generic20struct_target_fuzz__4ArgsNtB1u_3FooEEB1u_
FNDA:0,_RINvNtCs7qDQvy6XYpV_18test_fuzz_internal4dirs42impl_generic_args_directory_from_args_typeINtNtCscFYsPowUGCR_7generic26struct_target_bound_fuzz__4ArgsNtB1u_3BarINtB1u_3BazB2n_EEEB1u_
FNDA:0,_RINvNtCs7qDQvy6XYpV_18test_fuzz_internal4dirs42impl_generic_args_directory_from_args_typeINtNtCscFYsPowUGCR_7generic26struct_target_bound_fuzz__4ArgsNtB1u_3FooINtB1u_3BazB2n_EEEB1u_
FNDA:0,_RINvNtCs7qDQvy6XYpV_18test_fuzz_internal4dirs42impl_generic_args_directory_from_args_typeINtNtCscFYsPowUGCR_7generic33struct_target_where_clause_fuzz__4ArgsNtB1u_3BarINtB1u_3BazB2u_EEEB1u_
FNDA:0,_RINvNtCs7qDQvy6XYpV_18test_fuzz_internal4dirs42impl_generic_args_directory_from_args_typeINtNtCscFYsPowUGCR_7generic33struct_target_where_clause_fuzz__4ArgsNtB1u_3FooINtB1u_3BazB2u_EEEB1u_
FNDA:0,_RINvNtCs7qDQvy6XYpV_18test_fuzz_internal4dirs42impl_generic_args_directory_from_args_typeINtNtNtCscFYsPowUGCR_7generic27receiverless_trait_function20struct_target_fuzz__4ArgsNtB1w_3BarEEB1w_
FNDA:0,_RINvNtCs7qDQvy6XYpV_18test_fuzz_internal4dirs42impl_generic_args_directory_from_args_typeNtNtCscFYsPowUGCR_7generic38struct_target_only_generic_args_fuzz__4ArgsEB1t_
FNDA:0,_RNCINvNtCs7qDQvy6XYpV_18test_fuzz_internal4dirs19path_from_args_typeINtNtCscFYsPowUGCR_7generic14baz_qux_fuzz__4ArgsNtB19_3BarEE0B19_
FNDA:0,_RNCINvNtCs7qDQvy6XYpV_18test_fuzz_internal4dirs19path_from_args_typeINtNtCscFYsPowUGCR_7generic20struct_target_fuzz__4ArgsNtB19_3BarEE0B19_
FNDA:0,_RNCINvNtCs7qDQvy6XYpV_18test_fuzz_internal4dirs19path_from_args_typeINtNtCscFYsPowUGCR_7generic20struct_target_fuzz__4ArgsNtB19_3FooEE0B19_
FNDA:0,_RNCINvNtCs7qDQvy6XYpV_18test_fuzz_internal4dirs19path_from_args_typeINtNtCscFYsPowUGCR_7generic26struct_target_bound_fuzz__4ArgsNtB19_3BarINtB19_3BazB22_EEE0B19_
FNDA:0,_RNCINvNtCs7qDQvy6XYpV_18test_fuzz_internal4dirs19path_from_args_typeINtNtCscFYsPowUGCR_7generic26struct_target_bound_fuzz__4ArgsNtB19_3FooINtB19_3BazB22_EEE0B19_
FNDA:0,_RNCINvNtCs7qDQvy6XYpV_18test_fuzz_internal4dirs19path_from_args_typeINtNtCscFYsPowUGCR_7generic33struct_target_where_clause_fuzz__4ArgsNtB19_3BarINtB19_3BazB29_EEE0B19_
FNDA:0,_RNCINvNtCs7qDQvy6XYpV_18test_fuzz_internal4dirs19path_from_args_typeINtNtCscFYsPowUGCR_7generic33struct_target_where_clause_fuzz__4ArgsNtB19_3FooINtB19_3BazB29_EEE0B19_
FNDA:0,_RNCINvNtCs7qDQvy6XYpV_18test_fuzz_internal4dirs19path_from_args_typeINtNtNtCscFYsPowUGCR_7generic27receiverless_trait_function20struct_target_fuzz__4ArgsNtB1b_3BarEE0B1b_
FNDA:0,_RNCINvNtCs7qDQvy6XYpV_18test_fuzz_internal4dirs19path_from_args_typeINtNvNtCscFYsPowUGCR_7generic14baz_qux_fuzz__10write_args4ArgsNtB1b_3BarEE0B1b_
FNDA:0,_RNCINvNtCs7qDQvy6XYpV_18test_fuzz_internal4dirs19path_from_args_typeINtNvNtCscFYsPowUGCR_7generic20struct_target_fuzz__10write_args4ArgsNtB1b_3BarEE0B1b_
FNDA:0,_RNCINvNtCs7qDQvy6XYpV_18test_fuzz_internal4dirs19path_from_args_typeINtNvNtCscFYsPowUGCR_7generic20struct_target_fuzz__10write_args4ArgsNtB1b_3FooEE0B1b_
FNDA:0,_RNCINvNtCs7qDQvy6XYpV_18test_fuzz_internal4dirs19path_from_args_typeINtNvNtCscFYsPowUGCR_7generic26struct_target_bound_fuzz__10write_args4ArgsNtB1b_3BarINtB1b_3BazB2g_EEE0B1b_
FNDA:0,_RNCINvNtCs7qDQvy6XYpV_18test_fuzz_internal4dirs19path_from_args_typeINtNvNtCscFYsPowUGCR_7generic26struct_target_bound_fuzz__10write_args4ArgsNtB1b_3FooINtB1b_3BazB2g_EEE0B1b_
FNDA:0,_RNCINvNtCs7qDQvy6XYpV_18test_fuzz_internal4dirs19path_from_args_typeINtNvNtCscFYsPowUGCR_7generic33struct_target_where_clause_fuzz__10write_args4ArgsNtB1b_3BarINtB1b_3BazB2n_EEE0B1b_
FNDA:0,_RNCINvNtCs7qDQvy6XYpV_18test_fuzz_internal4dirs19path_from_args_typeINtNvNtCscFYsPowUGCR_7generic33struct_target_where_clause_fuzz__10write_args4ArgsNtB1b_3FooINtB1b_3BazB2n_EEE0B1b_
FNDA:0,_RNCINvNtCs7qDQvy6XYpV_18test_fuzz_internal4dirs19path_from_args_typeINtNvNtNtCscFYsPowUGCR_7generic27receiverless_trait_function20struct_target_fuzz__10write_args4ArgsNtB1d_3BarEE0B1d_
FNDA:0,_RNCINvNtCs7qDQvy6XYpV_18test_fuzz_internal4dirs19path_from_args_typeNtNtCscFYsPowUGCR_7generic38struct_target_only_generic_args_fuzz__4ArgsE0B18_
FNDA:0,_RINvNtCs7qDQvy6XYpV_18test_fuzz_internal4dirs19path_from_args_typeINtNtCscB5GQJ98reT_7generic14baz_qux_fuzz__4ArgsNtB17_3BarEEB17_
FNDA:0,_RINvNtCs7qDQvy6XYpV_18test_fuzz_internal4dirs19path_from_args_typeINtNtCscB5GQJ98reT_7generic20struct_target_fuzz__4ArgsNtB17_3BarEEB17_
FNDA:0,_RINvNtCs7qDQvy6XYpV_18test_fuzz_internal4dirs19path_from_args_typeINtNtCscB5GQJ98reT_7generic20struct_target_fuzz__4ArgsNtB17_3FooEEB17_
FNDA:0,_RINvNtCs7qDQvy6XYpV_18test_fuzz_internal4dirs19path_from_args_typeINtNtCscB5GQJ98reT_7generic26struct_target_bound_fuzz__4ArgsNtB17_3BarINtB17_3BazB20_EEEB17_
FNDA:0,_RINvNtCs7qDQvy6XYpV_18test_fuzz_internal4dirs19path_from_args_typeINtNtCscB5GQJ98reT_7generic26struct_target_bound_fuzz__4ArgsNtB17_3FooINtB17_3BazB20_EEEB17_
FNDA:0,_RINvNtCs7qDQvy6XYpV_18test_fuzz_internal4dirs19path_from_args_typeINtNtCscB5GQJ98reT_7generic33struct_target_where_clause_fuzz__4ArgsNtB17_3BarINtB17_3BazB27_EEEB17_
FNDA:0,_RINvNtCs7qDQvy6XYpV_18test_fuzz_internal4dirs19path_from_args_typeINtNtCscB5GQJ98reT_7generic33struct_target_where_clause_fuzz__4ArgsNtB17_3FooINtB17_3BazB27_EEEB17_
FNDA:0,_RINvNtCs7qDQvy6XYpV_18test_fuzz_internal4dirs19path_from_args_typeINtNtNtCscB5GQJ98reT_7generic27receiverless_trait_function20struct_target_fuzz__4ArgsNtB19_3BarEEB19_
FNDA:0,_RINvNtCs7qDQvy6XYpV_18test_fuzz_internal4dirs19path_from_args_typeINtNvNtCscB5GQJ98reT_7generic14baz_qux_fuzz__10write_args4ArgsNtB19_3BarEEB19_
FNDA:0,_RINvNtCs7qDQvy6XYpV_18test_fuzz_internal4dirs19path_from_args_typeINtNvNtCscB5GQJ98reT_7generic20struct_target_fuzz__10write_args4ArgsNtB19_3BarEEB19_
FNDA:0,_RINvNtCs7qDQvy6XYpV_18test_fuzz_internal4dirs19path_from_args_typeINtNvNtCscB5GQJ98reT_7generic20struct_target_fuzz__10write_args4ArgsNtB19_3FooEEB19_
FNDA:0,_RINvNtCs7qDQvy6XYpV_18test_fuzz_internal4dirs19path_from_args_typeINtNvNtCscB5GQJ98reT_7generic26struct_target_bound_fuzz__10write_args4ArgsNtB19_3BarINtB19_3BazB2e_EEEB19_
FNDA:0,_RINvNtCs7qDQvy6XYpV_18test_fuzz_internal4dirs19path_from_args_typeINtNvNtCscB5GQJ98reT_7generic26struct_target_bound_fuzz__10write_args4ArgsNtB19_3FooINtB19_3BazB2e_EEEB19_
FNDA:0,_RINvNtCs7qDQvy6XYpV_18test_fuzz_internal4dirs19path_from_args_typeINtNvNtCscB5GQJ98reT_7generic33struct_target_where_clause_fuzz__10write_args4ArgsNtB19_3BarINtB19_3BazB2l_EEEB19_
FNDA:0,_RINvNtCs7qDQvy6XYpV_18test_fuzz_internal4dirs19path_from_args_typeINtNvNtCscB5GQJ98reT_7generic33struct_target_where_clause_fuzz__10write_args4ArgsNtB19_3FooINtB19_3BazB2l_EEEB19_
FNDA:0,_RINvNtCs7qDQvy6XYpV_18test_fuzz_internal4dirs19path_from_args_typeINtNvNtNtCscB5GQJ98reT_7generic27receiverless_trait_function20struct_target_fuzz__10write_args4ArgsNtB1b_3BarEEB1b_
FNDA:0,_RINvNtCs7qDQvy6XYpV_18test_fuzz_internal4dirs19path_from_args_typeNtNtCscB5GQJ98reT_7generic38struct_target_only_generic_args_fuzz__4ArgsEB16_
FNDA:0,_RINvNtCs7qDQvy6XYpV_18test_fuzz_internal4dirs31corpus_directory_from_args_typeINtNvNtCscB5GQJ98reT_7generic14baz_qux_fuzz__10write_args4ArgsNtB1l_3BarEEB1l_
FNDA:0,_RINvNtCs7qDQvy6XYpV_18test_fuzz_internal4dirs31corpus_directory_from_args_typeINtNvNtCscB5GQJ98reT_7generic20struct_target_fuzz__10write_args4ArgsNtB1l_3BarEEB1l_
FNDA:0,_RINvNtCs7qDQvy6XYpV_18test_fuzz_internal4dirs31corpus_directory_from_args_typeINtNvNtCscB5GQJ98reT_7generic20struct_target_fuzz__10write_args4ArgsNtB1l_3FooEEB1l_
FNDA:0,_RINvNtCs7qDQvy6XYpV_18test_fuzz_internal4dirs31corpus_directory_from_args_typeINtNvNtCscB5GQJ98reT_7generic26struct_target_bound_fuzz__10write_args4ArgsNtB1l_3BarINtB1l_3BazB2q_EEEB1l_
FNDA:0,_RINvNtCs7qDQvy6XYpV_18test_fuzz_internal4dirs31corpus_directory_from_args_typeINtNvNtCscB5GQJ98reT_7generic26struct_target_bound_fuzz__10write_args4ArgsNtB1l_3FooINtB1l_3BazB2q_EEEB1l_
FNDA:0,_RINvNtCs7qDQvy6XYpV_18test_fuzz_internal4dirs31corpus_directory_from_args_typeINtNvNtCscB5GQJ98reT_7generic33struct_target_where_clause_fuzz__10write_args4ArgsNtB1l_3BarINtB1l_3BazB2x_EEEB1l_
FNDA:0,_RINvNtCs7qDQvy6XYpV_18test_fuzz_internal4dirs31corpus_directory_from_args_typeINtNvNtCscB5GQJ98reT_7generic33struct_target_where_clause_fuzz__10write_args4ArgsNtB1l_3FooINtB1l_3BazB2x_EEEB1l_
FNDA:0,_RINvNtCs7qDQvy6XYpV_18test_fuzz_internal4dirs31corpus_directory_from_args_typeINtNvNtNtCscB5GQJ98reT_7generic27receiverless_trait_function20struct_target_fuzz__10write_args4ArgsNtB1n_3BarEEB1n_
FNDA:0,_RINvNtCs7qDQvy6XYpV_18test_fuzz_internal4dirs37generic_args_directory_from_args_typeINtNtCscB5GQJ98reT_7generic14baz_qux_fuzz__4ArgsNtB1p_3BarEEB1p_
FNDA:0,_RINvNtCs7qDQvy6XYpV_18test_fuzz_internal4dirs37generic_args_directory_from_args_typeINtNtCscB5GQJ98reT_7generic20struct_target_fuzz__4ArgsNtB1p_3BarEEB1p_
FNDA:0,_RINvNtCs7qDQvy6XYpV_18test_fuzz_internal4dirs37generic_args_directory_from_args_typeINtNtCscB5GQJ98reT_7generic20struct_target_fuzz__4ArgsNtB1p_3FooEEB1p_
FNDA:0,_RINvNtCs7qDQvy6XYpV_18test_fuzz_internal4dirs37generic_args_directory_from_args_typeINtNtCscB5GQJ98reT_7generic26struct_target_bound_fuzz__4ArgsNtB1p_3BarINtB1p_3BazB2i_EEEB1p_
FNDA:0,_RINvNtCs7qDQvy6XYpV_18test_fuzz_internal4dirs37generic_args_directory_from_args_typeINtNtCscB5GQJ98reT_7generic26struct_target_bound_fuzz__4ArgsNtB1p_3FooINtB1p_3BazB2i_EEEB1p_
FNDA:0,_RINvNtCs7qDQvy6XYpV_18test_fuzz_internal4dirs37generic_args_directory_from_args_typeINtNtCscB5GQJ98reT_7generic33struct_target_where_clause_fuzz__4ArgsNtB1p_3BarINtB1p_3BazB2p_EEEB1p_
FNDA:0,_RINvNtCs7qDQvy6XYpV_18test_fuzz_internal4dirs37generic_args_directory_from_args_typeINtNtCscB5GQJ98reT_7generic33struct_target_where_clause_fuzz__4ArgsNtB1p_3FooINtB1p_3BazB2p_EEEB1p_
FNDA:0,_RINvNtCs7qDQvy6XYpV_18test_fuzz_internal4dirs37generic_args_directory_from_args_typeINtNtNtCscB5GQJ98reT_7generic27receiverless_trait_function20struct_target_fuzz__4ArgsNtB1r_3BarEEB1r_
FNDA:0,_RINvNtCs7qDQvy6XYpV_18test_fuzz_internal4dirs37generic_args_directory_from_args_typeNtNtCscB5GQJ98reT_7generic38struct_target_only_generic_args_fuzz__4ArgsEB1o_
FNDA:0,_RINvNtCs7qDQvy6XYpV_18test_fuzz_internal4dirs42impl_generic_args_directory_from_args_typeINtNtCscB5GQJ98reT_7generic14baz_qux_fuzz__4ArgsNtB1u_3BarEEB1u_
FNDA:0,_RINvNtCs7qDQvy6XYpV_18test_fuzz_internal4dirs42impl_generic_args_directory_from_args_typeINtNtCscB5GQJ98reT_7generic20struct_target_fuzz__4ArgsNtB1u_3BarEEB1u_
FNDA:0,_RINvNtCs7qDQvy6XYpV_18test_fuzz_internal4dirs42impl_generic_args_directory_from_args_typeINtNtCscB5GQJ98reT_7generic20struct_target_fuzz__4ArgsNtB1u_3FooEEB1u_
FNDA:0,_RINvNtCs7qDQvy6XYpV_18test_fuzz_internal4dirs42impl_generic_args_directory_from_args_typeINtNtCscB5GQJ98reT_7generic26struct_target_bound_fuzz__4ArgsNtB1u_3BarINtB1u_3BazB2n_EEEB1u_
FNDA:0,_RINvNtCs7qDQvy6XYpV_18test_fuzz_internal4dirs42impl_generic_args_directory_from_args_typeINtNtCscB5GQJ98reT_7generic26struct_target_bound_fuzz__4ArgsNtB1u_3FooINtB1u_3BazB2n_EEEB1u_
FNDA:0,_RINvNtCs7qDQvy6XYpV_18test_fuzz_internal4dirs42impl_generic_args_directory_from_args_typeINtNtCscB5GQJ98reT_7generic33struct_target_where_clause_fuzz__4ArgsNtB1u_3BarINtB1u_3BazB2u_EEEB1u_
FNDA:0,_RINvNtCs7qDQvy6XYpV_18test_fuzz_internal4dirs42impl_generic_args_directory_from_args_typeINtNtCscB5GQJ98reT_7generic33struct_target_where_clause_fuzz__4ArgsNtB1u_3FooINtB1u_3BazB2u_EEEB1u_
FNDA:0,_RINvNtCs7qDQvy6XYpV_18test_fuzz_internal4dirs42impl_generic_args_directory_from_args_typeINtNtNtCscB5GQJ98reT_7generic27receiverless_trait_function20struct_target_fuzz__4ArgsNtB1w_3BarEEB1w_
FNDA:0,_RINvNtCs7qDQvy6XYpV_18test_fuzz_internal4dirs42impl_generic_args_directory_from_args_typeNtNtCscB5GQJ98reT_7generic38struct_target_only_generic_args_fuzz__4ArgsEB1t_
FNDA:0,_RNCINvNtCs7qDQvy6XYpV_18test_fuzz_internal4dirs19path_from_args_typeINtNtCscB5GQJ98reT_7generic14baz_qux_fuzz__4ArgsNtB19_3BarEE0B19_
FNDA:0,_RNCINvNtCs7qDQvy6XYpV_18test_fuzz_internal4dirs19path_from_args_typeINtNtCscB5GQJ98reT_7generic20struct_target_fuzz__4ArgsNtB19_3BarEE0B19_
FNDA:0,_RNCINvNtCs7qDQvy6XYpV_18test_fuzz_internal4dirs19path_from_args_typeINtNtCscB5GQJ98reT_7generic20struct_target_fuzz__4ArgsNtB19_3FooEE0B19_
FNDA:0,_RNCINvNtCs7qDQvy6XYpV_18test_fuzz_internal4dirs19path_from_args_typeINtNtCscB5GQJ98reT_7generic26struct_target_bound_fuzz__4ArgsNtB19_3BarINtB19_3BazB22_EEE0B19_
FNDA:0,_RNCINvNtCs7qDQvy6XYpV_18test_fuzz_internal4dirs19path_from_args_typeINtNtCscB5GQJ98reT_7generic26struct_target_bound_fuzz__4ArgsNtB19_3FooINtB19_3BazB22_EEE0B19_
FNDA:0,_RNCINvNtCs7qDQvy6XYpV_18test_fuzz_internal4dirs19path_from_args_typeINtNtCscB5GQJ98reT_7generic33struct_target_where_clause_fuzz__4ArgsNtB19_3BarINtB19_3BazB29_EEE0B19_
FNDA:0,_RNCINvNtCs7qDQvy6XYpV_18test_fuzz_internal4dirs19path_from_args_typeINtNtCscB5GQJ98reT_7generic33struct_target_where_clause_fuzz__4ArgsNtB19_3FooINtB19_3BazB29_EEE0B19_
FNDA:0,_RNCINvNtCs7qDQvy6XYpV_18test_fuzz_internal4dirs19path_from_args_typeINtNtNtCscB5GQJ98reT_7generic27receiverless_trait_function20struct_target_fuzz__4ArgsNtB1b_3BarEE0B1b_
FNDA:0,_RNCINvNtCs7qDQvy6XYpV_18test_fuzz_internal4dirs19path_from_args_typeINtNvNtCscB5GQJ98reT_7generic14baz_qux_fuzz__10write_args4ArgsNtB1b_3BarEE0B1b_
FNDA:0,_RNCINvNtCs7qDQvy6XYpV_18test_fuzz_internal4dirs19path_from_args_typeINtNvNtCscB5GQJ98reT_7generic20struct_target_fuzz__10write_args4ArgsNtB1b_3BarEE0B1b_
FNDA:0,_RNCINvNtCs7qDQvy6XYpV_18test_fuzz_internal4dirs19path_from_args_typeINtNvNtCscB5GQJ98reT_7generic20struct_target_fuzz__10write_args4ArgsNtB1b_3FooEE0B1b_
FNDA:0,_RNCINvNtCs7qDQvy6XYpV_18test_fuzz_internal4dirs19path_from_args_typeINtNvNtCscB5GQJ98reT_7generic26struct_target_bound_fuzz__10write_args4ArgsNtB1b_3BarINtB1b_3BazB2g_EEE0B1b_
FNDA:0,_RNCINvNtCs7qDQvy6XYpV_18test_fuzz_internal4dirs19path_from_args_typeINtNvNtCscB5GQJ98reT_7generic26struct_target_bound_fuzz__10write_args4ArgsNtB1b_3FooINtB1b_3BazB2g_EEE0B1b_
FNDA:0,_RNCINvNtCs7qDQvy6XYpV_18test_fuzz_internal4dirs19path_from_args_typeINtNvNtCscB5GQJ98reT_7generic33struct_target_where_clause_fuzz__10write_args4ArgsNtB1b_3BarINtB1b_3BazB2n_EEE0B1b_
FNDA:0,_RNCINvNtCs7qDQvy6XYpV_18test_fuzz_internal4dirs19path_from_args_typeINtNvNtCscB5GQJ98reT_7generic33struct_target_where_clause_fuzz__10write_args4ArgsNtB1b_3FooINtB1b_3BazB2n_EEE0B1b_
FNDA:0,_RNCINvNtCs7qDQvy6XYpV_18test_fuzz_internal4dirs19path_from_args_typeINtNvNtNtCscB5GQJ98reT_7generic27receiverless_trait_function20struct_target_fuzz__10write_args4ArgsNtB1d_3BarEE0B1d_
FNDA:0,_RNCINvNtCs7qDQvy6XYpV_18test_fuzz_internal4dirs19path_from_args_typeNtNtCscB5GQJ98reT_7generic38struct_target_only_generic_args_fuzz__4ArgsE0B18_
FNDA:0,_RINvNtCs7tkdMjTuzcM_18test_fuzz_internal4dirs19path_from_args_typeNtNtCsb4uiOcbMbWE_11hello_world19intermediary_fuzz__4ArgsEB16_
FNDA:0,_RINvNtCs7tkdMjTuzcM_18test_fuzz_internal4dirs19path_from_args_typeNtNvNtCsb4uiOcbMbWE_11hello_world19intermediary_fuzz__10write_args4ArgsEB18_
FNDA:0,_RINvNtCs7tkdMjTuzcM_18test_fuzz_internal4dirs31corpus_directory_from_args_typeNtNvNtCsb4uiOcbMbWE_11hello_world19intermediary_fuzz__10write_args4ArgsEB1k_
FNDA:0,_RINvNtCs7tkdMjTuzcM_18test_fuzz_internal4dirs37generic_args_directory_from_args_typeNtNtCsb4uiOcbMbWE_11hello_world19intermediary_fuzz__4ArgsEB1o_
FNDA:0,_RINvNtCs7tkdMjTuzcM_18test_fuzz_internal4dirs42impl_generic_args_directory_from_args_typeNtNtCsb4uiOcbMbWE_11hello_world19intermediary_fuzz__4ArgsEB1t_
FNDA:0,_RNCINvNtCs7tkdMjTuzcM_18test_fuzz_internal4dirs19path_from_args_typeNtNtCsb4uiOcbMbWE_11hello_world19intermediary_fuzz__4ArgsE0B18_
FNDA:0,_RNCINvNtCs7tkdMjTuzcM_18test_fuzz_internal4dirs19path_from_args_typeNtNvNtCsb4uiOcbMbWE_11hello_world19intermediary_fuzz__10write_args4ArgsE0B1a_
FNDA:0,_RINvNtCs7qDQvy6XYpV_18test_fuzz_internal4dirs19path_from_args_typeNtNtCskdnhhtjhrrV_11hello_world19intermediary_fuzz__4ArgsEB16_
FNDA:0,_RINvNtCs7qDQvy6XYpV_18test_fuzz_internal4dirs19path_from_args_typeNtNvNtCskdnhhtjhrrV_11hello_world19intermediary_fuzz__10write_args4ArgsEB18_
FNDA:0,_RINvNtCs7qDQvy6XYpV_18test_fuzz_internal4dirs31corpus_directory_from_args_typeNtNvNtCskdnhhtjhrrV_11hello_world19intermediary_fuzz__10write_args4ArgsEB1k_
FNDA:0,_RINvNtCs7qDQvy6XYpV_18test_fuzz_internal4dirs37generic_args_directory_from_args_typeNtNtCskdnhhtjhrrV_11hello_world19intermediary_fuzz__4ArgsEB1o_
FNDA:0,_RINvNtCs7qDQvy6XYpV_18test_fuzz_internal4dirs42impl_generic_args_directory_from_args_typeNtNtCskdnhhtjhrrV_11hello_world19intermediary_fuzz__4ArgsEB1t_
FNDA:0,_RNCINvNtCs7qDQvy6XYpV_18test_fuzz_internal4dirs19path_from_args_typeNtNtCskdnhhtjhrrV_11hello_world19intermediary_fuzz__4ArgsE0B18_
FNDA:0,_RNCINvNtCs7qDQvy6XYpV_18test_fuzz_internal4dirs19path_from_args_typeNtNvNtCskdnhhtjhrrV_11hello_world19intermediary_fuzz__10write_args4ArgsE0B1a_
FNDA:0,_RINvNtCs7qDQvy6XYpV_18test_fuzz_internal4dirs19path_from_args_typeNtNtCsiqqUJoiizGn_11hello_world19intermediary_fuzz__4ArgsEB16_
FNDA:0,_RINvNtCs7qDQvy6XYpV_18test_fuzz_internal4dirs19path_from_args_typeNtNvNtCsiqqUJoiizGn_11hello_world19intermediary_fuzz__10write_args4ArgsEB18_
FNDA:0,_RINvNtCs7qDQvy6XYpV_18test_fuzz_internal4dirs31corpus_directory_from_args_typeNtNvNtCsiqqUJoiizGn_11hello_world19intermediary_fuzz__10write_args4ArgsEB1k_
FNDA:0,_RINvNtCs7qDQvy6XYpV_18test_fuzz_internal4dirs37generic_args_directory_from_args_typeNtNtCsiqqUJoiizGn_11hello_world19intermediary_fuzz__4ArgsEB1o_
FNDA:0,_RINvNtCs7qDQvy6XYpV_18test_fuzz_internal4dirs42impl_generic_args_directory_from_args_typeNtNtCsiqqUJoiizGn_11hello_world19intermediary_fuzz__4ArgsEB1t_
FNDA:0,_RNCINvNtCs7qDQvy6XYpV_18test_fuzz_internal4dirs19path_from_args_typeNtNtCsiqqUJoiizGn_11hello_world19intermediary_fuzz__4ArgsE0B18_
FNDA:0,_RNCINvNtCs7qDQvy6XYpV_18test_fuzz_internal4dirs19path_from_args_typeNtNvNtCsiqqUJoiizGn_11hello_world19intermediary_fuzz__10write_args4ArgsE0B1a_
FNDA:0,_RINvNtCs7qDQvy6XYpV_18test_fuzz_internal4dirs19path_from_args_typeNtNtCsk3BoTnCsiBy_11hello_world19intermediary_fuzz__4ArgsEB16_
FNDA:0,_RINvNtCs7qDQvy6XYpV_18test_fuzz_internal4dirs19path_from_args_typeNtNvNtCsk3BoTnCsiBy_11hello_world19intermediary_fuzz__10write_args4ArgsEB18_
FNDA:0,_RINvNtCs7qDQvy6XYpV_18test_fuzz_internal4dirs31corpus_directory_from_args_typeNtNvNtCsk3BoTnCsiBy_11hello_world19intermediary_fuzz__10write_args4ArgsEB1k_
FNDA:0,_RINvNtCs7qDQvy6XYpV_18test_fuzz_internal4dirs37generic_args_directory_from_args_typeNtNtCsk3BoTnCsiBy_11hello_world19intermediary_fuzz__4ArgsEB1o_
FNDA:0,_RINvNtCs7qDQvy6XYpV_18test_fuzz_internal4dirs42impl_generic_args_directory_from_args_typeNtNtCsk3BoTnCsiBy_11hello_world19intermediary_fuzz__4ArgsEB1t_
FNDA:0,_RNCINvNtCs7qDQvy6XYpV_18test_fuzz_internal4dirs19path_from_args_typeNtNtCsk3BoTnCsiBy_11hello_world19intermediary_fuzz__4ArgsE0B18_
FNDA:0,_RNCINvNtCs7qDQvy6XYpV_18test_fuzz_internal4dirs19path_from_args_typeNtNvNtCsk3BoTnCsiBy_11hello_world19intermediary_fuzz__10write_args4ArgsE0B1a_
FNDA:0,_RINvNtCs7qDQvy6XYpV_18test_fuzz_internal4dirs19path_from_args_typeNtNtCs6sCsrYIWXJb_11hello_world19intermediary_fuzz__4ArgsEB16_
FNDA:0,_RINvNtCs7qDQvy6XYpV_18test_fuzz_internal4dirs19path_from_args_typeNtNvNtCs6sCsrYIWXJb_11hello_world19intermediary_fuzz__10write_args4ArgsEB18_
FNDA:0,_RINvNtCs7qDQvy6XYpV_18test_fuzz_internal4dirs31corpus_directory_from_args_typeNtNvNtCs6sCsrYIWXJb_11hello_world19intermediary_fuzz__10write_args4ArgsEB1k_
FNDA:0,_RINvNtCs7qDQvy6XYpV_18test_fuzz_internal4dirs37generic_args_directory_from_args_typeNtNtCs6sCsrYIWXJb_11hello_world19intermediary_fuzz__4ArgsEB1o_
FNDA:0,_RINvNtCs7qDQvy6XYpV_18test_fuzz_internal4dirs42impl_generic_args_directory_from_args_typeNtNtCs6sCsrYIWXJb_11hello_world19intermediary_fuzz__4ArgsEB1t_
FNDA:0,_RNCINvNtCs7qDQvy6XYpV_18test_fuzz_internal4dirs19path_from_args_typeNtNtCs6sCsrYIWXJb_11hello_world19intermediary_fuzz__4ArgsE0B18_
FNDA:0,_RNCINvNtCs7qDQvy6XYpV_18test_fuzz_internal4dirs19path_from_args_typeNtNvNtCs6sCsrYIWXJb_11hello_world19intermediary_fuzz__10write_args4ArgsE0B1a_
FNDA:0,_RINvNtCs7tkdMjTuzcM_18test_fuzz_internal4dirs19path_from_args_typeNtNtCs8i4ARjknqvr_11hello_world19intermediary_fuzz__4ArgsEB16_
FNDA:0,_RINvNtCs7tkdMjTuzcM_18test_fuzz_internal4dirs19path_from_args_typeNtNvNtCs8i4ARjknqvr_11hello_world19intermediary_fuzz__10write_args4ArgsEB18_
FNDA:0,_RINvNtCs7tkdMjTuzcM_18test_fuzz_internal4dirs31corpus_directory_from_args_typeNtNvNtCs8i4ARjknqvr_11hello_world19intermediary_fuzz__10write_args4ArgsEB1k_
FNDA:0,_RINvNtCs7tkdMjTuzcM_18test_fuzz_internal4dirs37generic_args_directory_from_args_typeNtNtCs8i4ARjknqvr_11hello_world19intermediary_fuzz__4ArgsEB1o_
FNDA:0,_RINvNtCs7tkdMjTuzcM_18test_fuzz_internal4dirs42impl_generic_args_directory_from_args_typeNtNtCs8i4ARjknqvr_11hello_world19intermediary_fuzz__4ArgsEB1t_
FNDA:0,_RNCINvNtCs7tkdMjTuzcM_18test_fuzz_internal4dirs19path_from_args_typeNtNtCs8i4ARjknqvr_11hello_world19intermediary_fuzz__4ArgsE0B18_
FNDA:0,_RNCINvNtCs7tkdMjTuzcM_18test_fuzz_internal4dirs19path_from_args_typeNtNvNtCs8i4ARjknqvr_11hello_world19intermediary_fuzz__10write_args4ArgsE0B1a_
FNDA:0,_RINvNtCs7tkdMjTuzcM_18test_fuzz_internal4dirs19path_from_args_typeNtNtCsfEdnMwTDK26_8lifetime13target_fuzz__4ArgsEB16_
FNDA:0,_RINvNtCs7tkdMjTuzcM_18test_fuzz_internal4dirs19path_from_args_typeNtNvNtCsfEdnMwTDK26_8lifetime13target_fuzz__10write_args4ArgsEB18_
FNDA:0,_RINvNtCs7tkdMjTuzcM_18test_fuzz_internal4dirs31corpus_directory_from_args_typeNtNvNtCsfEdnMwTDK26_8lifetime13target_fuzz__10write_args4ArgsEB1k_
FNDA:0,_RINvNtCs7tkdMjTuzcM_18test_fuzz_internal4dirs37generic_args_directory_from_args_typeNtNtCsfEdnMwTDK26_8lifetime13target_fuzz__4ArgsEB1o_
FNDA:0,_RINvNtCs7tkdMjTuzcM_18test_fuzz_internal4dirs42impl_generic_args_directory_from_args_typeNtNtCsfEdnMwTDK26_8lifetime13target_fuzz__4ArgsEB1t_
FNDA:0,_RNCINvNtCs7tkdMjTuzcM_18test_fuzz_internal4dirs19path_from_args_typeNtNtCsfEdnMwTDK26_8lifetime13target_fuzz__4ArgsE0B18_
FNDA:0,_RNCINvNtCs7tkdMjTuzcM_18test_fuzz_internal4dirs19path_from_args_typeNtNvNtCsfEdnMwTDK26_8lifetime13target_fuzz__10write_args4ArgsE0B1a_
FNDA:0,_RINvNtCs7qDQvy6XYpV_18test_fuzz_internal4dirs19path_from_args_typeNtNtCseDVKP7ginzU_8lifetime13target_fuzz__4ArgsEB16_
FNDA:0,_RINvNtCs7qDQvy6XYpV_18test_fuzz_internal4dirs19path_from_args_typeNtNvNtCseDVKP7ginzU_8lifetime13target_fuzz__10write_args4ArgsEB18_
FNDA:0,_RINvNtCs7qDQvy6XYpV_18test_fuzz_internal4dirs31corpus_directory_from_args_typeNtNvNtCseDVKP7ginzU_8lifetime13target_fuzz__10write_args4ArgsEB1k_
FNDA:0,_RINvNtCs7qDQvy6XYpV_18test_fuzz_internal4dirs37generic_args_directory_from_args_typeNtNtCseDVKP7ginzU_8lifetime13target_fuzz__4ArgsEB1o_
FNDA:0,_RINvNtCs7qDQvy6XYpV_18test_fuzz_internal4dirs42impl_generic_args_directory_from_args_typeNtNtCseDVKP7ginzU_8lifetime13target_fuzz__4ArgsEB1t_
FNDA:0,_RNCINvNtCs7qDQvy6XYpV_18test_fuzz_internal4dirs19path_from_args_typeNtNtCseDVKP7ginzU_8lifetime13target_fuzz__4ArgsE0B18_
FNDA:0,_RNCINvNtCs7qDQvy6XYpV_18test_fuzz_internal4dirs19path_from_args_typeNtNvNtCseDVKP7ginzU_8lifetime13target_fuzz__10write_args4ArgsE0B1a_
FNDA:0,_RINvNtCs7qDQvy6XYpV_18test_fuzz_internal4dirs19path_from_args_typeNtNtCsakRZ1HSHWM_8lifetime13target_fuzz__4ArgsEB16_
FNDA:0,_RINvNtCs7qDQvy6XYpV_18test_fuzz_internal4dirs19path_from_args_typeNtNvNtCsakRZ1HSHWM_8lifetime13target_fuzz__10write_args4ArgsEB18_
FNDA:0,_RINvNtCs7qDQvy6XYpV_18test_fuzz_internal4dirs31corpus_directory_from_args_typeNtNvNtCsakRZ1HSHWM_8lifetime13target_fuzz__10write_args4ArgsEB1k_
FNDA:0,_RINvNtCs7qDQvy6XYpV_18test_fuzz_internal4dirs37generic_args_directory_from_args_typeNtNtCsakRZ1HSHWM_8lifetime13target_fuzz__4ArgsEB1o_
FNDA:0,_RINvNtCs7qDQvy6XYpV_18test_fuzz_internal4dirs42impl_generic_args_directory_from_args_typeNtNtCsakRZ1HSHWM_8lifetime13target_fuzz__4ArgsEB1t_
FNDA:0,_RNCINvNtCs7qDQvy6XYpV_18test_fuzz_internal4dirs19path_from_args_typeNtNtCsakRZ1HSHWM_8lifetime13target_fuzz__4ArgsE0B18_
FNDA:0,_RNCINvNtCs7qDQvy6XYpV_18test_fuzz_internal4dirs19path_from_args_typeNtNvNtCsakRZ1HSHWM_8lifetime13target_fuzz__10write_args4ArgsE0B1a_
FNDA:0,_RINvNtCs7qDQvy6XYpV_18test_fuzz_internal4dirs19path_from_args_typeNtNtCslH3njblBovr_11manual_leak23wrapped_key_dump_fuzz__4ArgsEB16_
FNDA:0,_RINvNtCs7qDQvy6XYpV_18test_fuzz_internal4dirs19path_from_args_typeNtNvNtCslH3njblBovr_11manual_leak23wrapped_key_dump_fuzz__10write_args4ArgsEB18_
FNDA:0,_RINvNtCs7qDQvy6XYpV_18test_fuzz_internal4dirs31corpus_directory_from_args_typeNtNvNtCslH3njblBovr_11manual_leak23wrapped_key_dump_fuzz__10write_args4ArgsEB1k_
FNDA:0,_RINvNtCs7qDQvy6XYpV_18test_fuzz_internal4dirs37generic_args_directory_from_args_typeNtNtCslH3njblBovr_11manual_leak23wrapped_key_dump_fuzz__4ArgsEB1o_
FNDA:0,_RINvNtCs7qDQvy6XYpV_18test_fuzz_internal4dirs42impl_generic_args_directory_from_args_typeNtNtCslH3njblBovr_11manual_leak23wrapped_key_dump_fuzz__4ArgsEB1t_
FNDA:0,_RNCINvNtCs7qDQvy6XYpV_18test_fuzz_internal4dirs19path_from_args_typeNtNtCslH3njblBovr_11manual_leak23wrapped_key_dump_fuzz__4ArgsE0B18_
FNDA:0,_RNCINvNtCs7qDQvy6XYpV_18test_fuzz_internal4dirs19path_from_args_typeNtNvNtCslH3njblBovr_11manual_leak23wrapped_key_dump_fuzz__10write_args4ArgsE0B1a_
FNDA:0,_RINvNtCs7qDQvy6XYpV_18test_fuzz_internal4dirs19path_from_args_typeNtNtCs1Ybj4Cjqhy0_11manual_leak23wrapped_key_dump_fuzz__4ArgsEB16_
FNDA:0,_RINvNtCs7qDQvy6XYpV_18test_fuzz_internal4dirs19path_from_args_typeNtNvNtCs1Ybj4Cjqhy0_11manual_leak23wrapped_key_dump_fuzz__10write_args4ArgsEB18_
FNDA:0,_RINvNtCs7qDQvy6XYpV_18test_fuzz_internal4dirs31corpus_directory_from_args_typeNtNvNtCs1Ybj4Cjqhy0_11manual_leak23wrapped_key_dump_fuzz__10write_args4ArgsEB1k_
FNDA:0,_RINvNtCs7qDQvy6XYpV_18test_fuzz_internal4dirs37generic_args_directory_from_args_typeNtNtCs1Ybj4Cjqhy0_11manual_leak23wrapped_key_dump_fuzz__4ArgsEB1o_
FNDA:0,_RINvNtCs7qDQvy6XYpV_18test_fuzz_internal4dirs42impl_generic_args_directory_from_args_typeNtNtCs1Ybj4Cjqhy0_11manual_leak23wrapped_key_dump_fuzz__4ArgsEB1t_
FNDA:0,_RNCINvNtCs7qDQvy6XYpV_18test_fuzz_internal4dirs19path_from_args_typeNtNtCs1Ybj4Cjqhy0_11manual_leak23wrapped_key_dump_fuzz__4ArgsE0B18_
FNDA:0,_RNCINvNtCs7qDQvy6XYpV_18test_fuzz_internal4dirs19path_from_args_typeNtNvNtCs1Ybj4Cjqhy0_11manual_leak23wrapped_key_dump_fuzz__10write_args4ArgsE0B1a_
FNDA:0,_RINvNtCs7tkdMjTuzcM_18test_fuzz_internal4dirs19path_from_args_typeNtNtCsf6WhrPqW4nR_11manual_leak23wrapped_key_dump_fuzz__4ArgsEB16_
FNDA:0,_RINvNtCs7tkdMjTuzcM_18test_fuzz_internal4dirs19path_from_args_typeNtNvNtCsf6WhrPqW4nR_11manual_leak23wrapped_key_dump_fuzz__10write_args4ArgsEB18_
FNDA:0,_RINvNtCs7tkdMjTuzcM_18test_fuzz_internal4dirs31corpus_directory_from_args_typeNtNvNtCsf6WhrPqW4nR_11manual_leak23wrapped_key_dump_fuzz__10write_args4ArgsEB1k_
FNDA:0,_RINvNtCs7tkdMjTuzcM_18test_fuzz_internal4dirs37generic_args_directory_from_args_typeNtNtCsf6WhrPqW4nR_11manual_leak23wrapped_key_dump_fuzz__4ArgsEB1o_
FNDA:0,_RINvNtCs7tkdMjTuzcM_18test_fuzz_internal4dirs42impl_generic_args_directory_from_args_typeNtNtCsf6WhrPqW4nR_11manual_leak23wrapped_key_dump_fuzz__4ArgsEB1t_
FNDA:0,_RNCINvNtCs7tkdMjTuzcM_18test_fuzz_internal4dirs19path_from_args_typeNtNtCsf6WhrPqW4nR_11manual_leak23wrapped_key_dump_fuzz__4ArgsE0B18_
FNDA:0,_RNCINvNtCs7tkdMjTuzcM_18test_fuzz_internal4dirs19path_from_args_typeNtNvNtCsf6WhrPqW4nR_11manual_leak23wrapped_key_dump_fuzz__10write_args4ArgsE0B1a_
FNDA:0,_RINvNtCs7tkdMjTuzcM_18test_fuzz_internal4dirs19path_from_args_typeNtNtCsg23ZCcRAAmp_7mut_ref17target_str_fuzz__4ArgsEB16_
FNDA:0,_RINvNtCs7tkdMjTuzcM_18test_fuzz_internal4dirs19path_from_args_typeNtNtCsg23ZCcRAAmp_7mut_ref19target_slice_fuzz__4ArgsEB16_
FNDA:0,_RINvNtCs7tkdMjTuzcM_18test_fuzz_internal4dirs19path_from_args_typeNtNvNtCsg23ZCcRAAmp_7mut_ref17target_str_fuzz__10write_args4ArgsEB18_
FNDA:0,_RINvNtCs7tkdMjTuzcM_18test_fuzz_internal4dirs19path_from_args_typeNtNvNtCsg23ZCcRAAmp_7mut_ref19target_slice_fuzz__10write_args4ArgsEB18_
FNDA:0,_RINvNtCs7tkdMjTuzcM_18test_fuzz_internal4dirs31corpus_directory_from_args_typeNtNvNtCsg23ZCcRAAmp_7mut_ref17target_str_fuzz__10write_args4ArgsEB1k_
FNDA:0,_RINvNtCs7tkdMjTuzcM_18test_fuzz_internal4dirs31corpus_directory_from_args_typeNtNvNtCsg23ZCcRAAmp_7mut_ref19target_slice_fuzz__10write_args4ArgsEB1k_
FNDA:0,_RINvNtCs7tkdMjTuzcM_18test_fuzz_internal4dirs37generic_args_directory_from_args_typeNtNtCsg23ZCcRAAmp_7mut_ref17target_str_fuzz__4ArgsEB1o_
FNDA:0,_RINvNtCs7tkdMjTuzcM_18test_fuzz_internal4dirs37generic_args_directory_from_args_typeNtNtCsg23ZCcRAAmp_7mut_ref19target_slice_fuzz__4ArgsEB1o_
FNDA:0,_RINvNtCs7tkdMjTuzcM_18test_fuzz_internal4dirs42impl_generic_args_directory_from_args_typeNtNtCsg23ZCcRAAmp_7mut_ref17target_str_fuzz__4ArgsEB1t_
FNDA:0,_RINvNtCs7tkdMjTuzcM_18test_fuzz_internal4dirs42impl_generic_args_directory_from_args_typeNtNtCsg23ZCcRAAmp_7mut_ref19target_slice_fuzz__4ArgsEB1t_
FNDA:0,_RNCINvNtCs7tkdMjTuzcM_18test_fuzz_internal4dirs19path_from_args_typeNtNtCsg23ZCcRAAmp_7mut_ref17target_str_fuzz__4ArgsE0B18_
FNDA:0,_RNCINvNtCs7tkdMjTuzcM_18test_fuzz_internal4dirs19path_from_args_typeNtNtCsg23ZCcRAAmp_7mut_ref19target_slice_fuzz__4ArgsE0B18_
FNDA:0,_RNCINvNtCs7tkdMjTuzcM_18test_fuzz_internal4dirs19path_from_args_typeNtNvNtCsg23ZCcRAAmp_7mut_ref17target_str_fuzz__10write_args4ArgsE0B1a_
FNDA:0,_RNCINvNtCs7tkdMjTuzcM_18test_fuzz_internal4dirs19path_from_args_typeNtNvNtCsg23ZCcRAAmp_7mut_ref19target_slice_fuzz__10write_args4ArgsE0B1a_
FNDA:0,_RINvNtCs7qDQvy6XYpV_18test_fuzz_internal4dirs19path_from_args_typeNtNtCsaOt0l7p9qaW_7mut_ref17target_str_fuzz__4ArgsEB16_
FNDA:0,_RINvNtCs7qDQvy6XYpV_18test_fuzz_internal4dirs19path_from_args_typeNtNtCsaOt0l7p9qaW_7mut_ref19target_slice_fuzz__4ArgsEB16_
FNDA:0,_RINvNtCs7qDQvy6XYpV_18test_fuzz_internal4dirs19path_from_args_typeNtNvNtCsaOt0l7p9qaW_7mut_ref17target_str_fuzz__10write_args4ArgsEB18_
FNDA:0,_RINvNtCs7qDQvy6XYpV_18test_fuzz_internal4dirs19path_from_args_typeNtNvNtCsaOt0l7p9qaW_7mut_ref19target_slice_fuzz__10write_args4ArgsEB18_
FNDA:0,_RINvNtCs7qDQvy6XYpV_18test_fuzz_internal4dirs31corpus_directory_from_args_typeNtNvNtCsaOt0l7p9qaW_7mut_ref17target_str_fuzz__10write_args4ArgsEB1k_
FNDA:0,_RINvNtCs7qDQvy6XYpV_18test_fuzz_internal4dirs31corpus_directory_from_args_typeNtNvNtCsaOt0l7p9qaW_7mut_ref19target_slice_fuzz__10write_args4ArgsEB1k_
FNDA:0,_RINvNtCs7qDQvy6XYpV_18test_fuzz_internal4dirs37generic_args_directory_from_args_typeNtNtCsaOt0l7p9qaW_7mut_ref17target_str_fuzz__4ArgsEB1o_
FNDA:0,_RINvNtCs7qDQvy6XYpV_18test_fuzz_internal4dirs37generic_args_directory_from_args_typeNtNtCsaOt0l7p9qaW_7mut_ref19target_slice_fuzz__4ArgsEB1o_
FNDA:0,_RINvNtCs7qDQvy6XYpV_18test_fuzz_internal4dirs42impl_generic_args_directory_from_args_typeNtNtCsaOt0l7p9qaW_7mut_ref17target_str_fuzz__4ArgsEB1t_
FNDA:0,_RINvNtCs7qDQvy6XYpV_18test_fuzz_internal4dirs42impl_generic_args_directory_from_args_typeNtNtCsaOt0l7p9qaW_7mut_ref19target_slice_fuzz__4ArgsEB1t_
FNDA:0,_RNCINvNtCs7qDQvy6XYpV_18test_fuzz_internal4dirs19path_from_args_typeNtNtCsaOt0l7p9qaW_7mut_ref17target_str_fuzz__4ArgsE0B18_
FNDA:0,_RNCINvNtCs7qDQvy6XYpV_18test_fuzz_internal4dirs19path_from_args_typeNtNtCsaOt0l7p9qaW_7mut_ref19target_slice_fuzz__4ArgsE0B18_
FNDA:0,_RNCINvNtCs7qDQvy6XYpV_18test_fuzz_internal4dirs19path_from_args_typeNtNvNtCsaOt0l7p9qaW_7mut_ref17target_str_fuzz__10write_args4ArgsE0B1a_
FNDA:0,_RNCINvNtCs7qDQvy6XYpV_18test_fuzz_internal4dirs19path_from_args_typeNtNvNtCsaOt0l7p9qaW_7mut_ref19target_slice_fuzz__10write_args4ArgsE0B1a_
FNDA:0,_RINvNtCs7qDQvy6XYpV_18test_fuzz_internal4dirs19path_from_args_typeNtNtCskXmci1TBXcM_7mut_ref17target_str_fuzz__4ArgsEB16_
FNDA:0,_RINvNtCs7qDQvy6XYpV_18test_fuzz_internal4dirs19path_from_args_typeNtNtCskXmci1TBXcM_7mut_ref19target_slice_fuzz__4ArgsEB16_
FNDA:0,_RINvNtCs7qDQvy6XYpV_18test_fuzz_internal4dirs19path_from_args_typeNtNvNtCskXmci1TBXcM_7mut_ref17target_str_fuzz__10write_args4ArgsEB18_
FNDA:0,_RINvNtCs7qDQvy6XYpV_18test_fuzz_internal4dirs19path_from_args_typeNtNvNtCskXmci1TBXcM_7mut_ref19target_slice_fuzz__10write_args4ArgsEB18_
FNDA:0,_RINvNtCs7qDQvy6XYpV_18test_fuzz_internal4dirs31corpus_directory_from_args_typeNtNvNtCskXmci1TBXcM_7mut_ref17target_str_fuzz__10write_args4ArgsEB1k_
FNDA:0,_RINvNtCs7qDQvy6XYpV_18test_fuzz_internal4dirs31corpus_directory_from_args_typeNtNvNtCskXmci1TBXcM_7mut_ref19target_slice_fuzz__10write_args4ArgsEB1k_
FNDA:0,_RINvNtCs7qDQvy6XYpV_18test_fuzz_internal4dirs37generic_args_directory_from_args_typeNtNtCskXmci1TBXcM_7mut_ref17target_str_fuzz__4ArgsEB1o_
FNDA:0,_RINvNtCs7qDQvy6XYpV_18test_fuzz_internal4dirs37generic_args_directory_from_args_typeNtNtCskXmci1TBXcM_7mut_ref19target_slice_fuzz__4ArgsEB1o_
FNDA:0,_RINvNtCs7qDQvy6XYpV_18test_fuzz_internal4dirs42impl_generic_args_directory_from_args_typeNtNtCskXmci1TBXcM_7mut_ref17target_str_fuzz__4ArgsEB1t_
FNDA:0,_RINvNtCs7qDQvy6XYpV_18test_fuzz_internal4dirs42impl_generic_args_directory_from_args_typeNtNtCskXmci1TBXcM_7mut_ref19target_slice_fuzz__4ArgsEB1t_
FNDA:0,_RNCINvNtCs7qDQvy6XYpV_18test_fuzz_internal4dirs19path_from_args_typeNtNtCskXmci1TBXcM_7mut_ref17target_str_fuzz__4ArgsE0B18_
FNDA:0,_RNCINvNtCs7qDQvy6XYpV_18test_fuzz_internal4dirs19path_from_args_typeNtNtCskXmci1TBXcM_7mut_ref19target_slice_fuzz__4ArgsE0B18_
FNDA:0,_RNCINvNtCs7qDQvy6XYpV_18test_fuzz_internal4dirs19path_from_args_typeNtNvNtCskXmci1TBXcM_7mut_ref17target_str_fuzz__10write_args4ArgsE0B1a_
FNDA:0,_RNCINvNtCs7qDQvy6XYpV_18test_fuzz_internal4dirs19path_from_args_typeNtNvNtCskXmci1TBXcM_7mut_ref19target_slice_fuzz__10write_args4ArgsE0B1a_
FNDA:0,_RINvNtCs7qDQvy6XYpV_18test_fuzz_internal4dirs19path_from_args_typeNtNtCs6Qj1qJpbMOz_8parallel15target_0_fuzz__4ArgsEB16_
FNDA:0,_RINvNtCs7qDQvy6XYpV_18test_fuzz_internal4dirs19path_from_args_typeNtNtCs6Qj1qJpbMOz_8parallel15target_1_fuzz__4ArgsEB16_
FNDA:0,_RINvNtCs7qDQvy6XYpV_18test_fuzz_internal4dirs19path_from_args_typeNtNtCs6Qj1qJpbMOz_8parallel15target_2_fuzz__4ArgsEB16_
FNDA:0,_RINvNtCs7qDQvy6XYpV_18test_fuzz_internal4dirs19path_from_args_typeNtNtCs6Qj1qJpbMOz_8parallel15target_3_fuzz__4ArgsEB16_
FNDA:0,_RINvNtCs7qDQvy6XYpV_18test_fuzz_internal4dirs19path_from_args_typeNtNtCs6Qj1qJpbMOz_8parallel15target_4_fuzz__4ArgsEB16_
FNDA:0,_RINvNtCs7qDQvy6XYpV_18test_fuzz_internal4dirs19path_from_args_typeNtNtCs6Qj1qJpbMOz_8parallel15target_5_fuzz__4ArgsEB16_
FNDA:0,_RINvNtCs7qDQvy6XYpV_18test_fuzz_internal4dirs19path_from_args_typeNtNvNtCs6Qj1qJpbMOz_8parallel15target_0_fuzz__10write_args4ArgsEB18_
FNDA:0,_RINvNtCs7qDQvy6XYpV_18test_fuzz_internal4dirs19path_from_args_typeNtNvNtCs6Qj1qJpbMOz_8parallel15target_1_fuzz__10write_args4ArgsEB18_
FNDA:0,_RINvNtCs7qDQvy6XYpV_18test_fuzz_internal4dirs19path_from_args_typeNtNvNtCs6Qj1qJpbMOz_8parallel15target_2_fuzz__10write_args4ArgsEB18_
FNDA:0,_RINvNtCs7qDQvy6XYpV_18test_fuzz_internal4dirs19path_from_args_typeNtNvNtCs6Qj1qJpbMOz_8parallel15target_3_fuzz__10write_args4ArgsEB18_
FNDA:0,_RINvNtCs7qDQvy6XYpV_18test_fuzz_internal4dirs19path_from_args_typeNtNvNtCs6Qj1qJpbMOz_8parallel15target_4_fuzz__10write_args4ArgsEB18_
FNDA:0,_RINvNtCs7qDQvy6XYpV_18test_fuzz_internal4dirs19path_from_args_typeNtNvNtCs6Qj1qJpbMOz_8parallel15target_5_fuzz__10write_args4ArgsEB18_
FNDA:0,_RINvNtCs7qDQvy6XYpV_18test_fuzz_internal4dirs31corpus_directory_from_args_typeNtNvNtCs6Qj1qJpbMOz_8parallel15target_0_fuzz__10write_args4ArgsEB1k_
FNDA:0,_RINvNtCs7qDQvy6XYpV_18test_fuzz_internal4dirs31corpus_directory_from_args_typeNtNvNtCs6Qj1qJpbMOz_8parallel15target_1_fuzz__10write_args4ArgsEB1k_
FNDA:0,_RINvNtCs7qDQvy6XYpV_18test_fuzz_internal4dirs31corpus_directory_from_args_typeNtNvNtCs6Qj1qJpbMOz_8parallel15target_2_fuzz__10write_args4ArgsEB1k_
FNDA:0,_RINvNtCs7qDQvy6XYpV_18test_fuzz_internal4dirs31corpus_directory_from_args_typeNtNvNtCs6Qj1qJpbMOz_8parallel15target_3_fuzz__10write_args4ArgsEB1k_
FNDA:0,_RINvNtCs7qDQvy6XYpV_18test_fuzz_internal4dirs31corpus_directory_from_args_typeNtNvNtCs6Qj1qJpbMOz_8parallel15target_4_fuzz__10write_args4ArgsEB1k_
FNDA:0,_RINvNtCs7qDQvy6XYpV_18test_fuzz_internal4dirs31corpus_directory_from_args_typeNtNvNtCs6Qj1qJpbMOz_8parallel15target_5_fuzz__10write_args4ArgsEB1k_
FNDA:0,_RINvNtCs7qDQvy6XYpV_18test_fuzz_internal4dirs37generic_args_directory_from_args_typeNtNtCs6Qj1qJpbMOz_8parallel15target_0_fuzz__4ArgsEB1o_
FNDA:0,_RINvNtCs7qDQvy6XYpV_18test_fuzz_internal4dirs37generic_args_directory_from_args_typeNtNtCs6Qj1qJpbMOz_8parallel15target_1_fuzz__4ArgsEB1o_
FNDA:0,_RINvNtCs7qDQvy6XYpV_18test_fuzz_internal4dirs37generic_args_directory_from_args_typeNtNtCs6Qj1qJpbMOz_8parallel15target_2_fuzz__4ArgsEB1o_
FNDA:0,_RINvNtCs7qDQvy6XYpV_18test_fuzz_internal4dirs37generic_args_directory_from_args_typeNtNtCs6Qj1qJpbMOz_8parallel15target_3_fuzz__4ArgsEB1o_
FNDA:0,_RINvNtCs7qDQvy6XYpV_18test_fuzz_internal4dirs37generic_args_directory_from_args_typeNtNtCs6Qj1qJpbMOz_8parallel15target_4_fuzz__4ArgsEB1o_
FNDA:0,_RINvNtCs7qDQvy6XYpV_18test_fuzz_internal4dirs37generic_args_directory_from_args_typeNtNtCs6Qj1qJpbMOz_8parallel15target_5_fuzz__4ArgsEB1o_
FNDA:0,_RINvNtCs7qDQvy6XYpV_18test_fuzz_internal4dirs42impl_generic_args_directory_from_args_typeNtNtCs6Qj1qJpbMOz_8parallel15target_0_fuzz__4ArgsEB1t_
FNDA:0,_RINvNtCs7qDQvy6XYpV_18test_fuzz_internal4dirs42impl_generic_args_directory_from_args_typeNtNtCs6Qj1qJpbMOz_8parallel15target_1_fuzz__4ArgsEB1t_
FNDA:0,_RINvNtCs7qDQvy6XYpV_18test_fuzz_internal4dirs42impl_generic_args_directory_from_args_typeNtNtCs6Qj1qJpbMOz_8parallel15target_2_fuzz__4ArgsEB1t_
FNDA:0,_RINvNtCs7qDQvy6XYpV_18test_fuzz_internal4dirs42impl_generic_args_directory_from_args_typeNtNtCs6Qj1qJpbMOz_8parallel15target_3_fuzz__4ArgsEB1t_
FNDA:0,_RINvNtCs7qDQvy6XYpV_18test_fuzz_internal4dirs42impl_generic_args_directory_from_args_typeNtNtCs6Qj1qJpbMOz_8parallel15target_4_fuzz__4ArgsEB1t_
FNDA:0,_RINvNtCs7qDQvy6XYpV_18test_fuzz_internal4dirs42impl_generic_args_directory_from_args_typeNtNtCs6Qj1qJpbMOz_8parallel15target_5_fuzz__4ArgsEB1t_
FNDA:0,_RNCINvNtCs7qDQvy6XYpV_18test_fuzz_internal4dirs19path_from_args_typeNtNtCs6Qj1qJpbMOz_8parallel15target_0_fuzz__4ArgsE0B18_
FNDA:0,_RNCINvNtCs7qDQvy6XYpV_18test_fuzz_internal4dirs19path_from_args_typeNtNtCs6Qj1qJpbMOz_8parallel15target_1_fuzz__4ArgsE0B18_
FNDA:0,_RNCINvNtCs7qDQvy6XYpV_18test_fuzz_internal4dirs19path_from_args_typeNtNtCs6Qj1qJpbMOz_8parallel15target_2_fuzz__4ArgsE0B18_
FNDA:0,_RNCINvNtCs7qDQvy6XYpV_18test_fuzz_internal4dirs19path_from_args_typeNtNtCs6Qj1qJpbMOz_8parallel15target_3_fuzz__4ArgsE0B18_
FNDA:0,_RNCINvNtCs7qDQvy6XYpV_18test_fuzz_internal4dirs19path_from_args_typeNtNtCs6Qj1qJpbMOz_8parallel15target_4_fuzz__4ArgsE0B18_
FNDA:0,_RNCINvNtCs7qDQvy6XYpV_18test_fuzz_internal4dirs19path_from_args_typeNtNtCs6Qj1qJpbMOz_8parallel15target_5_fuzz__4ArgsE0B18_
FNDA:0,_RNCINvNtCs7qDQvy6XYpV_18test_fuzz_internal4dirs19path_from_args_typeNtNvNtCs6Qj1qJpbMOz_8parallel15target_0_fuzz__10write_args4ArgsE0B1a_
FNDA:0,_RNCINvNtCs7qDQvy6XYpV_18test_fuzz_internal4dirs19path_from_args_typeNtNvNtCs6Qj1qJpbMOz_8parallel15target_1_fuzz__10write_args4ArgsE0B1a_
FNDA:0,_RNCINvNtCs7qDQvy6XYpV_18test_fuzz_internal4dirs19path_from_args_typeNtNvNtCs6Qj1qJpbMOz_8parallel15target_2_fuzz__10write_args4ArgsE0B1a_
FNDA:0,_RNCINvNtCs7qDQvy6XYpV_18test_fuzz_internal4dirs19path_from_args_typeNtNvNtCs6Qj1qJpbMOz_8parallel15target_3_fuzz__10write_args4ArgsE0B1a_
FNDA:0,_RNCINvNtCs7qDQvy6XYpV_18test_fuzz_internal4dirs19path_from_args_typeNtNvNtCs6Qj1qJpbMOz_8parallel15target_4_fuzz__10write_args4ArgsE0B1a_
FNDA:0,_RNCINvNtCs7qDQvy6XYpV_18test_fuzz_internal4dirs19path_from_args_typeNtNvNtCs6Qj1qJpbMOz_8parallel15target_5_fuzz__10write_args4ArgsE0B1a_
FNDA:0,_RINvNtCs7tkdMjTuzcM_18test_fuzz_internal4dirs19path_from_args_typeNtNtCsd2EalhRLfqm_8parallel15target_0_fuzz__4ArgsEB16_
FNDA:0,_RINvNtCs7tkdMjTuzcM_18test_fuzz_internal4dirs19path_from_args_typeNtNtCsd2EalhRLfqm_8parallel15target_1_fuzz__4ArgsEB16_
FNDA:0,_RINvNtCs7tkdMjTuzcM_18test_fuzz_internal4dirs19path_from_args_typeNtNtCsd2EalhRLfqm_8parallel15target_2_fuzz__4ArgsEB16_
FNDA:0,_RINvNtCs7tkdMjTuzcM_18test_fuzz_internal4dirs19path_from_args_typeNtNtCsd2EalhRLfqm_8parallel15target_3_fuzz__4ArgsEB16_
FNDA:0,_RINvNtCs7tkdMjTuzcM_18test_fuzz_internal4dirs19path_from_args_typeNtNtCsd2EalhRLfqm_8parallel15target_4_fuzz__4ArgsEB16_
FNDA:0,_RINvNtCs7tkdMjTuzcM_18test_fuzz_internal4dirs19path_from_args_typeNtNtCsd2EalhRLfqm_8parallel15target_5_fuzz__4ArgsEB16_
FNDA:0,_RINvNtCs7tkdMjTuzcM_18test_fuzz_internal4dirs19path_from_args_typeNtNvNtCsd2EalhRLfqm_8parallel15target_0_fuzz__10write_args4ArgsEB18_
FNDA:0,_RINvNtCs7tkdMjTuzcM_18test_fuzz_internal4dirs19path_from_args_typeNtNvNtCsd2EalhRLfqm_8parallel15target_1_fuzz__10write_args4ArgsEB18_
FNDA:0,_RINvNtCs7tkdMjTuzcM_18test_fuzz_internal4dirs19path_from_args_typeNtNvNtCsd2EalhRLfqm_8parallel15target_2_fuzz__10write_args4ArgsEB18_
FNDA:0,_RINvNtCs7tkdMjTuzcM_18test_fuzz_internal4dirs19path_from_args_typeNtNvNtCsd2EalhRLfqm_8parallel15target_3_fuzz__10write_args4ArgsEB18_
FNDA:0,_RINvNtCs7tkdMjTuzcM_18test_fuzz_internal4dirs19path_from_args_typeNtNvNtCsd2EalhRLfqm_8parallel15target_4_fuzz__10write_args4ArgsEB18_
FNDA:0,_RINvNtCs7tkdMjTuzcM_18test_fuzz_internal4dirs19path_from_args_typeNtNvNtCsd2EalhRLfqm_8parallel15target_5_fuzz__10write_args4ArgsEB18_
FNDA:0,_RINvNtCs7tkdMjTuzcM_18test_fuzz_internal4dirs31corpus_directory_from_args_typeNtNvNtCsd2EalhRLfqm_8parallel15target_0_fuzz__10write_args4ArgsEB1k_
FNDA:0,_RINvNtCs7tkdMjTuzcM_18test_fuzz_internal4dirs31corpus_directory_from_args_typeNtNvNtCsd2EalhRLfqm_8parallel15target_1_fuzz__10write_args4ArgsEB1k_
FNDA:0,_RINvNtCs7tkdMjTuzcM_18test_fuzz_internal4dirs31corpus_directory_from_args_typeNtNvNtCsd2EalhRLfqm_8parallel15target_2_fuzz__10write_args4ArgsEB1k_
FNDA:0,_RINvNtCs7tkdMjTuzcM_18test_fuzz_internal4dirs31corpus_directory_from_args_typeNtNvNtCsd2EalhRLfqm_8parallel15target_3_fuzz__10write_args4ArgsEB1k_
FNDA:0,_RINvNtCs7tkdMjTuzcM_18test_fuzz_internal4dirs31corpus_directory_from_args_typeNtNvNtCsd2EalhRLfqm_8parallel15target_4_fuzz__10write_args4ArgsEB1k_
FNDA:0,_RINvNtCs7tkdMjTuzcM_18test_fuzz_internal4dirs31corpus_directory_from_args_typeNtNvNtCsd2EalhRLfqm_8parallel15target_5_fuzz__10write_args4ArgsEB1k_
FNDA:0,_RINvNtCs7tkdMjTuzcM_18test_fuzz_internal4dirs37generic_args_directory_from_args_typeNtNtCsd2EalhRLfqm_8parallel15target_0_fuzz__4ArgsEB1o_
FNDA:0,_RINvNtCs7tkdMjTuzcM_18test_fuzz_internal4dirs37generic_args_directory_from_args_typeNtNtCsd2EalhRLfqm_8parallel15target_1_fuzz__4ArgsEB1o_
FNDA:0,_RINvNtCs7tkdMjTuzcM_18test_fuzz_internal4dirs37generic_args_directory_from_args_typeNtNtCsd2EalhRLfqm_8parallel15target_2_fuzz__4ArgsEB1o_
FNDA:0,_RINvNtCs7tkdMjTuzcM_18test_fuzz_internal4dirs37generic_args_directory_from_args_typeNtNtCsd2EalhRLfqm_8parallel15target_3_fuzz__4ArgsEB1o_
FNDA:0,_RINvNtCs7tkdMjTuzcM_18test_fuzz_internal4dirs37generic_args_directory_from_args_typeNtNtCsd2EalhRLfqm_8parallel15target_4_fuzz__4ArgsEB1o_
FNDA:0,_RINvNtCs7tkdMjTuzcM_18test_fuzz_internal4dirs37generic_args_directory_from_args_typeNtNtCsd2EalhRLfqm_8parallel15target_5_fuzz__4ArgsEB1o_
FNDA:0,_RINvNtCs7tkdMjTuzcM_18test_fuzz_internal4dirs42impl_generic_args_directory_from_args_typeNtNtCsd2EalhRLfqm_8parallel15target_0_fuzz__4ArgsEB1t_
FNDA:0,_RINvNtCs7tkdMjTuzcM_18test_fuzz_internal4dirs42impl_generic_args_directory_from_args_typeNtNtCsd2EalhRLfqm_8parallel15target_1_fuzz__4ArgsEB1t_
FNDA:0,_RINvNtCs7tkdMjTuzcM_18test_fuzz_internal4dirs42impl_generic_args_directory_from_args_typeNtNtCsd2EalhRLfqm_8parallel15target_2_fuzz__4ArgsEB1t_
FNDA:0,_RINvNtCs7tkdMjTuzcM_18test_fuzz_internal4dirs42impl_generic_args_directory_from_args_typeNtNtCsd2EalhRLfqm_8parallel15target_3_fuzz__4ArgsEB1t_
FNDA:0,_RINvNtCs7tkdMjTuzcM_18test_fuzz_internal4dirs42impl_generic_args_directory_from_args_typeNtNtCsd2EalhRLfqm_8parallel15target_4_fuzz__4ArgsEB1t_
FNDA:0,_RINvNtCs7tkdMjTuzcM_18test_fuzz_internal4dirs42impl_generic_args_directory_from_args_typeNtNtCsd2EalhRLfqm_8parallel15target_5_fuzz__4ArgsEB1t_
FNDA:0,_RNCINvNtCs7tkdMjTuzcM_18test_fuzz_internal4dirs19path_from_args_typeNtNtCsd2EalhRLfqm_8parallel15target_0_fuzz__4ArgsE0B18_
FNDA:0,_RNCINvNtCs7tkdMjTuzcM_18test_fuzz_internal4dirs19path_from_args_typeNtNtCsd2EalhRLfqm_8parallel15target_1_fuzz__4ArgsE0B18_
FNDA:0,_RNCINvNtCs7tkdMjTuzcM_18test_fuzz_internal4dirs19path_from_args_typeNtNtCsd2EalhRLfqm_8parallel15target_2_fuzz__4ArgsE0B18_
FNDA:0,_RNCINvNtCs7tkdMjTuzcM_18test_fuzz_internal4dirs19path_from_args_typeNtNtCsd2EalhRLfqm_8parallel15target_3_fuzz__4ArgsE0B18_
FNDA:0,_RNCINvNtCs7tkdMjTuzcM_18test_fuzz_internal4dirs19path_from_args_typeNtNtCsd2EalhRLfqm_8parallel15target_4_fuzz__4ArgsE0B18_
FNDA:0,_RNCINvNtCs7tkdMjTuzcM_18test_fuzz_internal4dirs19path_from_args_typeNtNtCsd2EalhRLfqm_8parallel15target_5_fuzz__4ArgsE0B18_
FNDA:0,_RNCINvNtCs7tkdMjTuzcM_18test_fuzz_internal4dirs19path_from_args_typeNtNvNtCsd2EalhRLfqm_8parallel15target_0_fuzz__10write_args4ArgsE0B1a_
FNDA:0,_RNCINvNtCs7tkdMjTuzcM_18test_fuzz_internal4dirs19path_from_args_typeNtNvNtCsd2EalhRLfqm_8parallel15target_1_fuzz__10write_args4ArgsE0B1a_
FNDA:0,_RNCINvNtCs7tkdMjTuzcM_18test_fuzz_internal4dirs19path_from_args_typeNtNvNtCsd2EalhRLfqm_8parallel15target_2_fuzz__10write_args4ArgsE0B1a_
FNDA:0,_RNCINvNtCs7tkdMjTuzcM_18test_fuzz_internal4dirs19path_from_args_typeNtNvNtCsd2EalhRLfqm_8parallel15target_3_fuzz__10write_args4ArgsE0B1a_
FNDA:0,_RNCINvNtCs7tkdMjTuzcM_18test_fuzz_internal4dirs19path_from_args_typeNtNvNtCsd2EalhRLfqm_8parallel15target_4_fuzz__10write_args4ArgsE0B1a_
FNDA:0,_RNCINvNtCs7tkdMjTuzcM_18test_fuzz_internal4dirs19path_from_args_typeNtNvNtCsd2EalhRLfqm_8parallel15target_5_fuzz__10write_args4ArgsE0B1a_
FNDA:0,_RINvNtCs7qDQvy6XYpV_18test_fuzz_internal4dirs19path_from_args_typeNtNtCsli0t1whKaEh_8parallel15target_0_fuzz__4ArgsEB16_
FNDA:0,_RINvNtCs7qDQvy6XYpV_18test_fuzz_internal4dirs19path_from_args_typeNtNtCsli0t1whKaEh_8parallel15target_1_fuzz__4ArgsEB16_
FNDA:0,_RINvNtCs7qDQvy6XYpV_18test_fuzz_internal4dirs19path_from_args_typeNtNtCsli0t1whKaEh_8parallel15target_2_fuzz__4ArgsEB16_
FNDA:0,_RINvNtCs7qDQvy6XYpV_18test_fuzz_internal4dirs19path_from_args_typeNtNtCsli0t1whKaEh_8parallel15target_3_fuzz__4ArgsEB16_
FNDA:0,_RINvNtCs7qDQvy6XYpV_18test_fuzz_internal4dirs19path_from_args_typeNtNtCsli0t1whKaEh_8parallel15target_4_fuzz__4ArgsEB16_
FNDA:0,_RINvNtCs7qDQvy6XYpV_18test_fuzz_internal4dirs19path_from_args_typeNtNtCsli0t1whKaEh_8parallel15target_5_fuzz__4ArgsEB16_
FNDA:0,_RINvNtCs7qDQvy6XYpV_18test_fuzz_internal4dirs19path_from_args_typeNtNvNtCsli0t1whKaEh_8parallel15target_0_fuzz__10write_args4ArgsEB18_
FNDA:0,_RINvNtCs7qDQvy6XYpV_18test_fuzz_internal4dirs19path_from_args_typeNtNvNtCsli0t1whKaEh_8parallel15target_1_fuzz__10write_args4ArgsEB18_
FNDA:0,_RINvNtCs7qDQvy6XYpV_18test_fuzz_internal4dirs19path_from_args_typeNtNvNtCsli0t1whKaEh_8parallel15target_2_fuzz__10write_args4ArgsEB18_
FNDA:0,_RINvNtCs7qDQvy6XYpV_18test_fuzz_internal4dirs19path_from_args_typeNtNvNtCsli0t1whKaEh_8parallel15target_3_fuzz__10write_args4ArgsEB18_
FNDA:0,_RINvNtCs7qDQvy6XYpV_18test_fuzz_internal4dirs19path_from_args_typeNtNvNtCsli0t1whKaEh_8parallel15target_4_fuzz__10write_args4ArgsEB18_
FNDA:0,_RINvNtCs7qDQvy6XYpV_18test_fuzz_internal4dirs19path_from_args_typeNtNvNtCsli0t1whKaEh_8parallel15target_5_fuzz__10write_args4ArgsEB18_
FNDA:0,_RINvNtCs7qDQvy6XYpV_18test_fuzz_internal4dirs31corpus_directory_from_args_typeNtNvNtCsli0t1whKaEh_8parallel15target_0_fuzz__10write_args4ArgsEB1k_
FNDA:0,_RINvNtCs7qDQvy6XYpV_18test_fuzz_internal4dirs31corpus_directory_from_args_typeNtNvNtCsli0t1whKaEh_8parallel15target_1_fuzz__10write_args4ArgsEB1k_
FNDA:0,_RINvNtCs7qDQvy6XYpV_18test_fuzz_internal4dirs31corpus_directory_from_args_typeNtNvNtCsli0t1whKaEh_8parallel15target_2_fuzz__10write_args4ArgsEB1k_
FNDA:0,_RINvNtCs7qDQvy6XYpV_18test_fuzz_internal4dirs31corpus_directory_from_args_typeNtNvNtCsli0t1whKaEh_8parallel15target_3_fuzz__10write_args4ArgsEB1k_
FNDA:0,_RINvNtCs7qDQvy6XYpV_18test_fuzz_internal4dirs31corpus_directory_from_args_typeNtNvNtCsli0t1whKaEh_8parallel15target_4_fuzz__10write_args4ArgsEB1k_
FNDA:0,_RINvNtCs7qDQvy6XYpV_18test_fuzz_internal4dirs31corpus_directory_from_args_typeNtNvNtCsli0t1whKaEh_8parallel15target_5_fuzz__10write_args4ArgsEB1k_
FNDA:0,_RINvNtCs7qDQvy6XYpV_18test_fuzz_internal4dirs37generic_args_directory_from_args_typeNtNtCsli0t1whKaEh_8parallel15target_0_fuzz__4ArgsEB1o_
FNDA:0,_RINvNtCs7qDQvy6XYpV_18test_fuzz_internal4dirs37generic_args_directory_from_args_typeNtNtCsli0t1whKaEh_8parallel15target_1_fuzz__4ArgsEB1o_
FNDA:0,_RINvNtCs7qDQvy6XYpV_18test_fuzz_internal4dirs37generic_args_directory_from_args_typeNtNtCsli0t1whKaEh_8parallel15target_2_fuzz__4ArgsEB1o_
FNDA:0,_RINvNtCs7qDQvy6XYpV_18test_fuzz_internal4dirs37generic_args_directory_from_args_typeNtNtCsli0t1whKaEh_8parallel15target_3_fuzz__4ArgsEB1o_
FNDA:0,_RINvNtCs7qDQvy6XYpV_18test_fuzz_internal4dirs37generic_args_directory_from_args_typeNtNtCsli0t1whKaEh_8parallel15target_4_fuzz__4ArgsEB1o_
FNDA:0,_RINvNtCs7qDQvy6XYpV_18test_fuzz_internal4dirs37generic_args_directory_from_args_typeNtNtCsli0t1whKaEh_8parallel15target_5_fuzz__4ArgsEB1o_
FNDA:0,_RINvNtCs7qDQvy6XYpV_18test_fuzz_internal4dirs42impl_generic_args_directory_from_args_typeNtNtCsli0t1whKaEh_8parallel15target_0_fuzz__4ArgsEB1t_
FNDA:0,_RINvNtCs7qDQvy6XYpV_18test_fuzz_internal4dirs42impl_generic_args_directory_from_args_typeNtNtCsli0t1whKaEh_8parallel15target_1_fuzz__4ArgsEB1t_
FNDA:0,_RINvNtCs7qDQvy6XYpV_18test_fuzz_internal4dirs42impl_generic_args_directory_from_args_typeNtNtCsli0t1whKaEh_8parallel15target_2_fuzz__4ArgsEB1t_
FNDA:0,_RINvNtCs7qDQvy6XYpV_18test_fuzz_internal4dirs42impl_generic_args_directory_from_args_typeNtNtCsli0t1whKaEh_8parallel15target_3_fuzz__4ArgsEB1t_
FNDA:0,_RINvNtCs7qDQvy6XYpV_18test_fuzz_internal4dirs42impl_generic_args_directory_from_args_typeNtNtCsli0t1whKaEh_8parallel15target_4_fuzz__4ArgsEB1t_
FNDA:0,_RINvNtCs7qDQvy6XYpV_18test_fuzz_internal4dirs42impl_generic_args_directory_from_args_typeNtNtCsli0t1whKaEh_8parallel15target_5_fuzz__4ArgsEB1t_
FNDA:0,_RNCINvNtCs7qDQvy6XYpV_18test_fuzz_internal4dirs19path_from_args_typeNtNtCsli0t1whKaEh_8parallel15target_0_fuzz__4ArgsE0B18_
FNDA:0,_RNCINvNtCs7qDQvy6XYpV_18test_fuzz_internal4dirs19path_from_args_typeNtNtCsli0t1whKaEh_8parallel15target_1_fuzz__4ArgsE0B18_
FNDA:0,_RNCINvNtCs7qDQvy6XYpV_18test_fuzz_internal4dirs19path_from_args_typeNtNtCsli0t1whKaEh_8parallel15target_2_fuzz__4ArgsE0B18_
FNDA:0,_RNCINvNtCs7qDQvy6XYpV_18test_fuzz_internal4dirs19path_from_args_typeNtNtCsli0t1whKaEh_8parallel15target_3_fuzz__4ArgsE0B18_
FNDA:0,_RNCINvNtCs7qDQvy6XYpV_18test_fuzz_internal4dirs19path_from_args_typeNtNtCsli0t1whKaEh_8parallel15target_4_fuzz__4ArgsE0B18_
FNDA:0,_RNCINvNtCs7qDQvy6XYpV_18test_fuzz_internal4dirs19path_from_args_typeNtNtCsli0t1whKaEh_8parallel15target_5_fuzz__4ArgsE0B18_
FNDA:0,_RNCINvNtCs7qDQvy6XYpV_18test_fuzz_internal4dirs19path_from_args_typeNtNvNtCsli0t1whKaEh_8parallel15target_0_fuzz__10write_args4ArgsE0B1a_
FNDA:0,_RNCINvNtCs7qDQvy6XYpV_18test_fuzz_internal4dirs19path_from_args_typeNtNvNtCsli0t1whKaEh_8parallel15target_1_fuzz__10write_args4ArgsE0B1a_
FNDA:0,_RNCINvNtCs7qDQvy6XYpV_18test_fuzz_internal4dirs19path_from_args_typeNtNvNtCsli0t1whKaEh_8parallel15target_2_fuzz__10write_args4ArgsE0B1a_
FNDA:0,_RNCINvNtCs7qDQvy6XYpV_18test_fuzz_internal4dirs19path_from_args_typeNtNvNtCsli0t1whKaEh_8parallel15target_3_fuzz__10write_args4ArgsE0B1a_
FNDA:0,_RNCINvNtCs7qDQvy6XYpV_18test_fuzz_internal4dirs19path_from_args_typeNtNvNtCsli0t1whKaEh_8parallel15target_4_fuzz__10write_args4ArgsE0B1a_
FNDA:0,_RNCINvNtCs7qDQvy6XYpV_18test_fuzz_internal4dirs19path_from_args_typeNtNvNtCsli0t1whKaEh_8parallel15target_5_fuzz__10write_args4ArgsE0B1a_
FNDA:0,_RINvNtCs7qDQvy6XYpV_18test_fuzz_internal4dirs19path_from_args_typeNtNtCs43OsMJA4dOi_14parse_duration12parse_fuzz__4ArgsEB16_
FNDA:0,_RINvNtCs7qDQvy6XYpV_18test_fuzz_internal4dirs19path_from_args_typeNtNvNtCs43OsMJA4dOi_14parse_duration12parse_fuzz__10write_args4ArgsEB18_
FNDA:0,_RINvNtCs7qDQvy6XYpV_18test_fuzz_internal4dirs31corpus_directory_from_args_typeNtNvNtCs43OsMJA4dOi_14parse_duration12parse_fuzz__10write_args4ArgsEB1k_
FNDA:0,_RINvNtCs7qDQvy6XYpV_18test_fuzz_internal4dirs37generic_args_directory_from_args_typeNtNtCs43OsMJA4dOi_14parse_duration12parse_fuzz__4ArgsEB1o_
FNDA:0,_RINvNtCs7qDQvy6XYpV_18test_fuzz_internal4dirs42impl_generic_args_directory_from_args_typeNtNtCs43OsMJA4dOi_14parse_duration12parse_fuzz__4ArgsEB1t_
FNDA:0,_RNCINvNtCs7qDQvy6XYpV_18test_fuzz_internal4dirs19path_from_args_typeNtNtCs43OsMJA4dOi_14parse_duration12parse_fuzz__4ArgsE0B18_
FNDA:0,_RNCINvNtCs7qDQvy6XYpV_18test_fuzz_internal4dirs19path_from_args_typeNtNvNtCs43OsMJA4dOi_14parse_duration12parse_fuzz__10write_args4ArgsE0B1a_
FNDA:0,_RINvNtCs7tkdMjTuzcM_18test_fuzz_internal4dirs19path_from_args_typeNtNtCs1ZHkx4dlC5u_14parse_duration12parse_fuzz__4ArgsEB16_
FNDA:0,_RINvNtCs7tkdMjTuzcM_18test_fuzz_internal4dirs19path_from_args_typeNtNvNtCs1ZHkx4dlC5u_14parse_duration12parse_fuzz__10write_args4ArgsEB18_
FNDA:0,_RINvNtCs7tkdMjTuzcM_18test_fuzz_internal4dirs31corpus_directory_from_args_typeNtNvNtCs1ZHkx4dlC5u_14parse_duration12parse_fuzz__10write_args4ArgsEB1k_
FNDA:0,_RINvNtCs7tkdMjTuzcM_18test_fuzz_internal4dirs37generic_args_directory_from_args_typeNtNtCs1ZHkx4dlC5u_14parse_duration12parse_fuzz__4ArgsEB1o_
FNDA:0,_RINvNtCs7tkdMjTuzcM_18test_fuzz_internal4dirs42impl_generic_args_directory_from_args_typeNtNtCs1ZHkx4dlC5u_14parse_duration12parse_fuzz__4ArgsEB1t_
FNDA:0,_RNCINvNtCs7tkdMjTuzcM_18test_fuzz_internal4dirs19path_from_args_typeNtNtCs1ZHkx4dlC5u_14parse_duration12parse_fuzz__4ArgsE0B18_
FNDA:0,_RNCINvNtCs7tkdMjTuzcM_18test_fuzz_internal4dirs19path_from_args_typeNtNvNtCs1ZHkx4dlC5u_14parse_duration12parse_fuzz__10write_args4ArgsE0B1a_
FNDA:0,_RINvNtCs7qDQvy6XYpV_18test_fuzz_internal4dirs19path_from_args_typeNtNtCsdKwP1BMZ14_14parse_duration12parse_fuzz__4ArgsEB16_
FNDA:0,_RINvNtCs7qDQvy6XYpV_18test_fuzz_internal4dirs19path_from_args_typeNtNvNtCsdKwP1BMZ14_14parse_duration12parse_fuzz__10write_args4ArgsEB18_
FNDA:0,_RINvNtCs7qDQvy6XYpV_18test_fuzz_internal4dirs31corpus_directory_from_args_typeNtNvNtCsdKwP1BMZ14_14parse_duration12parse_fuzz__10write_args4ArgsEB1k_
FNDA:0,_RINvNtCs7qDQvy6XYpV_18test_fuzz_internal4dirs37generic_args_directory_from_args_typeNtNtCsdKwP1BMZ14_14parse_duration12parse_fuzz__4ArgsEB1o_
FNDA:0,_RINvNtCs7qDQvy6XYpV_18test_fuzz_internal4dirs42impl_generic_args_directory_from_args_typeNtNtCsdKwP1BMZ14_14parse_duration12parse_fuzz__4ArgsEB1t_
FNDA:0,_RNCINvNtCs7qDQvy6XYpV_18test_fuzz_internal4dirs19path_from_args_typeNtNtCsdKwP1BMZ14_14parse_duration12parse_fuzz__4ArgsE0B18_
FNDA:0,_RNCINvNtCs7qDQvy6XYpV_18test_fuzz_internal4dirs19path_from_args_typeNtNvNtCsdKwP1BMZ14_14parse_duration12parse_fuzz__10write_args4ArgsE0B1a_
FNDA:0,_RINvNtCs7tkdMjTuzcM_18test_fuzz_internal4dirs19path_from_args_typeNtNtCs3bwG5i6Huhc_7profile13target_fuzz__4ArgsEB16_
FNDA:0,_RINvNtCs7tkdMjTuzcM_18test_fuzz_internal4dirs19path_from_args_typeNtNvNtCs3bwG5i6Huhc_7profile13target_fuzz__10write_args4ArgsEB18_
FNDA:0,_RINvNtCs7tkdMjTuzcM_18test_fuzz_internal4dirs31corpus_directory_from_args_typeNtNvNtCs3bwG5i6Huhc_7profile13target_fuzz__10write_args4ArgsEB1k_
FNDA:0,_RINvNtCs7tkdMjTuzcM_18test_fuzz_internal4dirs37generic_args_directory_from_args_typeNtNtCs3bwG5i6Huhc_7profile13target_fuzz__4ArgsEB1o_
FNDA:0,_RINvNtCs7tkdMjTuzcM_18test_fuzz_internal4dirs42impl_generic_args_directory_from_args_typeNtNtCs3bwG5i6Huhc_7profile13target_fuzz__4ArgsEB1t_
FNDA:0,_RNCINvNtCs7tkdMjTuzcM_18test_fuzz_internal4dirs19path_from_args_typeNtNtCs3bwG5i6Huhc_7profile13target_fuzz__4ArgsE0B18_
FNDA:0,_RNCINvNtCs7tkdMjTuzcM_18test_fuzz_internal4dirs19path_from_args_typeNtNvNtCs3bwG5i6Huhc_7profile13target_fuzz__10write_args4ArgsE0B1a_
FNDA:0,_RINvNtCs7qDQvy6XYpV_18test_fuzz_internal4dirs19path_from_args_typeNtNtCs80b9OweIe8z_7profile13target_fuzz__4ArgsEB16_
FNDA:0,_RINvNtCs7qDQvy6XYpV_18test_fuzz_internal4dirs19path_from_args_typeNtNvNtCs80b9OweIe8z_7profile13target_fuzz__10write_args4ArgsEB18_
FNDA:0,_RINvNtCs7qDQvy6XYpV_18test_fuzz_internal4dirs31corpus_directory_from_args_typeNtNvNtCs80b9OweIe8z_7profile13target_fuzz__10write_args4ArgsEB1k_
FNDA:0,_RINvNtCs7qDQvy6XYpV_18test_fuzz_internal4dirs37generic_args_directory_from_args_typeNtNtCs80b9OweIe8z_7profile13target_fuzz__4ArgsEB1o_
FNDA:0,_RINvNtCs7qDQvy6XYpV_18test_fuzz_internal4dirs42impl_generic_args_directory_from_args_typeNtNtCs80b9OweIe8z_7profile13target_fuzz__4ArgsEB1t_
FNDA:0,_RNCINvNtCs7qDQvy6XYpV_18test_fuzz_internal4dirs19path_from_args_typeNtNtCs80b9OweIe8z_7profile13target_fuzz__4ArgsE0B18_
FNDA:0,_RNCINvNtCs7qDQvy6XYpV_18test_fuzz_internal4dirs19path_from_args_typeNtNvNtCs80b9OweIe8z_7profile13target_fuzz__10write_args4ArgsE0B1a_
FNDA:0,_RINvNtCs7qDQvy6XYpV_18test_fuzz_internal4dirs19path_from_args_typeNtNtCs7qmmcbC6VW5_7profile13target_fuzz__4ArgsEB16_
FNDA:0,_RINvNtCs7qDQvy6XYpV_18test_fuzz_internal4dirs19path_from_args_typeNtNvNtCs7qmmcbC6VW5_7profile13target_fuzz__10write_args4ArgsEB18_
FNDA:0,_RINvNtCs7qDQvy6XYpV_18test_fuzz_internal4dirs31corpus_directory_from_args_typeNtNvNtCs7qmmcbC6VW5_7profile13target_fuzz__10write_args4ArgsEB1k_
FNDA:0,_RINvNtCs7qDQvy6XYpV_18test_fuzz_internal4dirs37generic_args_directory_from_args_typeNtNtCs7qmmcbC6VW5_7profile13target_fuzz__4ArgsEB1o_
FNDA:0,_RINvNtCs7qDQvy6XYpV_18test_fuzz_internal4dirs42impl_generic_args_directory_from_args_typeNtNtCs7qmmcbC6VW5_7profile13target_fuzz__4ArgsEB1t_
FNDA:0,_RNCINvNtCs7qDQvy6XYpV_18test_fuzz_internal4dirs19path_from_args_typeNtNtCs7qmmcbC6VW5_7profile13target_fuzz__4ArgsE0B18_
FNDA:0,_RNCINvNtCs7qDQvy6XYpV_18test_fuzz_internal4dirs19path_from_args_typeNtNvNtCs7qmmcbC6VW5_7profile13target_fuzz__10write_args4ArgsE0B1a_
FNDA:0,_RINvNtCs7qDQvy6XYpV_18test_fuzz_internal4dirs19path_from_args_typeNtNtCs2nn7Q0ZsJaY_6qwerty13target_fuzz__4ArgsEB16_
FNDA:0,_RINvNtCs7qDQvy6XYpV_18test_fuzz_internal4dirs19path_from_args_typeNtNvNtCs2nn7Q0ZsJaY_6qwerty13target_fuzz__10write_args4ArgsEB18_
FNDA:0,_RINvNtCs7qDQvy6XYpV_18test_fuzz_internal4dirs31corpus_directory_from_args_typeNtNvNtCs2nn7Q0ZsJaY_6qwerty13target_fuzz__10write_args4ArgsEB1k_
FNDA:0,_RINvNtCs7qDQvy6XYpV_18test_fuzz_internal4dirs37generic_args_directory_from_args_typeNtNtCs2nn7Q0ZsJaY_6qwerty13target_fuzz__4ArgsEB1o_
FNDA:0,_RINvNtCs7qDQvy6XYpV_18test_fuzz_internal4dirs42impl_generic_args_directory_from_args_typeNtNtCs2nn7Q0ZsJaY_6qwerty13target_fuzz__4ArgsEB1t_
FNDA:0,_RNCINvNtCs7qDQvy6XYpV_18test_fuzz_internal4dirs19path_from_args_typeNtNtCs2nn7Q0ZsJaY_6qwerty13target_fuzz__4ArgsE0B18_
FNDA:0,_RNCINvNtCs7qDQvy6XYpV_18test_fuzz_internal4dirs19path_from_args_typeNtNvNtCs2nn7Q0ZsJaY_6qwerty13target_fuzz__10write_args4ArgsE0B1a_
FNDA:0,_RINvNtCs7tkdMjTuzcM_18test_fuzz_internal4dirs19path_from_args_typeNtNtCs3luYp0Istsn_6qwerty13target_fuzz__4ArgsEB16_
FNDA:0,_RINvNtCs7tkdMjTuzcM_18test_fuzz_internal4dirs19path_from_args_typeNtNvNtCs3luYp0Istsn_6qwerty13target_fuzz__10write_args4ArgsEB18_
FNDA:0,_RINvNtCs7tkdMjTuzcM_18test_fuzz_internal4dirs31corpus_directory_from_args_typeNtNvNtCs3luYp0Istsn_6qwerty13target_fuzz__10write_args4ArgsEB1k_
FNDA:0,_RINvNtCs7tkdMjTuzcM_18test_fuzz_internal4dirs37generic_args_directory_from_args_typeNtNtCs3luYp0Istsn_6qwerty13target_fuzz__4ArgsEB1o_
FNDA:0,_RINvNtCs7tkdMjTuzcM_18test_fuzz_internal4dirs42impl_generic_args_directory_from_args_typeNtNtCs3luYp0Istsn_6qwerty13target_fuzz__4ArgsEB1t_
FNDA:0,_RNCINvNtCs7tkdMjTuzcM_18test_fuzz_internal4dirs19path_from_args_typeNtNtCs3luYp0Istsn_6qwerty13target_fuzz__4ArgsE0B18_
FNDA:0,_RNCINvNtCs7tkdMjTuzcM_18test_fuzz_internal4dirs19path_from_args_typeNtNvNtCs3luYp0Istsn_6qwerty13target_fuzz__10write_args4ArgsE0B1a_
FNDA:0,_RINvNtCs7qDQvy6XYpV_18test_fuzz_internal4dirs19path_from_args_typeNtNtCs8fxzZCH268U_6qwerty13target_fuzz__4ArgsEB16_
FNDA:0,_RINvNtCs7qDQvy6XYpV_18test_fuzz_internal4dirs19path_from_args_typeNtNvNtCs8fxzZCH268U_6qwerty13target_fuzz__10write_args4ArgsEB18_
FNDA:0,_RINvNtCs7qDQvy6XYpV_18test_fuzz_internal4dirs31corpus_directory_from_args_typeNtNvNtCs8fxzZCH268U_6qwerty13target_fuzz__10write_args4ArgsEB1k_
FNDA:0,_RINvNtCs7qDQvy6XYpV_18test_fuzz_internal4dirs37generic_args_directory_from_args_typeNtNtCs8fxzZCH268U_6qwerty13target_fuzz__4ArgsEB1o_
FNDA:0,_RINvNtCs7qDQvy6XYpV_18test_fuzz_internal4dirs42impl_generic_args_directory_from_args_typeNtNtCs8fxzZCH268U_6qwerty13target_fuzz__4ArgsEB1t_
FNDA:0,_RNCINvNtCs7qDQvy6XYpV_18test_fuzz_internal4dirs19path_from_args_typeNtNtCs8fxzZCH268U_6qwerty13target_fuzz__4ArgsE0B18_
FNDA:0,_RNCINvNtCs7qDQvy6XYpV_18test_fuzz_internal4dirs19path_from_args_typeNtNvNtCs8fxzZCH268U_6qwerty13target_fuzz__10write_args4ArgsE0B1a_
FNDA:0,_RINvNtCs7qDQvy6XYpV_18test_fuzz_internal4dirs19path_from_args_typeNtNtCs5kGvPr5XtxA_6rename10bar_fuzz__4ArgsEB16_
FNDA:0,_RINvNtCs7qDQvy6XYpV_18test_fuzz_internal4dirs19path_from_args_typeNtNvNtCs5kGvPr5XtxA_6rename10bar_fuzz__10write_args4ArgsEB18_
FNDA:0,_RINvNtCs7qDQvy6XYpV_18test_fuzz_internal4dirs31corpus_directory_from_args_typeNtNvNtCs5kGvPr5XtxA_6rename10bar_fuzz__10write_args4ArgsEB1k_
FNDA:0,_RINvNtCs7qDQvy6XYpV_18test_fuzz_internal4dirs37generic_args_directory_from_args_typeNtNtCs5kGvPr5XtxA_6rename10bar_fuzz__4ArgsEB1o_
FNDA:0,_RINvNtCs7qDQvy6XYpV_18test_fuzz_internal4dirs42impl_generic_args_directory_from_args_typeNtNtCs5kGvPr5XtxA_6rename10bar_fuzz__4ArgsEB1t_
FNDA:0,_RNCINvNtCs7qDQvy6XYpV_18test_fuzz_internal4dirs19path_from_args_typeNtNtCs5kGvPr5XtxA_6rename10bar_fuzz__4ArgsE0B18_
FNDA:0,_RNCINvNtCs7qDQvy6XYpV_18test_fuzz_internal4dirs19path_from_args_typeNtNvNtCs5kGvPr5XtxA_6rename10bar_fuzz__10write_args4ArgsE0B1a_
FNDA:0,_RINvNtCs7tkdMjTuzcM_18test_fuzz_internal4dirs19path_from_args_typeNtNtCs5y3QLrNz5O3_6rename10bar_fuzz__4ArgsEB16_
FNDA:0,_RINvNtCs7tkdMjTuzcM_18test_fuzz_internal4dirs19path_from_args_typeNtNvNtCs5y3QLrNz5O3_6rename10bar_fuzz__10write_args4ArgsEB18_
FNDA:0,_RINvNtCs7tkdMjTuzcM_18test_fuzz_internal4dirs31corpus_directory_from_args_typeNtNvNtCs5y3QLrNz5O3_6rename10bar_fuzz__10write_args4ArgsEB1k_
FNDA:0,_RINvNtCs7tkdMjTuzcM_18test_fuzz_internal4dirs37generic_args_directory_from_args_typeNtNtCs5y3QLrNz5O3_6rename10bar_fuzz__4ArgsEB1o_
FNDA:0,_RINvNtCs7tkdMjTuzcM_18test_fuzz_internal4dirs42impl_generic_args_directory_from_args_typeNtNtCs5y3QLrNz5O3_6rename10bar_fuzz__4ArgsEB1t_
FNDA:0,_RNCINvNtCs7tkdMjTuzcM_18test_fuzz_internal4dirs19path_from_args_typeNtNtCs5y3QLrNz5O3_6rename10bar_fuzz__4ArgsE0B18_
FNDA:0,_RNCINvNtCs7tkdMjTuzcM_18test_fuzz_internal4dirs19path_from_args_typeNtNvNtCs5y3QLrNz5O3_6rename10bar_fuzz__10write_args4ArgsE0B1a_
FNDA:0,_RINvNtCs7qDQvy6XYpV_18test_fuzz_internal4dirs19path_from_args_typeNtNtCsfevUP4KSlUK_6rename10bar_fuzz__4ArgsEB16_
FNDA:0,_RINvNtCs7qDQvy6XYpV_18test_fuzz_internal4dirs19path_from_args_typeNtNvNtCsfevUP4KSlUK_6rename10bar_fuzz__10write_args4ArgsEB18_
FNDA:0,_RINvNtCs7qDQvy6XYpV_18test_fuzz_internal4dirs31corpus_directory_from_args_typeNtNvNtCsfevUP4KSlUK_6rename10bar_fuzz__10write_args4ArgsEB1k_
FNDA:0,_RINvNtCs7qDQvy6XYpV_18test_fuzz_internal4dirs37generic_args_directory_from_args_typeNtNtCsfevUP4KSlUK_6rename10bar_fuzz__4ArgsEB1o_
FNDA:0,_RINvNtCs7qDQvy6XYpV_18test_fuzz_internal4dirs42impl_generic_args_directory_from_args_typeNtNtCsfevUP4KSlUK_6rename10bar_fuzz__4ArgsEB1t_
FNDA:0,_RNCINvNtCs7qDQvy6XYpV_18test_fuzz_internal4dirs19path_from_args_typeNtNtCsfevUP4KSlUK_6rename10bar_fuzz__4ArgsE0B18_
FNDA:0,_RNCINvNtCs7qDQvy6XYpV_18test_fuzz_internal4dirs19path_from_args_typeNtNvNtCsfevUP4KSlUK_6rename10bar_fuzz__10write_args4ArgsE0B1a_
FNDA:0,_RINvNtCs7tkdMjTuzcM_18test_fuzz_internal4dirs19path_from_args_typeINtNtCs4buqBA47Usg_11return_type16swap_swap_fuzz__4ArgsubEEB17_
FNDA:0,_RINvNtCs7tkdMjTuzcM_18test_fuzz_internal4dirs19path_from_args_typeINtNvNtCs4buqBA47Usg_11return_type16swap_swap_fuzz__10write_args4ArgsubEEB19_
FNDA:0,_RINvNtCs7tkdMjTuzcM_18test_fuzz_internal4dirs31corpus_directory_from_args_typeINtNvNtCs4buqBA47Usg_11return_type16swap_swap_fuzz__10write_args4ArgsubEEB1l_
FNDA:0,_RINvNtCs7tkdMjTuzcM_18test_fuzz_internal4dirs37generic_args_directory_from_args_typeINtNtCs4buqBA47Usg_11return_type16swap_swap_fuzz__4ArgsubEEB1p_
FNDA:0,_RINvNtCs7tkdMjTuzcM_18test_fuzz_internal4dirs42impl_generic_args_directory_from_args_typeINtNtCs4buqBA47Usg_11return_type16swap_swap_fuzz__4ArgsubEEB1u_
FNDA:0,_RNCINvNtCs7tkdMjTuzcM_18test_fuzz_internal4dirs19path_from_args_typeINtNtCs4buqBA47Usg_11return_type16swap_swap_fuzz__4ArgsubEE0B19_
FNDA:0,_RNCINvNtCs7tkdMjTuzcM_18test_fuzz_internal4dirs19path_from_args_typeINtNvNtCs4buqBA47Usg_11return_type16swap_swap_fuzz__10write_args4ArgsubEE0B1b_
FNDA:0,_RINvNtCs7qDQvy6XYpV_18test_fuzz_internal4dirs19path_from_args_typeINtNtCs16j12OPDxOb_11return_type16swap_swap_fuzz__4ArgsubEEB17_
FNDA:0,_RINvNtCs7qDQvy6XYpV_18test_fuzz_internal4dirs19path_from_args_typeINtNvNtCs16j12OPDxOb_11return_type16swap_swap_fuzz__10write_args4ArgsubEEB19_
FNDA:0,_RINvNtCs7qDQvy6XYpV_18test_fuzz_internal4dirs31corpus_directory_from_args_typeINtNvNtCs16j12OPDxOb_11return_type16swap_swap_fuzz__10write_args4ArgsubEEB1l_
FNDA:0,_RINvNtCs7qDQvy6XYpV_18test_fuzz_internal4dirs37generic_args_directory_from_args_typeINtNtCs16j12OPDxOb_11return_type16swap_swap_fuzz__4ArgsubEEB1p_
FNDA:0,_RINvNtCs7qDQvy6XYpV_18test_fuzz_internal4dirs42impl_generic_args_directory_from_args_typeINtNtCs16j12OPDxOb_11return_type16swap_swap_fuzz__4ArgsubEEB1u_
FNDA:0,_RNCINvNtCs7qDQvy6XYpV_18test_fuzz_internal4dirs19path_from_args_typeINtNtCs16j12OPDxOb_11return_type16swap_swap_fuzz__4ArgsubEE0B19_
FNDA:0,_RNCINvNtCs7qDQvy6XYpV_18test_fuzz_internal4dirs19path_from_args_typeINtNvNtCs16j12OPDxOb_11return_type16swap_swap_fuzz__10write_args4ArgsubEE0B1b_
FNDA:0,_RINvNtCs7qDQvy6XYpV_18test_fuzz_internal4dirs19path_from_args_typeINtNtCskuhvJTDbJdO_11return_type16swap_swap_fuzz__4ArgsubEEB17_
FNDA:0,_RINvNtCs7qDQvy6XYpV_18test_fuzz_internal4dirs19path_from_args_typeINtNvNtCskuhvJTDbJdO_11return_type16swap_swap_fuzz__10write_args4ArgsubEEB19_
FNDA:0,_RINvNtCs7qDQvy6XYpV_18test_fuzz_internal4dirs31corpus_directory_from_args_typeINtNvNtCskuhvJTDbJdO_11return_type16swap_swap_fuzz__10write_args4ArgsubEEB1l_
FNDA:0,_RINvNtCs7qDQvy6XYpV_18test_fuzz_internal4dirs37generic_args_directory_from_args_typeINtNtCskuhvJTDbJdO_11return_type16swap_swap_fuzz__4ArgsubEEB1p_
FNDA:0,_RINvNtCs7qDQvy6XYpV_18test_fuzz_internal4dirs42impl_generic_args_directory_from_args_typeINtNtCskuhvJTDbJdO_11return_type16swap_swap_fuzz__4ArgsubEEB1u_
FNDA:0,_RNCINvNtCs7qDQvy6XYpV_18test_fuzz_internal4dirs19path_from_args_typeINtNtCskuhvJTDbJdO_11return_type16swap_swap_fuzz__4ArgsubEE0B19_
FNDA:0,_RNCINvNtCs7qDQvy6XYpV_18test_fuzz_internal4dirs19path_from_args_typeINtNvNtCskuhvJTDbJdO_11return_type16swap_swap_fuzz__10write_args4ArgsubEE0B1b_
FNDA:0,_RINvNtCs7qDQvy6XYpV_18test_fuzz_internal4dirs19path_from_args_typeNtNtCsk0RfXBYiXkW_19self_ty_in_mod_name20struct_target_fuzz__4ArgsEB16_
FNDA:0,_RINvNtCs7qDQvy6XYpV_18test_fuzz_internal4dirs19path_from_args_typeNtNvNtCsk0RfXBYiXkW_19self_ty_in_mod_name20struct_target_fuzz__10write_args4ArgsEB18_
FNDA:0,_RINvNtCs7qDQvy6XYpV_18test_fuzz_internal4dirs31corpus_directory_from_args_typeNtNvNtCsk0RfXBYiXkW_19self_ty_in_mod_name20struct_target_fuzz__10write_args4ArgsEB1k_
FNDA:0,_RINvNtCs7qDQvy6XYpV_18test_fuzz_internal4dirs37generic_args_directory_from_args_typeNtNtCsk0RfXBYiXkW_19self_ty_in_mod_name20struct_target_fuzz__4ArgsEB1o_
FNDA:0,_RINvNtCs7qDQvy6XYpV_18test_fuzz_internal4dirs42impl_generic_args_directory_from_args_typeNtNtCsk0RfXBYiXkW_19self_ty_in_mod_name20struct_target_fuzz__4ArgsEB1t_
FNDA:0,_RNCINvNtCs7qDQvy6XYpV_18test_fuzz_internal4dirs19path_from_args_typeNtNtCsk0RfXBYiXkW_19self_ty_in_mod_name20struct_target_fuzz__4ArgsE0B18_
FNDA:0,_RNCINvNtCs7qDQvy6XYpV_18test_fuzz_internal4dirs19path_from_args_typeNtNvNtCsk0RfXBYiXkW_19self_ty_in_mod_name20struct_target_fuzz__10write_args4ArgsE0B1a_
FNDA:0,_RINvNtCs7tkdMjTuzcM_18test_fuzz_internal4dirs19path_from_args_typeNtNtCs2UDPBYP1fQx_19self_ty_in_mod_name20struct_target_fuzz__4ArgsEB16_
FNDA:0,_RINvNtCs7tkdMjTuzcM_18test_fuzz_internal4dirs19path_from_args_typeNtNvNtCs2UDPBYP1fQx_19self_ty_in_mod_name20struct_target_fuzz__10write_args4ArgsEB18_
FNDA:0,_RINvNtCs7tkdMjTuzcM_18test_fuzz_internal4dirs31corpus_directory_from_args_typeNtNvNtCs2UDPBYP1fQx_19self_ty_in_mod_name20struct_target_fuzz__10write_args4ArgsEB1k_
FNDA:0,_RINvNtCs7tkdMjTuzcM_18test_fuzz_internal4dirs37generic_args_directory_from_args_typeNtNtCs2UDPBYP1fQx_19self_ty_in_mod_name20struct_target_fuzz__4ArgsEB1o_
FNDA:0,_RINvNtCs7tkdMjTuzcM_18test_fuzz_internal4dirs42impl_generic_args_directory_from_args_typeNtNtCs2UDPBYP1fQx_19self_ty_in_mod_name20struct_target_fuzz__4ArgsEB1t_
FNDA:0,_RNCINvNtCs7tkdMjTuzcM_18test_fuzz_internal4dirs19path_from_args_typeNtNtCs2UDPBYP1fQx_19self_ty_in_mod_name20struct_target_fuzz__4ArgsE0B18_
FNDA:0,_RNCINvNtCs7tkdMjTuzcM_18test_fuzz_internal4dirs19path_from_args_typeNtNvNtCs2UDPBYP1fQx_19self_ty_in_mod_name20struct_target_fuzz__10write_args4ArgsE0B1a_
FNDA:0,_RINvNtCs7qDQvy6XYpV_18test_fuzz_internal4dirs19path_from_args_typeNtNtCsae250jbXXZS_19self_ty_in_mod_name20struct_target_fuzz__4ArgsEB16_
FNDA:0,_RINvNtCs7qDQvy6XYpV_18test_fuzz_internal4dirs19path_from_args_typeNtNvNtCsae250jbXXZS_19self_ty_in_mod_name20struct_target_fuzz__10write_args4ArgsEB18_
FNDA:0,_RINvNtCs7qDQvy6XYpV_18test_fuzz_internal4dirs31corpus_directory_from_args_typeNtNvNtCsae250jbXXZS_19self_ty_in_mod_name20struct_target_fuzz__10write_args4ArgsEB1k_
FNDA:0,_RINvNtCs7qDQvy6XYpV_18test_fuzz_internal4dirs37generic_args_directory_from_args_typeNtNtCsae250jbXXZS_19self_ty_in_mod_name20struct_target_fuzz__4ArgsEB1o_
FNDA:0,_RINvNtCs7qDQvy6XYpV_18test_fuzz_internal4dirs42impl_generic_args_directory_from_args_typeNtNtCsae250jbXXZS_19self_ty_in_mod_name20struct_target_fuzz__4ArgsEB1t_
FNDA:0,_RNCINvNtCs7qDQvy6XYpV_18test_fuzz_internal4dirs19path_from_args_typeNtNtCsae250jbXXZS_19self_ty_in_mod_name20struct_target_fuzz__4ArgsE0B18_
FNDA:0,_RNCINvNtCs7qDQvy6XYpV_18test_fuzz_internal4dirs19path_from_args_typeNtNvNtCsae250jbXXZS_19self_ty_in_mod_name20struct_target_fuzz__10write_args4ArgsE0B1a_
FNDA:0,_RINvNtCs7qDQvy6XYpV_18test_fuzz_internal4dirs19path_from_args_typeNtNtNtCsbdltwx5QZD6_5serde10byte_array13target_fuzz__4ArgsEB18_
FNDA:0,_RINvNtCs7qDQvy6XYpV_18test_fuzz_internal4dirs19path_from_args_typeNtNtNtCsbdltwx5QZD6_5serde11unit_struct13target_fuzz__4ArgsEB18_
FNDA:0,_RINvNtCs7qDQvy6XYpV_18test_fuzz_internal4dirs19path_from_args_typeNtNtNtCsbdltwx5QZD6_5serde12tuple_struct13target_fuzz__4ArgsEB18_
FNDA:0,_RINvNtCs7qDQvy6XYpV_18test_fuzz_internal4dirs19path_from_args_typeNtNtNtCsbdltwx5QZD6_5serde12unit_variant13target_fuzz__4ArgsEB18_
FNDA:0,_RINvNtCs7qDQvy6XYpV_18test_fuzz_internal4dirs19path_from_args_typeNtNtNtCsbdltwx5QZD6_5serde13tuple_variant13target_fuzz__4ArgsEB18_
FNDA:0,_RINvNtCs7qDQvy6XYpV_18test_fuzz_internal4dirs19path_from_args_typeNtNtNtCsbdltwx5QZD6_5serde14newtype_struct13target_fuzz__4ArgsEB18_
FNDA:0,_RINvNtCs7qDQvy6XYpV_18test_fuzz_internal4dirs19path_from_args_typeNtNtNtCsbdltwx5QZD6_5serde14struct_variant13target_fuzz__4ArgsEB18_
FNDA:0,_RINvNtCs7qDQvy6XYpV_18test_fuzz_internal4dirs19path_from_args_typeNtNtNtCsbdltwx5QZD6_5serde15newtype_variant13target_fuzz__4ArgsEB18_
FNDA:0,_RINvNtCs7qDQvy6XYpV_18test_fuzz_internal4dirs19path_from_args_typeNtNtNtCsbdltwx5QZD6_5serde3map13target_fuzz__4ArgsEB18_
FNDA:0,_RINvNtCs7qDQvy6XYpV_18test_fuzz_internal4dirs19path_from_args_typeNtNtNtCsbdltwx5QZD6_5serde3seq13target_fuzz__4ArgsEB18_
FNDA:0,_RINvNtCs7qDQvy6XYpV_18test_fuzz_internal4dirs19path_from_args_typeNtNtNtCsbdltwx5QZD6_5serde4unit13target_fuzz__4ArgsEB18_
FNDA:0,_RINvNtCs7qDQvy6XYpV_18test_fuzz_internal4dirs19path_from_args_typeNtNtNtCsbdltwx5QZD6_5serde5tuple13target_fuzz__4ArgsEB18_
FNDA:0,_RINvNtCs7qDQvy6XYpV_18test_fuzz_internal4dirs19path_from_args_typeNtNtNtCsbdltwx5QZD6_5serde6option13target_fuzz__4ArgsEB18_
FNDA:0,_RINvNtCs7qDQvy6XYpV_18test_fuzz_internal4dirs19path_from_args_typeNtNtNtCsbdltwx5QZD6_5serde6string13target_fuzz__4ArgsEB18_
FNDA:0,_RINvNtCs7qDQvy6XYpV_18test_fuzz_internal4dirs19path_from_args_typeNtNtNtCsbdltwx5QZD6_5serde6strukt13target_fuzz__4ArgsEB18_
FNDA:0,_RINvNtCs7qDQvy6XYpV_18test_fuzz_internal4dirs19path_from_args_typeNtNvNtNtCsbdltwx5QZD6_5serde10byte_array13target_fuzz__10write_args4ArgsEB1a_
FNDA:0,_RINvNtCs7qDQvy6XYpV_18test_fuzz_internal4dirs19path_from_args_typeNtNvNtNtCsbdltwx5QZD6_5serde11unit_struct13target_fuzz__10write_args4ArgsEB1a_
FNDA:0,_RINvNtCs7qDQvy6XYpV_18test_fuzz_internal4dirs19path_from_args_typeNtNvNtNtCsbdltwx5QZD6_5serde12tuple_struct13target_fuzz__10write_args4ArgsEB1a_
FNDA:0,_RINvNtCs7qDQvy6XYpV_18test_fuzz_internal4dirs19path_from_args_typeNtNvNtNtCsbdltwx5QZD6_5serde12unit_variant13target_fuzz__10write_args4ArgsEB1a_
FNDA:0,_RINvNtCs7qDQvy6XYpV_18test_fuzz_internal4dirs19path_from_args_typeNtNvNtNtCsbdltwx5QZD6_5serde13tuple_variant13target_fuzz__10write_args4ArgsEB1a_
FNDA:0,_RINvNtCs7qDQvy6XYpV_18test_fuzz_internal4dirs19path_from_args_typeNtNvNtNtCsbdltwx5QZD6_5serde14newtype_struct13target_fuzz__10write_args4ArgsEB1a_
FNDA:0,_RINvNtCs7qDQvy6XYpV_18test_fuzz_internal4dirs19path_from_args_typeNtNvNtNtCsbdltwx5QZD6_5serde14struct_variant13target_fuzz__10write_args4ArgsEB1a_
FNDA:0,_RINvNtCs7qDQvy6XYpV_18test_fuzz_internal4dirs19path_from_args_typeNtNvNtNtCsbdltwx5QZD6_5serde15newtype_variant13target_fuzz__10write_args4ArgsEB1a_
FNDA:0,_RINvNtCs7qDQvy6XYpV_18test_fuzz_internal4dirs19path_from_args_typeNtNvNtNtCsbdltwx5QZD6_5serde3map13target_fuzz__10write_args4ArgsEB1a_
FNDA:0,_RINvNtCs7qDQvy6XYpV_18test_fuzz_internal4dirs19path_from_args_typeNtNvNtNtCsbdltwx5QZD6_5serde3seq13target_fuzz__10write_args4ArgsEB1a_
FNDA:0,_RINvNtCs7qDQvy6XYpV_18test_fuzz_internal4dirs19path_from_args_typeNtNvNtNtCsbdltwx5QZD6_5serde4unit13target_fuzz__10write_args4ArgsEB1a_
FNDA:0,_RINvNtCs7qDQvy6XYpV_18test_fuzz_internal4dirs19path_from_args_typeNtNvNtNtCsbdltwx5QZD6_5serde5tuple13target_fuzz__10write_args4ArgsEB1a_
FNDA:0,_RINvNtCs7qDQvy6XYpV_18test_fuzz_internal4dirs19path_from_args_typeNtNvNtNtCsbdltwx5QZD6_5serde6option13target_fuzz__10write_args4ArgsEB1a_
FNDA:0,_RINvNtCs7qDQvy6XYpV_18test_fuzz_internal4dirs19path_from_args_typeNtNvNtNtCsbdltwx5QZD6_5serde6string13target_fuzz__10write_args4ArgsEB1a_
FNDA:0,_RINvNtCs7qDQvy6XYpV_18test_fuzz_internal4dirs19path_from_args_typeNtNvNtNtCsbdltwx5QZD6_5serde6strukt13target_fuzz__10write_args4ArgsEB1a_
FNDA:0,_RINvNtCs7qDQvy6XYpV_18test_fuzz_internal4dirs31corpus_directory_from_args_typeNtNvNtNtCsbdltwx5QZD6_5serde10byte_array13target_fuzz__10write_args4ArgsEB1m_
FNDA:0,_RINvNtCs7qDQvy6XYpV_18test_fuzz_internal4dirs31corpus_directory_from_args_typeNtNvNtNtCsbdltwx5QZD6_5serde11unit_struct13target_fuzz__10write_args4ArgsEB1m_
FNDA:0,_RINvNtCs7qDQvy6XYpV_18test_fuzz_internal4dirs31corpus_directory_from_args_typeNtNvNtNtCsbdltwx5QZD6_5serde12tuple_struct13target_fuzz__10write_args4ArgsEB1m_
FNDA:0,_RINvNtCs7qDQvy6XYpV_18test_fuzz_internal4dirs31corpus_directory_from_args_typeNtNvNtNtCsbdltwx5QZD6_5serde12unit_variant13target_fuzz__10write_args4ArgsEB1m_
FNDA:0,_RINvNtCs7qDQvy6XYpV_18test_fuzz_internal4dirs31corpus_directory_from_args_typeNtNvNtNtCsbdltwx5QZD6_5serde13tuple_variant13target_fuzz__10write_args4ArgsEB1m_
FNDA:0,_RINvNtCs7qDQvy6XYpV_18test_fuzz_internal4dirs31corpus_directory_from_args_typeNtNvNtNtCsbdltwx5QZD6_5serde14newtype_struct13target_fuzz__10write_args4ArgsEB1m_
FNDA:0,_RINvNtCs7qDQvy6XYpV_18test_fuzz_internal4dirs31corpus_directory_from_args_typeNtNvNtNtCsbdltwx5QZD6_5serde14struct_variant13target_fuzz__10write_args4ArgsEB1m_
FNDA:0,_RINvNtCs7qDQvy6XYpV_18test_fuzz_internal4dirs31corpus_directory_from_args_typeNtNvNtNtCsbdltwx5QZD6_5serde15newtype_variant13target_fuzz__10write_args4ArgsEB1m_
FNDA:0,_RINvNtCs7qDQvy6XYpV_18test_fuzz_internal4dirs31corpus_directory_from_args_typeNtNvNtNtCsbdltwx5QZD6_5serde3map13target_fuzz__10write_args4ArgsEB1m_
FNDA:0,_RINvNtCs7qDQvy6XYpV_18test_fuzz_internal4dirs31corpus_directory_from_args_typeNtNvNtNtCsbdltwx5QZD6_5serde3seq13target_fuzz__10write_args4ArgsEB1m_
FNDA:0,_RINvNtCs7qDQvy6XYpV_18test_fuzz_internal4dirs31corpus_directory_from_args_typeNtNvNtNtCsbdltwx5QZD6_5serde4unit13target_fuzz__10write_args4ArgsEB1m_
FNDA:0,_RINvNtCs7qDQvy6XYpV_18test_fuzz_internal4dirs31corpus_directory_from_args_typeNtNvNtNtCsbdltwx5QZD6_5serde5tuple13target_fuzz__10write_args4ArgsEB1m_
FNDA:0,_RINvNtCs7qDQvy6XYpV_18test_fuzz_internal4dirs31corpus_directory_from_args_typeNtNvNtNtCsbdltwx5QZD6_5serde6option13target_fuzz__10write_args4ArgsEB1m_
FNDA:0,_RINvNtCs7qDQvy6XYpV_18test_fuzz_internal4dirs31corpus_directory_from_args_typeNtNvNtNtCsbdltwx5QZD6_5serde6string13target_fuzz__10write_args4ArgsEB1m_
FNDA:0,_RINvNtCs7qDQvy6XYpV_18test_fuzz_internal4dirs31corpus_directory_from_args_typeNtNvNtNtCsbdltwx5QZD6_5serde6strukt13target_fuzz__10write_args4ArgsEB1m_
FNDA:0,_RINvNtCs7qDQvy6XYpV_18test_fuzz_internal4dirs37generic_args_directory_from_args_typeNtNtNtCsbdltwx5QZD6_5serde10byte_array13target_fuzz__4ArgsEB1q_
FNDA:0,_RINvNtCs7qDQvy6XYpV_18test_fuzz_internal4dirs37generic_args_directory_from_args_typeNtNtNtCsbdltwx5QZD6_5serde11unit_struct13target_fuzz__4ArgsEB1q_
FNDA:0,_RINvNtCs7qDQvy6XYpV_18test_fuzz_internal4dirs37generic_args_directory_from_args_typeNtNtNtCsbdltwx5QZD6_5serde12tuple_struct13target_fuzz__4ArgsEB1q_
FNDA:0,_RINvNtCs7qDQvy6XYpV_18test_fuzz_internal4dirs37generic_args_directory_from_args_typeNtNtNtCsbdltwx5QZD6_5serde12unit_variant13target_fuzz__4ArgsEB1q_
FNDA:0,_RINvNtCs7qDQvy6XYpV_18test_fuzz_internal4dirs37generic_args_directory_from_args_typeNtNtNtCsbdltwx5QZD6_5serde13tuple_variant13target_fuzz__4ArgsEB1q_
FNDA:0,_RINvNtCs7qDQvy6XYpV_18test_fuzz_internal4dirs37generic_args_directory_from_args_typeNtNtNtCsbdltwx5QZD6_5serde14newtype_struct13target_fuzz__4ArgsEB1q_
FNDA:0,_RINvNtCs7qDQvy6XYpV_18test_fuzz_internal4dirs37generic_args_directory_from_args_typeNtNtNtCsbdltwx5QZD6_5serde14struct_variant13target_fuzz__4ArgsEB1q_
FNDA:0,_RINvNtCs7qDQvy6XYpV_18test_fuzz_internal4dirs37generic_args_directory_from_args_typeNtNtNtCsbdltwx5QZD6_5serde15newtype_variant13target_fuzz__4ArgsEB1q_
FNDA:0,_RINvNtCs7qDQvy6XYpV_18test_fuzz_internal4dirs37generic_args_directory_from_args_typeNtNtNtCsbdltwx5QZD6_5serde3map13target_fuzz__4ArgsEB1q_
FNDA:0,_RINvNtCs7qDQvy6XYpV_18test_fuzz_internal4dirs37generic_args_directory_from_args_typeNtNtNtCsbdltwx5QZD6_5serde3seq13target_fuzz__4ArgsEB1q_
FNDA:0,_RINvNtCs7qDQvy6XYpV_18test_fuzz_internal4dirs37generic_args_directory_from_args_typeNtNtNtCsbdltwx5QZD6_5serde4unit13target_fuzz__4ArgsEB1q_
FNDA:0,_RINvNtCs7qDQvy6XYpV_18test_fuzz_internal4dirs37generic_args_directory_from_args_typeNtNtNtCsbdltwx5QZD6_5serde5tuple13target_fuzz__4ArgsEB1q_
FNDA:0,_RINvNtCs7qDQvy6XYpV_18test_fuzz_internal4dirs37generic_args_directory_from_args_typeNtNtNtCsbdltwx5QZD6_5serde6option13target_fuzz__4ArgsEB1q_
FNDA:0,_RINvNtCs7qDQvy6XYpV_18test_fuzz_internal4dirs37generic_args_directory_from_args_typeNtNtNtCsbdltwx5QZD6_5serde6string13target_fuzz__4ArgsEB1q_
FNDA:0,_RINvNtCs7qDQvy6XYpV_18test_fuzz_internal4dirs37generic_args_directory_from_args_typeNtNtNtCsbdltwx5QZD6_5serde6strukt13target_fuzz__4ArgsEB1q_
FNDA:0,_RINvNtCs7qDQvy6XYpV_18test_fuzz_internal4dirs42impl_generic_args_directory_from_args_typeNtNtNtCsbdltwx5QZD6_5serde10byte_array13target_fuzz__4ArgsEB1v_
FNDA:0,_RINvNtCs7qDQvy6XYpV_18test_fuzz_internal4dirs42impl_generic_args_directory_from_args_typeNtNtNtCsbdltwx5QZD6_5serde11unit_struct13target_fuzz__4ArgsEB1v_
FNDA:0,_RINvNtCs7qDQvy6XYpV_18test_fuzz_internal4dirs42impl_generic_args_directory_from_args_typeNtNtNtCsbdltwx5QZD6_5serde12tuple_struct13target_fuzz__4ArgsEB1v_
FNDA:0,_RINvNtCs7qDQvy6XYpV_18test_fuzz_internal4dirs42impl_generic_args_directory_from_args_typeNtNtNtCsbdltwx5QZD6_5serde12unit_variant13target_fuzz__4ArgsEB1v_
FNDA:0,_RINvNtCs7qDQvy6XYpV_18test_fuzz_internal4dirs42impl_generic_args_directory_from_args_typeNtNtNtCsbdltwx5QZD6_5serde13tuple_variant13target_fuzz__4ArgsEB1v_
FNDA:0,_RINvNtCs7qDQvy6XYpV_18test_fuzz_internal4dirs42impl_generic_args_directory_from_args_typeNtNtNtCsbdltwx5QZD6_5serde14newtype_struct13target_fuzz__4ArgsEB1v_
FNDA:0,_RINvNtCs7qDQvy6XYpV_18test_fuzz_internal4dirs42impl_generic_args_directory_from_args_typeNtNtNtCsbdltwx5QZD6_5serde14struct_variant13target_fuzz__4ArgsEB1v_
FNDA:0,_RINvNtCs7qDQvy6XYpV_18test_fuzz_internal4dirs42impl_generic_args_directory_from_args_typeNtNtNtCsbdltwx5QZD6_5serde15newtype_variant13target_fuzz__4ArgsEB1v_
FNDA:0,_RINvNtCs7qDQvy6XYpV_18test_fuzz_internal4dirs42impl_generic_args_directory_from_args_typeNtNtNtCsbdltwx5QZD6_5serde3map13target_fuzz__4ArgsEB1v_
FNDA:0,_RINvNtCs7qDQvy6XYpV_18test_fuzz_internal4dirs42impl_generic_args_directory_from_args_typeNtNtNtCsbdltwx5QZD6_5serde3seq13target_fuzz__4ArgsEB1v_
FNDA:0,_RINvNtCs7qDQvy6XYpV_18test_fuzz_internal4dirs42impl_generic_args_directory_from_args_typeNtNtNtCsbdltwx5QZD6_5serde4unit13target_fuzz__4ArgsEB1v_
FNDA:0,_RINvNtCs7qDQvy6XYpV_18test_fuzz_internal4dirs42impl_generic_args_directory_from_args_typeNtNtNtCsbdltwx5QZD6_5serde5tuple13target_fuzz__4ArgsEB1v_
FNDA:0,_RINvNtCs7qDQvy6XYpV_18test_fuzz_internal4dirs42impl_generic_args_directory_from_args_typeNtNtNtCsbdltwx5QZD6_5serde6option13target_fuzz__4ArgsEB1v_
FNDA:0,_RINvNtCs7qDQvy6XYpV_18test_fuzz_internal4dirs42impl_generic_args_directory_from_args_typeNtNtNtCsbdltwx5QZD6_5serde6string13target_fuzz__4ArgsEB1v_
FNDA:0,_RINvNtCs7qDQvy6XYpV_18test_fuzz_internal4dirs42impl_generic_args_directory_from_args_typeNtNtNtCsbdltwx5QZD6_5serde6strukt13target_fuzz__4ArgsEB1v_
FNDA:0,_RNCINvNtCs7qDQvy6XYpV_18test_fuzz_internal4dirs19path_from_args_typeNtNtNtCsbdltwx5QZD6_5serde10byte_array13target_fuzz__4ArgsE0B1a_
FNDA:0,_RNCINvNtCs7qDQvy6XYpV_18test_fuzz_internal4dirs19path_from_args_typeNtNtNtCsbdltwx5QZD6_5serde11unit_struct13target_fuzz__4ArgsE0B1a_
FNDA:0,_RNCINvNtCs7qDQvy6XYpV_18test_fuzz_internal4dirs19path_from_args_typeNtNtNtCsbdltwx5QZD6_5serde12tuple_struct13target_fuzz__4ArgsE0B1a_
FNDA:0,_RNCINvNtCs7qDQvy6XYpV_18test_fuzz_internal4dirs19path_from_args_typeNtNtNtCsbdltwx5QZD6_5serde12unit_variant13target_fuzz__4ArgsE0B1a_
FNDA:0,_RNCINvNtCs7qDQvy6XYpV_18test_fuzz_internal4dirs19path_from_args_typeNtNtNtCsbdltwx5QZD6_5serde13tuple_variant13target_fuzz__4ArgsE0B1a_
FNDA:0,_RNCINvNtCs7qDQvy6XYpV_18test_fuzz_internal4dirs19path_from_args_typeNtNtNtCsbdltwx5QZD6_5serde14newtype_struct13target_fuzz__4ArgsE0B1a_
FNDA:0,_RNCINvNtCs7qDQvy6XYpV_18test_fuzz_internal4dirs19path_from_args_typeNtNtNtCsbdltwx5QZD6_5serde14struct_variant13target_fuzz__4ArgsE0B1a_
FNDA:0,_RNCINvNtCs7qDQvy6XYpV_18test_fuzz_internal4dirs19path_from_args_typeNtNtNtCsbdltwx5QZD6_5serde15newtype_variant13target_fuzz__4ArgsE0B1a_
FNDA:0,_RNCINvNtCs7qDQvy6XYpV_18test_fuzz_internal4dirs19path_from_args_typeNtNtNtCsbdltwx5QZD6_5serde3map13target_fuzz__4ArgsE0B1a_
FNDA:0,_RNCINvNtCs7qDQvy6XYpV_18test_fuzz_internal4dirs19path_from_args_typeNtNtNtCsbdltwx5QZD6_5serde3seq13target_fuzz__4ArgsE0B1a_
FNDA:0,_RNCINvNtCs7qDQvy6XYpV_18test_fuzz_internal4dirs19path_from_args_typeNtNtNtCsbdltwx5QZD6_5serde4unit13target_fuzz__4ArgsE0B1a_
FNDA:0,_RNCINvNtCs7qDQvy6XYpV_18test_fuzz_internal4dirs19path_from_args_typeNtNtNtCsbdltwx5QZD6_5serde5tuple13target_fuzz__4ArgsE0B1a_
FNDA:0,_RNCINvNtCs7qDQvy6XYpV_18test_fuzz_internal4dirs19path_from_args_typeNtNtNtCsbdltwx5QZD6_5serde6option13target_fuzz__4ArgsE0B1a_
FNDA:0,_RNCINvNtCs7qDQvy6XYpV_18test_fuzz_internal4dirs19path_from_args_typeNtNtNtCsbdltwx5QZD6_5serde6string13target_fuzz__4ArgsE0B1a_
FNDA:0,_RNCINvNtCs7qDQvy6XYpV_18test_fuzz_internal4dirs19path_from_args_typeNtNtNtCsbdltwx5QZD6_5serde6strukt13target_fuzz__4ArgsE0B1a_
FNDA:0,_RNCINvNtCs7qDQvy6XYpV_18test_fuzz_internal4dirs19path_from_args_typeNtNvNtNtCsbdltwx5QZD6_5serde10byte_array13target_fuzz__10write_args4ArgsE0B1c_
FNDA:0,_RNCINvNtCs7qDQvy6XYpV_18test_fuzz_internal4dirs19path_from_args_typeNtNvNtNtCsbdltwx5QZD6_5serde11unit_struct13target_fuzz__10write_args4ArgsE0B1c_
FNDA:0,_RNCINvNtCs7qDQvy6XYpV_18test_fuzz_internal4dirs19path_from_args_typeNtNvNtNtCsbdltwx5QZD6_5serde12tuple_struct13target_fuzz__10write_args4ArgsE0B1c_
FNDA:0,_RNCINvNtCs7qDQvy6XYpV_18test_fuzz_internal4dirs19path_from_args_typeNtNvNtNtCsbdltwx5QZD6_5serde12unit_variant13target_fuzz__10write_args4ArgsE0B1c_
FNDA:0,_RNCINvNtCs7qDQvy6XYpV_18test_fuzz_internal4dirs19path_from_args_typeNtNvNtNtCsbdltwx5QZD6_5serde13tuple_variant13target_fuzz__10write_args4ArgsE0B1c_
FNDA:0,_RNCINvNtCs7qDQvy6XYpV_18test_fuzz_internal4dirs19path_from_args_typeNtNvNtNtCsbdltwx5QZD6_5serde14newtype_struct13target_fuzz__10write_args4ArgsE0B1c_
FNDA:0,_RNCINvNtCs7qDQvy6XYpV_18test_fuzz_internal4dirs19path_from_args_typeNtNvNtNtCsbdltwx5QZD6_5serde14struct_variant13target_fuzz__10write_args4ArgsE0B1c_
FNDA:0,_RNCINvNtCs7qDQvy6XYpV_18test_fuzz_internal4dirs19path_from_args_typeNtNvNtNtCsbdltwx5QZD6_5serde15newtype_variant13target_fuzz__10write_args4ArgsE0B1c_
FNDA:0,_RNCINvNtCs7qDQvy6XYpV_18test_fuzz_internal4dirs19path_from_args_typeNtNvNtNtCsbdltwx5QZD6_5serde3map13target_fuzz__10write_args4ArgsE0B1c_
FNDA:0,_RNCINvNtCs7qDQvy6XYpV_18test_fuzz_internal4dirs19path_from_args_typeNtNvNtNtCsbdltwx5QZD6_5serde3seq13target_fuzz__10write_args4ArgsE0B1c_
FNDA:0,_RNCINvNtCs7qDQvy6XYpV_18test_fuzz_internal4dirs19path_from_args_typeNtNvNtNtCsbdltwx5QZD6_5serde4unit13target_fuzz__10write_args4ArgsE0B1c_
FNDA:0,_RNCINvNtCs7qDQvy6XYpV_18test_fuzz_internal4dirs19path_from_args_typeNtNvNtNtCsbdltwx5QZD6_5serde5tuple13target_fuzz__10write_args4ArgsE0B1c_
FNDA:0,_RNCINvNtCs7qDQvy6XYpV_18test_fuzz_internal4dirs19path_from_args_typeNtNvNtNtCsbdltwx5QZD6_5serde6option13target_fuzz__10write_args4ArgsE0B1c_
FNDA:0,_RNCINvNtCs7qDQvy6XYpV_18test_fuzz_internal4dirs19path_from_args_typeNtNvNtNtCsbdltwx5QZD6_5serde6string13target_fuzz__10write_args4ArgsE0B1c_
FNDA:0,_RNCINvNtCs7qDQvy6XYpV_18test_fuzz_internal4dirs19path_from_args_typeNtNvNtNtCsbdltwx5QZD6_5serde6strukt13target_fuzz__10write_args4ArgsE0B1c_
FNDA:0,_RINvNtCs7qDQvy6XYpV_18test_fuzz_internal4dirs19path_from_args_typeNtNtNtCsjcSeXGBWWd5_5serde10byte_array13target_fuzz__4ArgsEB18_
FNDA:0,_RINvNtCs7qDQvy6XYpV_18test_fuzz_internal4dirs19path_from_args_typeNtNtNtCsjcSeXGBWWd5_5serde11unit_struct13target_fuzz__4ArgsEB18_
FNDA:0,_RINvNtCs7qDQvy6XYpV_18test_fuzz_internal4dirs19path_from_args_typeNtNtNtCsjcSeXGBWWd5_5serde12tuple_struct13target_fuzz__4ArgsEB18_
FNDA:0,_RINvNtCs7qDQvy6XYpV_18test_fuzz_internal4dirs19path_from_args_typeNtNtNtCsjcSeXGBWWd5_5serde12unit_variant13target_fuzz__4ArgsEB18_
FNDA:0,_RINvNtCs7qDQvy6XYpV_18test_fuzz_internal4dirs19path_from_args_typeNtNtNtCsjcSeXGBWWd5_5serde13tuple_variant13target_fuzz__4ArgsEB18_
FNDA:0,_RINvNtCs7qDQvy6XYpV_18test_fuzz_internal4dirs19path_from_args_typeNtNtNtCsjcSeXGBWWd5_5serde14newtype_struct13target_fuzz__4ArgsEB18_
FNDA:0,_RINvNtCs7qDQvy6XYpV_18test_fuzz_internal4dirs19path_from_args_typeNtNtNtCsjcSeXGBWWd5_5serde14struct_variant13target_fuzz__4ArgsEB18_
FNDA:0,_RINvNtCs7qDQvy6XYpV_18test_fuzz_internal4dirs19path_from_args_typeNtNtNtCsjcSeXGBWWd5_5serde15newtype_variant13target_fuzz__4ArgsEB18_
FNDA:0,_RINvNtCs7qDQvy6XYpV_18test_fuzz_internal4dirs19path_from_args_typeNtNtNtCsjcSeXGBWWd5_5serde3map13target_fuzz__4ArgsEB18_
FNDA:0,_RINvNtCs7qDQvy6XYpV_18test_fuzz_internal4dirs19path_from_args_typeNtNtNtCsjcSeXGBWWd5_5serde3seq13target_fuzz__4ArgsEB18_
FNDA:0,_RINvNtCs7qDQvy6XYpV_18test_fuzz_internal4dirs19path_from_args_typeNtNtNtCsjcSeXGBWWd5_5serde4unit13target_fuzz__4ArgsEB18_
FNDA:0,_RINvNtCs7qDQvy6XYpV_18test_fuzz_internal4dirs19path_from_args_typeNtNtNtCsjcSeXGBWWd5_5serde5tuple13target_fuzz__4ArgsEB18_
FNDA:0,_RINvNtCs7qDQvy6XYpV_18test_fuzz_internal4dirs19path_from_args_typeNtNtNtCsjcSeXGBWWd5_5serde6option13target_fuzz__4ArgsEB18_
FNDA:0,_RINvNtCs7qDQvy6XYpV_18test_fuzz_internal4dirs19path_from_args_typeNtNtNtCsjcSeXGBWWd5_5serde6string13target_fuzz__4ArgsEB18_
FNDA:0,_RINvNtCs7qDQvy6XYpV_18test_fuzz_internal4dirs19path_from_args_typeNtNtNtCsjcSeXGBWWd5_5serde6strukt13target_fuzz__4ArgsEB18_
FNDA:0,_RINvNtCs7qDQvy6XYpV_18test_fuzz_internal4dirs19path_from_args_typeNtNvNtNtCsjcSeXGBWWd5_5serde10byte_array13target_fuzz__10write_args4ArgsEB1a_
FNDA:0,_RINvNtCs7qDQvy6XYpV_18test_fuzz_internal4dirs19path_from_args_typeNtNvNtNtCsjcSeXGBWWd5_5serde11unit_struct13target_fuzz__10write_args4ArgsEB1a_
FNDA:0,_RINvNtCs7qDQvy6XYpV_18test_fuzz_internal4dirs19path_from_args_typeNtNvNtNtCsjcSeXGBWWd5_5serde12tuple_struct13target_fuzz__10write_args4ArgsEB1a_
FNDA:0,_RINvNtCs7qDQvy6XYpV_18test_fuzz_internal4dirs19path_from_args_typeNtNvNtNtCsjcSeXGBWWd5_5serde12unit_variant13target_fuzz__10write_args4ArgsEB1a_
FNDA:0,_RINvNtCs7qDQvy6XYpV_18test_fuzz_internal4dirs19path_from_args_typeNtNvNtNtCsjcSeXGBWWd5_5serde13tuple_variant13target_fuzz__10write_args4ArgsEB1a_
FNDA:0,_RINvNtCs7qDQvy6XYpV_18test_fuzz_internal4dirs19path_from_args_typeNtNvNtNtCsjcSeXGBWWd5_5serde14newtype_struct13target_fuzz__10write_args4ArgsEB1a_
FNDA:0,_RINvNtCs7qDQvy6XYpV_18test_fuzz_internal4dirs19path_from_args_typeNtNvNtNtCsjcSeXGBWWd5_5serde14struct_variant13target_fuzz__10write_args4ArgsEB1a_
FNDA:0,_RINvNtCs7qDQvy6XYpV_18test_fuzz_internal4dirs19path_from_args_typeNtNvNtNtCsjcSeXGBWWd5_5serde15newtype_variant13target_fuzz__10write_args4ArgsEB1a_
FNDA:0,_RINvNtCs7qDQvy6XYpV_18test_fuzz_internal4dirs19path_from_args_typeNtNvNtNtCsjcSeXGBWWd5_5serde3map13target_fuzz__10write_args4ArgsEB1a_
FNDA:0,_RINvNtCs7qDQvy6XYpV_18test_fuzz_internal4dirs19path_from_args_typeNtNvNtNtCsjcSeXGBWWd5_5serde3seq13target_fuzz__10write_args4ArgsEB1a_
FNDA:0,_RINvNtCs7qDQvy6XYpV_18test_fuzz_internal4dirs19path_from_args_typeNtNvNtNtCsjcSeXGBWWd5_5serde4unit13target_fuzz__10write_args4ArgsEB1a_
FNDA:0,_RINvNtCs7qDQvy6XYpV_18test_fuzz_internal4dirs19path_from_args_typeNtNvNtNtCsjcSeXGBWWd5_5serde5tuple13target_fuzz__10write_args4ArgsEB1a_
FNDA:0,_RINvNtCs7qDQvy6XYpV_18test_fuzz_internal4dirs19path_from_args_typeNtNvNtNtCsjcSeXGBWWd5_5serde6option13target_fuzz__10write_args4ArgsEB1a_
FNDA:0,_RINvNtCs7qDQvy6XYpV_18test_fuzz_internal4dirs19path_from_args_typeNtNvNtNtCsjcSeXGBWWd5_5serde6string13target_fuzz__10write_args4ArgsEB1a_
FNDA:0,_RINvNtCs7qDQvy6XYpV_18test_fuzz_internal4dirs19path_from_args_typeNtNvNtNtCsjcSeXGBWWd5_5serde6strukt13target_fuzz__10write_args4ArgsEB1a_
FNDA:0,_RINvNtCs7qDQvy6XYpV_18test_fuzz_internal4dirs31corpus_directory_from_args_typeNtNvNtNtCsjcSeXGBWWd5_5serde10byte_array13target_fuzz__10write_args4ArgsEB1m_
FNDA:0,_RINvNtCs7qDQvy6XYpV_18test_fuzz_internal4dirs31corpus_directory_from_args_typeNtNvNtNtCsjcSeXGBWWd5_5serde11unit_struct13target_fuzz__10write_args4ArgsEB1m_
FNDA:0,_RINvNtCs7qDQvy6XYpV_18test_fuzz_internal4dirs31corpus_directory_from_args_typeNtNvNtNtCsjcSeXGBWWd5_5serde12tuple_struct13target_fuzz__10write_args4ArgsEB1m_
FNDA:0,_RINvNtCs7qDQvy6XYpV_18test_fuzz_internal4dirs31corpus_directory_from_args_typeNtNvNtNtCsjcSeXGBWWd5_5serde12unit_variant13target_fuzz__10write_args4ArgsEB1m_
FNDA:0,_RINvNtCs7qDQvy6XYpV_18test_fuzz_internal4dirs31corpus_directory_from_args_typeNtNvNtNtCsjcSeXGBWWd5_5serde13tuple_variant13target_fuzz__10write_args4ArgsEB1m_
FNDA:0,_RINvNtCs7qDQvy6XYpV_18test_fuzz_internal4dirs31corpus_directory_from_args_typeNtNvNtNtCsjcSeXGBWWd5_5serde14newtype_struct13target_fuzz__10write_args4ArgsEB1m_
FNDA:0,_RINvNtCs7qDQvy6XYpV_18test_fuzz_internal4dirs31corpus_directory_from_args_typeNtNvNtNtCsjcSeXGBWWd5_5serde14struct_variant13target_fuzz__10write_args4ArgsEB1m_
FNDA:0,_RINvNtCs7qDQvy6XYpV_18test_fuzz_internal4dirs31corpus_directory_from_args_typeNtNvNtNtCsjcSeXGBWWd5_5serde15newtype_variant13target_fuzz__10write_args4ArgsEB1m_
FNDA:0,_RINvNtCs7qDQvy6XYpV_18test_fuzz_internal4dirs31corpus_directory_from_args_typeNtNvNtNtCsjcSeXGBWWd5_5serde3map13target_fuzz__10write_args4ArgsEB1m_
FNDA:0,_RINvNtCs7qDQvy6XYpV_18test_fuzz_internal4dirs31corpus_directory_from_args_typeNtNvNtNtCsjcSeXGBWWd5_5serde3seq13target_fuzz__10write_args4ArgsEB1m_
FNDA:0,_RINvNtCs7qDQvy6XYpV_18test_fuzz_internal4dirs31corpus_directory_from_args_typeNtNvNtNtCsjcSeXGBWWd5_5serde4unit13target_fuzz__10write_args4ArgsEB1m_
FNDA:0,_RINvNtCs7qDQvy6XYpV_18test_fuzz_internal4dirs31corpus_directory_from_args_typeNtNvNtNtCsjcSeXGBWWd5_5serde5tuple13target_fuzz__10write_args4ArgsEB1m_
FNDA:0,_RINvNtCs7qDQvy6XYpV_18test_fuzz_internal4dirs31corpus_directory_from_args_typeNtNvNtNtCsjcSeXGBWWd5_5serde6option13target_fuzz__10write_args4ArgsEB1m_
FNDA:0,_RINvNtCs7qDQvy6XYpV_18test_fuzz_internal4dirs31corpus_directory_from_args_typeNtNvNtNtCsjcSeXGBWWd5_5serde6string13target_fuzz__10write_args4ArgsEB1m_
FNDA:0,_RINvNtCs7qDQvy6XYpV_18test_fuzz_internal4dirs31corpus_directory_from_args_typeNtNvNtNtCsjcSeXGBWWd5_5serde6strukt13target_fuzz__10write_args4ArgsEB1m_
FNDA:0,_RINvNtCs7qDQvy6XYpV_18test_fuzz_internal4dirs37generic_args_directory_from_args_typeNtNtNtCsjcSeXGBWWd5_5serde10byte_array13target_fuzz__4ArgsEB1q_
FNDA:0,_RINvNtCs7qDQvy6XYpV_18test_fuzz_internal4dirs37generic_args_directory_from_args_typeNtNtNtCsjcSeXGBWWd5_5serde11unit_struct13target_fuzz__4ArgsEB1q_
FNDA:0,_RINvNtCs7qDQvy6XYpV_18test_fuzz_internal4dirs37generic_args_directory_from_args_typeNtNtNtCsjcSeXGBWWd5_5serde12tuple_struct13target_fuzz__4ArgsEB1q_
FNDA:0,_RINvNtCs7qDQvy6XYpV_18test_fuzz_internal4dirs37generic_args_directory_from_args_typeNtNtNtCsjcSeXGBWWd5_5serde12unit_variant13target_fuzz__4ArgsEB1q_
FNDA:0,_RINvNtCs7qDQvy6XYpV_18test_fuzz_internal4dirs37generic_args_directory_from_args_typeNtNtNtCsjcSeXGBWWd5_5serde13tuple_variant13target_fuzz__4ArgsEB1q_
FNDA:0,_RINvNtCs7qDQvy6XYpV_18test_fuzz_internal4dirs37generic_args_directory_from_args_typeNtNtNtCsjcSeXGBWWd5_5serde14newtype_struct13target_fuzz__4ArgsEB1q_
FNDA:0,_RINvNtCs7qDQvy6XYpV_18test_fuzz_internal4dirs37generic_args_directory_from_args_typeNtNtNtCsjcSeXGBWWd5_5serde14struct_variant13target_fuzz__4ArgsEB1q_
FNDA:0,_RINvNtCs7qDQvy6XYpV_18test_fuzz_internal4dirs37generic_args_directory_from_args_typeNtNtNtCsjcSeXGBWWd5_5serde15newtype_variant13target_fuzz__4ArgsEB1q_
FNDA:0,_RINvNtCs7qDQvy6XYpV_18test_fuzz_internal4dirs37generic_args_directory_from_args_typeNtNtNtCsjcSeXGBWWd5_5serde3map13target_fuzz__4ArgsEB1q_
FNDA:0,_RINvNtCs7qDQvy6XYpV_18test_fuzz_internal4dirs37generic_args_directory_from_args_typeNtNtNtCsjcSeXGBWWd5_5serde3seq13target_fuzz__4ArgsEB1q_
FNDA:0,_RINvNtCs7qDQvy6XYpV_18test_fuzz_internal4dirs37generic_args_directory_from_args_typeNtNtNtCsjcSeXGBWWd5_5serde4unit13target_fuzz__4ArgsEB1q_
FNDA:0,_RINvNtCs7qDQvy6XYpV_18test_fuzz_internal4dirs37generic_args_directory_from_args_typeNtNtNtCsjcSeXGBWWd5_5serde5tuple13target_fuzz__4ArgsEB1q_
FNDA:0,_RINvNtCs7qDQvy6XYpV_18test_fuzz_internal4dirs37generic_args_directory_from_args_typeNtNtNtCsjcSeXGBWWd5_5serde6option13target_fuzz__4ArgsEB1q_
FNDA:0,_RINvNtCs7qDQvy6XYpV_18test_fuzz_internal4dirs37generic_args_directory_from_args_typeNtNtNtCsjcSeXGBWWd5_5serde6string13target_fuzz__4ArgsEB1q_
FNDA:0,_RINvNtCs7qDQvy6XYpV_18test_fuzz_internal4dirs37generic_args_directory_from_args_typeNtNtNtCsjcSeXGBWWd5_5serde6strukt13target_fuzz__4ArgsEB1q_
FNDA:0,_RINvNtCs7qDQvy6XYpV_18test_fuzz_internal4dirs42impl_generic_args_directory_from_args_typeNtNtNtCsjcSeXGBWWd5_5serde10byte_array13target_fuzz__4ArgsEB1v_
FNDA:0,_RINvNtCs7qDQvy6XYpV_18test_fuzz_internal4dirs42impl_generic_args_directory_from_args_typeNtNtNtCsjcSeXGBWWd5_5serde11unit_struct13target_fuzz__4ArgsEB1v_
FNDA:0,_RINvNtCs7qDQvy6XYpV_18test_fuzz_internal4dirs42impl_generic_args_directory_from_args_typeNtNtNtCsjcSeXGBWWd5_5serde12tuple_struct13target_fuzz__4ArgsEB1v_
FNDA:0,_RINvNtCs7qDQvy6XYpV_18test_fuzz_internal4dirs42impl_generic_args_directory_from_args_typeNtNtNtCsjcSeXGBWWd5_5serde12unit_variant13target_fuzz__4ArgsEB1v_
FNDA:0,_RINvNtCs7qDQvy6XYpV_18test_fuzz_internal4dirs42impl_generic_args_directory_from_args_typeNtNtNtCsjcSeXGBWWd5_5serde13tuple_variant13target_fuzz__4ArgsEB1v_
FNDA:0,_RINvNtCs7qDQvy6XYpV_18test_fuzz_internal4dirs42impl_generic_args_directory_from_args_typeNtNtNtCsjcSeXGBWWd5_5serde14newtype_struct13target_fuzz__4ArgsEB1v_
FNDA:0,_RINvNtCs7qDQvy6XYpV_18test_fuzz_internal4dirs42impl_generic_args_directory_from_args_typeNtNtNtCsjcSeXGBWWd5_5serde14struct_variant13target_fuzz__4ArgsEB1v_
FNDA:0,_RINvNtCs7qDQvy6XYpV_18test_fuzz_internal4dirs42impl_generic_args_directory_from_args_typeNtNtNtCsjcSeXGBWWd5_5serde15newtype_variant13target_fuzz__4ArgsEB1v_
FNDA:0,_RINvNtCs7qDQvy6XYpV_18test_fuzz_internal4dirs42impl_generic_args_directory_from_args_typeNtNtNtCsjcSeXGBWWd5_5serde3map13target_fuzz__4ArgsEB1v_
FNDA:0,_RINvNtCs7qDQvy6XYpV_18test_fuzz_internal4dirs42impl_generic_args_directory_from_args_typeNtNtNtCsjcSeXGBWWd5_5serde3seq13target_fuzz__4ArgsEB1v_
FNDA:0,_RINvNtCs7qDQvy6XYpV_18test_fuzz_internal4dirs42impl_generic_args_directory_from_args_typeNtNtNtCsjcSeXGBWWd5_5serde4unit13target_fuzz__4ArgsEB1v_
FNDA:0,_RINvNtCs7qDQvy6XYpV_18test_fuzz_internal4dirs42impl_generic_args_directory_from_args_typeNtNtNtCsjcSeXGBWWd5_5serde5tuple13target_fuzz__4ArgsEB1v_
FNDA:0,_RINvNtCs7qDQvy6XYpV_18test_fuzz_internal4dirs42impl_generic_args_directory_from_args_typeNtNtNtCsjcSeXGBWWd5_5serde6option13target_fuzz__4ArgsEB1v_
FNDA:0,_RINvNtCs7qDQvy6XYpV_18test_fuzz_internal4dirs42impl_generic_args_directory_from_args_typeNtNtNtCsjcSeXGBWWd5_5serde6string13target_fuzz__4ArgsEB1v_
FNDA:0,_RINvNtCs7qDQvy6XYpV_18test_fuzz_internal4dirs42impl_generic_args_directory_from_args_typeNtNtNtCsjcSeXGBWWd5_5serde6strukt13target_fuzz__4ArgsEB1v_
FNDA:0,_RNCINvNtCs7qDQvy6XYpV_18test_fuzz_internal4dirs19path_from_args_typeNtNtNtCsjcSeXGBWWd5_5serde10byte_array13target_fuzz__4ArgsE0B1a_
FNDA:0,_RNCINvNtCs7qDQvy6XYpV_18test_fuzz_internal4dirs19path_from_args_typeNtNtNtCsjcSeXGBWWd5_5serde11unit_struct13target_fuzz__4ArgsE0B1a_
FNDA:0,_RNCINvNtCs7qDQvy6XYpV_18test_fuzz_internal4dirs19path_from_args_typeNtNtNtCsjcSeXGBWWd5_5serde12tuple_struct13target_fuzz__4ArgsE0B1a_
FNDA:0,_RNCINvNtCs7qDQvy6XYpV_18test_fuzz_internal4dirs19path_from_args_typeNtNtNtCsjcSeXGBWWd5_5serde12unit_variant13target_fuzz__4ArgsE0B1a_
FNDA:0,_RNCINvNtCs7qDQvy6XYpV_18test_fuzz_internal4dirs19path_from_args_typeNtNtNtCsjcSeXGBWWd5_5serde13tuple_variant13target_fuzz__4ArgsE0B1a_
FNDA:0,_RNCINvNtCs7qDQvy6XYpV_18test_fuzz_internal4dirs19path_from_args_typeNtNtNtCsjcSeXGBWWd5_5serde14newtype_struct13target_fuzz__4ArgsE0B1a_
FNDA:0,_RNCINvNtCs7qDQvy6XYpV_18test_fuzz_internal4dirs19path_from_args_typeNtNtNtCsjcSeXGBWWd5_5serde14struct_variant13target_fuzz__4ArgsE0B1a_
FNDA:0,_RNCINvNtCs7qDQvy6XYpV_18test_fuzz_internal4dirs19path_from_args_typeNtNtNtCsjcSeXGBWWd5_5serde15newtype_variant13target_fuzz__4ArgsE0B1a_
FNDA:0,_RNCINvNtCs7qDQvy6XYpV_18test_fuzz_internal4dirs19path_from_args_typeNtNtNtCsjcSeXGBWWd5_5serde3map13target_fuzz__4ArgsE0B1a_
FNDA:0,_RNCINvNtCs7qDQvy6XYpV_18test_fuzz_internal4dirs19path_from_args_typeNtNtNtCsjcSeXGBWWd5_5serde3seq13target_fuzz__4ArgsE0B1a_
FNDA:0,_RNCINvNtCs7qDQvy6XYpV_18test_fuzz_internal4dirs19path_from_args_typeNtNtNtCsjcSeXGBWWd5_5serde4unit13target_fuzz__4ArgsE0B1a_
FNDA:0,_RNCINvNtCs7qDQvy6XYpV_18test_fuzz_internal4dirs19path_from_args_typeNtNtNtCsjcSeXGBWWd5_5serde5tuple13target_fuzz__4ArgsE0B1a_
FNDA:0,_RNCINvNtCs7qDQvy6XYpV_18test_fuzz_internal4dirs19path_from_args_typeNtNtNtCsjcSeXGBWWd5_5serde6option13target_fuzz__4ArgsE0B1a_
FNDA:0,_RNCINvNtCs7qDQvy6XYpV_18test_fuzz_internal4dirs19path_from_args_typeNtNtNtCsjcSeXGBWWd5_5serde6string13target_fuzz__4ArgsE0B1a_
FNDA:0,_RNCINvNtCs7qDQvy6XYpV_18test_fuzz_internal4dirs19path_from_args_typeNtNtNtCsjcSeXGBWWd5_5serde6strukt13target_fuzz__4ArgsE0B1a_
FNDA:0,_RNCINvNtCs7qDQvy6XYpV_18test_fuzz_internal4dirs19path_from_args_typeNtNvNtNtCsjcSeXGBWWd5_5serde10byte_array13target_fuzz__10write_args4ArgsE0B1c_
FNDA:0,_RNCINvNtCs7qDQvy6XYpV_18test_fuzz_internal4dirs19path_from_args_typeNtNvNtNtCsjcSeXGBWWd5_5serde11unit_struct13target_fuzz__10write_args4ArgsE0B1c_
FNDA:0,_RNCINvNtCs7qDQvy6XYpV_18test_fuzz_internal4dirs19path_from_args_typeNtNvNtNtCsjcSeXGBWWd5_5serde12tuple_struct13target_fuzz__10write_args4ArgsE0B1c_
FNDA:0,_RNCINvNtCs7qDQvy6XYpV_18test_fuzz_internal4dirs19path_from_args_typeNtNvNtNtCsjcSeXGBWWd5_5serde12unit_variant13target_fuzz__10write_args4ArgsE0B1c_
FNDA:0,_RNCINvNtCs7qDQvy6XYpV_18test_fuzz_internal4dirs19path_from_args_typeNtNvNtNtCsjcSeXGBWWd5_5serde13tuple_variant13target_fuzz__10write_args4ArgsE0B1c_
FNDA:0,_RNCINvNtCs7qDQvy6XYpV_18test_fuzz_internal4dirs19path_from_args_typeNtNvNtNtCsjcSeXGBWWd5_5serde14newtype_struct13target_fuzz__10write_args4ArgsE0B1c_
FNDA:0,_RNCINvNtCs7qDQvy6XYpV_18test_fuzz_internal4dirs19path_from_args_typeNtNvNtNtCsjcSeXGBWWd5_5serde14struct_variant13target_fuzz__10write_args4ArgsE0B1c_
FNDA:0,_RNCINvNtCs7qDQvy6XYpV_18test_fuzz_internal4dirs19path_from_args_typeNtNvNtNtCsjcSeXGBWWd5_5serde15newtype_variant13target_fuzz__10write_args4ArgsE0B1c_
FNDA:0,_RNCINvNtCs7qDQvy6XYpV_18test_fuzz_internal4dirs19path_from_args_typeNtNvNtNtCsjcSeXGBWWd5_5serde3map13target_fuzz__10write_args4ArgsE0B1c_
FNDA:0,_RNCINvNtCs7qDQvy6XYpV_18test_fuzz_internal4dirs19path_from_args_typeNtNvNtNtCsjcSeXGBWWd5_5serde3seq13target_fuzz__10write_args4ArgsE0B1c_
FNDA:0,_RNCINvNtCs7qDQvy6XYpV_18test_fuzz_internal4dirs19path_from_args_typeNtNvNtNtCsjcSeXGBWWd5_5serde4unit13target_fuzz__10write_args4ArgsE0B1c_
FNDA:0,_RNCINvNtCs7qDQvy6XYpV_18test_fuzz_internal4dirs19path_from_args_typeNtNvNtNtCsjcSeXGBWWd5_5serde5tuple13target_fuzz__10write_args4ArgsE0B1c_
FNDA:0,_RNCINvNtCs7qDQvy6XYpV_18test_fuzz_internal4dirs19path_from_args_typeNtNvNtNtCsjcSeXGBWWd5_5serde6option13target_fuzz__10write_args4ArgsE0B1c_
FNDA:0,_RNCINvNtCs7qDQvy6XYpV_18test_fuzz_internal4dirs19path_from_args_typeNtNvNtNtCsjcSeXGBWWd5_5serde6string13target_fuzz__10write_args4ArgsE0B1c_
FNDA:0,_RNCINvNtCs7qDQvy6XYpV_18test_fuzz_internal4dirs19path_from_args_typeNtNvNtNtCsjcSeXGBWWd5_5serde6strukt13target_fuzz__10write_args4ArgsE0B1c_
FNDA:0,_RINvNtCs7tkdMjTuzcM_18test_fuzz_internal4dirs19path_from_args_typeNtNtNtCs1SoYQDD3VK8_5serde10byte_array13target_fuzz__4ArgsEB18_
FNDA:0,_RINvNtCs7tkdMjTuzcM_18test_fuzz_internal4dirs19path_from_args_typeNtNtNtCs1SoYQDD3VK8_5serde11unit_struct13target_fuzz__4ArgsEB18_
FNDA:0,_RINvNtCs7tkdMjTuzcM_18test_fuzz_internal4dirs19path_from_args_typeNtNtNtCs1SoYQDD3VK8_5serde12tuple_struct13target_fuzz__4ArgsEB18_
FNDA:0,_RINvNtCs7tkdMjTuzcM_18test_fuzz_internal4dirs19path_from_args_typeNtNtNtCs1SoYQDD3VK8_5serde12unit_variant13target_fuzz__4ArgsEB18_
FNDA:0,_RINvNtCs7tkdMjTuzcM_18test_fuzz_internal4dirs19path_from_args_typeNtNtNtCs1SoYQDD3VK8_5serde13tuple_variant13target_fuzz__4ArgsEB18_
FNDA:0,_RINvNtCs7tkdMjTuzcM_18test_fuzz_internal4dirs19path_from_args_typeNtNtNtCs1SoYQDD3VK8_5serde14newtype_struct13target_fuzz__4ArgsEB18_
FNDA:0,_RINvNtCs7tkdMjTuzcM_18test_fuzz_internal4dirs19path_from_args_typeNtNtNtCs1SoYQDD3VK8_5serde14struct_variant13target_fuzz__4ArgsEB18_
FNDA:0,_RINvNtCs7tkdMjTuzcM_18test_fuzz_internal4dirs19path_from_args_typeNtNtNtCs1SoYQDD3VK8_5serde15newtype_variant13target_fuzz__4ArgsEB18_
FNDA:0,_RINvNtCs7tkdMjTuzcM_18test_fuzz_internal4dirs19path_from_args_typeNtNtNtCs1SoYQDD3VK8_5serde3map13target_fuzz__4ArgsEB18_
FNDA:0,_RINvNtCs7tkdMjTuzcM_18test_fuzz_internal4dirs19path_from_args_typeNtNtNtCs1SoYQDD3VK8_5serde3seq13target_fuzz__4ArgsEB18_
FNDA:0,_RINvNtCs7tkdMjTuzcM_18test_fuzz_internal4dirs19path_from_args_typeNtNtNtCs1SoYQDD3VK8_5serde4unit13target_fuzz__4ArgsEB18_
FNDA:0,_RINvNtCs7tkdMjTuzcM_18test_fuzz_internal4dirs19path_from_args_typeNtNtNtCs1SoYQDD3VK8_5serde5tuple13target_fuzz__4ArgsEB18_
FNDA:0,_RINvNtCs7tkdMjTuzcM_18test_fuzz_internal4dirs19path_from_args_typeNtNtNtCs1SoYQDD3VK8_5serde6option13target_fuzz__4ArgsEB18_
FNDA:0,_RINvNtCs7tkdMjTuzcM_18test_fuzz_internal4dirs19path_from_args_typeNtNtNtCs1SoYQDD3VK8_5serde6string13target_fuzz__4ArgsEB18_
FNDA:0,_RINvNtCs7tkdMjTuzcM_18test_fuzz_internal4dirs19path_from_args_typeNtNtNtCs1SoYQDD3VK8_5serde6strukt13target_fuzz__4ArgsEB18_
FNDA:0,_RINvNtCs7tkdMjTuzcM_18test_fuzz_internal4dirs19path_from_args_typeNtNvNtNtCs1SoYQDD3VK8_5serde10byte_array13target_fuzz__10write_args4ArgsEB1a_
FNDA:0,_RINvNtCs7tkdMjTuzcM_18test_fuzz_internal4dirs19path_from_args_typeNtNvNtNtCs1SoYQDD3VK8_5serde11unit_struct13target_fuzz__10write_args4ArgsEB1a_
FNDA:0,_RINvNtCs7tkdMjTuzcM_18test_fuzz_internal4dirs19path_from_args_typeNtNvNtNtCs1SoYQDD3VK8_5serde12tuple_struct13target_fuzz__10write_args4ArgsEB1a_
FNDA:0,_RINvNtCs7tkdMjTuzcM_18test_fuzz_internal4dirs19path_from_args_typeNtNvNtNtCs1SoYQDD3VK8_5serde12unit_variant13target_fuzz__10write_args4ArgsEB1a_
FNDA:0,_RINvNtCs7tkdMjTuzcM_18test_fuzz_internal4dirs19path_from_args_typeNtNvNtNtCs1SoYQDD3VK8_5serde13tuple_variant13target_fuzz__10write_args4ArgsEB1a_
FNDA:0,_RINvNtCs7tkdMjTuzcM_18test_fuzz_internal4dirs19path_from_args_typeNtNvNtNtCs1SoYQDD3VK8_5serde14newtype_struct13target_fuzz__10write_args4ArgsEB1a_
FNDA:0,_RINvNtCs7tkdMjTuzcM_18test_fuzz_internal4dirs19path_from_args_typeNtNvNtNtCs1SoYQDD3VK8_5serde14struct_variant13target_fuzz__10write_args4ArgsEB1a_
FNDA:0,_RINvNtCs7tkdMjTuzcM_18test_fuzz_internal4dirs19path_from_args_typeNtNvNtNtCs1SoYQDD3VK8_5serde15newtype_variant13target_fuzz__10write_args4ArgsEB1a_
FNDA:0,_RINvNtCs7tkdMjTuzcM_18test_fuzz_internal4dirs19path_from_args_typeNtNvNtNtCs1SoYQDD3VK8_5serde3map13target_fuzz__10write_args4ArgsEB1a_
FNDA:0,_RINvNtCs7tkdMjTuzcM_18test_fuzz_internal4dirs19path_from_args_typeNtNvNtNtCs1SoYQDD3VK8_5serde3seq13target_fuzz__10write_args4ArgsEB1a_
FNDA:0,_RINvNtCs7tkdMjTuzcM_18test_fuzz_internal4dirs19path_from_args_typeNtNvNtNtCs1SoYQDD3VK8_5serde4unit13target_fuzz__10write_args4ArgsEB1a_
FNDA:0,_RINvNtCs7tkdMjTuzcM_18test_fuzz_internal4dirs19path_from_args_typeNtNvNtNtCs1SoYQDD3VK8_5serde5tuple13target_fuzz__10write_args4ArgsEB1a_
FNDA:0,_RINvNtCs7tkdMjTuzcM_18test_fuzz_internal4dirs19path_from_args_typeNtNvNtNtCs1SoYQDD3VK8_5serde6option13target_fuzz__10write_args4ArgsEB1a_
FNDA:0,_RINvNtCs7tkdMjTuzcM_18test_fuzz_internal4dirs19path_from_args_typeNtNvNtNtCs1SoYQDD3VK8_5serde6string13target_fuzz__10write_args4ArgsEB1a_
FNDA:0,_RINvNtCs7tkdMjTuzcM_18test_fuzz_internal4dirs19path_from_args_typeNtNvNtNtCs1SoYQDD3VK8_5serde6strukt13target_fuzz__10write_args4ArgsEB1a_
FNDA:0,_RINvNtCs7tkdMjTuzcM_18test_fuzz_internal4dirs31corpus_directory_from_args_typeNtNvNtNtCs1SoYQDD3VK8_5serde10byte_array13target_fuzz__10write_args4ArgsEB1m_
FNDA:0,_RINvNtCs7tkdMjTuzcM_18test_fuzz_internal4dirs31corpus_directory_from_args_typeNtNvNtNtCs1SoYQDD3VK8_5serde11unit_struct13target_fuzz__10write_args4ArgsEB1m_
FNDA:0,_RINvNtCs7tkdMjTuzcM_18test_fuzz_internal4dirs31corpus_directory_from_args_typeNtNvNtNtCs1SoYQDD3VK8_5serde12tuple_struct13target_fuzz__10write_args4ArgsEB1m_
FNDA:0,_RINvNtCs7tkdMjTuzcM_18test_fuzz_internal4dirs31corpus_directory_from_args_typeNtNvNtNtCs1SoYQDD3VK8_5serde12unit_variant13target_fuzz__10write_args4ArgsEB1m_
FNDA:0,_RINvNtCs7tkdMjTuzcM_18test_fuzz_internal4dirs31corpus_directory_from_args_typeNtNvNtNtCs1SoYQDD3VK8_5serde13tuple_variant13target_fuzz__10write_args4ArgsEB1m_
FNDA:0,_RINvNtCs7tkdMjTuzcM_18test_fuzz_internal4dirs31corpus_directory_from_args_typeNtNvNtNtCs1SoYQDD3VK8_5serde14newtype_struct13target_fuzz__10write_args4ArgsEB1m_
FNDA:0,_RINvNtCs7tkdMjTuzcM_18test_fuzz_internal4dirs31corpus_directory_from_args_typeNtNvNtNtCs1SoYQDD3VK8_5serde14struct_variant13target_fuzz__10write_args4ArgsEB1m_
FNDA:0,_RINvNtCs7tkdMjTuzcM_18test_fuzz_internal4dirs31corpus_directory_from_args_typeNtNvNtNtCs1SoYQDD3VK8_5serde15newtype_variant13target_fuzz__10write_args4ArgsEB1m_
FNDA:0,_RINvNtCs7tkdMjTuzcM_18test_fuzz_internal4dirs31corpus_directory_from_args_typeNtNvNtNtCs1SoYQDD3VK8_5serde3map13target_fuzz__10write_args4ArgsEB1m_
FNDA:0,_RINvNtCs7tkdMjTuzcM_18test_fuzz_internal4dirs31corpus_directory_from_args_typeNtNvNtNtCs1SoYQDD3VK8_5serde3seq13target_fuzz__10write_args4ArgsEB1m_
FNDA:0,_RINvNtCs7tkdMjTuzcM_18test_fuzz_internal4dirs31corpus_directory_from_args_typeNtNvNtNtCs1SoYQDD3VK8_5serde4unit13target_fuzz__10write_args4ArgsEB1m_
FNDA:0,_RINvNtCs7tkdMjTuzcM_18test_fuzz_internal4dirs31corpus_directory_from_args_typeNtNvNtNtCs1SoYQDD3VK8_5serde5tuple13target_fuzz__10write_args4ArgsEB1m_
FNDA:0,_RINvNtCs7tkdMjTuzcM_18test_fuzz_internal4dirs31corpus_directory_from_args_typeNtNvNtNtCs1SoYQDD3VK8_5serde6option13target_fuzz__10write_args4ArgsEB1m_
FNDA:0,_RINvNtCs7tkdMjTuzcM_18test_fuzz_internal4dirs31corpus_directory_from_args_typeNtNvNtNtCs1SoYQDD3VK8_5serde6string13target_fuzz__10write_args4ArgsEB1m_
FNDA:0,_RINvNtCs7tkdMjTuzcM_18test_fuzz_internal4dirs31corpus_directory_from_args_typeNtNvNtNtCs1SoYQDD3VK8_5serde6strukt13target_fuzz__10write_args4ArgsEB1m_
FNDA:0,_RINvNtCs7tkdMjTuzcM_18test_fuzz_internal4dirs37generic_args_directory_from_args_typeNtNtNtCs1SoYQDD3VK8_5serde10byte_array13target_fuzz__4ArgsEB1q_
FNDA:0,_RINvNtCs7tkdMjTuzcM_18test_fuzz_internal4dirs37generic_args_directory_from_args_typeNtNtNtCs1SoYQDD3VK8_5serde11unit_struct13target_fuzz__4ArgsEB1q_
FNDA:0,_RINvNtCs7tkdMjTuzcM_18test_fuzz_internal4dirs37generic_args_directory_from_args_typeNtNtNtCs1SoYQDD3VK8_5serde12tuple_struct13target_fuzz__4ArgsEB1q_
FNDA:0,_RINvNtCs7tkdMjTuzcM_18test_fuzz_internal4dirs37generic_args_directory_from_args_typeNtNtNtCs1SoYQDD3VK8_5serde12unit_variant13target_fuzz__4ArgsEB1q_
FNDA:0,_RINvNtCs7tkdMjTuzcM_18test_fuzz_internal4dirs37generic_args_directory_from_args_typeNtNtNtCs1SoYQDD3VK8_5serde13tuple_variant13target_fuzz__4ArgsEB1q_
FNDA:0,_RINvNtCs7tkdMjTuzcM_18test_fuzz_internal4dirs37generic_args_directory_from_args_typeNtNtNtCs1SoYQDD3VK8_5serde14newtype_struct13target_fuzz__4ArgsEB1q_
FNDA:0,_RINvNtCs7tkdMjTuzcM_18test_fuzz_internal4dirs37generic_args_directory_from_args_typeNtNtNtCs1SoYQDD3VK8_5serde14struct_variant13target_fuzz__4ArgsEB1q_
FNDA:0,_RINvNtCs7tkdMjTuzcM_18test_fuzz_internal4dirs37generic_args_directory_from_args_typeNtNtNtCs1SoYQDD3VK8_5serde15newtype_variant13target_fuzz__4ArgsEB1q_
FNDA:0,_RINvNtCs7tkdMjTuzcM_18test_fuzz_internal4dirs37generic_args_directory_from_args_typeNtNtNtCs1SoYQDD3VK8_5serde3map13target_fuzz__4ArgsEB1q_
FNDA:0,_RINvNtCs7tkdMjTuzcM_18test_fuzz_internal4dirs37generic_args_directory_from_args_typeNtNtNtCs1SoYQDD3VK8_5serde3seq13target_fuzz__4ArgsEB1q_
FNDA:0,_RINvNtCs7tkdMjTuzcM_18test_fuzz_internal4dirs37generic_args_directory_from_args_typeNtNtNtCs1SoYQDD3VK8_5serde4unit13target_fuzz__4ArgsEB1q_
FNDA:0,_RINvNtCs7tkdMjTuzcM_18test_fuzz_internal4dirs37generic_args_directory_from_args_typeNtNtNtCs1SoYQDD3VK8_5serde5tuple13target_fuzz__4ArgsEB1q_
FNDA:0,_RINvNtCs7tkdMjTuzcM_18test_fuzz_internal4dirs37generic_args_directory_from_args_typeNtNtNtCs1SoYQDD3VK8_5serde6option13target_fuzz__4ArgsEB1q_
FNDA:0,_RINvNtCs7tkdMjTuzcM_18test_fuzz_internal4dirs37generic_args_directory_from_args_typeNtNtNtCs1SoYQDD3VK8_5serde6string13target_fuzz__4ArgsEB1q_
FNDA:0,_RINvNtCs7tkdMjTuzcM_18test_fuzz_internal4dirs37generic_args_directory_from_args_typeNtNtNtCs1SoYQDD3VK8_5serde6strukt13target_fuzz__4ArgsEB1q_
FNDA:0,_RINvNtCs7tkdMjTuzcM_18test_fuzz_internal4dirs42impl_generic_args_directory_from_args_typeNtNtNtCs1SoYQDD3VK8_5serde10byte_array13target_fuzz__4ArgsEB1v_
FNDA:0,_RINvNtCs7tkdMjTuzcM_18test_fuzz_internal4dirs42impl_generic_args_directory_from_args_typeNtNtNtCs1SoYQDD3VK8_5serde11unit_struct13target_fuzz__4ArgsEB1v_
FNDA:0,_RINvNtCs7tkdMjTuzcM_18test_fuzz_internal4dirs42impl_generic_args_directory_from_args_typeNtNtNtCs1SoYQDD3VK8_5serde12tuple_struct13target_fuzz__4ArgsEB1v_
FNDA:0,_RINvNtCs7tkdMjTuzcM_18test_fuzz_internal4dirs42impl_generic_args_directory_from_args_typeNtNtNtCs1SoYQDD3VK8_5serde12unit_variant13target_fuzz__4ArgsEB1v_
FNDA:0,_RINvNtCs7tkdMjTuzcM_18test_fuzz_internal4dirs42impl_generic_args_directory_from_args_typeNtNtNtCs1SoYQDD3VK8_5serde13tuple_variant13target_fuzz__4ArgsEB1v_
FNDA:0,_RINvNtCs7tkdMjTuzcM_18test_fuzz_internal4dirs42impl_generic_args_directory_from_args_typeNtNtNtCs1SoYQDD3VK8_5serde14newtype_struct13target_fuzz__4ArgsEB1v_
FNDA:0,_RINvNtCs7tkdMjTuzcM_18test_fuzz_internal4dirs42impl_generic_args_directory_from_args_typeNtNtNtCs1SoYQDD3VK8_5serde14struct_variant13target_fuzz__4ArgsEB1v_
FNDA:0,_RINvNtCs7tkdMjTuzcM_18test_fuzz_internal4dirs42impl_generic_args_directory_from_args_typeNtNtNtCs1SoYQDD3VK8_5serde15newtype_variant13target_fuzz__4ArgsEB1v_
FNDA:0,_RINvNtCs7tkdMjTuzcM_18test_fuzz_internal4dirs42impl_generic_args_directory_from_args_typeNtNtNtCs1SoYQDD3VK8_5serde3map13target_fuzz__4ArgsEB1v_
FNDA:0,_RINvNtCs7tkdMjTuzcM_18test_fuzz_internal4dirs42impl_generic_args_directory_from_args_typeNtNtNtCs1SoYQDD3VK8_5serde3seq13target_fuzz__4ArgsEB1v_
FNDA:0,_RINvNtCs7tkdMjTuzcM_18test_fuzz_internal4dirs42impl_generic_args_directory_from_args_typeNtNtNtCs1SoYQDD3VK8_5serde4unit13target_fuzz__4ArgsEB1v_
FNDA:0,_RINvNtCs7tkdMjTuzcM_18test_fuzz_internal4dirs42impl_generic_args_directory_from_args_typeNtNtNtCs1SoYQDD3VK8_5serde5tuple13target_fuzz__4ArgsEB1v_
FNDA:0,_RINvNtCs7tkdMjTuzcM_18test_fuzz_internal4dirs42impl_generic_args_directory_from_args_typeNtNtNtCs1SoYQDD3VK8_5serde6option13target_fuzz__4ArgsEB1v_
FNDA:0,_RINvNtCs7tkdMjTuzcM_18test_fuzz_internal4dirs42impl_generic_args_directory_from_args_typeNtNtNtCs1SoYQDD3VK8_5serde6string13target_fuzz__4ArgsEB1v_
FNDA:0,_RINvNtCs7tkdMjTuzcM_18test_fuzz_internal4dirs42impl_generic_args_directory_from_args_typeNtNtNtCs1SoYQDD3VK8_5serde6strukt13target_fuzz__4ArgsEB1v_
FNDA:0,_RNCINvNtCs7tkdMjTuzcM_18test_fuzz_internal4dirs19path_from_args_typeNtNtNtCs1SoYQDD3VK8_5serde10byte_array13target_fuzz__4ArgsE0B1a_
FNDA:0,_RNCINvNtCs7tkdMjTuzcM_18test_fuzz_internal4dirs19path_from_args_typeNtNtNtCs1SoYQDD3VK8_5serde11unit_struct13target_fuzz__4ArgsE0B1a_
FNDA:0,_RNCINvNtCs7tkdMjTuzcM_18test_fuzz_internal4dirs19path_from_args_typeNtNtNtCs1SoYQDD3VK8_5serde12tuple_struct13target_fuzz__4ArgsE0B1a_
FNDA:0,_RNCINvNtCs7tkdMjTuzcM_18test_fuzz_internal4dirs19path_from_args_typeNtNtNtCs1SoYQDD3VK8_5serde12unit_variant13target_fuzz__4ArgsE0B1a_
FNDA:0,_RNCINvNtCs7tkdMjTuzcM_18test_fuzz_internal4dirs19path_from_args_typeNtNtNtCs1SoYQDD3VK8_5serde13tuple_variant13target_fuzz__4ArgsE0B1a_
FNDA:0,_RNCINvNtCs7tkdMjTuzcM_18test_fuzz_internal4dirs19path_from_args_typeNtNtNtCs1SoYQDD3VK8_5serde14newtype_struct13target_fuzz__4ArgsE0B1a_
FNDA:0,_RNCINvNtCs7tkdMjTuzcM_18test_fuzz_internal4dirs19path_from_args_typeNtNtNtCs1SoYQDD3VK8_5serde14struct_variant13target_fuzz__4ArgsE0B1a_
FNDA:0,_RNCINvNtCs7tkdMjTuzcM_18test_fuzz_internal4dirs19path_from_args_typeNtNtNtCs1SoYQDD3VK8_5serde15newtype_variant13target_fuzz__4ArgsE0B1a_
FNDA:0,_RNCINvNtCs7tkdMjTuzcM_18test_fuzz_internal4dirs19path_from_args_typeNtNtNtCs1SoYQDD3VK8_5serde3map13target_fuzz__4ArgsE0B1a_
FNDA:0,_RNCINvNtCs7tkdMjTuzcM_18test_fuzz_internal4dirs19path_from_args_typeNtNtNtCs1SoYQDD3VK8_5serde3seq13target_fuzz__4ArgsE0B1a_
FNDA:0,_RNCINvNtCs7tkdMjTuzcM_18test_fuzz_internal4dirs19path_from_args_typeNtNtNtCs1SoYQDD3VK8_5serde4unit13target_fuzz__4ArgsE0B1a_
FNDA:0,_RNCINvNtCs7tkdMjTuzcM_18test_fuzz_internal4dirs19path_from_args_typeNtNtNtCs1SoYQDD3VK8_5serde5tuple13target_fuzz__4ArgsE0B1a_
FNDA:0,_RNCINvNtCs7tkdMjTuzcM_18test_fuzz_internal4dirs19path_from_args_typeNtNtNtCs1SoYQDD3VK8_5serde6option13target_fuzz__4ArgsE0B1a_
FNDA:0,_RNCINvNtCs7tkdMjTuzcM_18test_fuzz_internal4dirs19path_from_args_typeNtNtNtCs1SoYQDD3VK8_5serde6string13target_fuzz__4ArgsE0B1a_
FNDA:0,_RNCINvNtCs7tkdMjTuzcM_18test_fuzz_internal4dirs19path_from_args_typeNtNtNtCs1SoYQDD3VK8_5serde6strukt13target_fuzz__4ArgsE0B1a_
FNDA:0,_RNCINvNtCs7tkdMjTuzcM_18test_fuzz_internal4dirs19path_from_args_typeNtNvNtNtCs1SoYQDD3VK8_5serde10byte_array13target_fuzz__10write_args4ArgsE0B1c_
FNDA:0,_RNCINvNtCs7tkdMjTuzcM_18test_fuzz_internal4dirs19path_from_args_typeNtNvNtNtCs1SoYQDD3VK8_5serde11unit_struct13target_fuzz__10write_args4ArgsE0B1c_
FNDA:0,_RNCINvNtCs7tkdMjTuzcM_18test_fuzz_internal4dirs19path_from_args_typeNtNvNtNtCs1SoYQDD3VK8_5serde12tuple_struct13target_fuzz__10write_args4ArgsE0B1c_
FNDA:0,_RNCINvNtCs7tkdMjTuzcM_18test_fuzz_internal4dirs19path_from_args_typeNtNvNtNtCs1SoYQDD3VK8_5serde12unit_variant13target_fuzz__10write_args4ArgsE0B1c_
FNDA:0,_RNCINvNtCs7tkdMjTuzcM_18test_fuzz_internal4dirs19path_from_args_typeNtNvNtNtCs1SoYQDD3VK8_5serde13tuple_variant13target_fuzz__10write_args4ArgsE0B1c_
FNDA:0,_RNCINvNtCs7tkdMjTuzcM_18test_fuzz_internal4dirs19path_from_args_typeNtNvNtNtCs1SoYQDD3VK8_5serde14newtype_struct13target_fuzz__10write_args4ArgsE0B1c_
FNDA:0,_RNCINvNtCs7tkdMjTuzcM_18test_fuzz_internal4dirs19path_from_args_typeNtNvNtNtCs1SoYQDD3VK8_5serde14struct_variant13target_fuzz__10write_args4ArgsE0B1c_
FNDA:0,_RNCINvNtCs7tkdMjTuzcM_18test_fuzz_internal4dirs19path_from_args_typeNtNvNtNtCs1SoYQDD3VK8_5serde15newtype_variant13target_fuzz__10write_args4ArgsE0B1c_
FNDA:0,_RNCINvNtCs7tkdMjTuzcM_18test_fuzz_internal4dirs19path_from_args_typeNtNvNtNtCs1SoYQDD3VK8_5serde3map13target_fuzz__10write_args4ArgsE0B1c_
FNDA:0,_RNCINvNtCs7tkdMjTuzcM_18test_fuzz_internal4dirs19path_from_args_typeNtNvNtNtCs1SoYQDD3VK8_5serde3seq13target_fuzz__10write_args4ArgsE0B1c_
FNDA:0,_RNCINvNtCs7tkdMjTuzcM_18test_fuzz_internal4dirs19path_from_args_typeNtNvNtNtCs1SoYQDD3VK8_5serde4unit13target_fuzz__10write_args4ArgsE0B1c_
FNDA:0,_RNCINvNtCs7tkdMjTuzcM_18test_fuzz_internal4dirs19path_from_args_typeNtNvNtNtCs1SoYQDD3VK8_5serde5tuple13target_fuzz__10write_args4ArgsE0B1c_
FNDA:0,_RNCINvNtCs7tkdMjTuzcM_18test_fuzz_internal4dirs19path_from_args_typeNtNvNtNtCs1SoYQDD3VK8_5serde6option13target_fuzz__10write_args4ArgsE0B1c_
FNDA:0,_RNCINvNtCs7tkdMjTuzcM_18test_fuzz_internal4dirs19path_from_args_typeNtNvNtNtCs1SoYQDD3VK8_5serde6string13target_fuzz__10write_args4ArgsE0B1c_
FNDA:0,_RNCINvNtCs7tkdMjTuzcM_18test_fuzz_internal4dirs19path_from_args_typeNtNvNtNtCs1SoYQDD3VK8_5serde6strukt13target_fuzz__10write_args4ArgsE0B1c_
FNDA:0,_RINvNtCs7qDQvy6XYpV_18test_fuzz_internal4dirs19path_from_args_typeNtNtCse1dW2A7tO57_10serde_attr13target_fuzz__4ArgsEB16_
FNDA:0,_RINvNtCs7qDQvy6XYpV_18test_fuzz_internal4dirs19path_from_args_typeNtNvNtCse1dW2A7tO57_10serde_attr13target_fuzz__10write_args4ArgsEB18_
FNDA:0,_RINvNtCs7qDQvy6XYpV_18test_fuzz_internal4dirs31corpus_directory_from_args_typeNtNvNtCse1dW2A7tO57_10serde_attr13target_fuzz__10write_args4ArgsEB1k_
FNDA:0,_RINvNtCs7qDQvy6XYpV_18test_fuzz_internal4dirs37generic_args_directory_from_args_typeNtNtCse1dW2A7tO57_10serde_attr13target_fuzz__4ArgsEB1o_
FNDA:0,_RINvNtCs7qDQvy6XYpV_18test_fuzz_internal4dirs42impl_generic_args_directory_from_args_typeNtNtCse1dW2A7tO57_10serde_attr13target_fuzz__4ArgsEB1t_
FNDA:0,_RNCINvNtCs7qDQvy6XYpV_18test_fuzz_internal4dirs19path_from_args_typeNtNtCse1dW2A7tO57_10serde_attr13target_fuzz__4ArgsE0B18_
FNDA:0,_RNCINvNtCs7qDQvy6XYpV_18test_fuzz_internal4dirs19path_from_args_typeNtNvNtCse1dW2A7tO57_10serde_attr13target_fuzz__10write_args4ArgsE0B1a_
FNDA:0,_RINvNtCs7tkdMjTuzcM_18test_fuzz_internal4dirs19path_from_args_typeNtNtCsiHwGo1R4TOm_10serde_attr13target_fuzz__4ArgsEB16_
FNDA:0,_RINvNtCs7tkdMjTuzcM_18test_fuzz_internal4dirs19path_from_args_typeNtNvNtCsiHwGo1R4TOm_10serde_attr13target_fuzz__10write_args4ArgsEB18_
FNDA:0,_RINvNtCs7tkdMjTuzcM_18test_fuzz_internal4dirs31corpus_directory_from_args_typeNtNvNtCsiHwGo1R4TOm_10serde_attr13target_fuzz__10write_args4ArgsEB1k_
FNDA:0,_RINvNtCs7tkdMjTuzcM_18test_fuzz_internal4dirs37generic_args_directory_from_args_typeNtNtCsiHwGo1R4TOm_10serde_attr13target_fuzz__4ArgsEB1o_
FNDA:0,_RINvNtCs7tkdMjTuzcM_18test_fuzz_internal4dirs42impl_generic_args_directory_from_args_typeNtNtCsiHwGo1R4TOm_10serde_attr13target_fuzz__4ArgsEB1t_
FNDA:0,_RNCINvNtCs7tkdMjTuzcM_18test_fuzz_internal4dirs19path_from_args_typeNtNtCsiHwGo1R4TOm_10serde_attr13target_fuzz__4ArgsE0B18_
FNDA:0,_RNCINvNtCs7tkdMjTuzcM_18test_fuzz_internal4dirs19path_from_args_typeNtNvNtCsiHwGo1R4TOm_10serde_attr13target_fuzz__10write_args4ArgsE0B1a_
FNDA:0,_RINvNtCs7qDQvy6XYpV_18test_fuzz_internal4dirs19path_from_args_typeNtNtCshADnmsIT5b7_10serde_attr13target_fuzz__4ArgsEB16_
FNDA:0,_RINvNtCs7qDQvy6XYpV_18test_fuzz_internal4dirs19path_from_args_typeNtNvNtCshADnmsIT5b7_10serde_attr13target_fuzz__10write_args4ArgsEB18_
FNDA:0,_RINvNtCs7qDQvy6XYpV_18test_fuzz_internal4dirs31corpus_directory_from_args_typeNtNvNtCshADnmsIT5b7_10serde_attr13target_fuzz__10write_args4ArgsEB1k_
FNDA:0,_RINvNtCs7qDQvy6XYpV_18test_fuzz_internal4dirs37generic_args_directory_from_args_typeNtNtCshADnmsIT5b7_10serde_attr13target_fuzz__4ArgsEB1o_
FNDA:0,_RINvNtCs7qDQvy6XYpV_18test_fuzz_internal4dirs42impl_generic_args_directory_from_args_typeNtNtCshADnmsIT5b7_10serde_attr13target_fuzz__4ArgsEB1t_
FNDA:0,_RNCINvNtCs7qDQvy6XYpV_18test_fuzz_internal4dirs19path_from_args_typeNtNtCshADnmsIT5b7_10serde_attr13target_fuzz__4ArgsE0B18_
FNDA:0,_RNCINvNtCs7qDQvy6XYpV_18test_fuzz_internal4dirs19path_from_args_typeNtNvNtCshADnmsIT5b7_10serde_attr13target_fuzz__10write_args4ArgsE0B1a_
FNDA:0,_RINvNtCs7tkdMjTuzcM_18test_fuzz_internal4dirs19path_from_args_typeNtNtCscP0tqnGvMPv_14test_fuzz_impl17struct_bar_fuzz__4ArgsEB16_
FNDA:0,_RINvNtCs7tkdMjTuzcM_18test_fuzz_internal4dirs19path_from_args_typeNtNtCscP0tqnGvMPv_14test_fuzz_impl17struct_foo_fuzz__4ArgsEB16_
FNDA:0,_RINvNtCs7tkdMjTuzcM_18test_fuzz_internal4dirs19path_from_args_typeNtNvNtCscP0tqnGvMPv_14test_fuzz_impl17struct_bar_fuzz__10write_args4ArgsEB18_
FNDA:0,_RINvNtCs7tkdMjTuzcM_18test_fuzz_internal4dirs19path_from_args_typeNtNvNtCscP0tqnGvMPv_14test_fuzz_impl17struct_foo_fuzz__10write_args4ArgsEB18_
FNDA:0,_RINvNtCs7tkdMjTuzcM_18test_fuzz_internal4dirs31corpus_directory_from_args_typeNtNvNtCscP0tqnGvMPv_14test_fuzz_impl17struct_bar_fuzz__10write_args4ArgsEB1k_
FNDA:0,_RINvNtCs7tkdMjTuzcM_18test_fuzz_internal4dirs31corpus_directory_from_args_typeNtNvNtCscP0tqnGvMPv_14test_fuzz_impl17struct_foo_fuzz__10write_args4ArgsEB1k_
FNDA:0,_RINvNtCs7tkdMjTuzcM_18test_fuzz_internal4dirs37generic_args_directory_from_args_typeNtNtCscP0tqnGvMPv_14test_fuzz_impl17struct_bar_fuzz__4ArgsEB1o_
FNDA:0,_RINvNtCs7tkdMjTuzcM_18test_fuzz_internal4dirs37generic_args_directory_from_args_typeNtNtCscP0tqnGvMPv_14test_fuzz_impl17struct_foo_fuzz__4ArgsEB1o_
FNDA:0,_RINvNtCs7tkdMjTuzcM_18test_fuzz_internal4dirs42impl_generic_args_directory_from_args_typeNtNtCscP0tqnGvMPv_14test_fuzz_impl17struct_bar_fuzz__4ArgsEB1t_
FNDA:0,_RINvNtCs7tkdMjTuzcM_18test_fuzz_internal4dirs42impl_generic_args_directory_from_args_typeNtNtCscP0tqnGvMPv_14test_fuzz_impl17struct_foo_fuzz__4ArgsEB1t_
FNDA:0,_RNCINvNtCs7tkdMjTuzcM_18test_fuzz_internal4dirs19path_from_args_typeNtNtCscP0tqnGvMPv_14test_fuzz_impl17struct_bar_fuzz__4ArgsE0B18_
FNDA:0,_RNCINvNtCs7tkdMjTuzcM_18test_fuzz_internal4dirs19path_from_args_typeNtNtCscP0tqnGvMPv_14test_fuzz_impl17struct_foo_fuzz__4ArgsE0B18_
FNDA:0,_RNCINvNtCs7tkdMjTuzcM_18test_fuzz_internal4dirs19path_from_args_typeNtNvNtCscP0tqnGvMPv_14test_fuzz_impl17struct_bar_fuzz__10write_args4ArgsE0B1a_
FNDA:0,_RNCINvNtCs7tkdMjTuzcM_18test_fuzz_internal4dirs19path_from_args_typeNtNvNtCscP0tqnGvMPv_14test_fuzz_impl17struct_foo_fuzz__10write_args4ArgsE0B1a_
FNDA:0,_RINvNtCs7qDQvy6XYpV_18test_fuzz_internal4dirs19path_from_args_typeNtNtCskJVKdVyHrLv_14test_fuzz_impl17struct_bar_fuzz__4ArgsEB16_
FNDA:0,_RINvNtCs7qDQvy6XYpV_18test_fuzz_internal4dirs19path_from_args_typeNtNtCskJVKdVyHrLv_14test_fuzz_impl17struct_foo_fuzz__4ArgsEB16_
FNDA:0,_RINvNtCs7qDQvy6XYpV_18test_fuzz_internal4dirs19path_from_args_typeNtNvNtCskJVKdVyHrLv_14test_fuzz_impl17struct_bar_fuzz__10write_args4ArgsEB18_
FNDA:0,_RINvNtCs7qDQvy6XYpV_18test_fuzz_internal4dirs19path_from_args_typeNtNvNtCskJVKdVyHrLv_14test_fuzz_impl17struct_foo_fuzz__10write_args4ArgsEB18_
FNDA:0,_RINvNtCs7qDQvy6XYpV_18test_fuzz_internal4dirs31corpus_directory_from_args_typeNtNvNtCskJVKdVyHrLv_14test_fuzz_impl17struct_bar_fuzz__10write_args4ArgsEB1k_
FNDA:0,_RINvNtCs7qDQvy6XYpV_18test_fuzz_internal4dirs31corpus_directory_from_args_typeNtNvNtCskJVKdVyHrLv_14test_fuzz_impl17struct_foo_fuzz__10write_args4ArgsEB1k_
FNDA:0,_RINvNtCs7qDQvy6XYpV_18test_fuzz_internal4dirs37generic_args_directory_from_args_typeNtNtCskJVKdVyHrLv_14test_fuzz_impl17struct_bar_fuzz__4ArgsEB1o_
FNDA:0,_RINvNtCs7qDQvy6XYpV_18test_fuzz_internal4dirs37generic_args_directory_from_args_typeNtNtCskJVKdVyHrLv_14test_fuzz_impl17struct_foo_fuzz__4ArgsEB1o_
FNDA:0,_RINvNtCs7qDQvy6XYpV_18test_fuzz_internal4dirs42impl_generic_args_directory_from_args_typeNtNtCskJVKdVyHrLv_14test_fuzz_impl17struct_bar_fuzz__4ArgsEB1t_
FNDA:0,_RINvNtCs7qDQvy6XYpV_18test_fuzz_internal4dirs42impl_generic_args_directory_from_args_typeNtNtCskJVKdVyHrLv_14test_fuzz_impl17struct_foo_fuzz__4ArgsEB1t_
FNDA:0,_RNCINvNtCs7qDQvy6XYpV_18test_fuzz_internal4dirs19path_from_args_typeNtNtCskJVKdVyHrLv_14test_fuzz_impl17struct_bar_fuzz__4ArgsE0B18_
FNDA:0,_RNCINvNtCs7qDQvy6XYpV_18test_fuzz_internal4dirs19path_from_args_typeNtNtCskJVKdVyHrLv_14test_fuzz_impl17struct_foo_fuzz__4ArgsE0B18_
FNDA:0,_RNCINvNtCs7qDQvy6XYpV_18test_fuzz_internal4dirs19path_from_args_typeNtNvNtCskJVKdVyHrLv_14test_fuzz_impl17struct_bar_fuzz__10write_args4ArgsE0B1a_
FNDA:0,_RNCINvNtCs7qDQvy6XYpV_18test_fuzz_internal4dirs19path_from_args_typeNtNvNtCskJVKdVyHrLv_14test_fuzz_impl17struct_foo_fuzz__10write_args4ArgsE0B1a_
FNDA:0,_RINvNtCs7qDQvy6XYpV_18test_fuzz_internal4dirs19path_from_args_typeNtNtCs5EH7ZKPdI2D_14test_fuzz_impl17struct_bar_fuzz__4ArgsEB16_
FNDA:0,_RINvNtCs7qDQvy6XYpV_18test_fuzz_internal4dirs19path_from_args_typeNtNtCs5EH7ZKPdI2D_14test_fuzz_impl17struct_foo_fuzz__4ArgsEB16_
FNDA:0,_RINvNtCs7qDQvy6XYpV_18test_fuzz_internal4dirs19path_from_args_typeNtNvNtCs5EH7ZKPdI2D_14test_fuzz_impl17struct_bar_fuzz__10write_args4ArgsEB18_
FNDA:0,_RINvNtCs7qDQvy6XYpV_18test_fuzz_internal4dirs19path_from_args_typeNtNvNtCs5EH7ZKPdI2D_14test_fuzz_impl17struct_foo_fuzz__10write_args4ArgsEB18_
FNDA:0,_RINvNtCs7qDQvy6XYpV_18test_fuzz_internal4dirs31corpus_directory_from_args_typeNtNvNtCs5EH7ZKPdI2D_14test_fuzz_impl17struct_bar_fuzz__10write_args4ArgsEB1k_
FNDA:0,_RINvNtCs7qDQvy6XYpV_18test_fuzz_internal4dirs31corpus_directory_from_args_typeNtNvNtCs5EH7ZKPdI2D_14test_fuzz_impl17struct_foo_fuzz__10write_args4ArgsEB1k_
FNDA:0,_RINvNtCs7qDQvy6XYpV_18test_fuzz_internal4dirs37generic_args_directory_from_args_typeNtNtCs5EH7ZKPdI2D_14test_fuzz_impl17struct_bar_fuzz__4ArgsEB1o_
FNDA:0,_RINvNtCs7qDQvy6XYpV_18test_fuzz_internal4dirs37generic_args_directory_from_args_typeNtNtCs5EH7ZKPdI2D_14test_fuzz_impl17struct_foo_fuzz__4ArgsEB1o_
FNDA:0,_RINvNtCs7qDQvy6XYpV_18test_fuzz_internal4dirs42impl_generic_args_directory_from_args_typeNtNtCs5EH7ZKPdI2D_14test_fuzz_impl17struct_bar_fuzz__4ArgsEB1t_
FNDA:0,_RINvNtCs7qDQvy6XYpV_18test_fuzz_internal4dirs42impl_generic_args_directory_from_args_typeNtNtCs5EH7ZKPdI2D_14test_fuzz_impl17struct_foo_fuzz__4ArgsEB1t_
FNDA:0,_RNCINvNtCs7qDQvy6XYpV_18test_fuzz_internal4dirs19path_from_args_typeNtNtCs5EH7ZKPdI2D_14test_fuzz_impl17struct_bar_fuzz__4ArgsE0B18_
FNDA:0,_RNCINvNtCs7qDQvy6XYpV_18test_fuzz_internal4dirs19path_from_args_typeNtNtCs5EH7ZKPdI2D_14test_fuzz_impl17struct_foo_fuzz__4ArgsE0B18_
FNDA:0,_RNCINvNtCs7qDQvy6XYpV_18test_fuzz_internal4dirs19path_from_args_typeNtNvNtCs5EH7ZKPdI2D_14test_fuzz_impl17struct_bar_fuzz__10write_args4ArgsE0B1a_
FNDA:0,_RNCINvNtCs7qDQvy6XYpV_18test_fuzz_internal4dirs19path_from_args_typeNtNvNtCs5EH7ZKPdI2D_14test_fuzz_impl17struct_foo_fuzz__10write_args4ArgsE0B1a_
FNDA:0,_RINvNtCs7qDQvy6XYpV_18test_fuzz_internal4dirs19path_from_args_typeNtNtCsiHLqJey6pNr_7unserde13target_fuzz__4ArgsEB16_
FNDA:0,_RINvNtCs7qDQvy6XYpV_18test_fuzz_internal4dirs19path_from_args_typeNtNtCsiHLqJey6pNr_7unserde27target_in_production_fuzz__4ArgsEB16_
FNDA:0,_RINvNtCs7qDQvy6XYpV_18test_fuzz_internal4dirs37generic_args_directory_from_args_typeNtNtCsiHLqJey6pNr_7unserde13target_fuzz__4ArgsEB1o_
FNDA:0,_RINvNtCs7qDQvy6XYpV_18test_fuzz_internal4dirs37generic_args_directory_from_args_typeNtNtCsiHLqJey6pNr_7unserde27target_in_production_fuzz__4ArgsEB1o_
FNDA:0,_RINvNtCs7qDQvy6XYpV_18test_fuzz_internal4dirs42impl_generic_args_directory_from_args_typeNtNtCsiHLqJey6pNr_7unserde13target_fuzz__4ArgsEB1t_
FNDA:0,_RINvNtCs7qDQvy6XYpV_18test_fuzz_internal4dirs42impl_generic_args_directory_from_args_typeNtNtCsiHLqJey6pNr_7unserde27target_in_production_fuzz__4ArgsEB1t_
FNDA:0,_RNCINvNtCs7qDQvy6XYpV_18test_fuzz_internal4dirs19path_from_args_typeNtNtCsiHLqJey6pNr_7unserde13target_fuzz__4ArgsE0B18_
FNDA:0,_RNCINvNtCs7qDQvy6XYpV_18test_fuzz_internal4dirs19path_from_args_typeNtNtCsiHLqJey6pNr_7unserde27target_in_production_fuzz__4ArgsE0B18_
FNDA:0,_RINvNtCs7tkdMjTuzcM_18test_fuzz_internal4dirs19path_from_args_typeNtNtCslzjnfDmkuZ2_7unserde13target_fuzz__4ArgsEB16_
FNDA:0,_RINvNtCs7tkdMjTuzcM_18test_fuzz_internal4dirs19path_from_args_typeNtNtCslzjnfDmkuZ2_7unserde27target_in_production_fuzz__4ArgsEB16_
FNDA:0,_RINvNtCs7tkdMjTuzcM_18test_fuzz_internal4dirs37generic_args_directory_from_args_typeNtNtCslzjnfDmkuZ2_7unserde13target_fuzz__4ArgsEB1o_
FNDA:0,_RINvNtCs7tkdMjTuzcM_18test_fuzz_internal4dirs37generic_args_directory_from_args_typeNtNtCslzjnfDmkuZ2_7unserde27target_in_production_fuzz__4ArgsEB1o_
FNDA:0,_RINvNtCs7tkdMjTuzcM_18test_fuzz_internal4dirs42impl_generic_args_directory_from_args_typeNtNtCslzjnfDmkuZ2_7unserde13target_fuzz__4ArgsEB1t_
FNDA:0,_RINvNtCs7tkdMjTuzcM_18test_fuzz_internal4dirs42impl_generic_args_directory_from_args_typeNtNtCslzjnfDmkuZ2_7unserde27target_in_production_fuzz__4ArgsEB1t_
FNDA:0,_RNCINvNtCs7tkdMjTuzcM_18test_fuzz_internal4dirs19path_from_args_typeNtNtCslzjnfDmkuZ2_7unserde13target_fuzz__4ArgsE0B18_
FNDA:0,_RNCINvNtCs7tkdMjTuzcM_18test_fuzz_internal4dirs19path_from_args_typeNtNtCslzjnfDmkuZ2_7unserde27target_in_production_fuzz__4ArgsE0B18_
FNDA:0,_RINvNtCs7qDQvy6XYpV_18test_fuzz_internal4dirs19path_from_args_typeNtNtCs4mFuY1lAtpT_7unserde13target_fuzz__4ArgsEB16_
FNDA:0,_RINvNtCs7qDQvy6XYpV_18test_fuzz_internal4dirs19path_from_args_typeNtNtCs4mFuY1lAtpT_7unserde27target_in_production_fuzz__4ArgsEB16_
FNDA:0,_RINvNtCs7qDQvy6XYpV_18test_fuzz_internal4dirs37generic_args_directory_from_args_typeNtNtCs4mFuY1lAtpT_7unserde13target_fuzz__4ArgsEB1o_
FNDA:0,_RINvNtCs7qDQvy6XYpV_18test_fuzz_internal4dirs37generic_args_directory_from_args_typeNtNtCs4mFuY1lAtpT_7unserde27target_in_production_fuzz__4ArgsEB1o_
FNDA:0,_RINvNtCs7qDQvy6XYpV_18test_fuzz_internal4dirs42impl_generic_args_directory_from_args_typeNtNtCs4mFuY1lAtpT_7unserde13target_fuzz__4ArgsEB1t_
FNDA:0,_RINvNtCs7qDQvy6XYpV_18test_fuzz_internal4dirs42impl_generic_args_directory_from_args_typeNtNtCs4mFuY1lAtpT_7unserde27target_in_production_fuzz__4ArgsEB1t_
FNDA:0,_RNCINvNtCs7qDQvy6XYpV_18test_fuzz_internal4dirs19path_from_args_typeNtNtCs4mFuY1lAtpT_7unserde13target_fuzz__4ArgsE0B18_
FNDA:0,_RNCINvNtCs7qDQvy6XYpV_18test_fuzz_internal4dirs19path_from_args_typeNtNtCs4mFuY1lAtpT_7unserde27target_in_production_fuzz__4ArgsE0B18_
FNF:24
FNH:0
DA:12,0
DA:13,0
DA:14,0
DA:17,0
DA:18,0
DA:19,0
DA:22,0
DA:23,0
DA:24,0
DA:27,0
DA:28,0
DA:29,0
DA:32,0
DA:33,0
DA:34,0
DA:37,0
DA:38,0
DA:39,0
DA:42,0
DA:43,0
DA:44,0
DA:47,0
DA:48,0
DA:49,0
DA:52,0
DA:53,0
DA:54,0
DA:57,0
DA:58,0
DA:59,0
DA:62,0
DA:64,0
DA:65,0
DA:68,0
DA:70,0
DA:71,0
DA:74,0
DA:76,0
DA:77,0
DA:80,0
DA:82,0
DA:83,0
DA:86,0
DA:87,0
DA:88,0
DA:89,0
DA:90,0
DA:91,0
DA:93,0
DA:95,0
DA:96,0
DA:97,0
DA:98,0
DA:100,0
DA:102,0
DA:103,0
DA:105,0
DA:106,0
DA:107,0
DA:110,0
DA:111,0
DA:112,0
DA:113,0
DA:114,0
DA:115,0
DA:116,0
DA:117,0
DA:118,0
DA:119,0
DA:120,0
DA:123,0
DA:124,0
DA:125,0
DA:126,0
DA:127,0
DA:129,0
DA:130,0
DA:131,0
DA:132,0
DA:133,0
DA:136,0
DA:137,0
DA:138,0
DA:139,0
DA:140,0
DA:141,0
DA:142,0
DA:145,0
DA:146,0
DA:147,0
BRF:0
BRH:0
LF:92
LH:0
end_of_record
SF:[REPO]/internal/src/serde_format.rs
FN:56,_RINvNtCs7qDQvy6XYpV_18test_fuzz_internal12serde_format11deserializeNtNvMNtCsgIkjcW1KA6G_5alloc13target_fuzz__INtB18_11UsingReaderpE9read_args4ArgsNtNtNtCsiThrkg7suPy_3std2io5stdio5StdinEB1a_
FN:32,_RINvNtCs7qDQvy6XYpV_18test_fuzz_internal12serde_format9serializeNtNvNtCsgIkjcW1KA6G_5alloc13target_fuzz__10write_args4ArgsEB16_
FN:56,_RINvNtCs7qDQvy6XYpV_18test_fuzz_internal12serde_format11deserializeppEB4_
FN:32,_RINvNtCs7qDQvy6XYpV_18test_fuzz_internal12serde_format9serializepEB4_
FN:56,_RINvNtCs7tkdMjTuzcM_18test_fuzz_internal12serde_format11deserializeNtNvMNtCs4N18HtGFFUR_5alloc13target_fuzz__INtB18_11UsingReaderpE9read_args4ArgsNtNtNtCsiThrkg7suPy_3std2io5stdio5StdinEB1a_
FN:32,_RINvNtCs7tkdMjTuzcM_18test_fuzz_internal12serde_format9serializeNtNvNtCs4N18HtGFFUR_5alloc13target_fuzz__10write_args4ArgsEB16_
FN:56,_RINvNtCs7tkdMjTuzcM_18test_fuzz_internal12serde_format11deserializeppEB4_
FN:32,_RINvNtCs7tkdMjTuzcM_18test_fuzz_internal12serde_format9serializepEB4_
FN:56,_RINvNtCs7qDQvy6XYpV_18test_fuzz_internal12serde_format11deserializeNtNvMNtCs4yETEQZarcM_5alloc13target_fuzz__INtB18_11UsingReaderpE9read_args4ArgsNtNtNtCsiThrkg7suPy_3std2io5stdio5StdinEB1a_
FN:32,_RINvNtCs7qDQvy6XYpV_18test_fuzz_internal12serde_format9serializeNtNvNtCs4yETEQZarcM_5alloc13target_fuzz__10write_args4ArgsEB16_
FN:56,_RINvNtCs7qDQvy6XYpV_18test_fuzz_internal12serde_format11deserializeNtNvMNtCscRmF3GD5ZpW_3arc13target_fuzz__INtB18_11UsingReaderpE9read_args4ArgsNtNtNtCsiThrkg7suPy_3std2io5stdio5StdinEB1a_
FN:32,_RINvNtCs7qDQvy6XYpV_18test_fuzz_internal12serde_format9serializeNtNvNtCscRmF3GD5ZpW_3arc13target_fuzz__10write_args4ArgsEB16_
FN:56,_RINvNtCs7qDQvy6XYpV_18test_fuzz_internal12serde_format11deserializeNtNvMNtCs6h78RqNvxg8_3arc13target_fuzz__INtB18_11UsingReaderpE9read_args4ArgsNtNtNtCsiThrkg7suPy_3std2io5stdio5StdinEB1a_
FN:32,_RINvNtCs7qDQvy6XYpV_18test_fuzz_internal12serde_format9serializeNtNvNtCs6h78RqNvxg8_3arc13target_fuzz__10write_args4ArgsEB16_
FN:56,_RINvNtCs7tkdMjTuzcM_18test_fuzz_internal12serde_format11deserializeNtNvMNtCs9osIRDYkut1_3arc13target_fuzz__INtB18_11UsingReaderpE9read_args4ArgsNtNtNtCsiThrkg7suPy_3std2io5stdio5StdinEB1a_
FN:32,_RINvNtCs7tkdMjTuzcM_18test_fuzz_internal12serde_format9serializeNtNvNtCs9osIRDYkut1_3arc13target_fuzz__10write_args4ArgsEB16_
FN:56,_RINvNtCs7qDQvy6XYpV_18test_fuzz_internal12serde_format11deserializeNtNvMNtCsjdfzKIN8Gq0_6assert13target_fuzz__INtB18_11UsingReaderpE9read_args4ArgsNtNtNtCsiThrkg7suPy_3std2io5stdio5StdinEB1a_
FN:32,_RINvNtCs7qDQvy6XYpV_18test_fuzz_internal12serde_format9serializeNtNvNtCsjdfzKIN8Gq0_6assert13target_fuzz__10write_args4ArgsEB16_
FN:56,_RINvNtCs7qDQvy6XYpV_18test_fuzz_internal12serde_format11deserializeNtNvMNtCsjRaCTmDyugU_6assert13target_fuzz__INtB18_11UsingReaderpE9read_args4ArgsNtNtNtCsiThrkg7suPy_3std2io5stdio5StdinEB1a_
FN:32,_RINvNtCs7qDQvy6XYpV_18test_fuzz_internal12serde_format9serializeNtNvNtCsjRaCTmDyugU_6assert13target_fuzz__10write_args4ArgsEB16_
FN:56,_RINvNtCs7tkdMjTuzcM_18test_fuzz_internal12serde_format11deserializeNtNvMNtCsjogtLd8pnUT_6assert13target_fuzz__INtB18_11UsingReaderpE9read_args4ArgsNtNtNtCsiThrkg7suPy_3std2io5stdio5StdinEB1a_
FN:32,_RINvNtCs7tkdMjTuzcM_18test_fuzz_internal12serde_format9serializeNtNvNtCsjogtLd8pnUT_6assert13target_fuzz__10write_args4ArgsEB16_
FN:56,_RINvNtCs7qDQvy6XYpV_18test_fuzz_internal12serde_format11deserializeINtNvMNtCsb5coM0ghPbL_15associated_type20serializes_to_fuzz__INtB19_11UsingReaderpE9read_args4ArgsNtB1b_7AddressENtNtNtCsiThrkg7suPy_3std2io5stdio5StdinEB1b_
FN:32,_RINvNtCs7qDQvy6XYpV_18test_fuzz_internal12serde_format9serializeINtNvNtCsb5coM0ghPbL_15associated_type20serializes_to_fuzz__10write_args4ArgsNtB17_7AddressEEB17_
FN:56,_RINvNtCs7qDQvy6XYpV_18test_fuzz_internal12serde_format11deserializeINtNvMNtCscifRXp3YgIu_15associated_type20serializes_to_fuzz__INtB19_11UsingReaderpE9read_args4ArgsNtB1b_7AddressENtNtNtCsiThrkg7suPy_3std2io5stdio5StdinEB1b_
FN:32,_RINvNtCs7qDQvy6XYpV_18test_fuzz_internal12serde_format9serializeINtNvNtCscifRXp3YgIu_15associated_type20serializes_to_fuzz__10write_args4ArgsNtB17_7AddressEEB17_
FN:56,_RINvNtCs7tkdMjTuzcM_18test_fuzz_internal12serde_format11deserializeINtNvMNtCsl6zEQTYg4co_15associated_type20serializes_to_fuzz__INtB19_11UsingReaderpE9read_args4ArgsNtB1b_7AddressENtNtNtCsiThrkg7suPy_3std2io5stdio5StdinEB1b_
FN:32,_RINvNtCs7tkdMjTuzcM_18test_fuzz_internal12serde_format9serializeINtNvNtCsl6zEQTYg4co_15associated_type20serializes_to_fuzz__10write_args4ArgsNtB17_7AddressEEB17_
FN:56,_RINvNtCs7qDQvy6XYpV_18test_fuzz_internal12serde_format11deserializeNtNvMNtNtCsbvjJBtxq0cj_13auto_generate6signed13target_fuzz__INtB18_11UsingReaderpE9read_args4ArgsNtNtNtCsiThrkg7suPy_3std2io5stdio5StdinEB1c_
FN:56,_RINvNtCs7qDQvy6XYpV_18test_fuzz_internal12serde_format11deserializeNtNvMNtNtCsbvjJBtxq0cj_13auto_generate8unsigned13target_fuzz__INtB18_11UsingReaderpE9read_args4ArgsNtNtNtCsiThrkg7suPy_3std2io5stdio5StdinEB1c_
FN:32,_RINvNtCs7qDQvy6XYpV_18test_fuzz_internal12serde_format9serializeNtNvNtNtCsbvjJBtxq0cj_13auto_generate6signed13target_fuzz__10write_args4ArgsEB18_
FN:32,_RINvNtCs7qDQvy6XYpV_18test_fuzz_internal12serde_format9serializeNtNvNtNtCsbvjJBtxq0cj_13auto_generate8unsigned13target_fuzz__10write_args4ArgsEB18_
FN:56,_RINvNtCs7qDQvy6XYpV_18test_fuzz_internal12serde_format11deserializeNtNvMNtNtCs80yJKyN2fFa_13auto_generate6signed13target_fuzz__INtB18_11UsingReaderpE9read_args4ArgsNtNtNtCsiThrkg7suPy_3std2io5stdio5StdinEB1c_
FN:56,_RINvNtCs7qDQvy6XYpV_18test_fuzz_internal12serde_format11deserializeNtNvMNtNtCs80yJKyN2fFa_13auto_generate8unsigned13target_fuzz__INtB18_11UsingReaderpE9read_args4ArgsNtNtNtCsiThrkg7suPy_3std2io5stdio5StdinEB1c_
FN:32,_RINvNtCs7qDQvy6XYpV_18test_fuzz_internal12serde_format9serializeNtNvNtNtCs80yJKyN2fFa_13auto_generate6signed13target_fuzz__10write_args4ArgsEB18_
FN:32,_RINvNtCs7qDQvy6XYpV_18test_fuzz_internal12serde_format9serializeNtNvNtNtCs80yJKyN2fFa_13auto_generate8unsigned13target_fuzz__10write_args4ArgsEB18_
FN:56,_RINvNtCs7tkdMjTuzcM_18test_fuzz_internal12serde_format11deserializeNtNvMNtNtCs7nMLI42MKCZ_13auto_generate6signed13target_fuzz__INtB18_11UsingReaderpE9read_args4ArgsNtNtNtCsiThrkg7suPy_3std2io5stdio5StdinEB1c_
FN:56,_RINvNtCs7tkdMjTuzcM_18test_fuzz_internal12serde_format11deserializeNtNvMNtNtCs7nMLI42MKCZ_13auto_generate8unsigned13target_fuzz__INtB18_11UsingReaderpE9read_args4ArgsNtNtNtCsiThrkg7suPy_3std2io5stdio5StdinEB1c_
FN:32,_RINvNtCs7tkdMjTuzcM_18test_fuzz_internal12serde_format9serializeNtNvNtNtCs7nMLI42MKCZ_13auto_generate6signed13target_fuzz__10write_args4ArgsEB18_
FN:32,_RINvNtCs7tkdMjTuzcM_18test_fuzz_internal12serde_format9serializeNtNvNtNtCs7nMLI42MKCZ_13auto_generate8unsigned13target_fuzz__10write_args4ArgsEB18_
FN:56,_RINvNtCs7tkdMjTuzcM_18test_fuzz_internal12serde_format11deserializeNtNvMNtCslbWeq7plg0h_16calm_and_panicky11calm_fuzz__INtB18_11UsingReaderpE9read_args4ArgsNtNtNtCsiThrkg7suPy_3std2io5stdio5StdinEB1a_
FN:56,_RINvNtCs7tkdMjTuzcM_18test_fuzz_internal12serde_format11deserializeNtNvMNtCslbWeq7plg0h_16calm_and_panicky14panicky_fuzz__INtB18_11UsingReaderpE9read_args4ArgsNtNtNtCsiThrkg7suPy_3std2io5stdio5StdinEB1a_
FN:32,_RINvNtCs7tkdMjTuzcM_18test_fuzz_internal12serde_format9serializeNtNvNtCslbWeq7plg0h_16calm_and_panicky11calm_fuzz__10write_args4ArgsEB16_
FN:32,_RINvNtCs7tkdMjTuzcM_18test_fuzz_internal12serde_format9serializeNtNvNtCslbWeq7plg0h_16calm_and_panicky14panicky_fuzz__10write_args4ArgsEB16_
FN:56,_RINvNtCs7qDQvy6XYpV_18test_fuzz_internal12serde_format11deserializeNtNvMNtCs4HkUNT6A1sF_16calm_and_panicky11calm_fuzz__INtB18_11UsingReaderpE9read_args4ArgsNtNtNtCsiThrkg7suPy_3std2io5stdio5StdinEB1a_
FN:56,_RINvNtCs7qDQvy6XYpV_18test_fuzz_internal12serde_format11deserializeNtNvMNtCs4HkUNT6A1sF_16calm_and_panicky14panicky_fuzz__INtB18_11UsingReaderpE9read_args4ArgsNtNtNtCsiThrkg7suPy_3std2io5stdio5StdinEB1a_
FN:32,_RINvNtCs7qDQvy6XYpV_18test_fuzz_internal12serde_format9serializeNtNvNtCs4HkUNT6A1sF_16calm_and_panicky11calm_fuzz__10write_args4ArgsEB16_
FN:32,_RINvNtCs7qDQvy6XYpV_18test_fuzz_internal12serde_format9serializeNtNvNtCs4HkUNT6A1sF_16calm_and_panicky14panicky_fuzz__10write_args4ArgsEB16_
FN:56,_RINvNtCs7qDQvy6XYpV_18test_fuzz_internal12serde_format11deserializeNtNvMNtCseojpp1QgtFC_16calm_and_panicky11calm_fuzz__INtB18_11UsingReaderpE9read_args4ArgsNtNtNtCsiThrkg7suPy_3std2io5stdio5StdinEB1a_
FN:56,_RINvNtCs7qDQvy6XYpV_18test_fuzz_internal12serde_format11deserializeNtNvMNtCseojpp1QgtFC_16calm_and_panicky14panicky_fuzz__INtB18_11UsingReaderpE9read_args4ArgsNtNtNtCsiThrkg7suPy_3std2io5stdio5StdinEB1a_
FN:32,_RINvNtCs7qDQvy6XYpV_18test_fuzz_internal12serde_format9serializeNtNvNtCseojpp1QgtFC_16calm_and_panicky11calm_fuzz__10write_args4ArgsEB16_
FN:32,_RINvNtCs7qDQvy6XYpV_18test_fuzz_internal12serde_format9serializeNtNvNtCseojpp1QgtFC_16calm_and_panicky14panicky_fuzz__10write_args4ArgsEB16_
FN:56,_RINvNtCs7qDQvy6XYpV_18test_fuzz_internal12serde_format11deserializeNtNvMNtCsjhY1ImnXkI9_4cast13target_fuzz__INtB18_11UsingReaderpE9read_args4ArgsNtNtNtCsiThrkg7suPy_3std2io5stdio5StdinEB1a_
FN:32,_RINvNtCs7qDQvy6XYpV_18test_fuzz_internal12serde_format9serializeNtNvNtCsjhY1ImnXkI9_4cast13target_fuzz__10write_args4ArgsEB16_
FN:56,_RINvNtCs7tkdMjTuzcM_18test_fuzz_internal12serde_format11deserializeNtNvMNtCs1jUaTML6Qbs_4cast13target_fuzz__INtB18_11UsingReaderpE9read_args4ArgsNtNtNtCsiThrkg7suPy_3std2io5stdio5StdinEB1a_
FN:32,_RINvNtCs7tkdMjTuzcM_18test_fuzz_internal12serde_format9serializeNtNvNtCs1jUaTML6Qbs_4cast13target_fuzz__10write_args4ArgsEB16_
FN:56,_RINvNtCs7qDQvy6XYpV_18test_fuzz_internal12serde_format11deserializeNtNvMNtCs8WGZuoBAMqB_4cast13target_fuzz__INtB18_11UsingReaderpE9read_args4ArgsNtNtNtCsiThrkg7suPy_3std2io5stdio5StdinEB1a_
FN:32,_RINvNtCs7qDQvy6XYpV_18test_fuzz_internal12serde_format9serializeNtNvNtCs8WGZuoBAMqB_4cast13target_fuzz__10write_args4ArgsEB16_
FN:56,_RINvNtCs7qDQvy6XYpV_18test_fuzz_internal12serde_format11deserializeNtNvMNtCsiWHYe4yttEG_9collision11test_fuzz__INtB18_11UsingReaderpE9read_args4ArgsNtNtNtCsiThrkg7suPy_3std2io5stdio5StdinEB1a_
FN:32,_RINvNtCs7qDQvy6XYpV_18test_fuzz_internal12serde_format9serializeNtNvNtCsiWHYe4yttEG_9collision11test_fuzz__10write_args4ArgsEB16_
FN:56,_RINvNtCs7tkdMjTuzcM_18test_fuzz_internal12serde_format11deserializeNtNvMNtCskTSnVUQ8fe0_9collision11test_fuzz__INtB18_11UsingReaderpE9read_args4ArgsNtNtNtCsiThrkg7suPy_3std2io5stdio5StdinEB1a_
FN:32,_RINvNtCs7tkdMjTuzcM_18test_fuzz_internal12serde_format9serializeNtNvNtCskTSnVUQ8fe0_9collision11test_fuzz__10write_args4ArgsEB16_
FN:56,_RINvNtCs7qDQvy6XYpV_18test_fuzz_internal12serde_format11deserializeNtNvMNtCs2vl1NOPLUTF_9collision11test_fuzz__INtB18_11UsingReaderpE9read_args4ArgsNtNtNtCsiThrkg7suPy_3std2io5stdio5StdinEB1a_
FN:32,_RINvNtCs7qDQvy6XYpV_18test_fuzz_internal12serde_format9serializeNtNvNtCs2vl1NOPLUTF_9collision11test_fuzz__10write_args4ArgsEB16_
FN:56,_RINvNtCs7tkdMjTuzcM_18test_fuzz_internal12serde_format11deserializeNtNvMNtNtCsiVpTKIby35L_10conversion11uncloneable13target_fuzz__INtB18_11UsingReaderpE9read_args4ArgsNtNtNtCsiThrkg7suPy_3std2io5stdio5StdinEB1c_
FN:56,_RINvNtCs7tkdMjTuzcM_18test_fuzz_internal12serde_format11deserializeNtNvMNtNtCsiVpTKIby35L_10conversion4path13target_fuzz__INtB18_11UsingReaderpE9read_args4ArgsNtNtNtCsiThrkg7suPy_3std2io5stdio5StdinEB1c_
FN:56,_RINvNtCs7tkdMjTuzcM_18test_fuzz_internal12serde_format11deserializeNtNvMNtNtCsiVpTKIby35L_10conversion5array13target_fuzz__INtB18_11UsingReaderpE9read_args4ArgsNtNtNtCsiThrkg7suPy_3std2io5stdio5StdinEB1c_
FN:56,_RINvNtCs7tkdMjTuzcM_18test_fuzz_internal12serde_format11deserializeNtNvMNtNtCsiVpTKIby35L_10conversion7mutable13target_fuzz__INtB18_11UsingReaderpE9read_args4ArgsNtNtNtCsiThrkg7suPy_3std2io5stdio5StdinEB1c_
FN:56,_RINvNtCs7tkdMjTuzcM_18test_fuzz_internal12serde_format11deserializeNtNvMNtNtCsiVpTKIby35L_10conversion8lifetime13target_fuzz__INtB18_11UsingReaderpE9read_args4ArgsNtNtNtCsiThrkg7suPy_3std2io5stdio5StdinEB1c_
FN:56,_RINvNtCs7tkdMjTuzcM_18test_fuzz_internal12serde_format11deserializeNtNvMNtNtCsiVpTKIby35L_10conversion8receiver20x_target_self_fuzz__INtB18_11UsingReaderpE9read_args4ArgsNtNtNtCsiThrkg7suPy_3std2io5stdio5StdinEB1c_
FN:56,_RINvNtCs7tkdMjTuzcM_18test_fuzz_internal12serde_format11deserializeNtNvMNtNtCsiVpTKIby35L_10conversion8receiver21x_target_other_fuzz__INtB18_11UsingReaderpE9read_args4ArgsNtNtNtCsiThrkg7suPy_3std2io5stdio5StdinEB1c_
FN:32,_RINvNtCs7tkdMjTuzcM_18test_fuzz_internal12serde_format9serializeNtNvNtNtCsiVpTKIby35L_10conversion11uncloneable13target_fuzz__10write_args4ArgsEB18_
FN:32,_RINvNtCs7tkdMjTuzcM_18test_fuzz_internal12serde_format9serializeNtNvNtNtCsiVpTKIby35L_10conversion4path13target_fuzz__10write_args4ArgsEB18_
FN:32,_RINvNtCs7tkdMjTuzcM_18test_fuzz_internal12serde_format9serializeNtNvNtNtCsiVpTKIby35L_10conversion5array13target_fuzz__10write_args4ArgsEB18_
FN:32,_RINvNtCs7tkdMjTuzcM_18test_fuzz_internal12serde_format9serializeNtNvNtNtCsiVpTKIby35L_10conversion7mutable13target_fuzz__10write_args4ArgsEB18_
FN:32,_RINvNtCs7tkdMjTuzcM_18test_fuzz_internal12serde_format9serializeNtNvNtNtCsiVpTKIby35L_10conversion8lifetime13target_fuzz__10write_args4ArgsEB18_
FN:32,_RINvNtCs7tkdMjTuzcM_18test_fuzz_internal12serde_format9serializeNtNvNtNtCsiVpTKIby35L_10conversion8receiver20x_target_self_fuzz__10write_args4ArgsEB18_
FN:32,_RINvNtCs7tkdMjTuzcM_18test_fuzz_internal12serde_format9serializeNtNvNtNtCsiVpTKIby35L_10conversion8receiver21x_target_other_fuzz__10write_args4ArgsEB18_
FN:56,_RINvNtCs7qDQvy6XYpV_18test_fuzz_internal12serde_format11deserializeNtNvMNtNtCseKPbJg0qtoX_10conversion11uncloneable13target_fuzz__INtB18_11UsingReaderpE9read_args4ArgsNtNtNtCsiThrkg7suPy_3std2io5stdio5StdinEB1c_
FN:56,_RINvNtCs7qDQvy6XYpV_18test_fuzz_internal12serde_format11deserializeNtNvMNtNtCseKPbJg0qtoX_10conversion4path13target_fuzz__INtB18_11UsingReaderpE9read_args4ArgsNtNtNtCsiThrkg7suPy_3std2io5stdio5StdinEB1c_
FN:56,_RINvNtCs7qDQvy6XYpV_18test_fuzz_internal12serde_format11deserializeNtNvMNtNtCseKPbJg0qtoX_10conversion5array13target_fuzz__INtB18_11UsingReaderpE9read_args4ArgsNtNtNtCsiThrkg7suPy_3std2io5stdio5StdinEB1c_
FN:56,_RINvNtCs7qDQvy6XYpV_18test_fuzz_internal12serde_format11deserializeNtNvMNtNtCseKPbJg0qtoX_10conversion7mutable13target_fuzz__INtB18_11UsingReaderpE9read_args4ArgsNtNtNtCsiThrkg7suPy_3std2io5stdio5StdinEB1c_
FN:56,_RINvNtCs7qDQvy6XYpV_18test_fuzz_internal12serde_format11deserializeNtNvMNtNtCseKPbJg0qtoX_10conversion8lifetime13target_fuzz__INtB18_11UsingReaderpE9read_args4ArgsNtNtNtCsiThrkg7suPy_3std2io5stdio5StdinEB1c_
FN:56,_RINvNtCs7qDQvy6XYpV_18test_fuzz_internal12serde_format11deserializeNtNvMNtNtCseKPbJg0qtoX_10conversion8receiver20x_target_self_fuzz__INtB18_11UsingReaderpE9read_args4ArgsNtNtNtCsiThrkg7suPy_3std2io5stdio5StdinEB1c_
FN:56,_RINvNtCs7qDQvy6XYpV_18test_fuzz_internal12serde_format11deserializeNtNvMNtNtCseKPbJg0qtoX_10conversion8receiver21x_target_other_fuzz__INtB18_11UsingReaderpE9read_args4ArgsNtNtNtCsiThrkg7suPy_3std2io5stdio5StdinEB1c_
FN:32,_RINvNtCs7qDQvy6XYpV_18test_fuzz_internal12serde_format9serializeNtNvNtNtCseKPbJg0qtoX_10conversion11uncloneable13target_fuzz__10write_args4ArgsEB18_
FN:32,_RINvNtCs7qDQvy6XYpV_18test_fuzz_internal12serde_format9serializeNtNvNtNtCseKPbJg0qtoX_10conversion4path13target_fuzz__10write_args4ArgsEB18_
FN:32,_RINvNtCs7qDQvy6XYpV_18test_fuzz_internal12serde_format9serializeNtNvNtNtCseKPbJg0qtoX_10conversion5array13target_fuzz__10write_args4ArgsEB18_
FN:32,_RINvNtCs7qDQvy6XYpV_18test_fuzz_internal12serde_format9serializeNtNvNtNtCseKPbJg0qtoX_10conversion7mutable13target_fuzz__10write_args4ArgsEB18_
FN:32,_RINvNtCs7qDQvy6XYpV_18test_fuzz_internal12serde_format9serializeNtNvNtNtCseKPbJg0qtoX_10conversion8lifetime13target_fuzz__10write_args4ArgsEB18_
FN:32,_RINvNtCs7qDQvy6XYpV_18test_fuzz_internal12serde_format9serializeNtNvNtNtCseKPbJg0qtoX_10conversion8receiver20x_target_self_fuzz__10write_args4ArgsEB18_
FN:32,_RINvNtCs7qDQvy6XYpV_18test_fuzz_internal12serde_format9serializeNtNvNtNtCseKPbJg0qtoX_10conversion8receiver21x_target_other_fuzz__10write_args4ArgsEB18_
FN:56,_RINvNtCs7qDQvy6XYpV_18test_fuzz_internal12serde_format11deserializeNtNvMNtNtCsfLz7FBcSNE7_10conversion11uncloneable13target_fuzz__INtB18_11UsingReaderpE9read_args4ArgsNtNtNtCsiThrkg7suPy_3std2io5stdio5StdinEB1c_
FN:56,_RINvNtCs7qDQvy6XYpV_18test_fuzz_internal12serde_format11deserializeNtNvMNtNtCsfLz7FBcSNE7_10conversion4path13target_fuzz__INtB18_11UsingReaderpE9read_args4ArgsNtNtNtCsiThrkg7suPy_3std2io5stdio5StdinEB1c_
FN:56,_RINvNtCs7qDQvy6XYpV_18test_fuzz_internal12serde_format11deserializeNtNvMNtNtCsfLz7FBcSNE7_10conversion5array13target_fuzz__INtB18_11UsingReaderpE9read_args4ArgsNtNtNtCsiThrkg7suPy_3std2io5stdio5StdinEB1c_
FN:56,_RINvNtCs7qDQvy6XYpV_18test_fuzz_internal12serde_format11deserializeNtNvMNtNtCsfLz7FBcSNE7_10conversion7mutable13target_fuzz__INtB18_11UsingReaderpE9read_args4ArgsNtNtNtCsiThrkg7suPy_3std2io5stdio5StdinEB1c_
FN:56,_RINvNtCs7qDQvy6XYpV_18test_fuzz_internal12serde_format11deserializeNtNvMNtNtCsfLz7FBcSNE7_10conversion8lifetime13target_fuzz__INtB18_11UsingReaderpE9read_args4ArgsNtNtNtCsiThrkg7suPy_3std2io5stdio5StdinEB1c_
FN:56,_RINvNtCs7qDQvy6XYpV_18test_fuzz_internal12serde_format11deserializeNtNvMNtNtCsfLz7FBcSNE7_10conversion8receiver20x_target_self_fuzz__INtB18_11UsingReaderpE9read_args4ArgsNtNtNtCsiThrkg7suPy_3std2io5stdio5StdinEB1c_
FN:56,_RINvNtCs7qDQvy6XYpV_18test_fuzz_internal12serde_format11deserializeNtNvMNtNtCsfLz7FBcSNE7_10conversion8receiver21x_target_other_fuzz__INtB18_11UsingReaderpE9read_args4ArgsNtNtNtCsiThrkg7suPy_3std2io5stdio5StdinEB1c_
FN:32,_RINvNtCs7qDQvy6XYpV_18test_fuzz_internal12serde_format9serializeNtNvNtNtCsfLz7FBcSNE7_10conversion11uncloneable13target_fuzz__10write_args4ArgsEB18_
FN:32,_RINvNtCs7qDQvy6XYpV_18test_fuzz_internal12serde_format9serializeNtNvNtNtCsfLz7FBcSNE7_10conversion4path13target_fuzz__10write_args4ArgsEB18_
FN:32,_RINvNtCs7qDQvy6XYpV_18test_fuzz_internal12serde_format9serializeNtNvNtNtCsfLz7FBcSNE7_10conversion5array13target_fuzz__10write_args4ArgsEB18_
FN:32,_RINvNtCs7qDQvy6XYpV_18test_fuzz_internal12serde_format9serializeNtNvNtNtCsfLz7FBcSNE7_10conversion7mutable13target_fuzz__10write_args4ArgsEB18_
FN:32,_RINvNtCs7qDQvy6XYpV_18test_fuzz_internal12serde_format9serializeNtNvNtNtCsfLz7FBcSNE7_10conversion8lifetime13target_fuzz__10write_args4ArgsEB18_
FN:32,_RINvNtCs7qDQvy6XYpV_18test_fuzz_internal12serde_format9serializeNtNvNtNtCsfLz7FBcSNE7_10conversion8receiver20x_target_self_fuzz__10write_args4ArgsEB18_
FN:32,_RINvNtCs7qDQvy6XYpV_18test_fuzz_internal12serde_format9serializeNtNvNtNtCsfLz7FBcSNE7_10conversion8receiver21x_target_other_fuzz__10write_args4ArgsEB18_
FN:56,_RINvNtCs7qDQvy6XYpV_18test_fuzz_internal12serde_format11deserializeNtNvMNtNtCsb1dEVcqrYVW_5debug4hang13target_fuzz__INtB18_11UsingReaderpE9read_args4ArgsNtNtNtCsiThrkg7suPy_3std2io5stdio5StdinEB1c_
FN:56,_RINvNtCs7qDQvy6XYpV_18test_fuzz_internal12serde_format11deserializeNtNvMNtNtCsb1dEVcqrYVW_5debug5crash13target_fuzz__INtB18_11UsingReaderpE9read_args4ArgsNtNtNtCsiThrkg7suPy_3std2io5stdio5StdinEB1c_
FN:32,_RINvNtCs7qDQvy6XYpV_18test_fuzz_internal12serde_format9serializeNtNvNtNtCsb1dEVcqrYVW_5debug4hang13target_fuzz__10write_args4ArgsEB18_
FN:32,_RINvNtCs7qDQvy6XYpV_18test_fuzz_internal12serde_format9serializeNtNvNtNtCsb1dEVcqrYVW_5debug5crash13target_fuzz__10write_args4ArgsEB18_
FN:56,_RINvNtCs7qDQvy6XYpV_18test_fuzz_internal12serde_format11deserializeNtNvMNtNtCsgcjg8UDvgFn_5debug4hang13target_fuzz__INtB18_11UsingReaderpE9read_args4ArgsNtNtNtCsiThrkg7suPy_3std2io5stdio5StdinEB1c_
FN:56,_RINvNtCs7qDQvy6XYpV_18test_fuzz_internal12serde_format11deserializeNtNvMNtNtCsgcjg8UDvgFn_5debug5crash13target_fuzz__INtB18_11UsingReaderpE9read_args4ArgsNtNtNtCsiThrkg7suPy_3std2io5stdio5StdinEB1c_
FN:32,_RINvNtCs7qDQvy6XYpV_18test_fuzz_internal12serde_format9serializeNtNvNtNtCsgcjg8UDvgFn_5debug4hang13target_fuzz__10write_args4ArgsEB18_
FN:32,_RINvNtCs7qDQvy6XYpV_18test_fuzz_internal12serde_format9serializeNtNvNtNtCsgcjg8UDvgFn_5debug5crash13target_fuzz__10write_args4ArgsEB18_
FN:56,_RINvNtCs7tkdMjTuzcM_18test_fuzz_internal12serde_format11deserializeNtNvMNtNtCsl8sxKVvCifM_5debug4hang13target_fuzz__INtB18_11UsingReaderpE9read_args4ArgsNtNtNtCsiThrkg7suPy_3std2io5stdio5StdinEB1c_
FN:56,_RINvNtCs7tkdMjTuzcM_18test_fuzz_internal12serde_format11deserializeNtNvMNtNtCsl8sxKVvCifM_5debug5crash13target_fuzz__INtB18_11UsingReaderpE9read_args4ArgsNtNtNtCsiThrkg7suPy_3std2io5stdio5StdinEB1c_
FN:32,_RINvNtCs7tkdMjTuzcM_18test_fuzz_internal12serde_format9serializeNtNvNtNtCsl8sxKVvCifM_5debug4hang13target_fuzz__10write_args4ArgsEB18_
FN:32,_RINvNtCs7tkdMjTuzcM_18test_fuzz_internal12serde_format9serializeNtNvNtNtCsl8sxKVvCifM_5debug5crash13target_fuzz__10write_args4ArgsEB18_
FN:56,_RINvNtCs7qDQvy6XYpV_18test_fuzz_internal12serde_format11deserializeNtNvMNtNtCsaAshMXCG0yq_7default10no_default13target_fuzz__INtB18_11UsingReaderpE9read_args4ArgsNtNtNtCsiThrkg7suPy_3std2io5stdio5StdinEB1c_
FN:56,_RINvNtCs7qDQvy6XYpV_18test_fuzz_internal12serde_format11deserializeNtNvMNtNtCsaAshMXCG0yq_7default7default13target_fuzz__INtB18_11UsingReaderpE9read_args4ArgsNtNtNtCsiThrkg7suPy_3std2io5stdio5StdinEB1c_
FN:32,_RINvNtCs7qDQvy6XYpV_18test_fuzz_internal12serde_format9serializeNtNvNtNtCsaAshMXCG0yq_7default10no_default13target_fuzz__10write_args4ArgsEB18_
FN:32,_RINvNtCs7qDQvy6XYpV_18test_fuzz_internal12serde_format9serializeNtNvNtNtCsaAshMXCG0yq_7default7default13target_fuzz__10write_args4ArgsEB18_
FN:56,_RINvNtCs7qDQvy6XYpV_18test_fuzz_internal12serde_format11deserializeNtNvMNtNtCskugcK1jf7rU_7default10no_default13target_fuzz__INtB18_11UsingReaderpE9read_args4ArgsNtNtNtCsiThrkg7suPy_3std2io5stdio5StdinEB1c_
FN:56,_RINvNtCs7qDQvy6XYpV_18test_fuzz_internal12serde_format11deserializeNtNvMNtNtCskugcK1jf7rU_7default7default13target_fuzz__INtB18_11UsingReaderpE9read_args4ArgsNtNtNtCsiThrkg7suPy_3std2io5stdio5StdinEB1c_
FN:32,_RINvNtCs7qDQvy6XYpV_18test_fuzz_internal12serde_format9serializeNtNvNtNtCskugcK1jf7rU_7default10no_default13target_fuzz__10write_args4ArgsEB18_
FN:32,_RINvNtCs7qDQvy6XYpV_18test_fuzz_internal12serde_format9serializeNtNvNtNtCskugcK1jf7rU_7default7default13target_fuzz__10write_args4ArgsEB18_
FN:56,_RINvNtCs7tkdMjTuzcM_18test_fuzz_internal12serde_format11deserializeNtNvMNtNtCs7Ozwe4CVtv1_7default10no_default13target_fuzz__INtB18_11UsingReaderpE9read_args4ArgsNtNtNtCsiThrkg7suPy_3std2io5stdio5StdinEB1c_
FN:56,_RINvNtCs7tkdMjTuzcM_18test_fuzz_internal12serde_format11deserializeNtNvMNtNtCs7Ozwe4CVtv1_7default7default13target_fuzz__INtB18_11UsingReaderpE9read_args4ArgsNtNtNtCsiThrkg7suPy_3std2io5stdio5StdinEB1c_
FN:32,_RINvNtCs7tkdMjTuzcM_18test_fuzz_internal12serde_format9serializeNtNvNtNtCs7Ozwe4CVtv1_7default10no_default13target_fuzz__10write_args4ArgsEB18_
FN:32,_RINvNtCs7tkdMjTuzcM_18test_fuzz_internal12serde_format9serializeNtNvNtNtCs7Ozwe4CVtv1_7default7default13target_fuzz__10write_args4ArgsEB18_
FN:56,_RINvNtCs7qDQvy6XYpV_18test_fuzz_internal12serde_format11deserializeNtNvMNtCsjYKnve2EfMB_4from15bar_from_fuzz__INtB18_11UsingReaderpE9read_args4ArgsNtNtNtCsiThrkg7suPy_3std2io5stdio5StdinEB1a_
FN:56,_RINvNtCs7qDQvy6XYpV_18test_fuzz_internal12serde_format11deserializeNtNvMNtCsjYKnve2EfMB_4from15baz_into_fuzz__INtB18_11UsingReaderpE9read_args4ArgsNtNtNtCsiThrkg7suPy_3std2io5stdio5StdinEB1a_
FN:56,_RINvNtCs7qDQvy6XYpV_18test_fuzz_internal12serde_format11deserializeNtNvMNtCsjYKnve2EfMB_4from19baz_try_from_fuzz__INtB18_11UsingReaderpE9read_args4ArgsNtNtNtCsiThrkg7suPy_3std2io5stdio5StdinEB1a_
FN:32,_RINvNtCs7qDQvy6XYpV_18test_fuzz_internal12serde_format9serializeNtNvNtCsjYKnve2EfMB_4from15bar_from_fuzz__10write_args4ArgsEB16_
FN:32,_RINvNtCs7qDQvy6XYpV_18test_fuzz_internal12serde_format9serializeNtNvNtCsjYKnve2EfMB_4from15baz_into_fuzz__10write_args4ArgsEB16_
FN:32,_RINvNtCs7qDQvy6XYpV_18test_fuzz_internal12serde_format9serializeNtNvNtCsjYKnve2EfMB_4from19baz_try_from_fuzz__10write_args4ArgsEB16_
FN:56,_RINvNtCs7qDQvy6XYpV_18test_fuzz_internal12serde_format11deserializeNtNvMNtCs1URDLWWjTVx_4from15bar_from_fuzz__INtB18_11UsingReaderpE9read_args4ArgsNtNtNtCsiThrkg7suPy_3std2io5stdio5StdinEB1a_
FN:56,_RINvNtCs7qDQvy6XYpV_18test_fuzz_internal12serde_format11deserializeNtNvMNtCs1URDLWWjTVx_4from15baz_into_fuzz__INtB18_11UsingReaderpE9read_args4ArgsNtNtNtCsiThrkg7suPy_3std2io5stdio5StdinEB1a_
FN:56,_RINvNtCs7qDQvy6XYpV_18test_fuzz_internal12serde_format11deserializeNtNvMNtCs1URDLWWjTVx_4from19baz_try_from_fuzz__INtB18_11UsingReaderpE9read_args4ArgsNtNtNtCsiThrkg7suPy_3std2io5stdio5StdinEB1a_
FN:32,_RINvNtCs7qDQvy6XYpV_18test_fuzz_internal12serde_format9serializeNtNvNtCs1URDLWWjTVx_4from15bar_from_fuzz__10write_args4ArgsEB16_
FN:32,_RINvNtCs7qDQvy6XYpV_18test_fuzz_internal12serde_format9serializeNtNvNtCs1URDLWWjTVx_4from15baz_into_fuzz__10write_args4ArgsEB16_
FN:32,_RINvNtCs7qDQvy6XYpV_18test_fuzz_internal12serde_format9serializeNtNvNtCs1URDLWWjTVx_4from19baz_try_from_fuzz__10write_args4ArgsEB16_
FN:56,_RINvNtCs7tkdMjTuzcM_18test_fuzz_internal12serde_format11deserializeNtNvMNtCsbfvKuJfSASN_4from15bar_from_fuzz__INtB18_11UsingReaderpE9read_args4ArgsNtNtNtCsiThrkg7suPy_3std2io5stdio5StdinEB1a_
FN:56,_RINvNtCs7tkdMjTuzcM_18test_fuzz_internal12serde_format11deserializeNtNvMNtCsbfvKuJfSASN_4from15baz_into_fuzz__INtB18_11UsingReaderpE9read_args4ArgsNtNtNtCsiThrkg7suPy_3std2io5stdio5StdinEB1a_
FN:56,_RINvNtCs7tkdMjTuzcM_18test_fuzz_internal12serde_format11deserializeNtNvMNtCsbfvKuJfSASN_4from19baz_try_from_fuzz__INtB18_11UsingReaderpE9read_args4ArgsNtNtNtCsiThrkg7suPy_3std2io5stdio5StdinEB1a_
FN:32,_RINvNtCs7tkdMjTuzcM_18test_fuzz_internal12serde_format9serializeNtNvNtCsbfvKuJfSASN_4from15bar_from_fuzz__10write_args4ArgsEB16_
FN:32,_RINvNtCs7tkdMjTuzcM_18test_fuzz_internal12serde_format9serializeNtNvNtCsbfvKuJfSASN_4from15baz_into_fuzz__10write_args4ArgsEB16_
FN:32,_RINvNtCs7tkdMjTuzcM_18test_fuzz_internal12serde_format9serializeNtNvNtCsbfvKuJfSASN_4from19baz_try_from_fuzz__10write_args4ArgsEB16_
FN:56,_RINvNtCs7tkdMjTuzcM_18test_fuzz_internal12serde_format11deserializeINtNvMNtCslA1LfyM8Akf_7generic14baz_qux_fuzz__INtB19_11UsingReaderpE9read_args4ArgsNtB1b_3BarENtNtNtCsiThrkg7suPy_3std2io5stdio5StdinEB1b_
FN:56,_RINvNtCs7tkdMjTuzcM_18test_fuzz_internal12serde_format11deserializeINtNvMNtCslA1LfyM8Akf_7generic20struct_target_fuzz__INtB19_11UsingReaderpE9read_args4ArgsNtB1b_3BarENtNtNtCsiThrkg7suPy_3std2io5stdio5StdinEB1b_
FN:56,_RINvNtCs7tkdMjTuzcM_18test_fuzz_internal12serde_format11deserializeINtNvMNtCslA1LfyM8Akf_7generic26struct_target_bound_fuzz__INtB19_11UsingReaderpE9read_args4ArgsNtB1b_3BarINtB1b_3BazB2A_EENtNtNtCsiThrkg7suPy_3std2io5stdio5StdinEB1b_
FN:56,_RINvNtCs7tkdMjTuzcM_18test_fuzz_internal12serde_format11deserializeINtNvMNtCslA1LfyM8Akf_7generic33struct_target_where_clause_fuzz__INtB19_11UsingReaderpE9read_args4ArgsNtB1b_3BarINtB1b_3BazB2H_EENtNtNtCsiThrkg7suPy_3std2io5stdio5StdinEB1b_
FN:56,_RINvNtCs7tkdMjTuzcM_18test_fuzz_internal12serde_format11deserializeINtNvMNtNtCslA1LfyM8Akf_7generic27receiverless_trait_function20struct_target_fuzz__INtB19_11UsingReaderpE9read_args4ArgsNtB1d_3BarENtNtNtCsiThrkg7suPy_3std2io5stdio5StdinEB1d_
FN:32,_RINvNtCs7tkdMjTuzcM_18test_fuzz_internal12serde_format9serializeINtNvNtCslA1LfyM8Akf_7generic14baz_qux_fuzz__10write_args4ArgsNtB17_3BarEEB17_
FN:32,_RINvNtCs7tkdMjTuzcM_18test_fuzz_internal12serde_format9serializeINtNvNtCslA1LfyM8Akf_7generic20struct_target_fuzz__10write_args4ArgsNtB17_3BarEEB17_
FN:32,_RINvNtCs7tkdMjTuzcM_18test_fuzz_internal12serde_format9serializeINtNvNtCslA1LfyM8Akf_7generic20struct_target_fuzz__10write_args4ArgsNtB17_3FooEEB17_
FN:32,_RINvNtCs7tkdMjTuzcM_18test_fuzz_internal12serde_format9serializeINtNvNtCslA1LfyM8Akf_7generic26struct_target_bound_fuzz__10write_args4ArgsNtB17_3BarINtB17_3BazB2c_EEEB17_
FN:32,_RINvNtCs7tkdMjTuzcM_18test_fuzz_internal12serde_format9serializeINtNvNtCslA1LfyM8Akf_7generic26struct_target_bound_fuzz__10write_args4ArgsNtB17_3FooINtB17_3BazB2c_EEEB17_
FN:32,_RINvNtCs7tkdMjTuzcM_18test_fuzz_internal12serde_format9serializeINtNvNtCslA1LfyM8Akf_7generic33struct_target_where_clause_fuzz__10write_args4ArgsNtB17_3BarINtB17_3BazB2j_EEEB17_
FN:32,_RINvNtCs7tkdMjTuzcM_18test_fuzz_internal12serde_format9serializeINtNvNtCslA1LfyM8Akf_7generic33struct_target_where_clause_fuzz__10write_args4ArgsNtB17_3FooINtB17_3BazB2j_EEEB17_
FN:32,_RINvNtCs7tkdMjTuzcM_18test_fuzz_internal12serde_format9serializeINtNvNtNtCslA1LfyM8Akf_7generic27receiverless_trait_function20struct_target_fuzz__10write_args4ArgsNtB19_3BarEEB19_
FN:56,_RINvNtCs7qDQvy6XYpV_18test_fuzz_internal12serde_format11deserializeINtNvMNtCscFYsPowUGCR_7generic14baz_qux_fuzz__INtB19_11UsingReaderpE9read_args4ArgsNtB1b_3BarENtNtNtCsiThrkg7suPy_3std2io5stdio5StdinEB1b_
FN:56,_RINvNtCs7qDQvy6XYpV_18test_fuzz_internal12serde_format11deserializeINtNvMNtCscFYsPowUGCR_7generic20struct_target_fuzz__INtB19_11UsingReaderpE9read_args4ArgsNtB1b_3BarENtNtNtCsiThrkg7suPy_3std2io5stdio5StdinEB1b_
FN:56,_RINvNtCs7qDQvy6XYpV_18test_fuzz_internal12serde_format11deserializeINtNvMNtCscFYsPowUGCR_7generic26struct_target_bound_fuzz__INtB19_11UsingReaderpE9read_args4ArgsNtB1b_3BarINtB1b_3BazB2A_EENtNtNtCsiThrkg7suPy_3std2io5stdio5StdinEB1b_
FN:56,_RINvNtCs7qDQvy6XYpV_18test_fuzz_internal12serde_format11deserializeINtNvMNtCscFYsPowUGCR_7generic33struct_target_where_clause_fuzz__INtB19_11UsingReaderpE9read_args4ArgsNtB1b_3BarINtB1b_3BazB2H_EENtNtNtCsiThrkg7suPy_3std2io5stdio5StdinEB1b_
FN:56,_RINvNtCs7qDQvy6XYpV_18test_fuzz_internal12serde_format11deserializeINtNvMNtNtCscFYsPowUGCR_7generic27receiverless_trait_function20struct_target_fuzz__INtB19_11UsingReaderpE9read_args4ArgsNtB1d_3BarENtNtNtCsiThrkg7suPy_3std2io5stdio5StdinEB1d_
FN:32,_RINvNtCs7qDQvy6XYpV_18test_fuzz_internal12serde_format9serializeINtNvNtCscFYsPowUGCR_7generic14baz_qux_fuzz__10write_args4ArgsNtB17_3BarEEB17_
FN:32,_RINvNtCs7qDQvy6XYpV_18test_fuzz_internal12serde_format9serializeINtNvNtCscFYsPowUGCR_7generic20struct_target_fuzz__10write_args4ArgsNtB17_3BarEEB17_
FN:32,_RINvNtCs7qDQvy6XYpV_18test_fuzz_internal12serde_format9serializeINtNvNtCscFYsPowUGCR_7generic20struct_target_fuzz__10write_args4ArgsNtB17_3FooEEB17_
FN:32,_RINvNtCs7qDQvy6XYpV_18test_fuzz_internal12serde_format9serializeINtNvNtCscFYsPowUGCR_7generic26struct_target_bound_fuzz__10write_args4ArgsNtB17_3BarINtB17_3BazB2c_EEEB17_
FN:32,_RINvNtCs7qDQvy6XYpV_18test_fuzz_internal12serde_format9serializeINtNvNtCscFYsPowUGCR_7generic26struct_target_bound_fuzz__10write_args4ArgsNtB17_3FooINtB17_3BazB2c_EEEB17_
FN:32,_RINvNtCs7qDQvy6XYpV_18test_fuzz_internal12serde_format9serializeINtNvNtCscFYsPowUGCR_7generic33struct_target_where_clause_fuzz__10write_args4ArgsNtB17_3BarINtB17_3BazB2j_EEEB17_
FN:32,_RINvNtCs7qDQvy6XYpV_18test_fuzz_internal12serde_format9serializeINtNvNtCscFYsPowUGCR_7generic33struct_target_where_clause_fuzz__10write_args4ArgsNtB17_3FooINtB17_3BazB2j_EEEB17_
FN:32,_RINvNtCs7qDQvy6XYpV_18test_fuzz_internal12serde_format9serializeINtNvNtNtCscFYsPowUGCR_7generic27receiverless_trait_function20struct_target_fuzz__10write_args4ArgsNtB19_3BarEEB19_
FN:56,_RINvNtCs7qDQvy6XYpV_18test_fuzz_internal12serde_format11deserializeINtNvMNtCscB5GQJ98reT_7generic14baz_qux_fuzz__INtB19_11UsingReaderpE9read_args4ArgsNtB1b_3BarENtNtNtCsiThrkg7suPy_3std2io5stdio5StdinEB1b_
FN:56,_RINvNtCs7qDQvy6XYpV_18test_fuzz_internal12serde_format11deserializeINtNvMNtCscB5GQJ98reT_7generic20struct_target_fuzz__INtB19_11UsingReaderpE9read_args4ArgsNtB1b_3BarENtNtNtCsiThrkg7suPy_3std2io5stdio5StdinEB1b_
FN:56,_RINvNtCs7qDQvy6XYpV_18test_fuzz_internal12serde_format11deserializeINtNvMNtCscB5GQJ98reT_7generic26struct_target_bound_fuzz__INtB19_11UsingReaderpE9read_args4ArgsNtB1b_3BarINtB1b_3BazB2A_EENtNtNtCsiThrkg7suPy_3std2io5stdio5StdinEB1b_
FN:56,_RINvNtCs7qDQvy6XYpV_18test_fuzz_internal12serde_format11deserializeINtNvMNtCscB5GQJ98reT_7generic33struct_target_where_clause_fuzz__INtB19_11UsingReaderpE9read_args4ArgsNtB1b_3BarINtB1b_3BazB2H_EENtNtNtCsiThrkg7suPy_3std2io5stdio5StdinEB1b_
FN:56,_RINvNtCs7qDQvy6XYpV_18test_fuzz_internal12serde_format11deserializeINtNvMNtNtCscB5GQJ98reT_7generic27receiverless_trait_function20struct_target_fuzz__INtB19_11UsingReaderpE9read_args4ArgsNtB1d_3BarENtNtNtCsiThrkg7suPy_3std2io5stdio5StdinEB1d_
FN:32,_RINvNtCs7qDQvy6XYpV_18test_fuzz_internal12serde_format9serializeINtNvNtCscB5GQJ98reT_7generic14baz_qux_fuzz__10write_args4ArgsNtB17_3BarEEB17_
FN:32,_RINvNtCs7qDQvy6XYpV_18test_fuzz_internal12serde_format9serializeINtNvNtCscB5GQJ98reT_7generic20struct_target_fuzz__10write_args4ArgsNtB17_3BarEEB17_
FN:32,_RINvNtCs7qDQvy6XYpV_18test_fuzz_internal12serde_format9serializeINtNvNtCscB5GQJ98reT_7generic20struct_target_fuzz__10write_args4ArgsNtB17_3FooEEB17_
FN:32,_RINvNtCs7qDQvy6XYpV_18test_fuzz_internal12serde_format9serializeINtNvNtCscB5GQJ98reT_7generic26struct_target_bound_fuzz__10write_args4ArgsNtB17_3BarINtB17_3BazB2c_EEEB17_
FN:32,_RINvNtCs7qDQvy6XYpV_18test_fuzz_internal12serde_format9serializeINtNvNtCscB5GQJ98reT_7generic26struct_target_bound_fuzz__10write_args4ArgsNtB17_3FooINtB17_3BazB2c_EEEB17_
FN:32,_RINvNtCs7qDQvy6XYpV_18test_fuzz_internal12serde_format9serializeINtNvNtCscB5GQJ98reT_7generic33struct_target_where_clause_fuzz__10write_args4ArgsNtB17_3BarINtB17_3BazB2j_EEEB17_
FN:32,_RINvNtCs7qDQvy6XYpV_18test_fuzz_internal12serde_format9serializeINtNvNtCscB5GQJ98reT_7generic33struct_target_where_clause_fuzz__10write_args4ArgsNtB17_3FooINtB17_3BazB2j_EEEB17_
FN:32,_RINvNtCs7qDQvy6XYpV_18test_fuzz_internal12serde_format9serializeINtNvNtNtCscB5GQJ98reT_7generic27receiverless_trait_function20struct_target_fuzz__10write_args4ArgsNtB19_3BarEEB19_
FN:56,_RINvNtCs7tkdMjTuzcM_18test_fuzz_internal12serde_format11deserializeNtNvMNtCsb4uiOcbMbWE_11hello_world19intermediary_fuzz__INtB18_11UsingReaderpE9read_args4ArgsNtNtNtCsiThrkg7suPy_3std2io5stdio5StdinEB1a_
FN:32,_RINvNtCs7tkdMjTuzcM_18test_fuzz_internal12serde_format9serializeNtNvNtCsb4uiOcbMbWE_11hello_world19intermediary_fuzz__10write_args4ArgsEB16_
FN:32,_RINvNtCs7qDQvy6XYpV_18test_fuzz_internal12serde_format9serializeNtNvNtCskdnhhtjhrrV_11hello_world19intermediary_fuzz__10write_args4ArgsEB16_
FN:56,_RINvNtCs7qDQvy6XYpV_18test_fuzz_internal12serde_format11deserializeNtNvMNtCsiqqUJoiizGn_11hello_world19intermediary_fuzz__INtB18_11UsingReaderpE9read_args4ArgsNtNtNtCsiThrkg7suPy_3std2io5stdio5StdinEB1a_
FN:32,_RINvNtCs7qDQvy6XYpV_18test_fuzz_internal12serde_format9serializeNtNvNtCsiqqUJoiizGn_11hello_world19intermediary_fuzz__10write_args4ArgsEB16_
FN:32,_RINvNtCs7qDQvy6XYpV_18test_fuzz_internal12serde_format9serializeNtNvNtCsk3BoTnCsiBy_11hello_world19intermediary_fuzz__10write_args4ArgsEB16_
FN:56,_RINvNtCs7qDQvy6XYpV_18test_fuzz_internal12serde_format11deserializeNtNvMNtCs6sCsrYIWXJb_11hello_world19intermediary_fuzz__INtB18_11UsingReaderpE9read_args4ArgsNtNtNtCsiThrkg7suPy_3std2io5stdio5StdinEB1a_
FN:32,_RINvNtCs7qDQvy6XYpV_18test_fuzz_internal12serde_format9serializeNtNvNtCs6sCsrYIWXJb_11hello_world19intermediary_fuzz__10write_args4ArgsEB16_
FN:32,_RINvNtCs7tkdMjTuzcM_18test_fuzz_internal12serde_format9serializeNtNvNtCs8i4ARjknqvr_11hello_world19intermediary_fuzz__10write_args4ArgsEB16_
FN:56,_RINvNtCs7tkdMjTuzcM_18test_fuzz_internal12serde_format11deserializeNtNvMNtCsfEdnMwTDK26_8lifetime13target_fuzz__INtB18_11UsingReaderpE9read_args4ArgsNtNtNtCsiThrkg7suPy_3std2io5stdio5StdinEB1a_
FN:32,_RINvNtCs7tkdMjTuzcM_18test_fuzz_internal12serde_format9serializeNtNvNtCsfEdnMwTDK26_8lifetime13target_fuzz__10write_args4ArgsEB16_
FN:56,_RINvNtCs7qDQvy6XYpV_18test_fuzz_internal12serde_format11deserializeNtNvMNtCseDVKP7ginzU_8lifetime13target_fuzz__INtB18_11UsingReaderpE9read_args4ArgsNtNtNtCsiThrkg7suPy_3std2io5stdio5StdinEB1a_
FN:32,_RINvNtCs7qDQvy6XYpV_18test_fuzz_internal12serde_format9serializeNtNvNtCseDVKP7ginzU_8lifetime13target_fuzz__10write_args4ArgsEB16_
FN:56,_RINvNtCs7qDQvy6XYpV_18test_fuzz_internal12serde_format11deserializeNtNvMNtCsakRZ1HSHWM_8lifetime13target_fuzz__INtB18_11UsingReaderpE9read_args4ArgsNtNtNtCsiThrkg7suPy_3std2io5stdio5StdinEB1a_
FN:32,_RINvNtCs7qDQvy6XYpV_18test_fuzz_internal12serde_format9serializeNtNvNtCsakRZ1HSHWM_8lifetime13target_fuzz__10write_args4ArgsEB16_
FN:56,_RINvNtCs7qDQvy6XYpV_18test_fuzz_internal12serde_format11deserializeNtNvMNtCslH3njblBovr_11manual_leak23wrapped_key_dump_fuzz__INtB18_11UsingReaderpE9read_args4ArgsNtNtNtCsiThrkg7suPy_3std2io5stdio5StdinEB1a_
FN:32,_RINvNtCs7qDQvy6XYpV_18test_fuzz_internal12serde_format9serializeNtNvNtCslH3njblBovr_11manual_leak23wrapped_key_dump_fuzz__10write_args4ArgsEB16_
FN:56,_RINvNtCs7qDQvy6XYpV_18test_fuzz_internal12serde_format11deserializeNtNvMNtCs1Ybj4Cjqhy0_11manual_leak23wrapped_key_dump_fuzz__INtB18_11UsingReaderpE9read_args4ArgsNtNtNtCsiThrkg7suPy_3std2io5stdio5StdinEB1a_
FN:32,_RINvNtCs7qDQvy6XYpV_18test_fuzz_internal12serde_format9serializeNtNvNtCs1Ybj4Cjqhy0_11manual_leak23wrapped_key_dump_fuzz__10write_args4ArgsEB16_
FN:56,_RINvNtCs7tkdMjTuzcM_18test_fuzz_internal12serde_format11deserializeNtNvMNtCsf6WhrPqW4nR_11manual_leak23wrapped_key_dump_fuzz__INtB18_11UsingReaderpE9read_args4ArgsNtNtNtCsiThrkg7suPy_3std2io5stdio5StdinEB1a_
FN:32,_RINvNtCs7tkdMjTuzcM_18test_fuzz_internal12serde_format9serializeNtNvNtCsf6WhrPqW4nR_11manual_leak23wrapped_key_dump_fuzz__10write_args4ArgsEB16_
FN:56,_RINvNtCs7tkdMjTuzcM_18test_fuzz_internal12serde_format11deserializeNtNvMNtCsg23ZCcRAAmp_7mut_ref17target_str_fuzz__INtB18_11UsingReaderpE9read_args4ArgsNtNtNtCsiThrkg7suPy_3std2io5stdio5StdinEB1a_
FN:56,_RINvNtCs7tkdMjTuzcM_18test_fuzz_internal12serde_format11deserializeNtNvMNtCsg23ZCcRAAmp_7mut_ref19target_slice_fuzz__INtB18_11UsingReaderpE9read_args4ArgsNtNtNtCsiThrkg7suPy_3std2io5stdio5StdinEB1a_
FN:32,_RINvNtCs7tkdMjTuzcM_18test_fuzz_internal12serde_format9serializeNtNvNtCsg23ZCcRAAmp_7mut_ref17target_str_fuzz__10write_args4ArgsEB16_
FN:32,_RINvNtCs7tkdMjTuzcM_18test_fuzz_internal12serde_format9serializeNtNvNtCsg23ZCcRAAmp_7mut_ref19target_slice_fuzz__10write_args4ArgsEB16_
FN:56,_RINvNtCs7qDQvy6XYpV_18test_fuzz_internal12serde_format11deserializeNtNvMNtCsaOt0l7p9qaW_7mut_ref17target_str_fuzz__INtB18_11UsingReaderpE9read_args4ArgsNtNtNtCsiThrkg7suPy_3std2io5stdio5StdinEB1a_
FN:56,_RINvNtCs7qDQvy6XYpV_18test_fuzz_internal12serde_format11deserializeNtNvMNtCsaOt0l7p9qaW_7mut_ref19target_slice_fuzz__INtB18_11UsingReaderpE9read_args4ArgsNtNtNtCsiThrkg7suPy_3std2io5stdio5StdinEB1a_
FN:32,_RINvNtCs7qDQvy6XYpV_18test_fuzz_internal12serde_format9serializeNtNvNtCsaOt0l7p9qaW_7mut_ref17target_str_fuzz__10write_args4ArgsEB16_
FN:32,_RINvNtCs7qDQvy6XYpV_18test_fuzz_internal12serde_format9serializeNtNvNtCsaOt0l7p9qaW_7mut_ref19target_slice_fuzz__10write_args4ArgsEB16_
FN:56,_RINvNtCs7qDQvy6XYpV_18test_fuzz_internal12serde_format11deserializeNtNvMNtCskXmci1TBXcM_7mut_ref17target_str_fuzz__INtB18_11UsingReaderpE9read_args4ArgsNtNtNtCsiThrkg7suPy_3std2io5stdio5StdinEB1a_
FN:56,_RINvNtCs7qDQvy6XYpV_18test_fuzz_internal12serde_format11deserializeNtNvMNtCskXmci1TBXcM_7mut_ref19target_slice_fuzz__INtB18_11UsingReaderpE9read_args4ArgsNtNtNtCsiThrkg7suPy_3std2io5stdio5StdinEB1a_
FN:32,_RINvNtCs7qDQvy6XYpV_18test_fuzz_internal12serde_format9serializeNtNvNtCskXmci1TBXcM_7mut_ref17target_str_fuzz__10write_args4ArgsEB16_
FN:32,_RINvNtCs7qDQvy6XYpV_18test_fuzz_internal12serde_format9serializeNtNvNtCskXmci1TBXcM_7mut_ref19target_slice_fuzz__10write_args4ArgsEB16_
FN:56,_RINvNtCs7qDQvy6XYpV_18test_fuzz_internal12serde_format11deserializeNtNvMNtCs6Qj1qJpbMOz_8parallel15target_0_fuzz__INtB18_11UsingReaderpE9read_args4ArgsNtNtNtCsiThrkg7suPy_3std2io5stdio5StdinEB1a_
FN:56,_RINvNtCs7qDQvy6XYpV_18test_fuzz_internal12serde_format11deserializeNtNvMNtCs6Qj1qJpbMOz_8parallel15target_1_fuzz__INtB18_11UsingReaderpE9read_args4ArgsNtNtNtCsiThrkg7suPy_3std2io5stdio5StdinEB1a_
FN:56,_RINvNtCs7qDQvy6XYpV_18test_fuzz_internal12serde_format11deserializeNtNvMNtCs6Qj1qJpbMOz_8parallel15target_2_fuzz__INtB18_11UsingReaderpE9read_args4ArgsNtNtNtCsiThrkg7suPy_3std2io5stdio5StdinEB1a_
FN:56,_RINvNtCs7qDQvy6XYpV_18test_fuzz_internal12serde_format11deserializeNtNvMNtCs6Qj1qJpbMOz_8parallel15target_3_fuzz__INtB18_11UsingReaderpE9read_args4ArgsNtNtNtCsiThrkg7suPy_3std2io5stdio5StdinEB1a_
FN:56,_RINvNtCs7qDQvy6XYpV_18test_fuzz_internal12serde_format11deserializeNtNvMNtCs6Qj1qJpbMOz_8parallel15target_4_fuzz__INtB18_11UsingReaderpE9read_args4ArgsNtNtNtCsiThrkg7suPy_3std2io5stdio5StdinEB1a_
FN:56,_RINvNtCs7qDQvy6XYpV_18test_fuzz_internal12serde_format11deserializeNtNvMNtCs6Qj1qJpbMOz_8parallel15target_5_fuzz__INtB18_11UsingReaderpE9read_args4ArgsNtNtNtCsiThrkg7suPy_3std2io5stdio5StdinEB1a_
FN:32,_RINvNtCs7qDQvy6XYpV_18test_fuzz_internal12serde_format9serializeNtNvNtCs6Qj1qJpbMOz_8parallel15target_0_fuzz__10write_args4ArgsEB16_
FN:32,_RINvNtCs7qDQvy6XYpV_18test_fuzz_internal12serde_format9serializeNtNvNtCs6Qj1qJpbMOz_8parallel15target_1_fuzz__10write_args4ArgsEB16_
FN:32,_RINvNtCs7qDQvy6XYpV_18test_fuzz_internal12serde_format9serializeNtNvNtCs6Qj1qJpbMOz_8parallel15target_2_fuzz__10write_args4ArgsEB16_
FN:32,_RINvNtCs7qDQvy6XYpV_18test_fuzz_internal12serde_format9serializeNtNvNtCs6Qj1qJpbMOz_8parallel15target_3_fuzz__10write_args4ArgsEB16_
FN:32,_RINvNtCs7qDQvy6XYpV_18test_fuzz_internal12serde_format9serializeNtNvNtCs6Qj1qJpbMOz_8parallel15target_4_fuzz__10write_args4ArgsEB16_
FN:32,_RINvNtCs7qDQvy6XYpV_18test_fuzz_internal12serde_format9serializeNtNvNtCs6Qj1qJpbMOz_8parallel15target_5_fuzz__10write_args4ArgsEB16_
FN:56,_RINvNtCs7tkdMjTuzcM_18test_fuzz_internal12serde_format11deserializeNtNvMNtCsd2EalhRLfqm_8parallel15target_0_fuzz__INtB18_11UsingReaderpE9read_args4ArgsNtNtNtCsiThrkg7suPy_3std2io5stdio5StdinEB1a_
FN:56,_RINvNtCs7tkdMjTuzcM_18test_fuzz_internal12serde_format11deserializeNtNvMNtCsd2EalhRLfqm_8parallel15target_1_fuzz__INtB18_11UsingReaderpE9read_args4ArgsNtNtNtCsiThrkg7suPy_3std2io5stdio5StdinEB1a_
FN:56,_RINvNtCs7tkdMjTuzcM_18test_fuzz_internal12serde_format11deserializeNtNvMNtCsd2EalhRLfqm_8parallel15target_2_fuzz__INtB18_11UsingReaderpE9read_args4ArgsNtNtNtCsiThrkg7suPy_3std2io5stdio5StdinEB1a_
FN:56,_RINvNtCs7tkdMjTuzcM_18test_fuzz_internal12serde_format11deserializeNtNvMNtCsd2EalhRLfqm_8parallel15target_3_fuzz__INtB18_11UsingReaderpE9read_args4ArgsNtNtNtCsiThrkg7suPy_3std2io5stdio5StdinEB1a_
FN:56,_RINvNtCs7tkdMjTuzcM_18test_fuzz_internal12serde_format11deserializeNtNvMNtCsd2EalhRLfqm_8parallel15target_4_fuzz__INtB18_11UsingReaderpE9read_args4ArgsNtNtNtCsiThrkg7suPy_3std2io5stdio5StdinEB1a_
FN:56,_RINvNtCs7tkdMjTuzcM_18test_fuzz_internal12serde_format11deserializeNtNvMNtCsd2EalhRLfqm_8parallel15target_5_fuzz__INtB18_11UsingReaderpE9read_args4ArgsNtNtNtCsiThrkg7suPy_3std2io5stdio5StdinEB1a_
FN:32,_RINvNtCs7tkdMjTuzcM_18test_fuzz_internal12serde_format9serializeNtNvNtCsd2EalhRLfqm_8parallel15target_0_fuzz__10write_args4ArgsEB16_
FN:32,_RINvNtCs7tkdMjTuzcM_18test_fuzz_internal12serde_format9serializeNtNvNtCsd2EalhRLfqm_8parallel15target_1_fuzz__10write_args4ArgsEB16_
FN:32,_RINvNtCs7tkdMjTuzcM_18test_fuzz_internal12serde_format9serializeNtNvNtCsd2EalhRLfqm_8parallel15target_2_fuzz__10write_args4ArgsEB16_
FN:32,_RINvNtCs7tkdMjTuzcM_18test_fuzz_internal12serde_format9serializeNtNvNtCsd2EalhRLfqm_8parallel15target_3_fuzz__10write_args4ArgsEB16_
FN:32,_RINvNtCs7tkdMjTuzcM_18test_fuzz_internal12serde_format9serializeNtNvNtCsd2EalhRLfqm_8parallel15target_4_fuzz__10write_args4ArgsEB16_
FN:32,_RINvNtCs7tkdMjTuzcM_18test_fuzz_internal12serde_format9serializeNtNvNtCsd2EalhRLfqm_8parallel15target_5_fuzz__10write_args4ArgsEB16_
FN:56,_RINvNtCs7qDQvy6XYpV_18test_fuzz_internal12serde_format11deserializeNtNvMNtCsli0t1whKaEh_8parallel15target_0_fuzz__INtB18_11UsingReaderpE9read_args4ArgsNtNtNtCsiThrkg7suPy_3std2io5stdio5StdinEB1a_
FN:56,_RINvNtCs7qDQvy6XYpV_18test_fuzz_internal12serde_format11deserializeNtNvMNtCsli0t1whKaEh_8parallel15target_1_fuzz__INtB18_11UsingReaderpE9read_args4ArgsNtNtNtCsiThrkg7suPy_3std2io5stdio5StdinEB1a_
FN:56,_RINvNtCs7qDQvy6XYpV_18test_fuzz_internal12serde_format11deserializeNtNvMNtCsli0t1whKaEh_8parallel15target_2_fuzz__INtB18_11UsingReaderpE9read_args4ArgsNtNtNtCsiThrkg7suPy_3std2io5stdio5StdinEB1a_
FN:56,_RINvNtCs7qDQvy6XYpV_18test_fuzz_internal12serde_format11deserializeNtNvMNtCsli0t1whKaEh_8parallel15target_3_fuzz__INtB18_11UsingReaderpE9read_args4ArgsNtNtNtCsiThrkg7suPy_3std2io5stdio5StdinEB1a_
FN:56,_RINvNtCs7qDQvy6XYpV_18test_fuzz_internal12serde_format11deserializeNtNvMNtCsli0t1whKaEh_8parallel15target_4_fuzz__INtB18_11UsingReaderpE9read_args4ArgsNtNtNtCsiThrkg7suPy_3std2io5stdio5StdinEB1a_
FN:56,_RINvNtCs7qDQvy6XYpV_18test_fuzz_internal12serde_format11deserializeNtNvMNtCsli0t1whKaEh_8parallel15target_5_fuzz__INtB18_11UsingReaderpE9read_args4ArgsNtNtNtCsiThrkg7suPy_3std2io5stdio5StdinEB1a_
FN:32,_RINvNtCs7qDQvy6XYpV_18test_fuzz_internal12serde_format9serializeNtNvNtCsli0t1whKaEh_8parallel15target_0_fuzz__10write_args4ArgsEB16_
FN:32,_RINvNtCs7qDQvy6XYpV_18test_fuzz_internal12serde_format9serializeNtNvNtCsli0t1whKaEh_8parallel15target_1_fuzz__10write_args4ArgsEB16_
FN:32,_RINvNtCs7qDQvy6XYpV_18test_fuzz_internal12serde_format9serializeNtNvNtCsli0t1whKaEh_8parallel15target_2_fuzz__10write_args4ArgsEB16_
FN:32,_RINvNtCs7qDQvy6XYpV_18test_fuzz_internal12serde_format9serializeNtNvNtCsli0t1whKaEh_8parallel15target_3_fuzz__10write_args4ArgsEB16_
FN:32,_RINvNtCs7qDQvy6XYpV_18test_fuzz_internal12serde_format9serializeNtNvNtCsli0t1whKaEh_8parallel15target_4_fuzz__10write_args4ArgsEB16_
FN:32,_RINvNtCs7qDQvy6XYpV_18test_fuzz_internal12serde_format9serializeNtNvNtCsli0t1whKaEh_8parallel15target_5_fuzz__10write_args4ArgsEB16_
FN:56,_RINvNtCs7qDQvy6XYpV_18test_fuzz_internal12serde_format11deserializeNtNvMNtCs43OsMJA4dOi_14parse_duration12parse_fuzz__INtB18_11UsingReaderpE9read_args4ArgsNtNtNtCsiThrkg7suPy_3std2io5stdio5StdinEB1a_
FN:32,_RINvNtCs7qDQvy6XYpV_18test_fuzz_internal12serde_format9serializeNtNvNtCs43OsMJA4dOi_14parse_duration12parse_fuzz__10write_args4ArgsEB16_
FN:56,_RINvNtCs7tkdMjTuzcM_18test_fuzz_internal12serde_format11deserializeNtNvMNtCs1ZHkx4dlC5u_14parse_duration12parse_fuzz__INtB18_11UsingReaderpE9read_args4ArgsNtNtNtCsiThrkg7suPy_3std2io5stdio5StdinEB1a_
FN:32,_RINvNtCs7tkdMjTuzcM_18test_fuzz_internal12serde_format9serializeNtNvNtCs1ZHkx4dlC5u_14parse_duration12parse_fuzz__10write_args4ArgsEB16_
