BRF:0
BRF:0
BRF:0
BRF:0
BRF:0
BRF:0
BRF:0
BRF:0
BRF:0
BRF:0
BRF:0
BRF:0
BRF:0
BRF:0
BRH:0
BRH:0
BRH:0
BRH:0
BRH:0
BRH:0
BRH:0
BRH:0
BRH:0
BRH:0
BRH:0
BRH:0
BRH:0
BRH:0
DA:1,0
DA:10,0
DA:10,0
DA:10,0
DA:10,1
DA:100,0
DA:100,0
DA:1006,0
DA:1007,0
DA:1008,0
DA:1009,0
DA:101,0
DA:101,0
DA:1010,0
DA:1011,0
DA:1012,0
DA:1014,0
DA:1016,0
DA:1017,0
DA:1018,0
DA:102,0
DA:102,0
DA:102,0
DA:1020,0
DA:1021,0
DA:1022,0
DA:1023,0
DA:1024,0
DA:1025,0
DA:1026,0
DA:1027,0
DA:1028,0
DA:1029,0
DA:103,0
DA:103,0
DA:103,0
DA:1031,0
DA:1032,0
DA:104,0
DA:104,0
DA:1040,0
DA:1041,0
DA:1042,0
DA:1044,0
DA:1045,0
DA:1046,0
DA:1047,0
DA:1049,0
DA:105,0
DA:105,0
DA:105,0
DA:1051,0
DA:1052,0
DA:1053,0
DA:1054,0
DA:1055,0
DA:1056,0
DA:1057,0
DA:1058,0
DA:1059,0
DA:106,0
DA:106,0
DA:106,0
DA:1060,0
DA:1061,0
DA:1063,0
DA:1064,0
DA:1065,0
DA:1066,0
DA:1067,0
DA:1068,0
DA:1069,0
DA:107,0
DA:107,0
DA:107,0
DA:1070,0
DA:1071,0
DA:1072,0
DA:1073,0
DA:1074,0
DA:1075,0
DA:1076,0
DA:1077,0
DA:1078,0
DA:1079,0
DA:108,0
DA:108,0
DA:1081,0
DA:1082,0
DA:1085,0
DA:109,0
DA:1092,0
DA:1093,0
DA:1094,0
DA:1095,0
DA:1096,0
DA:1097,0
DA:11,0
DA:11,0
DA:11,0
DA:11,0
DA:11,1
DA:110,0
DA:110,0
DA:1100,0
DA:1101,0
DA:1102,0
DA:1103,0
DA:1104,0
DA:1105,0
DA:1106,0
DA:1109,0
DA:111,0
DA:1110,0
DA:1111,0
DA:112,0
DA:112,0
DA:1122,0
DA:1125,0
DA:1126,0
DA:1127,0
DA:1128,0
DA:1129,0
DA:113,0
DA:1130,0
DA:1131,0
DA:1132,0
DA:1133,0
DA:1134,0
DA:1135,0
DA:1136,0
DA:1138,0
DA:1139,0
DA:114,0
DA:114,0
DA:1140,0
DA:1144,0
DA:1145,0
DA:1146,0
DA:1147,0
DA:1149,0
DA:115,0
DA:115,0
DA:1150,0
DA:1151,0
DA:1152,0
DA:1153,0
DA:1154,0
DA:1155,0
DA:1157,0
DA:1158,0
DA:1159,0
DA:116,0
DA:116,0
DA:117,0
DA:118,0
DA:119,0
DA:119,0
DA:12,0
DA:12,0
DA:12,0
DA:12,0
DA:12,0
DA:12,1
DA:120,0
DA:120,0
DA:120,1
DA:121,0
DA:121,0
DA:122,0
DA:122,0
DA:122,1
DA:123,0
DA:123,0
DA:123,0
DA:123,1
DA:124,0
DA:124,0
DA:124,0
DA:124,0
DA:125,0
DA:125,0
DA:125,0
DA:125,0
DA:126,0
DA:126,0
DA:126,0
DA:126,0
DA:127,0
DA:127,0
DA:127,0
DA:128,0
DA:128,0
DA:128,0
DA:129,0
DA:129,0
DA:129,0
DA:13,0
DA:13,0
DA:13,0
DA:13,0
DA:13,0
DA:13,0
DA:130,0
DA:130,0
DA:130,0
DA:130,0
DA:131,0
DA:131,0
DA:131,0
DA:131,1
DA:132,0
DA:132,0
DA:132,0
DA:132,1
DA:133,0
DA:133,0
DA:133,0
DA:133,1
DA:134,0
DA:135,0
DA:135,0
DA:136,0
DA:136,0
DA:136,3
DA:137,0
DA:137,0
DA:137,0
DA:137,3
DA:138,0
DA:138,0
DA:138,0
DA:138,3
DA:139,0
DA:139,0
DA:139,0
DA:14,0
DA:14,0
DA:14,0
DA:14,0
DA:14,0
DA:14,0
DA:140,0
DA:140,0
DA:140,0
DA:141,0
DA:141,0
DA:141,0
DA:141,2
DA:142,0
DA:142,0
DA:142,2
DA:143,0
DA:143,2
DA:144,0
DA:144,0
DA:145,0
DA:145,0
DA:145,0
DA:146,0
DA:146,0
DA:146,0
DA:146,1
DA:147,0
DA:147,0
DA:147,0
DA:147,1
DA:148,0
DA:148,0
DA:148,1
DA:149,0
DA:149,0
DA:15,0
DA:15,0
DA:15,0
DA:15,0
DA:15,0
DA:150,0
DA:150,0
DA:151,0
DA:151,0
DA:151,0
DA:152,0
DA:152,0
DA:152,0
DA:153,0
DA:153,0
DA:153,0
DA:154,0
DA:154,0
DA:155,0
DA:156,0
DA:156,0
DA:156,1
DA:157,0
DA:157,1
DA:158,0
DA:158,1
DA:159,0
DA:16,0
DA:16,0
DA:160,0
DA:161,0
DA:161,0
DA:162,0
DA:162,0
DA:163,0
DA:163,0
DA:165,0
DA:166,7
DA:167,0
DA:167,7
DA:168,7
DA:169,0
DA:169,7
DA:17,0
DA:17,0
DA:17,0
DA:17,0
DA:17,0
DA:170,0
DA:171,0
DA:171,0
DA:172,0
DA:173,0
DA:173,0
DA:174,0
DA:174,0
DA:175,0
DA:176,0
DA:177,0
DA:177,0
DA:178,0
DA:179,0
DA:18,0
DA:18,0
DA:18,0
DA:18,0
DA:180,0
DA:181,0
DA:182,0
DA:183,0
DA:183,0
DA:184,0
DA:184,0
DA:185,0
DA:185,0
DA:186,0
DA:187,0
DA:187,0
DA:189,0
DA:189,0
DA:19,0
DA:19,0
DA:19,0
DA:190,0
DA:190,0
DA:191,0
DA:191,0
DA:192,0
DA:192,0
DA:193,0
DA:193,0
DA:194,0
DA:195,0
DA:195,0
DA:196,0
DA:196,0
DA:197,0
DA:197,0
DA:198,0
DA:199,0
DA:199,1
DA:2,0
DA:20,0
DA:20,0
DA:20,0
DA:200,0
DA:200,1
DA:201,0
DA:201,1
DA:202,0
DA:203,0
DA:204,0
DA:205,0
DA:209,0
DA:21,0
DA:21,0
DA:21,0
DA:21,0
DA:210,0
DA:211,0
DA:22,0
DA:22,0
DA:22,0
DA:22,0
DA:220,0
DA:221,0
DA:222,0
DA:223,0
DA:224,0
DA:225,0
DA:226,0
DA:227,0
DA:228,0
DA:229,0
DA:23,0
DA:23,0
DA:23,0
DA:230,0
DA:231,0
DA:232,0
DA:234,0
DA:235,0
DA:236,0
DA:237,0
DA:238,0
DA:239,0
DA:24,0
DA:240,0
DA:241,0
DA:242,0
DA:243,0
DA:244,0
DA:246,0
DA:247,0
DA:248,0
DA:249,0
DA:25,0
DA:251,0
DA:26,0
DA:27,0
DA:27,0
DA:27,0
DA:27,0
DA:271,0
DA:272,0
DA:273,0
DA:276,0
DA:28,0
DA:28,0
DA:28,0
DA:280,0
DA:283,0
DA:284,0
DA:285,0
DA:287,0
DA:288,0
DA:289,0
DA:29,0
DA:29,0
DA:29,0
DA:29,0
DA:290,0
DA:291,0
DA:292,0
DA:293,0
DA:294,0
DA:296,0
DA:297,0
DA:299,0
DA:3,0
DA:30,0
DA:30,0
DA:300,0
DA:302,0
DA:303,0
DA:304,0
DA:306,0
DA:308,0
DA:309,0
DA:31,0
DA:31,0
DA:31,0
DA:312,0
DA:318,0
DA:319,0
DA:32,0
DA:32,0
DA:32,0
DA:32,0
DA:32,0
DA:320,0
DA:321,0
DA:322,0
DA:323,0
DA:324,0
DA:325,0
DA:326,0
DA:327,0
DA:329,0
DA:33,0
DA:33,0
DA:330,0
DA:331,0
DA:332,0
DA:333,0
DA:334,0
DA:335,0
DA:336,0
DA:337,0
DA:339,0
DA:34,0
DA:34,0
DA:34,0
DA:344,0
DA:345,0
DA:346,0
DA:347,0
DA:348,0
DA:349,0
DA:35,0
DA:35,0
DA:35,0
DA:35,0
DA:350,0
DA:352,0
DA:353,0
DA:354,0
DA:355,0
DA:356,0
DA:357,0
DA:36,0
DA:36,0
DA:36,0
DA:360,0
DA:362,0
DA:363,0
DA:364,0
DA:365,0
DA:366,0
DA:367,0
DA:368,0
DA:369,0
DA:37,0
DA:37,0
DA:37,0
DA:37,0
DA:37,0
DA:37,0
DA:371,0
DA:372,0
DA:373,0
DA:374,0
DA:376,0
DA:38,0
DA:38,0
DA:38,0
DA:380,0
DA:382,0
DA:383,0
DA:384,0
DA:385,0
DA:386,0
DA:387,0
DA:388,0
DA:389,0
DA:39,0
DA:39,0
DA:39,0
DA:390,0
DA:391,0
DA:392,0
DA:393,0
DA:397,0
DA:398,0
DA:399,0
DA:40,0
DA:40,0
DA:40,0
DA:400,0
DA:401,0
DA:402,0
DA:403,0
DA:406,0
DA:407,0
DA:408,0
DA:409,0
DA:41,0
DA:41,0
DA:410,0
DA:411,0
DA:414,0
DA:415,0
DA:416,0
DA:417,0
DA:418,0
DA:419,0
DA:42,0
DA:42,0
DA:42,0
DA:42,0
DA:420,0
DA:422,0
DA:425,0
DA:426,0
DA:43,0
DA:43,0
DA:43,0
DA:43,0
DA:43,0
DA:431,0
DA:432,0
DA:433,0
DA:434,0
DA:435,0
DA:436,0
DA:437,0
DA:438,0
DA:439,0
DA:44,0
DA:44,0
DA:44,0
DA:44,0
DA:440,0
DA:441,0
DA:442,0
DA:443,0
DA:444,0
DA:447,0
DA:448,0
DA:45,0
DA:456,0
DA:466,0
DA:467,0
DA:469,0
DA:47,0
DA:47,0
DA:47,0
DA:47,0
DA:475,0
DA:48,0
DA:48,0
DA:48,0
DA:482,0
DA:483,0
DA:484,0
DA:485,0
DA:486,0
DA:487,0
DA:488,0
DA:489,0
DA:49,0
DA:49,0
DA:49,0
DA:49,0
DA:490,0
DA:491,0
DA:492,0
DA:494,0
DA:495,0
DA:496,0
DA:497,0
DA:498,0
DA:499,0
DA:50,0
DA:50,0
DA:501,0
DA:502,0
DA:504,0
DA:51,0
DA:51,0
DA:51,0
DA:511,0
DA:515,0
DA:519,0
DA:52,0
DA:52,0
DA:52,0
DA:52,0
DA:52,0
DA:523,0
DA:53,0
DA:53,0
DA:53,0
DA:53,0
DA:534,0
DA:537,0
DA:538,0
DA:539,0
DA:54,0
DA:54,0
DA:54,0
DA:54,0
DA:540,0
DA:541,0
DA:542,0
DA:543,0
DA:544,0
DA:546,0
DA:55,0
DA:55,0
DA:55,0
DA:550,0
DA:552,0
DA:558,0
DA:56,0
DA:56,0
DA:56,0
DA:56,1
DA:564,0
DA:565,0
DA:566,0
DA:57,0
DA:57,0
DA:57,0
DA:57,0
DA:570,0
DA:572,0
DA:58,0
DA:58,0
DA:58,0
DA:583,0
DA:589,0
DA:59,0
DA:59,0
DA:59,0
DA:59,0
DA:59,1
DA:596,0
DA:60,0
DA:60,0
DA:60,1
DA:619,0
DA:62,0
DA:62,0
DA:62,0
DA:620,0
DA:622,0
DA:63,0
DA:64,0
DA:64,0
DA:65,0
DA:65,0
DA:66,0
DA:67,0
DA:67,0
DA:677,0
DA:678,0
DA:679,0
DA:68,0
DA:68,0
DA:68,0
DA:68,0
DA:681,0
DA:684,0
DA:69,0
DA:69,0
DA:69,0
DA:69,0
DA:70,0
DA:70,0
DA:70,0
DA:70,0
DA:70,1
DA:71,0
DA:71,0
DA:71,0
DA:71,0
DA:72,0
DA:72,0
DA:73,0
DA:73,0
DA:73,0
DA:731,0
DA:737,0
DA:74,0
DA:74,0
DA:74,0
DA:748,0
DA:75,0
DA:75,0
DA:76,0
DA:76,0
DA:76,0
DA:76,0
DA:76,0
DA:766,0
DA:768,0
DA:769,0
DA:77,0
DA:77,0
DA:77,0
DA:77,0
DA:77,0
DA:770,0
DA:771,0
DA:772,0
DA:773,0
DA:774,0
DA:775,0
DA:776,0
DA:777,0
DA:778,0
DA:78,0
DA:78,0
DA:78,0
DA:782,0
DA:783,0
DA:784,0
DA:785,0
DA:786,0
DA:787,0
DA:788,0
DA:789,0
DA:79,0
DA:791,0
DA:793,0
DA:794,0
DA:795,0
DA:798,0
DA:799,0
DA:80,0
DA:80,0
DA:80,0
DA:80,0
DA:800,0
DA:801,0
DA:802,0
DA:803,0
DA:804,0
DA:805,0
DA:806,0
DA:807,0
DA:808,0
DA:809,0
DA:81,0
DA:81,0
DA:81,0
DA:810,0
DA:811,0
DA:812,0
DA:813,0
DA:815,0
DA:816,0
DA:817,0
DA:818,0
DA:82,0
DA:82,0
DA:82,0
DA:82,0
DA:82,0
DA:820,0
DA:821,0
DA:823,0
DA:824,0
DA:825,0
DA:826,0
DA:827,0
DA:828,0
DA:829,0
DA:83,0
DA:83,0
DA:83,0
DA:83,0
DA:830,0
DA:832,0
DA:833,0
DA:834,0
DA:837,0
DA:838,0
DA:839,0
DA:84,0
DA:84,0
DA:84,0
DA:840,0
DA:841,0
DA:842,0
DA:843,0
DA:848,0
DA:85,0
DA:85,0
DA:85,0
DA:85,0
DA:850,0
DA:851,0
DA:852,0
DA:853,0
DA:854,0
DA:856,0
DA:857,0
DA:858,0
DA:859,0
DA:86,0
DA:86,0
DA:86,0
DA:861,0
DA:862,0
DA:867,0
DA:87,0
DA:87,0
DA:87,0
DA:87,0
DA:87,0
DA:870,0
DA:871,0
DA:872,0
DA:874,0
DA:875,0
DA:876,0
DA:877,0
DA:878,0
DA:88,0
DA:88,0
DA:88,0
DA:88,0
DA:880,0
DA:881,0
DA:882,0
DA:884,0
DA:885,0
DA:886,0
DA:887,0
DA:888,0
DA:889,0
DA:89,0
DA:89,0
DA:89,0
DA:89,0
DA:890,0
DA:891,0
DA:892,0
DA:893,0
DA:894,0
DA:895,0
DA:896,0
DA:897,0
DA:898,0
DA:899,0
DA:9,0
DA:90,0
DA:90,0
DA:90,0
DA:900,0
DA:901,0
DA:902,0
DA:903,0
DA:904,0
DA:905,0
DA:906,0
DA:907,0
DA:909,0
DA:91,0
DA:91,0
DA:91,0
DA:91,0
DA:911,0
DA:912,0
DA:913,0
DA:914,0
DA:915,0
DA:916,0
DA:917,0
DA:918,0
DA:919,0
DA:92,0
DA:92,0
DA:920,0
DA:921,0
DA:922,0
DA:923,0
DA:925,0
DA:926,0
DA:927,0
DA:928,0
DA:929,0
DA:93,0
DA:93,0
DA:930,0
DA:931,0
DA:932,0
DA:933,0
DA:935,0
DA:937,0
DA:938,0
DA:939,0
DA:94,0
DA:940,0
DA:941,0
DA:942,0
DA:943,0
DA:944,0
DA:945,0
DA:946,0
DA:948,0
DA:949,0
DA:95,0
DA:950,0
DA:953,0
DA:954,0
DA:955,0
DA:956,0
DA:957,0
DA:958,0
DA:959,0
DA:96,0
DA:96,0
DA:96,0
DA:962,0
DA:963,0
DA:964,0
DA:967,0
DA:969,0
DA:97,0
DA:97,0
DA:970,0
DA:971,0
DA:972,0
DA:973,0
DA:974,0
DA:975,0
DA:976,0
DA:978,0
DA:98,0
DA:98,0
DA:98,0
DA:980,0
DA:981,0
DA:982,0
DA:983,0
DA:984,0
DA:985,0
DA:987,0
DA:988,0
DA:989,0
DA:99,0
DA:991,0
DA:993,0
DA:994,0
FN:1,_RNvCs5fNIG3PZaJo_11hello_world4main
FN:1,_RNvCs8VL8JzDaoWz_11hello_world4main
FN:10,_RNvCs5fNIG3PZaJo_11hello_world6target
FN:10,_RNvCs8VL8JzDaoWz_11hello_world6target
FN:10,_RNvNtCs4oWu7nXEoFY_15test_fuzz_macro10type_utils23map_path_generic_params
FN:10,_RNvXNtCsR0Fn1Tqyat_9test_fuzz7convertNtNtCsgyJtF4GtVdY_10conversion4path10LeakedPathINtB2_7FromRefRNtNtCsHIej2QEFI5_3std4path4PathE8from_refBD_
FN:10,_RNvXNtCsR0Fn1Tqyat_9test_fuzz7convertNtNtCsgyJtF4GtVdY_10conversion5array11LeakedArrayINtB2_7FromRefRSNtNtCsgag4BwXrjBQ_5alloc6string6StringE8from_refBD_
FN:10,_RNvXNtCsR0Fn1Tqyat_9test_fuzz7convertNtNtCsgyJtF4GtVdY_10conversion7mutable1YINtB2_7FromRefNtBB_1XE8from_refBD_
FN:10,_RNvXNtCsR0Fn1Tqyat_9test_fuzz7convertNtNtCsgyJtF4GtVdY_10conversion8lifetime1YINtB2_7FromRefNtBB_1XE8from_refBD_
FN:10,_RNvXNtCsR0Fn1Tqyat_9test_fuzz7convertNtNtCsgyJtF4GtVdY_10conversion8receiver1YINtB2_7FromRefRNtBB_1XE8from_refBD_
FN:100,_RNvNtCs4oWu7nXEoFY_15test_fuzz_macro10type_utils11expand_self
FN:1006,_RNvCs4oWu7nXEoFY_15test_fuzz_macro11type_idents
FN:101,_RNvCs4oWu7nXEoFY_15test_fuzz_macro13map_impl_item
FN:1010,_RNCNvCs4oWu7nXEoFY_15test_fuzz_macro11type_idents0B3_
FN:1020,_RNvCs4oWu7nXEoFY_15test_fuzz_macro16combine_generics
FN:1026,_RNCNvCs4oWu7nXEoFY_15test_fuzz_macro16combine_generics0B3_
FN:1040,_RINvCs4oWu7nXEoFY_15test_fuzz_macro15combine_optionsINtNtCsdIfci7uKNPV_3syn10punctuated10PunctuatedNtNtBT_4path15GenericArgumentNtNtBT_5token5CommaENCNvB2_16map_method_or_fns3_0EB2_
FN:1040,_RINvCs4oWu7nXEoFY_15test_fuzz_macro15combine_optionsNtNtCsdIfci7uKNPV_3syn8generics11WhereClauseNCNvB2_16combine_generics0EB2_
FN:105,_RNvNtCs2XBbTT2Tgsj_18test_fuzz_internal4dirs9thread_id
FN:1051,_RNvCs4oWu7nXEoFY_15test_fuzz_macro23restrict_to_deserialize
FN:1053,_RNCNvCs4oWu7nXEoFY_15test_fuzz_macro23restrict_to_deserialize0B3_
FN:1063,_RNvCs4oWu7nXEoFY_15test_fuzz_macro37type_generic_phantom_idents_and_types
FN:1067,_RNCNvCs4oWu7nXEoFY_15test_fuzz_macro37type_generic_phantom_idents_and_types0B3_
FN:108,_RNCNvCs4oWu7nXEoFY_15test_fuzz_macro13map_impl_item0B3_
FN:1081,_RNvCs4oWu7nXEoFY_15test_fuzz_macro17args_as_turbofish
FN:1092,_RNvCs4oWu7nXEoFY_15test_fuzz_macro15args_from_autos
FN:1095,_RNCNvCs4oWu7nXEoFY_15test_fuzz_macro15args_from_autos0B3_
FN:11,_RNvXNtCs4oWu7nXEoFY_15test_fuzz_macro9pat_utilsNtB2_10PatVisitorNtNtNtCsdIfci7uKNPV_3syn3gen5visit5Visit9visit_pat
FN:110,_RNvNtCs2XBbTT2Tgsj_18test_fuzz_internal4dirs16target_directory
FN:1103,_RNCNvCs4oWu7nXEoFY_15test_fuzz_macro15args_from_autoss_0B3_
FN:1125,_RNvCs4oWu7nXEoFY_15test_fuzz_macro9mod_ident
FN:1144,_RNvCs4oWu7nXEoFY_15test_fuzz_macro15anonymous_ident
FN:1149,_RNvCs4oWu7nXEoFY_15test_fuzz_macro3log
FN:1157,_RNvCs4oWu7nXEoFY_15test_fuzz_macro11log_enabled
FN:1158,_RNCNvCs4oWu7nXEoFY_15test_fuzz_macro11log_enabled0B3_
FN:116,_RNvXs0_NtCs4oWu7nXEoFY_15test_fuzz_macro10type_utilsNtB5_17ExpandSelfVisitorNtNtNtCsdIfci7uKNPV_3syn3gen9visit_mut8VisitMut14visit_type_mut
FN:12,_RINvNtCs2XBbTT2Tgsj_18test_fuzz_internal4dirs42impl_generic_args_directory_from_args_typeINtNtCs6ZJvwNFZ5Lo_11return_type16swap_swap_fuzz__4ArgsubEEB1u_
FN:12,_RINvNtCs2XBbTT2Tgsj_18test_fuzz_internal4dirs42impl_generic_args_directory_from_args_typeINtNtCsaVSfY7O0uYs_7generic14baz_qux_fuzz__4ArgsNtB1u_3BarEEB1u_
FN:12,_RINvNtCs2XBbTT2Tgsj_18test_fuzz_internal4dirs42impl_generic_args_directory_from_args_typeINtNtCsaVSfY7O0uYs_7generic20struct_target_fuzz__4ArgsNtB1u_3BarEEB1u_
FN:12,_RINvNtCs2XBbTT2Tgsj_18test_fuzz_internal4dirs42impl_generic_args_directory_from_args_typeINtNtCsaVSfY7O0uYs_7generic20struct_target_fuzz__4ArgsNtB1u_3FooEEB1u_
FN:12,_RINvNtCs2XBbTT2Tgsj_18test_fuzz_internal4dirs42impl_generic_args_directory_from_args_typeINtNtCsaVSfY7O0uYs_7generic26struct_target_bound_fuzz__4ArgsNtB1u_3BarINtB1u_3BazB2n_EEEB1u_
FN:12,_RINvNtCs2XBbTT2Tgsj_18test_fuzz_internal4dirs42impl_generic_args_directory_from_args_typeINtNtCsaVSfY7O0uYs_7generic26struct_target_bound_fuzz__4ArgsNtB1u_3FooINtB1u_3BazB2n_EEEB1u_
FN:12,_RINvNtCs2XBbTT2Tgsj_18test_fuzz_internal4dirs42impl_generic_args_directory_from_args_typeINtNtCsaVSfY7O0uYs_7generic33struct_target_where_clause_fuzz__4ArgsNtB1u_3BarINtB1u_3BazB2u_EEEB1u_
FN:12,_RINvNtCs2XBbTT2Tgsj_18test_fuzz_internal4dirs42impl_generic_args_directory_from_args_typeINtNtCsaVSfY7O0uYs_7generic33struct_target_where_clause_fuzz__4ArgsNtB1u_3FooINtB1u_3BazB2u_EEEB1u_
FN:12,_RINvNtCs2XBbTT2Tgsj_18test_fuzz_internal4dirs42impl_generic_args_directory_from_args_typeINtNtCskkeazd6lurB_15associated_type20serializes_to_fuzz__4ArgsNtB1u_7AddressEEB1u_
FN:12,_RINvNtCs2XBbTT2Tgsj_18test_fuzz_internal4dirs42impl_generic_args_directory_from_args_typeINtNtNtCsaVSfY7O0uYs_7generic27receiverless_trait_function20struct_target_fuzz__4ArgsNtB1w_3BarEEB1w_
FN:12,_RINvNtCs2XBbTT2Tgsj_18test_fuzz_internal4dirs42impl_generic_args_directory_from_args_typeNtNtCs2zeNb6jgslg_19self_ty_in_mod_name20struct_target_fuzz__4ArgsEB1t_
FN:12,_RINvNtCs2XBbTT2Tgsj_18test_fuzz_internal4dirs42impl_generic_args_directory_from_args_typeNtNtCs4MGHVrkl72m_4from15bar_from_fuzz__4ArgsEB1t_
FN:12,_RINvNtCs2XBbTT2Tgsj_18test_fuzz_internal4dirs42impl_generic_args_directory_from_args_typeNtNtCs4MGHVrkl72m_4from15baz_into_fuzz__4ArgsEB1t_
FN:12,_RINvNtCs2XBbTT2Tgsj_18test_fuzz_internal4dirs42impl_generic_args_directory_from_args_typeNtNtCs4MGHVrkl72m_4from19baz_try_from_fuzz__4ArgsEB1t_
FN:12,_RINvNtCs2XBbTT2Tgsj_18test_fuzz_internal4dirs42impl_generic_args_directory_from_args_typeNtNtCs4hte0XrDpp0_7unserde13target_fuzz__4ArgsEB1t_
FN:12,_RINvNtCs2XBbTT2Tgsj_18test_fuzz_internal4dirs42impl_generic_args_directory_from_args_typeNtNtCs4hte0XrDpp0_7unserde27target_in_production_fuzz__4ArgsEB1t_
FN:12,_RINvNtCs2XBbTT2Tgsj_18test_fuzz_internal4dirs42impl_generic_args_directory_from_args_typeNtNtCs4jNeg51vteg_8lifetime13target_fuzz__4ArgsEB1t_
FN:12,_RINvNtCs2XBbTT2Tgsj_18test_fuzz_internal4dirs42impl_generic_args_directory_from_args_typeNtNtCs5fNIG3PZaJo_11hello_world19intermediary_fuzz__4ArgsEB1t_
FN:12,_RINvNtCs2XBbTT2Tgsj_18test_fuzz_internal4dirs42impl_generic_args_directory_from_args_typeNtNtCs6fBdTSegfKf_14test_fuzz_impl17struct_bar_fuzz__4ArgsEB1t_
FN:12,_RINvNtCs2XBbTT2Tgsj_18test_fuzz_internal4dirs42impl_generic_args_directory_from_args_typeNtNtCs6fBdTSegfKf_14test_fuzz_impl17struct_foo_fuzz__4ArgsEB1t_
FN:12,_RINvNtCs2XBbTT2Tgsj_18test_fuzz_internal4dirs42impl_generic_args_directory_from_args_typeNtNtCs6z3aMDs3O5H_14parse_duration12parse_fuzz__4ArgsEB1t_
FN:12,_RINvNtCs2XBbTT2Tgsj_18test_fuzz_internal4dirs42impl_generic_args_directory_from_args_typeNtNtCs7l6y1YLWhzH_5alloc13target_fuzz__4ArgsEB1t_
FN:12,_RINvNtCs2XBbTT2Tgsj_18test_fuzz_internal4dirs42impl_generic_args_directory_from_args_typeNtNtCs8VL8JzDaoWz_11hello_world19intermediary_fuzz__4ArgsEB1t_
FN:12,_RINvNtCs2XBbTT2Tgsj_18test_fuzz_internal4dirs42impl_generic_args_directory_from_args_typeNtNtCs9i11WczUoNj_7profile13target_fuzz__4ArgsEB1t_
FN:12,_RINvNtCs2XBbTT2Tgsj_18test_fuzz_internal4dirs42impl_generic_args_directory_from_args_typeNtNtCsaVSfY7O0uYs_7generic38struct_target_only_generic_args_fuzz__4ArgsEB1t_
FN:12,_RINvNtCs2XBbTT2Tgsj_18test_fuzz_internal4dirs42impl_generic_args_directory_from_args_typeNtNtCsb7JfYwj8ipQ_10serde_attr13target_fuzz__4ArgsEB1t_
FN:12,_RINvNtCs2XBbTT2Tgsj_18test_fuzz_internal4dirs42impl_generic_args_directory_from_args_typeNtNtCsbupd9d71YLx_16calm_and_panicky11calm_fuzz__4ArgsEB1t_
FN:12,_RINvNtCs2XBbTT2Tgsj_18test_fuzz_internal4dirs42impl_generic_args_directory_from_args_typeNtNtCsbupd9d71YLx_16calm_and_panicky14panicky_fuzz__4ArgsEB1t_
FN:12,_RINvNtCs2XBbTT2Tgsj_18test_fuzz_internal4dirs42impl_generic_args_directory_from_args_typeNtNtCscaf2gEuSGn5_6qwerty13target_fuzz__4ArgsEB1t_
FN:12,_RINvNtCs2XBbTT2Tgsj_18test_fuzz_internal4dirs42impl_generic_args_directory_from_args_typeNtNtCsfEcBWhN4Na3_3arc13target_fuzz__4ArgsEB1t_
FN:12,_RINvNtCs2XBbTT2Tgsj_18test_fuzz_internal4dirs42impl_generic_args_directory_from_args_typeNtNtCsfODoU0UL7aq_11manual_leak23wrapped_key_dump_fuzz__4ArgsEB1t_
FN:12,_RINvNtCs2XBbTT2Tgsj_18test_fuzz_internal4dirs42impl_generic_args_directory_from_args_typeNtNtCsfOIDT8lUV2L_7mut_ref17target_str_fuzz__4ArgsEB1t_
FN:12,_RINvNtCs2XBbTT2Tgsj_18test_fuzz_internal4dirs42impl_generic_args_directory_from_args_typeNtNtCsfOIDT8lUV2L_7mut_ref19target_slice_fuzz__4ArgsEB1t_
FN:12,_RINvNtCs2XBbTT2Tgsj_18test_fuzz_internal4dirs42impl_generic_args_directory_from_args_typeNtNtCsfrSB0FWCrTD_6rename10bar_fuzz__4ArgsEB1t_
FN:12,_RINvNtCs2XBbTT2Tgsj_18test_fuzz_internal4dirs42impl_generic_args_directory_from_args_typeNtNtCsgZ69XjcSWhh_6assert13target_fuzz__4ArgsEB1t_
FN:12,_RINvNtCs2XBbTT2Tgsj_18test_fuzz_internal4dirs42impl_generic_args_directory_from_args_typeNtNtCsikhsy0ZvG4z_4cast13target_fuzz__4ArgsEB1t_
FN:12,_RINvNtCs2XBbTT2Tgsj_18test_fuzz_internal4dirs42impl_generic_args_directory_from_args_typeNtNtCsjk8KY6qq2Wr_8parallel15target_0_fuzz__4ArgsEB1t_
FN:12,_RINvNtCs2XBbTT2Tgsj_18test_fuzz_internal4dirs42impl_generic_args_directory_from_args_typeNtNtCsjk8KY6qq2Wr_8parallel15target_1_fuzz__4ArgsEB1t_
FN:12,_RINvNtCs2XBbTT2Tgsj_18test_fuzz_internal4dirs42impl_generic_args_directory_from_args_typeNtNtCsjk8KY6qq2Wr_8parallel15target_2_fuzz__4ArgsEB1t_
FN:12,_RINvNtCs2XBbTT2Tgsj_18test_fuzz_internal4dirs42impl_generic_args_directory_from_args_typeNtNtCsjk8KY6qq2Wr_8parallel15target_3_fuzz__4ArgsEB1t_
FN:12,_RINvNtCs2XBbTT2Tgsj_18test_fuzz_internal4dirs42impl_generic_args_directory_from_args_typeNtNtCsjk8KY6qq2Wr_8parallel15target_4_fuzz__4ArgsEB1t_
FN:12,_RINvNtCs2XBbTT2Tgsj_18test_fuzz_internal4dirs42impl_generic_args_directory_from_args_typeNtNtCsjk8KY6qq2Wr_8parallel15target_5_fuzz__4ArgsEB1t_
FN:12,_RINvNtCs2XBbTT2Tgsj_18test_fuzz_internal4dirs42impl_generic_args_directory_from_args_typeNtNtCskPkSWzOTnW2_9collision11test_fuzz__4ArgsEB1t_
FN:12,_RINvNtCs2XBbTT2Tgsj_18test_fuzz_internal4dirs42impl_generic_args_directory_from_args_typeNtNtNtCs4RwwcRvri8p_7default10no_default13target_fuzz__4ArgsEB1v_
FN:12,_RINvNtCs2XBbTT2Tgsj_18test_fuzz_internal4dirs42impl_generic_args_directory_from_args_typeNtNtNtCs4RwwcRvri8p_7default7default13target_fuzz__4ArgsEB1v_
FN:12,_RINvNtCs2XBbTT2Tgsj_18test_fuzz_internal4dirs42impl_generic_args_directory_from_args_typeNtNtNtCsbZ6qTFMlSKY_5serde10byte_array13target_fuzz__4ArgsEB1v_
FN:12,_RINvNtCs2XBbTT2Tgsj_18test_fuzz_internal4dirs42impl_generic_args_directory_from_args_typeNtNtNtCsbZ6qTFMlSKY_5serde11unit_struct13target_fuzz__4ArgsEB1v_
FN:12,_RINvNtCs2XBbTT2Tgsj_18test_fuzz_internal4dirs42impl_generic_args_directory_from_args_typeNtNtNtCsbZ6qTFMlSKY_5serde12tuple_struct13target_fuzz__4ArgsEB1v_
FN:12,_RINvNtCs2XBbTT2Tgsj_18test_fuzz_internal4dirs42impl_generic_args_directory_from_args_typeNtNtNtCsbZ6qTFMlSKY_5serde12unit_variant13target_fuzz__4ArgsEB1v_
FN:12,_RINvNtCs2XBbTT2Tgsj_18test_fuzz_internal4dirs42impl_generic_args_directory_from_args_typeNtNtNtCsbZ6qTFMlSKY_5serde13tuple_variant13target_fuzz__4ArgsEB1v_
FN:12,_RINvNtCs2XBbTT2Tgsj_18test_fuzz_internal4dirs42impl_generic_args_directory_from_args_typeNtNtNtCsbZ6qTFMlSKY_5serde14newtype_struct13target_fuzz__4ArgsEB1v_
FN:12,_RINvNtCs2XBbTT2Tgsj_18test_fuzz_internal4dirs42impl_generic_args_directory_from_args_typeNtNtNtCsbZ6qTFMlSKY_5serde14struct_variant13target_fuzz__4ArgsEB1v_
FN:12,_RINvNtCs2XBbTT2Tgsj_18test_fuzz_internal4dirs42impl_generic_args_directory_from_args_typeNtNtNtCsbZ6qTFMlSKY_5serde15newtype_variant13target_fuzz__4ArgsEB1v_
FN:12,_RINvNtCs2XBbTT2Tgsj_18test_fuzz_internal4dirs42impl_generic_args_directory_from_args_typeNtNtNtCsbZ6qTFMlSKY_5serde3map13target_fuzz__4ArgsEB1v_
FN:12,_RINvNtCs2XBbTT2Tgsj_18test_fuzz_internal4dirs42impl_generic_args_directory_from_args_typeNtNtNtCsbZ6qTFMlSKY_5serde3seq13target_fuzz__4ArgsEB1v_
FN:12,_RINvNtCs2XBbTT2Tgsj_18test_fuzz_internal4dirs42impl_generic_args_directory_from_args_typeNtNtNtCsbZ6qTFMlSKY_5serde4unit13target_fuzz__4ArgsEB1v_
FN:12,_RINvNtCs2XBbTT2Tgsj_18test_fuzz_internal4dirs42impl_generic_args_directory_from_args_typeNtNtNtCsbZ6qTFMlSKY_5serde5tuple13target_fuzz__4ArgsEB1v_
FN:12,_RINvNtCs2XBbTT2Tgsj_18test_fuzz_internal4dirs42impl_generic_args_directory_from_args_typeNtNtNtCsbZ6qTFMlSKY_5serde6option13target_fuzz__4ArgsEB1v_
FN:12,_RINvNtCs2XBbTT2Tgsj_18test_fuzz_internal4dirs42impl_generic_args_directory_from_args_typeNtNtNtCsbZ6qTFMlSKY_5serde6string13target_fuzz__4ArgsEB1v_
FN:12,_RINvNtCs2XBbTT2Tgsj_18test_fuzz_internal4dirs42impl_generic_args_directory_from_args_typeNtNtNtCsbZ6qTFMlSKY_5serde6strukt13target_fuzz__4ArgsEB1v_
FN:12,_RINvNtCs2XBbTT2Tgsj_18test_fuzz_internal4dirs42impl_generic_args_directory_from_args_typeNtNtNtCsfL22ijsdh9Q_5debug4hang13target_fuzz__4ArgsEB1v_
FN:12,_RINvNtCs2XBbTT2Tgsj_18test_fuzz_internal4dirs42impl_generic_args_directory_from_args_typeNtNtNtCsfL22ijsdh9Q_5debug5crash13target_fuzz__4ArgsEB1v_
FN:12,_RINvNtCs2XBbTT2Tgsj_18test_fuzz_internal4dirs42impl_generic_args_directory_from_args_typeNtNtNtCsgyJtF4GtVdY_10conversion11uncloneable13target_fuzz__4ArgsEB1v_
FN:12,_RINvNtCs2XBbTT2Tgsj_18test_fuzz_internal4dirs42impl_generic_args_directory_from_args_typeNtNtNtCsgyJtF4GtVdY_10conversion4path13target_fuzz__4ArgsEB1v_
FN:12,_RINvNtCs2XBbTT2Tgsj_18test_fuzz_internal4dirs42impl_generic_args_directory_from_args_typeNtNtNtCsgyJtF4GtVdY_10conversion5array13target_fuzz__4ArgsEB1v_
FN:12,_RINvNtCs2XBbTT2Tgsj_18test_fuzz_internal4dirs42impl_generic_args_directory_from_args_typeNtNtNtCsgyJtF4GtVdY_10conversion7mutable13target_fuzz__4ArgsEB1v_
FN:12,_RINvNtCs2XBbTT2Tgsj_18test_fuzz_internal4dirs42impl_generic_args_directory_from_args_typeNtNtNtCsgyJtF4GtVdY_10conversion8lifetime13target_fuzz__4ArgsEB1v_
FN:12,_RINvNtCs2XBbTT2Tgsj_18test_fuzz_internal4dirs42impl_generic_args_directory_from_args_typeNtNtNtCsgyJtF4GtVdY_10conversion8receiver20x_target_self_fuzz__4ArgsEB1v_
FN:12,_RINvNtCs2XBbTT2Tgsj_18test_fuzz_internal4dirs42impl_generic_args_directory_from_args_typeNtNtNtCsgyJtF4GtVdY_10conversion8receiver21x_target_other_fuzz__4ArgsEB1v_
FN:12,_RINvNtCs2XBbTT2Tgsj_18test_fuzz_internal4dirs42impl_generic_args_directory_from_args_typeNtNtNtCsiGGxYnMUpAI_13auto_generate6signed13target_fuzz__4ArgsEB1v_
FN:12,_RINvNtCs2XBbTT2Tgsj_18test_fuzz_internal4dirs42impl_generic_args_directory_from_args_typeNtNtNtCsiGGxYnMUpAI_13auto_generate8unsigned13target_fuzz__4ArgsEB1v_
FN:12,_RINvNtCs2XBbTT2Tgsj_18test_fuzz_internal4dirs42impl_generic_args_directory_from_args_typepEB4_
FN:12,_RNvXININtCseNzKavzW6Gi_17test_fuzz_runtime6traits0pEpNtB5_14MinValueAddOne17min_value_add_oneB7_
FN:12,_RNvXNtCseNzKavzW6Gi_17test_fuzz_runtime6traitsjNtB2_14MinValueAddOne17min_value_add_oneCsfEcBWhN4Na3_3arc
FN:12,_RNvXNtCseNzKavzW6Gi_17test_fuzz_runtime6traitslNtB2_14MinValueAddOne17min_value_add_oneCsb7JfYwj8ipQ_10serde_attr
FN:12,_RNvXNtCseNzKavzW6Gi_17test_fuzz_runtime6traitsxNtB2_14MinValueAddOne17min_value_add_oneCsiGGxYnMUpAI_13auto_generate
FN:12,_RNvXNtCseNzKavzW6Gi_17test_fuzz_runtime6traitsyNtB2_14MinValueAddOne17min_value_add_oneCsiGGxYnMUpAI_13auto_generate
FN:12,_RNvXNtCseNzKavzW6Gi_17test_fuzz_runtime6traitsyNtB2_14MinValueAddOne17min_value_add_oneCsikhsy0ZvG4z_4cast
FN:120,_RNvCseNzKavzW6Gi_17test_fuzz_runtime29warn_if_test_fuzz_not_enabled
FN:121,_RNvCs4oWu7nXEoFY_15test_fuzz_macro16map_impl_item_fn
FN:122,_RNCNvCseNzKavzW6Gi_17test_fuzz_runtime29warn_if_test_fuzz_not_enabled0B3_
FN:123,_RNvNtCs2XBbTT2Tgsj_18test_fuzz_internal4dirs9workspace
FN:128,_RNCNvXs0_NtCs4oWu7nXEoFY_15test_fuzz_macro10type_utilsNtB7_17ExpandSelfVisitorNtNtNtCsdIfci7uKNPV_3syn3gen9visit_mut8VisitMut14visit_type_mut0B9_
FN:129,_RNvNtCs2XBbTT2Tgsj_18test_fuzz_internal4dirs14workspace_root
FN:13,_RINvXNtCsh5MssUcn8TK_17serde_combinators4ref_INtB3_4RefFINtNtB5_5type_4TypeAhj20_EENtB5_13SerializeWith9serializeINtNtNtNtCskruJqO5s2DS_7bincode8features5serde3ser12SerdeEncoderINtNtNtB1W_3enc7encoder11EncoderImplNtNtB1U_10impl_alloc9VecWriterINtNtB1W_6config13ConfigurationNtB3W_12LittleEndianNtB3W_6VarintINtB3W_5LimitKj40000000_EEEEECsfODoU0UL7aq_11manual_leak
FN:13,_RINvXNtCsh5MssUcn8TK_17serde_combinators5type_INtB3_4TypeAhj20_ENtB5_13SerializeWith9serializeINtNtNtNtCskruJqO5s2DS_7bincode8features5serde3ser12SerdeEncoderINtNtNtB1D_3enc7encoder11EncoderImplNtNtB1B_10impl_alloc9VecWriterINtNtB1D_6config13ConfigurationNtB3D_12LittleEndianNtB3D_6VarintINtB3D_5LimitKj40000000_EEEEECsfODoU0UL7aq_11manual_leak
FN:136,_RINvNtCs2XBbTT2Tgsj_18test_fuzz_internal4dirs19path_from_args_typeINtNtCs6ZJvwNFZ5Lo_11return_type16swap_swap_fuzz__4ArgsubEEB17_
FN:136,_RINvNtCs2XBbTT2Tgsj_18test_fuzz_internal4dirs19path_from_args_typeINtNtCsaVSfY7O0uYs_7generic14baz_qux_fuzz__4ArgsNtB17_3BarEEB17_
FN:136,_RINvNtCs2XBbTT2Tgsj_18test_fuzz_internal4dirs19path_from_args_typeINtNtCsaVSfY7O0uYs_7generic20struct_target_fuzz__4ArgsNtB17_3BarEEB17_
FN:136,_RINvNtCs2XBbTT2Tgsj_18test_fuzz_internal4dirs19path_from_args_typeINtNtCsaVSfY7O0uYs_7generic20struct_target_fuzz__4ArgsNtB17_3FooEEB17_
FN:136,_RINvNtCs2XBbTT2Tgsj_18test_fuzz_internal4dirs19path_from_args_typeINtNtCsaVSfY7O0uYs_7generic26struct_target_bound_fuzz__4ArgsNtB17_3BarINtB17_3BazB20_EEEB17_
FN:136,_RINvNtCs2XBbTT2Tgsj_18test_fuzz_internal4dirs19path_from_args_typeINtNtCsaVSfY7O0uYs_7generic26struct_target_bound_fuzz__4ArgsNtB17_3FooINtB17_3BazB20_EEEB17_
FN:136,_RINvNtCs2XBbTT2Tgsj_18test_fuzz_internal4dirs19path_from_args_typeINtNtCsaVSfY7O0uYs_7generic33struct_target_where_clause_fuzz__4ArgsNtB17_3BarINtB17_3BazB27_EEEB17_
FN:136,_RINvNtCs2XBbTT2Tgsj_18test_fuzz_internal4dirs19path_from_args_typeINtNtCsaVSfY7O0uYs_7generic33struct_target_where_clause_fuzz__4ArgsNtB17_3FooINtB17_3BazB27_EEEB17_
FN:136,_RINvNtCs2XBbTT2Tgsj_18test_fuzz_internal4dirs19path_from_args_typeINtNtCskkeazd6lurB_15associated_type20serializes_to_fuzz__4ArgsNtB17_7AddressEEB17_
FN:136,_RINvNtCs2XBbTT2Tgsj_18test_fuzz_internal4dirs19path_from_args_typeINtNtNtCsaVSfY7O0uYs_7generic27receiverless_trait_function20struct_target_fuzz__4ArgsNtB19_3BarEEB19_
FN:136,_RINvNtCs2XBbTT2Tgsj_18test_fuzz_internal4dirs19path_from_args_typeINtNvNtCs6ZJvwNFZ5Lo_11return_type16swap_swap_fuzz__10write_args4ArgsubEEB19_
FN:136,_RINvNtCs2XBbTT2Tgsj_18test_fuzz_internal4dirs19path_from_args_typeINtNvNtCsaVSfY7O0uYs_7generic14baz_qux_fuzz__10write_args4ArgsNtB19_3BarEEB19_
FN:136,_RINvNtCs2XBbTT2Tgsj_18test_fuzz_internal4dirs19path_from_args_typeINtNvNtCsaVSfY7O0uYs_7generic20struct_target_fuzz__10write_args4ArgsNtB19_3BarEEB19_
FN:136,_RINvNtCs2XBbTT2Tgsj_18test_fuzz_internal4dirs19path_from_args_typeINtNvNtCsaVSfY7O0uYs_7generic20struct_target_fuzz__10write_args4ArgsNtB19_3FooEEB19_
FN:136,_RINvNtCs2XBbTT2Tgsj_18test_fuzz_internal4dirs19path_from_args_typeINtNvNtCsaVSfY7O0uYs_7generic26struct_target_bound_fuzz__10write_args4ArgsNtB19_3BarINtB19_3BazB2e_EEEB19_
FN:136,_RINvNtCs2XBbTT2Tgsj_18test_fuzz_internal4dirs19path_from_args_typeINtNvNtCsaVSfY7O0uYs_7generic26struct_target_bound_fuzz__10write_args4ArgsNtB19_3FooINtB19_3BazB2e_EEEB19_
FN:136,_RINvNtCs2XBbTT2Tgsj_18test_fuzz_internal4dirs19path_from_args_typeINtNvNtCsaVSfY7O0uYs_7generic33struct_target_where_clause_fuzz__10write_args4ArgsNtB19_3BarINtB19_3BazB2l_EEEB19_
FN:136,_RINvNtCs2XBbTT2Tgsj_18test_fuzz_internal4dirs19path_from_args_typeINtNvNtCsaVSfY7O0uYs_7generic33struct_target_where_clause_fuzz__10write_args4ArgsNtB19_3FooINtB19_3BazB2l_EEEB19_
FN:136,_RINvNtCs2XBbTT2Tgsj_18test_fuzz_internal4dirs19path_from_args_typeINtNvNtCskkeazd6lurB_15associated_type20serializes_to_fuzz__10write_args4ArgsNtB19_7AddressEEB19_
FN:136,_RINvNtCs2XBbTT2Tgsj_18test_fuzz_internal4dirs19path_from_args_typeINtNvNtNtCsaVSfY7O0uYs_7generic27receiverless_trait_function20struct_target_fuzz__10write_args4ArgsNtB1b_3BarEEB1b_
FN:136,_RINvNtCs2XBbTT2Tgsj_18test_fuzz_internal4dirs19path_from_args_typeNtNtCs2zeNb6jgslg_19self_ty_in_mod_name20struct_target_fuzz__4ArgsEB16_
FN:136,_RINvNtCs2XBbTT2Tgsj_18test_fuzz_internal4dirs19path_from_args_typeNtNtCs4MGHVrkl72m_4from15bar_from_fuzz__4ArgsEB16_
FN:136,_RINvNtCs2XBbTT2Tgsj_18test_fuzz_internal4dirs19path_from_args_typeNtNtCs4MGHVrkl72m_4from15baz_into_fuzz__4ArgsEB16_
FN:136,_RINvNtCs2XBbTT2Tgsj_18test_fuzz_internal4dirs19path_from_args_typeNtNtCs4MGHVrkl72m_4from19baz_try_from_fuzz__4ArgsEB16_
FN:136,_RINvNtCs2XBbTT2Tgsj_18test_fuzz_internal4dirs19path_from_args_typeNtNtCs4hte0XrDpp0_7unserde13target_fuzz__4ArgsEB16_
FN:136,_RINvNtCs2XBbTT2Tgsj_18test_fuzz_internal4dirs19path_from_args_typeNtNtCs4hte0XrDpp0_7unserde27target_in_production_fuzz__4ArgsEB16_
FN:136,_RINvNtCs2XBbTT2Tgsj_18test_fuzz_internal4dirs19path_from_args_typeNtNtCs4jNeg51vteg_8lifetime13target_fuzz__4ArgsEB16_
FN:136,_RINvNtCs2XBbTT2Tgsj_18test_fuzz_internal4dirs19path_from_args_typeNtNtCs5fNIG3PZaJo_11hello_world19intermediary_fuzz__4ArgsEB16_
FN:136,_RINvNtCs2XBbTT2Tgsj_18test_fuzz_internal4dirs19path_from_args_typeNtNtCs6fBdTSegfKf_14test_fuzz_impl17struct_bar_fuzz__4ArgsEB16_
FN:136,_RINvNtCs2XBbTT2Tgsj_18test_fuzz_internal4dirs19path_from_args_typeNtNtCs6fBdTSegfKf_14test_fuzz_impl17struct_foo_fuzz__4ArgsEB16_
FN:136,_RINvNtCs2XBbTT2Tgsj_18test_fuzz_internal4dirs19path_from_args_typeNtNtCs6z3aMDs3O5H_14parse_duration12parse_fuzz__4ArgsEB16_
FN:136,_RINvNtCs2XBbTT2Tgsj_18test_fuzz_internal4dirs19path_from_args_typeNtNtCs7l6y1YLWhzH_5alloc13target_fuzz__4ArgsEB16_
FN:136,_RINvNtCs2XBbTT2Tgsj_18test_fuzz_internal4dirs19path_from_args_typeNtNtCs8VL8JzDaoWz_11hello_world19intermediary_fuzz__4ArgsEB16_
FN:136,_RINvNtCs2XBbTT2Tgsj_18test_fuzz_internal4dirs19path_from_args_typeNtNtCs9i11WczUoNj_7profile13target_fuzz__4ArgsEB16_
FN:136,_RINvNtCs2XBbTT2Tgsj_18test_fuzz_internal4dirs19path_from_args_typeNtNtCsaVSfY7O0uYs_7generic38struct_target_only_generic_args_fuzz__4ArgsEB16_
FN:136,_RINvNtCs2XBbTT2Tgsj_18test_fuzz_internal4dirs19path_from_args_typeNtNtCsb7JfYwj8ipQ_10serde_attr13target_fuzz__4ArgsEB16_
FN:136,_RINvNtCs2XBbTT2Tgsj_18test_fuzz_internal4dirs19path_from_args_typeNtNtCsbupd9d71YLx_16calm_and_panicky11calm_fuzz__4ArgsEB16_
FN:136,_RINvNtCs2XBbTT2Tgsj_18test_fuzz_internal4dirs19path_from_args_typeNtNtCsbupd9d71YLx_16calm_and_panicky14panicky_fuzz__4ArgsEB16_
FN:136,_RINvNtCs2XBbTT2Tgsj_18test_fuzz_internal4dirs19path_from_args_typeNtNtCscaf2gEuSGn5_6qwerty13target_fuzz__4ArgsEB16_
FN:136,_RINvNtCs2XBbTT2Tgsj_18test_fuzz_internal4dirs19path_from_args_typeNtNtCsfEcBWhN4Na3_3arc13target_fuzz__4ArgsEB16_
FN:136,_RINvNtCs2XBbTT2Tgsj_18test_fuzz_internal4dirs19path_from_args_typeNtNtCsfODoU0UL7aq_11manual_leak23wrapped_key_dump_fuzz__4ArgsEB16_
FN:136,_RINvNtCs2XBbTT2Tgsj_18test_fuzz_internal4dirs19path_from_args_typeNtNtCsfOIDT8lUV2L_7mut_ref17target_str_fuzz__4ArgsEB16_
FN:136,_RINvNtCs2XBbTT2Tgsj_18test_fuzz_internal4dirs19path_from_args_typeNtNtCsfOIDT8lUV2L_7mut_ref19target_slice_fuzz__4ArgsEB16_
FN:136,_RINvNtCs2XBbTT2Tgsj_18test_fuzz_internal4dirs19path_from_args_typeNtNtCsfrSB0FWCrTD_6rename10bar_fuzz__4ArgsEB16_
FN:136,_RINvNtCs2XBbTT2Tgsj_18test_fuzz_internal4dirs19path_from_args_typeNtNtCsgZ69XjcSWhh_6assert13target_fuzz__4ArgsEB16_
FN:136,_RINvNtCs2XBbTT2Tgsj_18test_fuzz_internal4dirs19path_from_args_typeNtNtCsikhsy0ZvG4z_4cast13target_fuzz__4ArgsEB16_
FN:136,_RINvNtCs2XBbTT2Tgsj_18test_fuzz_internal4dirs19path_from_args_typeNtNtCsjk8KY6qq2Wr_8parallel15target_0_fuzz__4ArgsEB16_
FN:136,_RINvNtCs2XBbTT2Tgsj_18test_fuzz_internal4dirs19path_from_args_typeNtNtCsjk8KY6qq2Wr_8parallel15target_1_fuzz__4ArgsEB16_
FN:136,_RINvNtCs2XBbTT2Tgsj_18test_fuzz_internal4dirs19path_from_args_typeNtNtCsjk8KY6qq2Wr_8parallel15target_2_fuzz__4ArgsEB16_
FN:136,_RINvNtCs2XBbTT2Tgsj_18test_fuzz_internal4dirs19path_from_args_typeNtNtCsjk8KY6qq2Wr_8parallel15target_3_fuzz__4ArgsEB16_
FN:136,_RINvNtCs2XBbTT2Tgsj_18test_fuzz_internal4dirs19path_from_args_typeNtNtCsjk8KY6qq2Wr_8parallel15target_4_fuzz__4ArgsEB16_
FN:136,_RINvNtCs2XBbTT2Tgsj_18test_fuzz_internal4dirs19path_from_args_typeNtNtCsjk8KY6qq2Wr_8parallel15target_5_fuzz__4ArgsEB16_
FN:136,_RINvNtCs2XBbTT2Tgsj_18test_fuzz_internal4dirs19path_from_args_typeNtNtCskPkSWzOTnW2_9collision11test_fuzz__4ArgsEB16_
FN:136,_RINvNtCs2XBbTT2Tgsj_18test_fuzz_internal4dirs19path_from_args_typeNtNtNtCs4RwwcRvri8p_7default10no_default13target_fuzz__4ArgsEB18_
FN:136,_RINvNtCs2XBbTT2Tgsj_18test_fuzz_internal4dirs19path_from_args_typeNtNtNtCs4RwwcRvri8p_7default7default13target_fuzz__4ArgsEB18_
FN:136,_RINvNtCs2XBbTT2Tgsj_18test_fuzz_internal4dirs19path_from_args_typeNtNtNtCsbZ6qTFMlSKY_5serde10byte_array13target_fuzz__4ArgsEB18_
FN:136,_RINvNtCs2XBbTT2Tgsj_18test_fuzz_internal4dirs19path_from_args_typeNtNtNtCsbZ6qTFMlSKY_5serde11unit_struct13target_fuzz__4ArgsEB18_
FN:136,_RINvNtCs2XBbTT2Tgsj_18test_fuzz_internal4dirs19path_from_args_typeNtNtNtCsbZ6qTFMlSKY_5serde12tuple_struct13target_fuzz__4ArgsEB18_
FN:136,_RINvNtCs2XBbTT2Tgsj_18test_fuzz_internal4dirs19path_from_args_typeNtNtNtCsbZ6qTFMlSKY_5serde12unit_variant13target_fuzz__4ArgsEB18_
FN:136,_RINvNtCs2XBbTT2Tgsj_18test_fuzz_internal4dirs19path_from_args_typeNtNtNtCsbZ6qTFMlSKY_5serde13tuple_variant13target_fuzz__4ArgsEB18_
FN:136,_RINvNtCs2XBbTT2Tgsj_18test_fuzz_internal4dirs19path_from_args_typeNtNtNtCsbZ6qTFMlSKY_5serde14newtype_struct13target_fuzz__4ArgsEB18_
FN:136,_RINvNtCs2XBbTT2Tgsj_18test_fuzz_internal4dirs19path_from_args_typeNtNtNtCsbZ6qTFMlSKY_5serde14struct_variant13target_fuzz__4ArgsEB18_
FN:136,_RINvNtCs2XBbTT2Tgsj_18test_fuzz_internal4dirs19path_from_args_typeNtNtNtCsbZ6qTFMlSKY_5serde15newtype_variant13target_fuzz__4ArgsEB18_
FN:136,_RINvNtCs2XBbTT2Tgsj_18test_fuzz_internal4dirs19path_from_args_typeNtNtNtCsbZ6qTFMlSKY_5serde3map13target_fuzz__4ArgsEB18_
FN:136,_RINvNtCs2XBbTT2Tgsj_18test_fuzz_internal4dirs19path_from_args_typeNtNtNtCsbZ6qTFMlSKY_5serde3seq13target_fuzz__4ArgsEB18_
FN:136,_RINvNtCs2XBbTT2Tgsj_18test_fuzz_internal4dirs19path_from_args_typeNtNtNtCsbZ6qTFMlSKY_5serde4unit13target_fuzz__4ArgsEB18_
FN:136,_RINvNtCs2XBbTT2Tgsj_18test_fuzz_internal4dirs19path_from_args_typeNtNtNtCsbZ6qTFMlSKY_5serde5tuple13target_fuzz__4ArgsEB18_
FN:136,_RINvNtCs2XBbTT2Tgsj_18test_fuzz_internal4dirs19path_from_args_typeNtNtNtCsbZ6qTFMlSKY_5serde6option13target_fuzz__4ArgsEB18_
FN:136,_RINvNtCs2XBbTT2Tgsj_18test_fuzz_internal4dirs19path_from_args_typeNtNtNtCsbZ6qTFMlSKY_5serde6string13target_fuzz__4ArgsEB18_
FN:136,_RINvNtCs2XBbTT2Tgsj_18test_fuzz_internal4dirs19path_from_args_typeNtNtNtCsbZ6qTFMlSKY_5serde6strukt13target_fuzz__4ArgsEB18_
FN:136,_RINvNtCs2XBbTT2Tgsj_18test_fuzz_internal4dirs19path_from_args_typeNtNtNtCsfL22ijsdh9Q_5debug4hang13target_fuzz__4ArgsEB18_
FN:136,_RINvNtCs2XBbTT2Tgsj_18test_fuzz_internal4dirs19path_from_args_typeNtNtNtCsfL22ijsdh9Q_5debug5crash13target_fuzz__4ArgsEB18_
FN:136,_RINvNtCs2XBbTT2Tgsj_18test_fuzz_internal4dirs19path_from_args_typeNtNtNtCsgyJtF4GtVdY_10conversion11uncloneable13target_fuzz__4ArgsEB18_
FN:136,_RINvNtCs2XBbTT2Tgsj_18test_fuzz_internal4dirs19path_from_args_typeNtNtNtCsgyJtF4GtVdY_10conversion4path13target_fuzz__4ArgsEB18_
FN:136,_RINvNtCs2XBbTT2Tgsj_18test_fuzz_internal4dirs19path_from_args_typeNtNtNtCsgyJtF4GtVdY_10conversion5array13target_fuzz__4ArgsEB18_
FN:136,_RINvNtCs2XBbTT2Tgsj_18test_fuzz_internal4dirs19path_from_args_typeNtNtNtCsgyJtF4GtVdY_10conversion7mutable13target_fuzz__4ArgsEB18_
FN:136,_RINvNtCs2XBbTT2Tgsj_18test_fuzz_internal4dirs19path_from_args_typeNtNtNtCsgyJtF4GtVdY_10conversion8lifetime13target_fuzz__4ArgsEB18_
FN:136,_RINvNtCs2XBbTT2Tgsj_18test_fuzz_internal4dirs19path_from_args_typeNtNtNtCsgyJtF4GtVdY_10conversion8receiver20x_target_self_fuzz__4ArgsEB18_
FN:136,_RINvNtCs2XBbTT2Tgsj_18test_fuzz_internal4dirs19path_from_args_typeNtNtNtCsgyJtF4GtVdY_10conversion8receiver21x_target_other_fuzz__4ArgsEB18_
FN:136,_RINvNtCs2XBbTT2Tgsj_18test_fuzz_internal4dirs19path_from_args_typeNtNtNtCsiGGxYnMUpAI_13auto_generate6signed13target_fuzz__4ArgsEB18_
FN:136,_RINvNtCs2XBbTT2Tgsj_18test_fuzz_internal4dirs19path_from_args_typeNtNtNtCsiGGxYnMUpAI_13auto_generate8unsigned13target_fuzz__4ArgsEB18_
FN:136,_RINvNtCs2XBbTT2Tgsj_18test_fuzz_internal4dirs19path_from_args_typeNtNvNtCs2zeNb6jgslg_19self_ty_in_mod_name20struct_target_fuzz__10write_args4ArgsEB18_
FN:136,_RINvNtCs2XBbTT2Tgsj_18test_fuzz_internal4dirs19path_from_args_typeNtNvNtCs4MGHVrkl72m_4from15bar_from_fuzz__10write_args4ArgsEB18_
FN:136,_RINvNtCs2XBbTT2Tgsj_18test_fuzz_internal4dirs19path_from_args_typeNtNvNtCs4MGHVrkl72m_4from15baz_into_fuzz__10write_args4ArgsEB18_
FN:136,_RINvNtCs2XBbTT2Tgsj_18test_fuzz_internal4dirs19path_from_args_typeNtNvNtCs4MGHVrkl72m_4from19baz_try_from_fuzz__10write_args4ArgsEB18_
FN:136,_RINvNtCs2XBbTT2Tgsj_18test_fuzz_internal4dirs19path_from_args_typeNtNvNtCs4jNeg51vteg_8lifetime13target_fuzz__10write_args4ArgsEB18_
FN:136,_RINvNtCs2XBbTT2Tgsj_18test_fuzz_internal4dirs19path_from_args_typeNtNvNtCs5fNIG3PZaJo_11hello_world19intermediary_fuzz__10write_args4ArgsEB18_
FN:136,_RINvNtCs2XBbTT2Tgsj_18test_fuzz_internal4dirs19path_from_args_typeNtNvNtCs6fBdTSegfKf_14test_fuzz_impl17struct_bar_fuzz__10write_args4ArgsEB18_
FN:136,_RINvNtCs2XBbTT2Tgsj_18test_fuzz_internal4dirs19path_from_args_typeNtNvNtCs6fBdTSegfKf_14test_fuzz_impl17struct_foo_fuzz__10write_args4ArgsEB18_
FN:136,_RINvNtCs2XBbTT2Tgsj_18test_fuzz_internal4dirs19path_from_args_typeNtNvNtCs6z3aMDs3O5H_14parse_duration12parse_fuzz__10write_args4ArgsEB18_
FN:136,_RINvNtCs2XBbTT2Tgsj_18test_fuzz_internal4dirs19path_from_args_typeNtNvNtCs7l6y1YLWhzH_5alloc13target_fuzz__10write_args4ArgsEB18_
FN:136,_RINvNtCs2XBbTT2Tgsj_18test_fuzz_internal4dirs19path_from_args_typeNtNvNtCs8VL8JzDaoWz_11hello_world19intermediary_fuzz__10write_args4ArgsEB18_
FN:136,_RINvNtCs2XBbTT2Tgsj_18test_fuzz_internal4dirs19path_from_args_typeNtNvNtCs9i11WczUoNj_7profile13target_fuzz__10write_args4ArgsEB18_
FN:136,_RINvNtCs2XBbTT2Tgsj_18test_fuzz_internal4dirs19path_from_args_typeNtNvNtCsb7JfYwj8ipQ_10serde_attr13target_fuzz__10write_args4ArgsEB18_
FN:136,_RINvNtCs2XBbTT2Tgsj_18test_fuzz_internal4dirs19path_from_args_typeNtNvNtCsbupd9d71YLx_16calm_and_panicky11calm_fuzz__10write_args4ArgsEB18_
FN:136,_RINvNtCs2XBbTT2Tgsj_18test_fuzz_internal4dirs19path_from_args_typeNtNvNtCsbupd9d71YLx_16calm_and_panicky14panicky_fuzz__10write_args4ArgsEB18_
FN:136,_RINvNtCs2XBbTT2Tgsj_18test_fuzz_internal4dirs19path_from_args_typeNtNvNtCscaf2gEuSGn5_6qwerty13target_fuzz__10write_args4ArgsEB18_
FN:136,_RINvNtCs2XBbTT2Tgsj_18test_fuzz_internal4dirs19path_from_args_typeNtNvNtCsfEcBWhN4Na3_3arc13target_fuzz__10write_args4ArgsEB18_
FN:136,_RINvNtCs2XBbTT2Tgsj_18test_fuzz_internal4dirs19path_from_args_typeNtNvNtCsfODoU0UL7aq_11manual_leak23wrapped_key_dump_fuzz__10write_args4ArgsEB18_
FN:136,_RINvNtCs2XBbTT2Tgsj_18test_fuzz_internal4dirs19path_from_args_typeNtNvNtCsfOIDT8lUV2L_7mut_ref17target_str_fuzz__10write_args4ArgsEB18_
FN:136,_RINvNtCs2XBbTT2Tgsj_18test_fuzz_internal4dirs19path_from_args_typeNtNvNtCsfOIDT8lUV2L_7mut_ref19target_slice_fuzz__10write_args4ArgsEB18_
FN:136,_RINvNtCs2XBbTT2Tgsj_18test_fuzz_internal4dirs19path_from_args_typeNtNvNtCsfrSB0FWCrTD_6rename10bar_fuzz__10write_args4ArgsEB18_
FN:136,_RINvNtCs2XBbTT2Tgsj_18test_fuzz_internal4dirs19path_from_args_typeNtNvNtCsgZ69XjcSWhh_6assert13target_fuzz__10write_args4ArgsEB18_
FN:136,_RINvNtCs2XBbTT2Tgsj_18test_fuzz_internal4dirs19path_from_args_typeNtNvNtCsikhsy0ZvG4z_4cast13target_fuzz__10write_args4ArgsEB18_
FN:136,_RINvNtCs2XBbTT2Tgsj_18test_fuzz_internal4dirs19path_from_args_typeNtNvNtCsjk8KY6qq2Wr_8parallel15target_0_fuzz__10write_args4ArgsEB18_
FN:136,_RINvNtCs2XBbTT2Tgsj_18test_fuzz_internal4dirs19path_from_args_typeNtNvNtCsjk8KY6qq2Wr_8parallel15target_1_fuzz__10write_args4ArgsEB18_
FN:136,_RINvNtCs2XBbTT2Tgsj_18test_fuzz_internal4dirs19path_from_args_typeNtNvNtCsjk8KY6qq2Wr_8parallel15target_2_fuzz__10write_args4ArgsEB18_
FN:136,_RINvNtCs2XBbTT2Tgsj_18test_fuzz_internal4dirs19path_from_args_typeNtNvNtCsjk8KY6qq2Wr_8parallel15target_3_fuzz__10write_args4ArgsEB18_
FN:136,_RINvNtCs2XBbTT2Tgsj_18test_fuzz_internal4dirs19path_from_args_typeNtNvNtCsjk8KY6qq2Wr_8parallel15target_4_fuzz__10write_args4ArgsEB18_
FN:136,_RINvNtCs2XBbTT2Tgsj_18test_fuzz_internal4dirs19path_from_args_typeNtNvNtCsjk8KY6qq2Wr_8parallel15target_5_fuzz__10write_args4ArgsEB18_
FN:136,_RINvNtCs2XBbTT2Tgsj_18test_fuzz_internal4dirs19path_from_args_typeNtNvNtCskPkSWzOTnW2_9collision11test_fuzz__10write_args4ArgsEB18_
FN:136,_RINvNtCs2XBbTT2Tgsj_18test_fuzz_internal4dirs19path_from_args_typeNtNvNtNtCs4RwwcRvri8p_7default10no_default13target_fuzz__10write_args4ArgsEB1a_
FN:136,_RINvNtCs2XBbTT2Tgsj_18test_fuzz_internal4dirs19path_from_args_typeNtNvNtNtCs4RwwcRvri8p_7default7default13target_fuzz__10write_args4ArgsEB1a_
FN:136,_RINvNtCs2XBbTT2Tgsj_18test_fuzz_internal4dirs19path_from_args_typeNtNvNtNtCsbZ6qTFMlSKY_5serde10byte_array13target_fuzz__10write_args4ArgsEB1a_
FN:136,_RINvNtCs2XBbTT2Tgsj_18test_fuzz_internal4dirs19path_from_args_typeNtNvNtNtCsbZ6qTFMlSKY_5serde11unit_struct13target_fuzz__10write_args4ArgsEB1a_
FN:136,_RINvNtCs2XBbTT2Tgsj_18test_fuzz_internal4dirs19path_from_args_typeNtNvNtNtCsbZ6qTFMlSKY_5serde12tuple_struct13target_fuzz__10write_args4ArgsEB1a_
FN:136,_RINvNtCs2XBbTT2Tgsj_18test_fuzz_internal4dirs19path_from_args_typeNtNvNtNtCsbZ6qTFMlSKY_5serde12unit_variant13target_fuzz__10write_args4ArgsEB1a_
FN:136,_RINvNtCs2XBbTT2Tgsj_18test_fuzz_internal4dirs19path_from_args_typeNtNvNtNtCsbZ6qTFMlSKY_5serde13tuple_variant13target_fuzz__10write_args4ArgsEB1a_
FN:136,_RINvNtCs2XBbTT2Tgsj_18test_fuzz_internal4dirs19path_from_args_typeNtNvNtNtCsbZ6qTFMlSKY_5serde14newtype_struct13target_fuzz__10write_args4ArgsEB1a_
FN:136,_RINvNtCs2XBbTT2Tgsj_18test_fuzz_internal4dirs19path_from_args_typeNtNvNtNtCsbZ6qTFMlSKY_5serde14struct_variant13target_fuzz__10write_args4ArgsEB1a_
FN:136,_RINvNtCs2XBbTT2Tgsj_18test_fuzz_internal4dirs19path_from_args_typeNtNvNtNtCsbZ6qTFMlSKY_5serde15newtype_variant13target_fuzz__10write_args4ArgsEB1a_
FN:136,_RINvNtCs2XBbTT2Tgsj_18test_fuzz_internal4dirs19path_from_args_typeNtNvNtNtCsbZ6qTFMlSKY_5serde3map13target_fuzz__10write_args4ArgsEB1a_
FN:136,_RINvNtCs2XBbTT2Tgsj_18test_fuzz_internal4dirs19path_from_args_typeNtNvNtNtCsbZ6qTFMlSKY_5serde3seq13target_fuzz__10write_args4ArgsEB1a_
FN:136,_RINvNtCs2XBbTT2Tgsj_18test_fuzz_internal4dirs19path_from_args_typeNtNvNtNtCsbZ6qTFMlSKY_5serde4unit13target_fuzz__10write_args4ArgsEB1a_
FN:136,_RINvNtCs2XBbTT2Tgsj_18test_fuzz_internal4dirs19path_from_args_typeNtNvNtNtCsbZ6qTFMlSKY_5serde5tuple13target_fuzz__10write_args4ArgsEB1a_
FN:136,_RINvNtCs2XBbTT2Tgsj_18test_fuzz_internal4dirs19path_from_args_typeNtNvNtNtCsbZ6qTFMlSKY_5serde6option13target_fuzz__10write_args4ArgsEB1a_
FN:136,_RINvNtCs2XBbTT2Tgsj_18test_fuzz_internal4dirs19path_from_args_typeNtNvNtNtCsbZ6qTFMlSKY_5serde6string13target_fuzz__10write_args4ArgsEB1a_
FN:136,_RINvNtCs2XBbTT2Tgsj_18test_fuzz_internal4dirs19path_from_args_typeNtNvNtNtCsbZ6qTFMlSKY_5serde6strukt13target_fuzz__10write_args4ArgsEB1a_
FN:136,_RINvNtCs2XBbTT2Tgsj_18test_fuzz_internal4dirs19path_from_args_typeNtNvNtNtCsfL22ijsdh9Q_5debug4hang13target_fuzz__10write_args4ArgsEB1a_
FN:136,_RINvNtCs2XBbTT2Tgsj_18test_fuzz_internal4dirs19path_from_args_typeNtNvNtNtCsfL22ijsdh9Q_5debug5crash13target_fuzz__10write_args4ArgsEB1a_
FN:136,_RINvNtCs2XBbTT2Tgsj_18test_fuzz_internal4dirs19path_from_args_typeNtNvNtNtCsgyJtF4GtVdY_10conversion11uncloneable13target_fuzz__10write_args4ArgsEB1a_
FN:136,_RINvNtCs2XBbTT2Tgsj_18test_fuzz_internal4dirs19path_from_args_typeNtNvNtNtCsgyJtF4GtVdY_10conversion4path13target_fuzz__10write_args4ArgsEB1a_
FN:136,_RINvNtCs2XBbTT2Tgsj_18test_fuzz_internal4dirs19path_from_args_typeNtNvNtNtCsgyJtF4GtVdY_10conversion5array13target_fuzz__10write_args4ArgsEB1a_
FN:136,_RINvNtCs2XBbTT2Tgsj_18test_fuzz_internal4dirs19path_from_args_typeNtNvNtNtCsgyJtF4GtVdY_10conversion7mutable13target_fuzz__10write_args4ArgsEB1a_
FN:136,_RINvNtCs2XBbTT2Tgsj_18test_fuzz_internal4dirs19path_from_args_typeNtNvNtNtCsgyJtF4GtVdY_10conversion8lifetime13target_fuzz__10write_args4ArgsEB1a_
FN:136,_RINvNtCs2XBbTT2Tgsj_18test_fuzz_internal4dirs19path_from_args_typeNtNvNtNtCsgyJtF4GtVdY_10conversion8receiver20x_target_self_fuzz__10write_args4ArgsEB1a_
FN:136,_RINvNtCs2XBbTT2Tgsj_18test_fuzz_internal4dirs19path_from_args_typeNtNvNtNtCsgyJtF4GtVdY_10conversion8receiver21x_target_other_fuzz__10write_args4ArgsEB1a_
FN:136,_RINvNtCs2XBbTT2Tgsj_18test_fuzz_internal4dirs19path_from_args_typeNtNvNtNtCsiGGxYnMUpAI_13auto_generate6signed13target_fuzz__10write_args4ArgsEB1a_
FN:136,_RINvNtCs2XBbTT2Tgsj_18test_fuzz_internal4dirs19path_from_args_typeNtNvNtNtCsiGGxYnMUpAI_13auto_generate8unsigned13target_fuzz__10write_args4ArgsEB1a_
FN:136,_RINvNtCs2XBbTT2Tgsj_18test_fuzz_internal4dirs19path_from_args_typepEB4_
FN:136,_RNvCseNzKavzW6Gi_17test_fuzz_runtime17test_fuzz_enabled
FN:138,_RNCNvCs4oWu7nXEoFY_15test_fuzz_macro16map_impl_item_fn0B3_
FN:139,_RNCNvCs4oWu7nXEoFY_15test_fuzz_macro16map_impl_item_fns_0B3_
FN:140,_RNCINvNtCs2XBbTT2Tgsj_18test_fuzz_internal4dirs19path_from_args_typeINtNtCs6ZJvwNFZ5Lo_11return_type16swap_swap_fuzz__4ArgsubEE0B19_
FN:140,_RNCINvNtCs2XBbTT2Tgsj_18test_fuzz_internal4dirs19path_from_args_typeINtNtCsaVSfY7O0uYs_7generic14baz_qux_fuzz__4ArgsNtB19_3BarEE0B19_
FN:140,_RNCINvNtCs2XBbTT2Tgsj_18test_fuzz_internal4dirs19path_from_args_typeINtNtCsaVSfY7O0uYs_7generic20struct_target_fuzz__4ArgsNtB19_3BarEE0B19_
FN:140,_RNCINvNtCs2XBbTT2Tgsj_18test_fuzz_internal4dirs19path_from_args_typeINtNtCsaVSfY7O0uYs_7generic20struct_target_fuzz__4ArgsNtB19_3FooEE0B19_
FN:140,_RNCINvNtCs2XBbTT2Tgsj_18test_fuzz_internal4dirs19path_from_args_typeINtNtCsaVSfY7O0uYs_7generic26struct_target_bound_fuzz__4ArgsNtB19_3BarINtB19_3BazB22_EEE0B19_
FN:140,_RNCINvNtCs2XBbTT2Tgsj_18test_fuzz_internal4dirs19path_from_args_typeINtNtCsaVSfY7O0uYs_7generic26struct_target_bound_fuzz__4ArgsNtB19_3FooINtB19_3BazB22_EEE0B19_
FN:140,_RNCINvNtCs2XBbTT2Tgsj_18test_fuzz_internal4dirs19path_from_args_typeINtNtCsaVSfY7O0uYs_7generic33struct_target_where_clause_fuzz__4ArgsNtB19_3BarINtB19_3BazB29_EEE0B19_
FN:140,_RNCINvNtCs2XBbTT2Tgsj_18test_fuzz_internal4dirs19path_from_args_typeINtNtCsaVSfY7O0uYs_7generic33struct_target_where_clause_fuzz__4ArgsNtB19_3FooINtB19_3BazB29_EEE0B19_
FN:140,_RNCINvNtCs2XBbTT2Tgsj_18test_fuzz_internal4dirs19path_from_args_typeINtNtCskkeazd6lurB_15associated_type20serializes_to_fuzz__4ArgsNtB19_7AddressEE0B19_
FN:140,_RNCINvNtCs2XBbTT2Tgsj_18test_fuzz_internal4dirs19path_from_args_typeINtNtNtCsaVSfY7O0uYs_7generic27receiverless_trait_function20struct_target_fuzz__4ArgsNtB1b_3BarEE0B1b_
FN:140,_RNCINvNtCs2XBbTT2Tgsj_18test_fuzz_internal4dirs19path_from_args_typeINtNvNtCs6ZJvwNFZ5Lo_11return_type16swap_swap_fuzz__10write_args4ArgsubEE0B1b_
FN:140,_RNCINvNtCs2XBbTT2Tgsj_18test_fuzz_internal4dirs19path_from_args_typeINtNvNtCsaVSfY7O0uYs_7generic14baz_qux_fuzz__10write_args4ArgsNtB1b_3BarEE0B1b_
FN:140,_RNCINvNtCs2XBbTT2Tgsj_18test_fuzz_internal4dirs19path_from_args_typeINtNvNtCsaVSfY7O0uYs_7generic20struct_target_fuzz__10write_args4ArgsNtB1b_3BarEE0B1b_
FN:140,_RNCINvNtCs2XBbTT2Tgsj_18test_fuzz_internal4dirs19path_from_args_typeINtNvNtCsaVSfY7O0uYs_7generic20struct_target_fuzz__10write_args4ArgsNtB1b_3FooEE0B1b_
FN:140,_RNCINvNtCs2XBbTT2Tgsj_18test_fuzz_internal4dirs19path_from_args_typeINtNvNtCsaVSfY7O0uYs_7generic26struct_target_bound_fuzz__10write_args4ArgsNtB1b_3BarINtB1b_3BazB2g_EEE0B1b_
FN:140,_RNCINvNtCs2XBbTT2Tgsj_18test_fuzz_internal4dirs19path_from_args_typeINtNvNtCsaVSfY7O0uYs_7generic26struct_target_bound_fuzz__10write_args4ArgsNtB1b_3FooINtB1b_3BazB2g_EEE0B1b_
FN:140,_RNCINvNtCs2XBbTT2Tgsj_18test_fuzz_internal4dirs19path_from_args_typeINtNvNtCsaVSfY7O0uYs_7generic33struct_target_where_clause_fuzz__10write_args4ArgsNtB1b_3BarINtB1b_3BazB2n_EEE0B1b_
FN:140,_RNCINvNtCs2XBbTT2Tgsj_18test_fuzz_internal4dirs19path_from_args_typeINtNvNtCsaVSfY7O0uYs_7generic33struct_target_where_clause_fuzz__10write_args4ArgsNtB1b_3FooINtB1b_3BazB2n_EEE0B1b_
FN:140,_RNCINvNtCs2XBbTT2Tgsj_18test_fuzz_internal4dirs19path_from_args_typeINtNvNtCskkeazd6lurB_15associated_type20serializes_to_fuzz__10write_args4ArgsNtB1b_7AddressEE0B1b_
FN:140,_RNCINvNtCs2XBbTT2Tgsj_18test_fuzz_internal4dirs19path_from_args_typeINtNvNtNtCsaVSfY7O0uYs_7generic27receiverless_trait_function20struct_target_fuzz__10write_args4ArgsNtB1d_3BarEE0B1d_
FN:140,_RNCINvNtCs2XBbTT2Tgsj_18test_fuzz_internal4dirs19path_from_args_typeNtNtCs2zeNb6jgslg_19self_ty_in_mod_name20struct_target_fuzz__4ArgsE0B18_
FN:140,_RNCINvNtCs2XBbTT2Tgsj_18test_fuzz_internal4dirs19path_from_args_typeNtNtCs4MGHVrkl72m_4from15bar_from_fuzz__4ArgsE0B18_
FN:140,_RNCINvNtCs2XBbTT2Tgsj_18test_fuzz_internal4dirs19path_from_args_typeNtNtCs4MGHVrkl72m_4from15baz_into_fuzz__4ArgsE0B18_
FN:140,_RNCINvNtCs2XBbTT2Tgsj_18test_fuzz_internal4dirs19path_from_args_typeNtNtCs4MGHVrkl72m_4from19baz_try_from_fuzz__4ArgsE0B18_
FN:140,_RNCINvNtCs2XBbTT2Tgsj_18test_fuzz_internal4dirs19path_from_args_typeNtNtCs4hte0XrDpp0_7unserde13target_fuzz__4ArgsE0B18_
FN:140,_RNCINvNtCs2XBbTT2Tgsj_18test_fuzz_internal4dirs19path_from_args_typeNtNtCs4hte0XrDpp0_7unserde27target_in_production_fuzz__4ArgsE0B18_
FN:140,_RNCINvNtCs2XBbTT2Tgsj_18test_fuzz_internal4dirs19path_from_args_typeNtNtCs4jNeg51vteg_8lifetime13target_fuzz__4ArgsE0B18_
FN:140,_RNCINvNtCs2XBbTT2Tgsj_18test_fuzz_internal4dirs19path_from_args_typeNtNtCs5fNIG3PZaJo_11hello_world19intermediary_fuzz__4ArgsE0B18_
FN:140,_RNCINvNtCs2XBbTT2Tgsj_18test_fuzz_internal4dirs19path_from_args_typeNtNtCs6fBdTSegfKf_14test_fuzz_impl17struct_bar_fuzz__4ArgsE0B18_
FN:140,_RNCINvNtCs2XBbTT2Tgsj_18test_fuzz_internal4dirs19path_from_args_typeNtNtCs6fBdTSegfKf_14test_fuzz_impl17struct_foo_fuzz__4ArgsE0B18_
FN:140,_RNCINvNtCs2XBbTT2Tgsj_18test_fuzz_internal4dirs19path_from_args_typeNtNtCs6z3aMDs3O5H_14parse_duration12parse_fuzz__4ArgsE0B18_
FN:140,_RNCINvNtCs2XBbTT2Tgsj_18test_fuzz_internal4dirs19path_from_args_typeNtNtCs7l6y1YLWhzH_5alloc13target_fuzz__4ArgsE0B18_
FN:140,_RNCINvNtCs2XBbTT2Tgsj_18test_fuzz_internal4dirs19path_from_args_typeNtNtCs8VL8JzDaoWz_11hello_world19intermediary_fuzz__4ArgsE0B18_
FN:140,_RNCINvNtCs2XBbTT2Tgsj_18test_fuzz_internal4dirs19path_from_args_typeNtNtCs9i11WczUoNj_7profile13target_fuzz__4ArgsE0B18_
FN:140,_RNCINvNtCs2XBbTT2Tgsj_18test_fuzz_internal4dirs19path_from_args_typeNtNtCsaVSfY7O0uYs_7generic38struct_target_only_generic_args_fuzz__4ArgsE0B18_
FN:140,_RNCINvNtCs2XBbTT2Tgsj_18test_fuzz_internal4dirs19path_from_args_typeNtNtCsb7JfYwj8ipQ_10serde_attr13target_fuzz__4ArgsE0B18_
FN:140,_RNCINvNtCs2XBbTT2Tgsj_18test_fuzz_internal4dirs19path_from_args_typeNtNtCsbupd9d71YLx_16calm_and_panicky11calm_fuzz__4ArgsE0B18_
FN:140,_RNCINvNtCs2XBbTT2Tgsj_18test_fuzz_internal4dirs19path_from_args_typeNtNtCsbupd9d71YLx_16calm_and_panicky14panicky_fuzz__4ArgsE0B18_
FN:140,_RNCINvNtCs2XBbTT2Tgsj_18test_fuzz_internal4dirs19path_from_args_typeNtNtCscaf2gEuSGn5_6qwerty13target_fuzz__4ArgsE0B18_
FN:140,_RNCINvNtCs2XBbTT2Tgsj_18test_fuzz_internal4dirs19path_from_args_typeNtNtCsfEcBWhN4Na3_3arc13target_fuzz__4ArgsE0B18_
FN:140,_RNCINvNtCs2XBbTT2Tgsj_18test_fuzz_internal4dirs19path_from_args_typeNtNtCsfODoU0UL7aq_11manual_leak23wrapped_key_dump_fuzz__4ArgsE0B18_
FN:140,_RNCINvNtCs2XBbTT2Tgsj_18test_fuzz_internal4dirs19path_from_args_typeNtNtCsfOIDT8lUV2L_7mut_ref17target_str_fuzz__4ArgsE0B18_
FN:140,_RNCINvNtCs2XBbTT2Tgsj_18test_fuzz_internal4dirs19path_from_args_typeNtNtCsfOIDT8lUV2L_7mut_ref19target_slice_fuzz__4ArgsE0B18_
FN:140,_RNCINvNtCs2XBbTT2Tgsj_18test_fuzz_internal4dirs19path_from_args_typeNtNtCsfrSB0FWCrTD_6rename10bar_fuzz__4ArgsE0B18_
FN:140,_RNCINvNtCs2XBbTT2Tgsj_18test_fuzz_internal4dirs19path_from_args_typeNtNtCsgZ69XjcSWhh_6assert13target_fuzz__4ArgsE0B18_
FN:140,_RNCINvNtCs2XBbTT2Tgsj_18test_fuzz_internal4dirs19path_from_args_typeNtNtCsikhsy0ZvG4z_4cast13target_fuzz__4ArgsE0B18_
FN:140,_RNCINvNtCs2XBbTT2Tgsj_18test_fuzz_internal4dirs19path_from_args_typeNtNtCsjk8KY6qq2Wr_8parallel15target_0_fuzz__4ArgsE0B18_
FN:140,_RNCINvNtCs2XBbTT2Tgsj_18test_fuzz_internal4dirs19path_from_args_typeNtNtCsjk8KY6qq2Wr_8parallel15target_1_fuzz__4ArgsE0B18_
FN:140,_RNCINvNtCs2XBbTT2Tgsj_18test_fuzz_internal4dirs19path_from_args_typeNtNtCsjk8KY6qq2Wr_8parallel15target_2_fuzz__4ArgsE0B18_
FN:140,_RNCINvNtCs2XBbTT2Tgsj_18test_fuzz_internal4dirs19path_from_args_typeNtNtCsjk8KY6qq2Wr_8parallel15target_3_fuzz__4ArgsE0B18_
FN:140,_RNCINvNtCs2XBbTT2Tgsj_18test_fuzz_internal4dirs19path_from_args_typeNtNtCsjk8KY6qq2Wr_8parallel15target_4_fuzz__4ArgsE0B18_
FN:140,_RNCINvNtCs2XBbTT2Tgsj_18test_fuzz_internal4dirs19path_from_args_typeNtNtCsjk8KY6qq2Wr_8parallel15target_5_fuzz__4ArgsE0B18_
FN:140,_RNCINvNtCs2XBbTT2Tgsj_18test_fuzz_internal4dirs19path_from_args_typeNtNtCskPkSWzOTnW2_9collision11test_fuzz__4ArgsE0B18_
FN:140,_RNCINvNtCs2XBbTT2Tgsj_18test_fuzz_internal4dirs19path_from_args_typeNtNtNtCs4RwwcRvri8p_7default10no_default13target_fuzz__4ArgsE0B1a_
FN:140,_RNCINvNtCs2XBbTT2Tgsj_18test_fuzz_internal4dirs19path_from_args_typeNtNtNtCs4RwwcRvri8p_7default7default13target_fuzz__4ArgsE0B1a_
FN:140,_RNCINvNtCs2XBbTT2Tgsj_18test_fuzz_internal4dirs19path_from_args_typeNtNtNtCsbZ6qTFMlSKY_5serde10byte_array13target_fuzz__4ArgsE0B1a_
FN:140,_RNCINvNtCs2XBbTT2Tgsj_18test_fuzz_internal4dirs19path_from_args_typeNtNtNtCsbZ6qTFMlSKY_5serde11unit_struct13target_fuzz__4ArgsE0B1a_
FN:140,_RNCINvNtCs2XBbTT2Tgsj_18test_fuzz_internal4dirs19path_from_args_typeNtNtNtCsbZ6qTFMlSKY_5serde12tuple_struct13target_fuzz__4ArgsE0B1a_
FN:140,_RNCINvNtCs2XBbTT2Tgsj_18test_fuzz_internal4dirs19path_from_args_typeNtNtNtCsbZ6qTFMlSKY_5serde12unit_variant13target_fuzz__4ArgsE0B1a_
FN:140,_RNCINvNtCs2XBbTT2Tgsj_18test_fuzz_internal4dirs19path_from_args_typeNtNtNtCsbZ6qTFMlSKY_5serde13tuple_variant13target_fuzz__4ArgsE0B1a_
FN:140,_RNCINvNtCs2XBbTT2Tgsj_18test_fuzz_internal4dirs19path_from_args_typeNtNtNtCsbZ6qTFMlSKY_5serde14newtype_struct13target_fuzz__4ArgsE0B1a_
FN:140,_RNCINvNtCs2XBbTT2Tgsj_18test_fuzz_internal4dirs19path_from_args_typeNtNtNtCsbZ6qTFMlSKY_5serde14struct_variant13target_fuzz__4ArgsE0B1a_
FN:140,_RNCINvNtCs2XBbTT2Tgsj_18test_fuzz_internal4dirs19path_from_args_typeNtNtNtCsbZ6qTFMlSKY_5serde15newtype_variant13target_fuzz__4ArgsE0B1a_
FN:140,_RNCINvNtCs2XBbTT2Tgsj_18test_fuzz_internal4dirs19path_from_args_typeNtNtNtCsbZ6qTFMlSKY_5serde3map13target_fuzz__4ArgsE0B1a_
FN:140,_RNCINvNtCs2XBbTT2Tgsj_18test_fuzz_internal4dirs19path_from_args_typeNtNtNtCsbZ6qTFMlSKY_5serde3seq13target_fuzz__4ArgsE0B1a_
FN:140,_RNCINvNtCs2XBbTT2Tgsj_18test_fuzz_internal4dirs19path_from_args_typeNtNtNtCsbZ6qTFMlSKY_5serde4unit13target_fuzz__4ArgsE0B1a_
FN:140,_RNCINvNtCs2XBbTT2Tgsj_18test_fuzz_internal4dirs19path_from_args_typeNtNtNtCsbZ6qTFMlSKY_5serde5tuple13target_fuzz__4ArgsE0B1a_
FN:140,_RNCINvNtCs2XBbTT2Tgsj_18test_fuzz_internal4dirs19path_from_args_typeNtNtNtCsbZ6qTFMlSKY_5serde6option13target_fuzz__4ArgsE0B1a_
FN:140,_RNCINvNtCs2XBbTT2Tgsj_18test_fuzz_internal4dirs19path_from_args_typeNtNtNtCsbZ6qTFMlSKY_5serde6string13target_fuzz__4ArgsE0B1a_
FN:140,_RNCINvNtCs2XBbTT2Tgsj_18test_fuzz_internal4dirs19path_from_args_typeNtNtNtCsbZ6qTFMlSKY_5serde6strukt13target_fuzz__4ArgsE0B1a_
FN:140,_RNCINvNtCs2XBbTT2Tgsj_18test_fuzz_internal4dirs19path_from_args_typeNtNtNtCsfL22ijsdh9Q_5debug4hang13target_fuzz__4ArgsE0B1a_
FN:140,_RNCINvNtCs2XBbTT2Tgsj_18test_fuzz_internal4dirs19path_from_args_typeNtNtNtCsfL22ijsdh9Q_5debug5crash13target_fuzz__4ArgsE0B1a_
FN:140,_RNCINvNtCs2XBbTT2Tgsj_18test_fuzz_internal4dirs19path_from_args_typeNtNtNtCsgyJtF4GtVdY_10conversion11uncloneable13target_fuzz__4ArgsE0B1a_
FN:140,_RNCINvNtCs2XBbTT2Tgsj_18test_fuzz_internal4dirs19path_from_args_typeNtNtNtCsgyJtF4GtVdY_10conversion4path13target_fuzz__4ArgsE0B1a_
FN:140,_RNCINvNtCs2XBbTT2Tgsj_18test_fuzz_internal4dirs19path_from_args_typeNtNtNtCsgyJtF4GtVdY_10conversion5array13target_fuzz__4ArgsE0B1a_
FN:140,_RNCINvNtCs2XBbTT2Tgsj_18test_fuzz_internal4dirs19path_from_args_typeNtNtNtCsgyJtF4GtVdY_10conversion7mutable13target_fuzz__4ArgsE0B1a_
FN:140,_RNCINvNtCs2XBbTT2Tgsj_18test_fuzz_internal4dirs19path_from_args_typeNtNtNtCsgyJtF4GtVdY_10conversion8lifetime13target_fuzz__4ArgsE0B1a_
FN:140,_RNCINvNtCs2XBbTT2Tgsj_18test_fuzz_internal4dirs19path_from_args_typeNtNtNtCsgyJtF4GtVdY_10conversion8receiver20x_target_self_fuzz__4ArgsE0B1a_
FN:140,_RNCINvNtCs2XBbTT2Tgsj_18test_fuzz_internal4dirs19path_from_args_typeNtNtNtCsgyJtF4GtVdY_10conversion8receiver21x_target_other_fuzz__4ArgsE0B1a_
FN:140,_RNCINvNtCs2XBbTT2Tgsj_18test_fuzz_internal4dirs19path_from_args_typeNtNtNtCsiGGxYnMUpAI_13auto_generate6signed13target_fuzz__4ArgsE0B1a_
FN:140,_RNCINvNtCs2XBbTT2Tgsj_18test_fuzz_internal4dirs19path_from_args_typeNtNtNtCsiGGxYnMUpAI_13auto_generate8unsigned13target_fuzz__4ArgsE0B1a_
FN:140,_RNCINvNtCs2XBbTT2Tgsj_18test_fuzz_internal4dirs19path_from_args_typeNtNvNtCs2zeNb6jgslg_19self_ty_in_mod_name20struct_target_fuzz__10write_args4ArgsE0B1a_
FN:140,_RNCINvNtCs2XBbTT2Tgsj_18test_fuzz_internal4dirs19path_from_args_typeNtNvNtCs4MGHVrkl72m_4from15bar_from_fuzz__10write_args4ArgsE0B1a_
FN:140,_RNCINvNtCs2XBbTT2Tgsj_18test_fuzz_internal4dirs19path_from_args_typeNtNvNtCs4MGHVrkl72m_4from15baz_into_fuzz__10write_args4ArgsE0B1a_
FN:140,_RNCINvNtCs2XBbTT2Tgsj_18test_fuzz_internal4dirs19path_from_args_typeNtNvNtCs4MGHVrkl72m_4from19baz_try_from_fuzz__10write_args4ArgsE0B1a_
FN:140,_RNCINvNtCs2XBbTT2Tgsj_18test_fuzz_internal4dirs19path_from_args_typeNtNvNtCs4jNeg51vteg_8lifetime13target_fuzz__10write_args4ArgsE0B1a_
FN:140,_RNCINvNtCs2XBbTT2Tgsj_18test_fuzz_internal4dirs19path_from_args_typeNtNvNtCs5fNIG3PZaJo_11hello_world19intermediary_fuzz__10write_args4ArgsE0B1a_
FN:140,_RNCINvNtCs2XBbTT2Tgsj_18test_fuzz_internal4dirs19path_from_args_typeNtNvNtCs6fBdTSegfKf_14test_fuzz_impl17struct_bar_fuzz__10write_args4ArgsE0B1a_
FN:140,_RNCINvNtCs2XBbTT2Tgsj_18test_fuzz_internal4dirs19path_from_args_typeNtNvNtCs6fBdTSegfKf_14test_fuzz_impl17struct_foo_fuzz__10write_args4ArgsE0B1a_
FN:140,_RNCINvNtCs2XBbTT2Tgsj_18test_fuzz_internal4dirs19path_from_args_typeNtNvNtCs6z3aMDs3O5H_14parse_duration12parse_fuzz__10write_args4ArgsE0B1a_
FN:140,_RNCINvNtCs2XBbTT2Tgsj_18test_fuzz_internal4dirs19path_from_args_typeNtNvNtCs7l6y1YLWhzH_5alloc13target_fuzz__10write_args4ArgsE0B1a_
FN:140,_RNCINvNtCs2XBbTT2Tgsj_18test_fuzz_internal4dirs19path_from_args_typeNtNvNtCs8VL8JzDaoWz_11hello_world19intermediary_fuzz__10write_args4ArgsE0B1a_
FN:140,_RNCINvNtCs2XBbTT2Tgsj_18test_fuzz_internal4dirs19path_from_args_typeNtNvNtCs9i11WczUoNj_7profile13target_fuzz__10write_args4ArgsE0B1a_
FN:140,_RNCINvNtCs2XBbTT2Tgsj_18test_fuzz_internal4dirs19path_from_args_typeNtNvNtCsb7JfYwj8ipQ_10serde_attr13target_fuzz__10write_args4ArgsE0B1a_
FN:140,_RNCINvNtCs2XBbTT2Tgsj_18test_fuzz_internal4dirs19path_from_args_typeNtNvNtCsbupd9d71YLx_16calm_and_panicky11calm_fuzz__10write_args4ArgsE0B1a_
FN:140,_RNCINvNtCs2XBbTT2Tgsj_18test_fuzz_internal4dirs19path_from_args_typeNtNvNtCsbupd9d71YLx_16calm_and_panicky14panicky_fuzz__10write_args4ArgsE0B1a_
FN:140,_RNCINvNtCs2XBbTT2Tgsj_18test_fuzz_internal4dirs19path_from_args_typeNtNvNtCscaf2gEuSGn5_6qwerty13target_fuzz__10write_args4ArgsE0B1a_
FN:140,_RNCINvNtCs2XBbTT2Tgsj_18test_fuzz_internal4dirs19path_from_args_typeNtNvNtCsfEcBWhN4Na3_3arc13target_fuzz__10write_args4ArgsE0B1a_
FN:140,_RNCINvNtCs2XBbTT2Tgsj_18test_fuzz_internal4dirs19path_from_args_typeNtNvNtCsfODoU0UL7aq_11manual_leak23wrapped_key_dump_fuzz__10write_args4ArgsE0B1a_
FN:140,_RNCINvNtCs2XBbTT2Tgsj_18test_fuzz_internal4dirs19path_from_args_typeNtNvNtCsfOIDT8lUV2L_7mut_ref17target_str_fuzz__10write_args4ArgsE0B1a_
FN:140,_RNCINvNtCs2XBbTT2Tgsj_18test_fuzz_internal4dirs19path_from_args_typeNtNvNtCsfOIDT8lUV2L_7mut_ref19target_slice_fuzz__10write_args4ArgsE0B1a_
FN:140,_RNCINvNtCs2XBbTT2Tgsj_18test_fuzz_internal4dirs19path_from_args_typeNtNvNtCsfrSB0FWCrTD_6rename10bar_fuzz__10write_args4ArgsE0B1a_
FN:140,_RNCINvNtCs2XBbTT2Tgsj_18test_fuzz_internal4dirs19path_from_args_typeNtNvNtCsgZ69XjcSWhh_6assert13target_fuzz__10write_args4ArgsE0B1a_
FN:140,_RNCINvNtCs2XBbTT2Tgsj_18test_fuzz_internal4dirs19path_from_args_typeNtNvNtCsikhsy0ZvG4z_4cast13target_fuzz__10write_args4ArgsE0B1a_
FN:140,_RNCINvNtCs2XBbTT2Tgsj_18test_fuzz_internal4dirs19path_from_args_typeNtNvNtCsjk8KY6qq2Wr_8parallel15target_0_fuzz__10write_args4ArgsE0B1a_
FN:140,_RNCINvNtCs2XBbTT2Tgsj_18test_fuzz_internal4dirs19path_from_args_typeNtNvNtCsjk8KY6qq2Wr_8parallel15target_1_fuzz__10write_args4ArgsE0B1a_
FN:140,_RNCINvNtCs2XBbTT2Tgsj_18test_fuzz_internal4dirs19path_from_args_typeNtNvNtCsjk8KY6qq2Wr_8parallel15target_2_fuzz__10write_args4ArgsE0B1a_
FN:140,_RNCINvNtCs2XBbTT2Tgsj_18test_fuzz_internal4dirs19path_from_args_typeNtNvNtCsjk8KY6qq2Wr_8parallel15target_3_fuzz__10write_args4ArgsE0B1a_
FN:140,_RNCINvNtCs2XBbTT2Tgsj_18test_fuzz_internal4dirs19path_from_args_typeNtNvNtCsjk8KY6qq2Wr_8parallel15target_4_fuzz__10write_args4ArgsE0B1a_
FN:140,_RNCINvNtCs2XBbTT2Tgsj_18test_fuzz_internal4dirs19path_from_args_typeNtNvNtCsjk8KY6qq2Wr_8parallel15target_5_fuzz__10write_args4ArgsE0B1a_
FN:140,_RNCINvNtCs2XBbTT2Tgsj_18test_fuzz_internal4dirs19path_from_args_typeNtNvNtCskPkSWzOTnW2_9collision11test_fuzz__10write_args4ArgsE0B1a_
FN:140,_RNCINvNtCs2XBbTT2Tgsj_18test_fuzz_internal4dirs19path_from_args_typeNtNvNtNtCs4RwwcRvri8p_7default10no_default13target_fuzz__10write_args4ArgsE0B1c_
FN:140,_RNCINvNtCs2XBbTT2Tgsj_18test_fuzz_internal4dirs19path_from_args_typeNtNvNtNtCs4RwwcRvri8p_7default7default13target_fuzz__10write_args4ArgsE0B1c_
FN:140,_RNCINvNtCs2XBbTT2Tgsj_18test_fuzz_internal4dirs19path_from_args_typeNtNvNtNtCsbZ6qTFMlSKY_5serde10byte_array13target_fuzz__10write_args4ArgsE0B1c_
FN:140,_RNCINvNtCs2XBbTT2Tgsj_18test_fuzz_internal4dirs19path_from_args_typeNtNvNtNtCsbZ6qTFMlSKY_5serde11unit_struct13target_fuzz__10write_args4ArgsE0B1c_
FN:140,_RNCINvNtCs2XBbTT2Tgsj_18test_fuzz_internal4dirs19path_from_args_typeNtNvNtNtCsbZ6qTFMlSKY_5serde12tuple_struct13target_fuzz__10write_args4ArgsE0B1c_
FN:140,_RNCINvNtCs2XBbTT2Tgsj_18test_fuzz_internal4dirs19path_from_args_typeNtNvNtNtCsbZ6qTFMlSKY_5serde12unit_variant13target_fuzz__10write_args4ArgsE0B1c_
FN:140,_RNCINvNtCs2XBbTT2Tgsj_18test_fuzz_internal4dirs19path_from_args_typeNtNvNtNtCsbZ6qTFMlSKY_5serde13tuple_variant13target_fuzz__10write_args4ArgsE0B1c_
FN:140,_RNCINvNtCs2XBbTT2Tgsj_18test_fuzz_internal4dirs19path_from_args_typeNtNvNtNtCsbZ6qTFMlSKY_5serde14newtype_struct13target_fuzz__10write_args4ArgsE0B1c_
FN:140,_RNCINvNtCs2XBbTT2Tgsj_18test_fuzz_internal4dirs19path_from_args_typeNtNvNtNtCsbZ6qTFMlSKY_5serde14struct_variant13target_fuzz__10write_args4ArgsE0B1c_
FN:140,_RNCINvNtCs2XBbTT2Tgsj_18test_fuzz_internal4dirs19path_from_args_typeNtNvNtNtCsbZ6qTFMlSKY_5serde15newtype_variant13target_fuzz__10write_args4ArgsE0B1c_
FN:140,_RNCINvNtCs2XBbTT2Tgsj_18test_fuzz_internal4dirs19path_from_args_typeNtNvNtNtCsbZ6qTFMlSKY_5serde3map13target_fuzz__10write_args4ArgsE0B1c_
FN:140,_RNCINvNtCs2XBbTT2Tgsj_18test_fuzz_internal4dirs19path_from_args_typeNtNvNtNtCsbZ6qTFMlSKY_5serde3seq13target_fuzz__10write_args4ArgsE0B1c_
FN:140,_RNCINvNtCs2XBbTT2Tgsj_18test_fuzz_internal4dirs19path_from_args_typeNtNvNtNtCsbZ6qTFMlSKY_5serde4unit13target_fuzz__10write_args4ArgsE0B1c_
FN:140,_RNCINvNtCs2XBbTT2Tgsj_18test_fuzz_internal4dirs19path_from_args_typeNtNvNtNtCsbZ6qTFMlSKY_5serde5tuple13target_fuzz__10write_args4ArgsE0B1c_
FN:140,_RNCINvNtCs2XBbTT2Tgsj_18test_fuzz_internal4dirs19path_from_args_typeNtNvNtNtCsbZ6qTFMlSKY_5serde6option13target_fuzz__10write_args4ArgsE0B1c_
FN:140,_RNCINvNtCs2XBbTT2Tgsj_18test_fuzz_internal4dirs19path_from_args_typeNtNvNtNtCsbZ6qTFMlSKY_5serde6string13target_fuzz__10write_args4ArgsE0B1c_
FN:140,_RNCINvNtCs2XBbTT2Tgsj_18test_fuzz_internal4dirs19path_from_args_typeNtNvNtNtCsbZ6qTFMlSKY_5serde6strukt13target_fuzz__10write_args4ArgsE0B1c_
FN:140,_RNCINvNtCs2XBbTT2Tgsj_18test_fuzz_internal4dirs19path_from_args_typeNtNvNtNtCsfL22ijsdh9Q_5debug4hang13target_fuzz__10write_args4ArgsE0B1c_
FN:140,_RNCINvNtCs2XBbTT2Tgsj_18test_fuzz_internal4dirs19path_from_args_typeNtNvNtNtCsfL22ijsdh9Q_5debug5crash13target_fuzz__10write_args4ArgsE0B1c_
FN:140,_RNCINvNtCs2XBbTT2Tgsj_18test_fuzz_internal4dirs19path_from_args_typeNtNvNtNtCsgyJtF4GtVdY_10conversion11uncloneable13target_fuzz__10write_args4ArgsE0B1c_
FN:140,_RNCINvNtCs2XBbTT2Tgsj_18test_fuzz_internal4dirs19path_from_args_typeNtNvNtNtCsgyJtF4GtVdY_10conversion4path13target_fuzz__10write_args4ArgsE0B1c_
FN:140,_RNCINvNtCs2XBbTT2Tgsj_18test_fuzz_internal4dirs19path_from_args_typeNtNvNtNtCsgyJtF4GtVdY_10conversion5array13target_fuzz__10write_args4ArgsE0B1c_
FN:140,_RNCINvNtCs2XBbTT2Tgsj_18test_fuzz_internal4dirs19path_from_args_typeNtNvNtNtCsgyJtF4GtVdY_10conversion7mutable13target_fuzz__10write_args4ArgsE0B1c_
FN:140,_RNCINvNtCs2XBbTT2Tgsj_18test_fuzz_internal4dirs19path_from_args_typeNtNvNtNtCsgyJtF4GtVdY_10conversion8lifetime13target_fuzz__10write_args4ArgsE0B1c_
FN:140,_RNCINvNtCs2XBbTT2Tgsj_18test_fuzz_internal4dirs19path_from_args_typeNtNvNtNtCsgyJtF4GtVdY_10conversion8receiver20x_target_self_fuzz__10write_args4ArgsE0B1c_
FN:140,_RNCINvNtCs2XBbTT2Tgsj_18test_fuzz_internal4dirs19path_from_args_typeNtNvNtNtCsgyJtF4GtVdY_10conversion8receiver21x_target_other_fuzz__10write_args4ArgsE0B1c_
FN:140,_RNCINvNtCs2XBbTT2Tgsj_18test_fuzz_internal4dirs19path_from_args_typeNtNvNtNtCsiGGxYnMUpAI_13auto_generate6signed13target_fuzz__10write_args4ArgsE0B1c_
FN:140,_RNCINvNtCs2XBbTT2Tgsj_18test_fuzz_internal4dirs19path_from_args_typeNtNvNtNtCsiGGxYnMUpAI_13auto_generate8unsigned13target_fuzz__10write_args4ArgsE0B1c_
FN:140,_RNCINvNtCs2XBbTT2Tgsj_18test_fuzz_internal4dirs19path_from_args_typepE0B6_
FN:141,_RNvCseNzKavzW6Gi_17test_fuzz_runtime16coverage_enabled
FN:144,_RNvNtCs4oWu7nXEoFY_15test_fuzz_macro10type_utils15match_type_path
FN:145,_RNvNtCs2XBbTT2Tgsj_18test_fuzz_internal4dirs16path_from_target
FN:146,_RNCNvNtCs4oWu7nXEoFY_15test_fuzz_macro10type_utils15match_type_path0B5_
FN:146,_RNvCseNzKavzW6Gi_17test_fuzz_runtime15display_enabled
FN:15,_RNvXs_NtCs4oWu7nXEoFY_15test_fuzz_macro8ord_typeNtB4_7OrdTypeNtNtCs3XFJfFEDSOQ_4core3fmt5Debug3fmt
FN:151,_RNvCseNzKavzW6Gi_17test_fuzz_runtime20pretty_print_enabled
FN:154,_RNCNvNtCs4oWu7nXEoFY_15test_fuzz_macro10type_utils15match_type_paths_0B5_
FN:156,_RNvCseNzKavzW6Gi_17test_fuzz_runtime14replay_enabled
FN:161,_RNvCseNzKavzW6Gi_17test_fuzz_runtime13write_enabled
FN:166,_RNvCseNzKavzW6Gi_17test_fuzz_runtime7enabled
FN:168,_RNCNvCseNzKavzW6Gi_17test_fuzz_runtime7enabled0B3_
FN:169,_RNvNtCs4oWu7nXEoFY_15test_fuzz_macro10type_utils9type_base
FN:17,_RNvNtCs2XBbTT2Tgsj_18test_fuzz_internal4dirs39impl_generic_args_directory_from_target
FN:17,_RNvNtCs4oWu7nXEoFY_15test_fuzz_macro10type_utils23map_type_generic_params
FN:171,_RINvCseNzKavzW6Gi_17test_fuzz_runtime23write_impl_generic_argsINtNtCs6ZJvwNFZ5Lo_11return_type16swap_swap_fuzz__4ArgsubEEB13_
FN:171,_RINvCseNzKavzW6Gi_17test_fuzz_runtime23write_impl_generic_argsINtNtCsaVSfY7O0uYs_7generic14baz_qux_fuzz__4ArgsNtB13_3BarEEB13_
FN:171,_RINvCseNzKavzW6Gi_17test_fuzz_runtime23write_impl_generic_argsINtNtCsaVSfY7O0uYs_7generic20struct_target_fuzz__4ArgsNtB13_3BarEEB13_
FN:171,_RINvCseNzKavzW6Gi_17test_fuzz_runtime23write_impl_generic_argsINtNtCsaVSfY7O0uYs_7generic20struct_target_fuzz__4ArgsNtB13_3FooEEB13_
FN:171,_RINvCseNzKavzW6Gi_17test_fuzz_runtime23write_impl_generic_argsINtNtCsaVSfY7O0uYs_7generic26struct_target_bound_fuzz__4ArgsNtB13_3BarINtB13_3BazB1W_EEEB13_
FN:171,_RINvCseNzKavzW6Gi_17test_fuzz_runtime23write_impl_generic_argsINtNtCsaVSfY7O0uYs_7generic26struct_target_bound_fuzz__4ArgsNtB13_3FooINtB13_3BazB1W_EEEB13_
FN:171,_RINvCseNzKavzW6Gi_17test_fuzz_runtime23write_impl_generic_argsINtNtCsaVSfY7O0uYs_7generic33struct_target_where_clause_fuzz__4ArgsNtB13_3BarINtB13_3BazB23_EEEB13_
FN:171,_RINvCseNzKavzW6Gi_17test_fuzz_runtime23write_impl_generic_argsINtNtCsaVSfY7O0uYs_7generic33struct_target_where_clause_fuzz__4ArgsNtB13_3FooINtB13_3BazB23_EEEB13_
FN:171,_RINvCseNzKavzW6Gi_17test_fuzz_runtime23write_impl_generic_argsINtNtCskkeazd6lurB_15associated_type20serializes_to_fuzz__4ArgsNtB13_7AddressEEB13_
FN:171,_RINvCseNzKavzW6Gi_17test_fuzz_runtime23write_impl_generic_argsINtNtNtCsaVSfY7O0uYs_7generic27receiverless_trait_function20struct_target_fuzz__4ArgsNtB15_3BarEEB15_
FN:171,_RINvCseNzKavzW6Gi_17test_fuzz_runtime23write_impl_generic_argsNtNtCs2zeNb6jgslg_19self_ty_in_mod_name20struct_target_fuzz__4ArgsEB12_
FN:171,_RINvCseNzKavzW6Gi_17test_fuzz_runtime23write_impl_generic_argsNtNtCs4MGHVrkl72m_4from15bar_from_fuzz__4ArgsEB12_
FN:171,_RINvCseNzKavzW6Gi_17test_fuzz_runtime23write_impl_generic_argsNtNtCs4MGHVrkl72m_4from15baz_into_fuzz__4ArgsEB12_
FN:171,_RINvCseNzKavzW6Gi_17test_fuzz_runtime23write_impl_generic_argsNtNtCs4MGHVrkl72m_4from19baz_try_from_fuzz__4ArgsEB12_
FN:171,_RINvCseNzKavzW6Gi_17test_fuzz_runtime23write_impl_generic_argsNtNtCs4hte0XrDpp0_7unserde13target_fuzz__4ArgsEB12_
FN:171,_RINvCseNzKavzW6Gi_17test_fuzz_runtime23write_impl_generic_argsNtNtCs4hte0XrDpp0_7unserde27target_in_production_fuzz__4ArgsEB12_
FN:171,_RINvCseNzKavzW6Gi_17test_fuzz_runtime23write_impl_generic_argsNtNtCs4jNeg51vteg_8lifetime13target_fuzz__4ArgsEB12_
FN:171,_RINvCseNzKavzW6Gi_17test_fuzz_runtime23write_impl_generic_argsNtNtCs5fNIG3PZaJo_11hello_world19intermediary_fuzz__4ArgsEB12_
FN:171,_RINvCseNzKavzW6Gi_17test_fuzz_runtime23write_impl_generic_argsNtNtCs6fBdTSegfKf_14test_fuzz_impl17struct_bar_fuzz__4ArgsEB12_
FN:171,_RINvCseNzKavzW6Gi_17test_fuzz_runtime23write_impl_generic_argsNtNtCs6fBdTSegfKf_14test_fuzz_impl17struct_foo_fuzz__4ArgsEB12_
FN:171,_RINvCseNzKavzW6Gi_17test_fuzz_runtime23write_impl_generic_argsNtNtCs6z3aMDs3O5H_14parse_duration12parse_fuzz__4ArgsEB12_
FN:171,_RINvCseNzKavzW6Gi_17test_fuzz_runtime23write_impl_generic_argsNtNtCs7l6y1YLWhzH_5alloc13target_fuzz__4ArgsEB12_
FN:171,_RINvCseNzKavzW6Gi_17test_fuzz_runtime23write_impl_generic_argsNtNtCs8VL8JzDaoWz_11hello_world19intermediary_fuzz__4ArgsEB12_
FN:171,_RINvCseNzKavzW6Gi_17test_fuzz_runtime23write_impl_generic_argsNtNtCs9i11WczUoNj_7profile13target_fuzz__4ArgsEB12_
FN:171,_RINvCseNzKavzW6Gi_17test_fuzz_runtime23write_impl_generic_argsNtNtCsaVSfY7O0uYs_7generic38struct_target_only_generic_args_fuzz__4ArgsEB12_
FN:171,_RINvCseNzKavzW6Gi_17test_fuzz_runtime23write_impl_generic_argsNtNtCsb7JfYwj8ipQ_10serde_attr13target_fuzz__4ArgsEB12_
FN:171,_RINvCseNzKavzW6Gi_17test_fuzz_runtime23write_impl_generic_argsNtNtCsbupd9d71YLx_16calm_and_panicky11calm_fuzz__4ArgsEB12_
FN:171,_RINvCseNzKavzW6Gi_17test_fuzz_runtime23write_impl_generic_argsNtNtCsbupd9d71YLx_16calm_and_panicky14panicky_fuzz__4ArgsEB12_
FN:171,_RINvCseNzKavzW6Gi_17test_fuzz_runtime23write_impl_generic_argsNtNtCscaf2gEuSGn5_6qwerty13target_fuzz__4ArgsEB12_
FN:171,_RINvCseNzKavzW6Gi_17test_fuzz_runtime23write_impl_generic_argsNtNtCsfEcBWhN4Na3_3arc13target_fuzz__4ArgsEB12_
FN:171,_RINvCseNzKavzW6Gi_17test_fuzz_runtime23write_impl_generic_argsNtNtCsfODoU0UL7aq_11manual_leak23wrapped_key_dump_fuzz__4ArgsEB12_
FN:171,_RINvCseNzKavzW6Gi_17test_fuzz_runtime23write_impl_generic_argsNtNtCsfOIDT8lUV2L_7mut_ref17target_str_fuzz__4ArgsEB12_
FN:171,_RINvCseNzKavzW6Gi_17test_fuzz_runtime23write_impl_generic_argsNtNtCsfOIDT8lUV2L_7mut_ref19target_slice_fuzz__4ArgsEB12_
FN:171,_RINvCseNzKavzW6Gi_17test_fuzz_runtime23write_impl_generic_argsNtNtCsfrSB0FWCrTD_6rename10bar_fuzz__4ArgsEB12_
FN:171,_RINvCseNzKavzW6Gi_17test_fuzz_runtime23write_impl_generic_argsNtNtCsgZ69XjcSWhh_6assert13target_fuzz__4ArgsEB12_
FN:171,_RINvCseNzKavzW6Gi_17test_fuzz_runtime23write_impl_generic_argsNtNtCsikhsy0ZvG4z_4cast13target_fuzz__4ArgsEB12_
FN:171,_RINvCseNzKavzW6Gi_17test_fuzz_runtime23write_impl_generic_argsNtNtCsjk8KY6qq2Wr_8parallel15target_0_fuzz__4ArgsEB12_
FN:171,_RINvCseNzKavzW6Gi_17test_fuzz_runtime23write_impl_generic_argsNtNtCsjk8KY6qq2Wr_8parallel15target_1_fuzz__4ArgsEB12_
FN:171,_RINvCseNzKavzW6Gi_17test_fuzz_runtime23write_impl_generic_argsNtNtCsjk8KY6qq2Wr_8parallel15target_2_fuzz__4ArgsEB12_
FN:171,_RINvCseNzKavzW6Gi_17test_fuzz_runtime23write_impl_generic_argsNtNtCsjk8KY6qq2Wr_8parallel15target_3_fuzz__4ArgsEB12_
FN:171,_RINvCseNzKavzW6Gi_17test_fuzz_runtime23write_impl_generic_argsNtNtCsjk8KY6qq2Wr_8parallel15target_4_fuzz__4ArgsEB12_
FN:171,_RINvCseNzKavzW6Gi_17test_fuzz_runtime23write_impl_generic_argsNtNtCsjk8KY6qq2Wr_8parallel15target_5_fuzz__4ArgsEB12_
FN:171,_RINvCseNzKavzW6Gi_17test_fuzz_runtime23write_impl_generic_argsNtNtCskPkSWzOTnW2_9collision11test_fuzz__4ArgsEB12_
FN:171,_RINvCseNzKavzW6Gi_17test_fuzz_runtime23write_impl_generic_argsNtNtNtCs4RwwcRvri8p_7default10no_default13target_fuzz__4ArgsEB14_
FN:171,_RINvCseNzKavzW6Gi_17test_fuzz_runtime23write_impl_generic_argsNtNtNtCs4RwwcRvri8p_7default7default13target_fuzz__4ArgsEB14_
FN:171,_RINvCseNzKavzW6Gi_17test_fuzz_runtime23write_impl_generic_argsNtNtNtCsbZ6qTFMlSKY_5serde10byte_array13target_fuzz__4ArgsEB14_
FN:171,_RINvCseNzKavzW6Gi_17test_fuzz_runtime23write_impl_generic_argsNtNtNtCsbZ6qTFMlSKY_5serde11unit_struct13target_fuzz__4ArgsEB14_
FN:171,_RINvCseNzKavzW6Gi_17test_fuzz_runtime23write_impl_generic_argsNtNtNtCsbZ6qTFMlSKY_5serde12tuple_struct13target_fuzz__4ArgsEB14_
FN:171,_RINvCseNzKavzW6Gi_17test_fuzz_runtime23write_impl_generic_argsNtNtNtCsbZ6qTFMlSKY_5serde12unit_variant13target_fuzz__4ArgsEB14_
FN:171,_RINvCseNzKavzW6Gi_17test_fuzz_runtime23write_impl_generic_argsNtNtNtCsbZ6qTFMlSKY_5serde13tuple_variant13target_fuzz__4ArgsEB14_
FN:171,_RINvCseNzKavzW6Gi_17test_fuzz_runtime23write_impl_generic_argsNtNtNtCsbZ6qTFMlSKY_5serde14newtype_struct13target_fuzz__4ArgsEB14_
FN:171,_RINvCseNzKavzW6Gi_17test_fuzz_runtime23write_impl_generic_argsNtNtNtCsbZ6qTFMlSKY_5serde14struct_variant13target_fuzz__4ArgsEB14_
FN:171,_RINvCseNzKavzW6Gi_17test_fuzz_runtime23write_impl_generic_argsNtNtNtCsbZ6qTFMlSKY_5serde15newtype_variant13target_fuzz__4ArgsEB14_
FN:171,_RINvCseNzKavzW6Gi_17test_fuzz_runtime23write_impl_generic_argsNtNtNtCsbZ6qTFMlSKY_5serde3map13target_fuzz__4ArgsEB14_
FN:171,_RINvCseNzKavzW6Gi_17test_fuzz_runtime23write_impl_generic_argsNtNtNtCsbZ6qTFMlSKY_5serde3seq13target_fuzz__4ArgsEB14_
FN:171,_RINvCseNzKavzW6Gi_17test_fuzz_runtime23write_impl_generic_argsNtNtNtCsbZ6qTFMlSKY_5serde4unit13target_fuzz__4ArgsEB14_
FN:171,_RINvCseNzKavzW6Gi_17test_fuzz_runtime23write_impl_generic_argsNtNtNtCsbZ6qTFMlSKY_5serde5tuple13target_fuzz__4ArgsEB14_
FN:171,_RINvCseNzKavzW6Gi_17test_fuzz_runtime23write_impl_generic_argsNtNtNtCsbZ6qTFMlSKY_5serde6option13target_fuzz__4ArgsEB14_
FN:171,_RINvCseNzKavzW6Gi_17test_fuzz_runtime23write_impl_generic_argsNtNtNtCsbZ6qTFMlSKY_5serde6string13target_fuzz__4ArgsEB14_
FN:171,_RINvCseNzKavzW6Gi_17test_fuzz_runtime23write_impl_generic_argsNtNtNtCsbZ6qTFMlSKY_5serde6strukt13target_fuzz__4ArgsEB14_
FN:171,_RINvCseNzKavzW6Gi_17test_fuzz_runtime23write_impl_generic_argsNtNtNtCsfL22ijsdh9Q_5debug4hang13target_fuzz__4ArgsEB14_
FN:171,_RINvCseNzKavzW6Gi_17test_fuzz_runtime23write_impl_generic_argsNtNtNtCsfL22ijsdh9Q_5debug5crash13target_fuzz__4ArgsEB14_
FN:171,_RINvCseNzKavzW6Gi_17test_fuzz_runtime23write_impl_generic_argsNtNtNtCsgyJtF4GtVdY_10conversion11uncloneable13target_fuzz__4ArgsEB14_
FN:171,_RINvCseNzKavzW6Gi_17test_fuzz_runtime23write_impl_generic_argsNtNtNtCsgyJtF4GtVdY_10conversion4path13target_fuzz__4ArgsEB14_
FN:171,_RINvCseNzKavzW6Gi_17test_fuzz_runtime23write_impl_generic_argsNtNtNtCsgyJtF4GtVdY_10conversion5array13target_fuzz__4ArgsEB14_
FN:171,_RINvCseNzKavzW6Gi_17test_fuzz_runtime23write_impl_generic_argsNtNtNtCsgyJtF4GtVdY_10conversion7mutable13target_fuzz__4ArgsEB14_
FN:171,_RINvCseNzKavzW6Gi_17test_fuzz_runtime23write_impl_generic_argsNtNtNtCsgyJtF4GtVdY_10conversion8lifetime13target_fuzz__4ArgsEB14_
FN:171,_RINvCseNzKavzW6Gi_17test_fuzz_runtime23write_impl_generic_argsNtNtNtCsgyJtF4GtVdY_10conversion8receiver20x_target_self_fuzz__4ArgsEB14_
FN:171,_RINvCseNzKavzW6Gi_17test_fuzz_runtime23write_impl_generic_argsNtNtNtCsgyJtF4GtVdY_10conversion8receiver21x_target_other_fuzz__4ArgsEB14_
FN:171,_RINvCseNzKavzW6Gi_17test_fuzz_runtime23write_impl_generic_argsNtNtNtCsiGGxYnMUpAI_13auto_generate6signed13target_fuzz__4ArgsEB14_
FN:171,_RINvCseNzKavzW6Gi_17test_fuzz_runtime23write_impl_generic_argsNtNtNtCsiGGxYnMUpAI_13auto_generate8unsigned13target_fuzz__4ArgsEB14_
FN:171,_RINvCseNzKavzW6Gi_17test_fuzz_runtime23write_impl_generic_argspEB2_
FN:177,_RINvCseNzKavzW6Gi_17test_fuzz_runtime18write_generic_argsINtNtCs6ZJvwNFZ5Lo_11return_type16swap_swap_fuzz__4ArgsubEEBY_
FN:177,_RINvCseNzKavzW6Gi_17test_fuzz_runtime18write_generic_argsINtNtCsaVSfY7O0uYs_7generic14baz_qux_fuzz__4ArgsNtBY_3BarEEBY_
FN:177,_RINvCseNzKavzW6Gi_17test_fuzz_runtime18write_generic_argsINtNtCsaVSfY7O0uYs_7generic20struct_target_fuzz__4ArgsNtBY_3BarEEBY_
FN:177,_RINvCseNzKavzW6Gi_17test_fuzz_runtime18write_generic_argsINtNtCsaVSfY7O0uYs_7generic20struct_target_fuzz__4ArgsNtBY_3FooEEBY_
FN:177,_RINvCseNzKavzW6Gi_17test_fuzz_runtime18write_generic_argsINtNtCsaVSfY7O0uYs_7generic26struct_target_bound_fuzz__4ArgsNtBY_3BarINtBY_3BazB1R_EEEBY_
FN:177,_RINvCseNzKavzW6Gi_17test_fuzz_runtime18write_generic_argsINtNtCsaVSfY7O0uYs_7generic26struct_target_bound_fuzz__4ArgsNtBY_3FooINtBY_3BazB1R_EEEBY_
FN:177,_RINvCseNzKavzW6Gi_17test_fuzz_runtime18write_generic_argsINtNtCsaVSfY7O0uYs_7generic33struct_target_where_clause_fuzz__4ArgsNtBY_3BarINtBY_3BazB1Y_EEEBY_
FN:177,_RINvCseNzKavzW6Gi_17test_fuzz_runtime18write_generic_argsINtNtCsaVSfY7O0uYs_7generic33struct_target_where_clause_fuzz__4ArgsNtBY_3FooINtBY_3BazB1Y_EEEBY_
FN:177,_RINvCseNzKavzW6Gi_17test_fuzz_runtime18write_generic_argsINtNtCskkeazd6lurB_15associated_type20serializes_to_fuzz__4ArgsNtBY_7AddressEEBY_
FN:177,_RINvCseNzKavzW6Gi_17test_fuzz_runtime18write_generic_argsINtNtNtCsaVSfY7O0uYs_7generic27receiverless_trait_function20struct_target_fuzz__4ArgsNtB10_3BarEEB10_
FN:177,_RINvCseNzKavzW6Gi_17test_fuzz_runtime18write_generic_argsNtNtCs2zeNb6jgslg_19self_ty_in_mod_name20struct_target_fuzz__4ArgsEBX_
FN:177,_RINvCseNzKavzW6Gi_17test_fuzz_runtime18write_generic_argsNtNtCs4MGHVrkl72m_4from15bar_from_fuzz__4ArgsEBX_
FN:177,_RINvCseNzKavzW6Gi_17test_fuzz_runtime18write_generic_argsNtNtCs4MGHVrkl72m_4from15baz_into_fuzz__4ArgsEBX_
FN:177,_RINvCseNzKavzW6Gi_17test_fuzz_runtime18write_generic_argsNtNtCs4MGHVrkl72m_4from19baz_try_from_fuzz__4ArgsEBX_
FN:177,_RINvCseNzKavzW6Gi_17test_fuzz_runtime18write_generic_argsNtNtCs4hte0XrDpp0_7unserde13target_fuzz__4ArgsEBX_
FN:177,_RINvCseNzKavzW6Gi_17test_fuzz_runtime18write_generic_argsNtNtCs4hte0XrDpp0_7unserde27target_in_production_fuzz__4ArgsEBX_
FN:177,_RINvCseNzKavzW6Gi_17test_fuzz_runtime18write_generic_argsNtNtCs4jNeg51vteg_8lifetime13target_fuzz__4ArgsEBX_
FN:177,_RINvCseNzKavzW6Gi_17test_fuzz_runtime18write_generic_argsNtNtCs5fNIG3PZaJo_11hello_world19intermediary_fuzz__4ArgsEBX_
FN:177,_RINvCseNzKavzW6Gi_17test_fuzz_runtime18write_generic_argsNtNtCs6fBdTSegfKf_14test_fuzz_impl17struct_bar_fuzz__4ArgsEBX_
FN:177,_RINvCseNzKavzW6Gi_17test_fuzz_runtime18write_generic_argsNtNtCs6fBdTSegfKf_14test_fuzz_impl17struct_foo_fuzz__4ArgsEBX_
FN:177,_RINvCseNzKavzW6Gi_17test_fuzz_runtime18write_generic_argsNtNtCs6z3aMDs3O5H_14parse_duration12parse_fuzz__4ArgsEBX_
FN:177,_RINvCseNzKavzW6Gi_17test_fuzz_runtime18write_generic_argsNtNtCs7l6y1YLWhzH_5alloc13target_fuzz__4ArgsEBX_
FN:177,_RINvCseNzKavzW6Gi_17test_fuzz_runtime18write_generic_argsNtNtCs8VL8JzDaoWz_11hello_world19intermediary_fuzz__4ArgsEBX_
FN:177,_RINvCseNzKavzW6Gi_17test_fuzz_runtime18write_generic_argsNtNtCs9i11WczUoNj_7profile13target_fuzz__4ArgsEBX_
FN:177,_RINvCseNzKavzW6Gi_17test_fuzz_runtime18write_generic_argsNtNtCsaVSfY7O0uYs_7generic38struct_target_only_generic_args_fuzz__4ArgsEBX_
FN:177,_RINvCseNzKavzW6Gi_17test_fuzz_runtime18write_generic_argsNtNtCsb7JfYwj8ipQ_10serde_attr13target_fuzz__4ArgsEBX_
FN:177,_RINvCseNzKavzW6Gi_17test_fuzz_runtime18write_generic_argsNtNtCsbupd9d71YLx_16calm_and_panicky11calm_fuzz__4ArgsEBX_
FN:177,_RINvCseNzKavzW6Gi_17test_fuzz_runtime18write_generic_argsNtNtCsbupd9d71YLx_16calm_and_panicky14panicky_fuzz__4ArgsEBX_
FN:177,_RINvCseNzKavzW6Gi_17test_fuzz_runtime18write_generic_argsNtNtCscaf2gEuSGn5_6qwerty13target_fuzz__4ArgsEBX_
FN:177,_RINvCseNzKavzW6Gi_17test_fuzz_runtime18write_generic_argsNtNtCsfEcBWhN4Na3_3arc13target_fuzz__4ArgsEBX_
FN:177,_RINvCseNzKavzW6Gi_17test_fuzz_runtime18write_generic_argsNtNtCsfODoU0UL7aq_11manual_leak23wrapped_key_dump_fuzz__4ArgsEBX_
FN:177,_RINvCseNzKavzW6Gi_17test_fuzz_runtime18write_generic_argsNtNtCsfOIDT8lUV2L_7mut_ref17target_str_fuzz__4ArgsEBX_
FN:177,_RINvCseNzKavzW6Gi_17test_fuzz_runtime18write_generic_argsNtNtCsfOIDT8lUV2L_7mut_ref19target_slice_fuzz__4ArgsEBX_
FN:177,_RINvCseNzKavzW6Gi_17test_fuzz_runtime18write_generic_argsNtNtCsfrSB0FWCrTD_6rename10bar_fuzz__4ArgsEBX_
FN:177,_RINvCseNzKavzW6Gi_17test_fuzz_runtime18write_generic_argsNtNtCsgZ69XjcSWhh_6assert13target_fuzz__4ArgsEBX_
FN:177,_RINvCseNzKavzW6Gi_17test_fuzz_runtime18write_generic_argsNtNtCsikhsy0ZvG4z_4cast13target_fuzz__4ArgsEBX_
FN:177,_RINvCseNzKavzW6Gi_17test_fuzz_runtime18write_generic_argsNtNtCsjk8KY6qq2Wr_8parallel15target_0_fuzz__4ArgsEBX_
FN:177,_RINvCseNzKavzW6Gi_17test_fuzz_runtime18write_generic_argsNtNtCsjk8KY6qq2Wr_8parallel15target_1_fuzz__4ArgsEBX_
FN:177,_RINvCseNzKavzW6Gi_17test_fuzz_runtime18write_generic_argsNtNtCsjk8KY6qq2Wr_8parallel15target_2_fuzz__4ArgsEBX_
FN:177,_RINvCseNzKavzW6Gi_17test_fuzz_runtime18write_generic_argsNtNtCsjk8KY6qq2Wr_8parallel15target_3_fuzz__4ArgsEBX_
FN:177,_RINvCseNzKavzW6Gi_17test_fuzz_runtime18write_generic_argsNtNtCsjk8KY6qq2Wr_8parallel15target_4_fuzz__4ArgsEBX_
FN:177,_RINvCseNzKavzW6Gi_17test_fuzz_runtime18write_generic_argsNtNtCsjk8KY6qq2Wr_8parallel15target_5_fuzz__4ArgsEBX_
FN:177,_RINvCseNzKavzW6Gi_17test_fuzz_runtime18write_generic_argsNtNtCskPkSWzOTnW2_9collision11test_fuzz__4ArgsEBX_
FN:177,_RINvCseNzKavzW6Gi_17test_fuzz_runtime18write_generic_argsNtNtNtCs4RwwcRvri8p_7default10no_default13target_fuzz__4ArgsEBZ_
FN:177,_RINvCseNzKavzW6Gi_17test_fuzz_runtime18write_generic_argsNtNtNtCs4RwwcRvri8p_7default7default13target_fuzz__4ArgsEBZ_
FN:177,_RINvCseNzKavzW6Gi_17test_fuzz_runtime18write_generic_argsNtNtNtCsbZ6qTFMlSKY_5serde10byte_array13target_fuzz__4ArgsEBZ_
FN:177,_RINvCseNzKavzW6Gi_17test_fuzz_runtime18write_generic_argsNtNtNtCsbZ6qTFMlSKY_5serde11unit_struct13target_fuzz__4ArgsEBZ_
FN:177,_RINvCseNzKavzW6Gi_17test_fuzz_runtime18write_generic_argsNtNtNtCsbZ6qTFMlSKY_5serde12tuple_struct13target_fuzz__4ArgsEBZ_
FN:177,_RINvCseNzKavzW6Gi_17test_fuzz_runtime18write_generic_argsNtNtNtCsbZ6qTFMlSKY_5serde12unit_variant13target_fuzz__4ArgsEBZ_
FN:177,_RINvCseNzKavzW6Gi_17test_fuzz_runtime18write_generic_argsNtNtNtCsbZ6qTFMlSKY_5serde13tuple_variant13target_fuzz__4ArgsEBZ_
FN:177,_RINvCseNzKavzW6Gi_17test_fuzz_runtime18write_generic_argsNtNtNtCsbZ6qTFMlSKY_5serde14newtype_struct13target_fuzz__4ArgsEBZ_
FN:177,_RINvCseNzKavzW6Gi_17test_fuzz_runtime18write_generic_argsNtNtNtCsbZ6qTFMlSKY_5serde14struct_variant13target_fuzz__4ArgsEBZ_
FN:177,_RINvCseNzKavzW6Gi_17test_fuzz_runtime18write_generic_argsNtNtNtCsbZ6qTFMlSKY_5serde15newtype_variant13target_fuzz__4ArgsEBZ_
FN:177,_RINvCseNzKavzW6Gi_17test_fuzz_runtime18write_generic_argsNtNtNtCsbZ6qTFMlSKY_5serde3map13target_fuzz__4ArgsEBZ_
FN:177,_RINvCseNzKavzW6Gi_17test_fuzz_runtime18write_generic_argsNtNtNtCsbZ6qTFMlSKY_5serde3seq13target_fuzz__4ArgsEBZ_
FN:177,_RINvCseNzKavzW6Gi_17test_fuzz_runtime18write_generic_argsNtNtNtCsbZ6qTFMlSKY_5serde4unit13target_fuzz__4ArgsEBZ_
FN:177,_RINvCseNzKavzW6Gi_17test_fuzz_runtime18write_generic_argsNtNtNtCsbZ6qTFMlSKY_5serde5tuple13target_fuzz__4ArgsEBZ_
FN:177,_RINvCseNzKavzW6Gi_17test_fuzz_runtime18write_generic_argsNtNtNtCsbZ6qTFMlSKY_5serde6option13target_fuzz__4ArgsEBZ_
FN:177,_RINvCseNzKavzW6Gi_17test_fuzz_runtime18write_generic_argsNtNtNtCsbZ6qTFMlSKY_5serde6string13target_fuzz__4ArgsEBZ_
FN:177,_RINvCseNzKavzW6Gi_17test_fuzz_runtime18write_generic_argsNtNtNtCsbZ6qTFMlSKY_5serde6strukt13target_fuzz__4ArgsEBZ_
FN:177,_RINvCseNzKavzW6Gi_17test_fuzz_runtime18write_generic_argsNtNtNtCsfL22ijsdh9Q_5debug4hang13target_fuzz__4ArgsEBZ_
FN:177,_RINvCseNzKavzW6Gi_17test_fuzz_runtime18write_generic_argsNtNtNtCsfL22ijsdh9Q_5debug5crash13target_fuzz__4ArgsEBZ_
FN:177,_RINvCseNzKavzW6Gi_17test_fuzz_runtime18write_generic_argsNtNtNtCsgyJtF4GtVdY_10conversion11uncloneable13target_fuzz__4ArgsEBZ_
FN:177,_RINvCseNzKavzW6Gi_17test_fuzz_runtime18write_generic_argsNtNtNtCsgyJtF4GtVdY_10conversion4path13target_fuzz__4ArgsEBZ_
FN:177,_RINvCseNzKavzW6Gi_17test_fuzz_runtime18write_generic_argsNtNtNtCsgyJtF4GtVdY_10conversion5array13target_fuzz__4ArgsEBZ_
FN:177,_RINvCseNzKavzW6Gi_17test_fuzz_runtime18write_generic_argsNtNtNtCsgyJtF4GtVdY_10conversion7mutable13target_fuzz__4ArgsEBZ_
FN:177,_RINvCseNzKavzW6Gi_17test_fuzz_runtime18write_generic_argsNtNtNtCsgyJtF4GtVdY_10conversion8lifetime13target_fuzz__4ArgsEBZ_
FN:177,_RINvCseNzKavzW6Gi_17test_fuzz_runtime18write_generic_argsNtNtNtCsgyJtF4GtVdY_10conversion8receiver20x_target_self_fuzz__4ArgsEBZ_
FN:177,_RINvCseNzKavzW6Gi_17test_fuzz_runtime18write_generic_argsNtNtNtCsgyJtF4GtVdY_10conversion8receiver21x_target_other_fuzz__4ArgsEBZ_
FN:177,_RINvCseNzKavzW6Gi_17test_fuzz_runtime18write_generic_argsNtNtNtCsiGGxYnMUpAI_13auto_generate6signed13target_fuzz__4ArgsEBZ_
FN:177,_RINvCseNzKavzW6Gi_17test_fuzz_runtime18write_generic_argsNtNtNtCsiGGxYnMUpAI_13auto_generate8unsigned13target_fuzz__4ArgsEBZ_
FN:177,_RINvCseNzKavzW6Gi_17test_fuzz_runtime18write_generic_argspEB2_
FN:18,_RNCINvXNtCsh5MssUcn8TK_17serde_combinators4ref_INtB5_4RefFINtNtB7_5type_4TypeAhj20_EENtB7_13SerializeWith9serializeINtNtNtNtCskruJqO5s2DS_7bincode8features5serde3ser12SerdeEncoderINtNtNtB1Y_3enc7encoder11EncoderImplNtNtB1W_10impl_alloc9VecWriterINtNtB1Y_6config13ConfigurationNtB3Y_12LittleEndianNtB3Y_6VarintINtB3Y_5LimitKj40000000_EEEEE0CsfODoU0UL7aq_11manual_leak
FN:182,_RNvCs4oWu7nXEoFY_15test_fuzz_macro9test_fuzz
FN:183,_RINvCseNzKavzW6Gi_17test_fuzz_runtime10write_argsINtNvNtCs6ZJvwNFZ5Lo_11return_type16swap_swap_fuzz__10write_args4ArgsubEEBS_
FN:183,_RINvCseNzKavzW6Gi_17test_fuzz_runtime10write_argsINtNvNtCsaVSfY7O0uYs_7generic14baz_qux_fuzz__10write_args4ArgsNtBS_3BarEEBS_
FN:183,_RINvCseNzKavzW6Gi_17test_fuzz_runtime10write_argsINtNvNtCsaVSfY7O0uYs_7generic20struct_target_fuzz__10write_args4ArgsNtBS_3BarEEBS_
FN:183,_RINvCseNzKavzW6Gi_17test_fuzz_runtime10write_argsINtNvNtCsaVSfY7O0uYs_7generic20struct_target_fuzz__10write_args4ArgsNtBS_3FooEEBS_
FN:183,_RINvCseNzKavzW6Gi_17test_fuzz_runtime10write_argsINtNvNtCsaVSfY7O0uYs_7generic26struct_target_bound_fuzz__10write_args4ArgsNtBS_3BarINtBS_3BazB1X_EEEBS_
FN:183,_RINvCseNzKavzW6Gi_17test_fuzz_runtime10write_argsINtNvNtCsaVSfY7O0uYs_7generic26struct_target_bound_fuzz__10write_args4ArgsNtBS_3FooINtBS_3BazB1X_EEEBS_
FN:183,_RINvCseNzKavzW6Gi_17test_fuzz_runtime10write_argsINtNvNtCsaVSfY7O0uYs_7generic33struct_target_where_clause_fuzz__10write_args4ArgsNtBS_3BarINtBS_3BazB24_EEEBS_
FN:183,_RINvCseNzKavzW6Gi_17test_fuzz_runtime10write_argsINtNvNtCsaVSfY7O0uYs_7generic33struct_target_where_clause_fuzz__10write_args4ArgsNtBS_3FooINtBS_3BazB24_EEEBS_
FN:183,_RINvCseNzKavzW6Gi_17test_fuzz_runtime10write_argsINtNvNtCskkeazd6lurB_15associated_type20serializes_to_fuzz__10write_args4ArgsNtBS_7AddressEEBS_
FN:183,_RINvCseNzKavzW6Gi_17test_fuzz_runtime10write_argsINtNvNtNtCsaVSfY7O0uYs_7generic27receiverless_trait_function20struct_target_fuzz__10write_args4ArgsNtBU_3BarEEBU_
FN:183,_RINvCseNzKavzW6Gi_17test_fuzz_runtime10write_argsNtNvNtCs2zeNb6jgslg_19self_ty_in_mod_name20struct_target_fuzz__10write_args4ArgsEBR_
FN:183,_RINvCseNzKavzW6Gi_17test_fuzz_runtime10write_argsNtNvNtCs4MGHVrkl72m_4from15bar_from_fuzz__10write_args4ArgsEBR_
FN:183,_RINvCseNzKavzW6Gi_17test_fuzz_runtime10write_argsNtNvNtCs4MGHVrkl72m_4from15baz_into_fuzz__10write_args4ArgsEBR_
FN:183,_RINvCseNzKavzW6Gi_17test_fuzz_runtime10write_argsNtNvNtCs4MGHVrkl72m_4from19baz_try_from_fuzz__10write_args4ArgsEBR_
FN:183,_RINvCseNzKavzW6Gi_17test_fuzz_runtime10write_argsNtNvNtCs4jNeg51vteg_8lifetime13target_fuzz__10write_args4ArgsEBR_
FN:183,_RINvCseNzKavzW6Gi_17test_fuzz_runtime10write_argsNtNvNtCs5fNIG3PZaJo_11hello_world19intermediary_fuzz__10write_args4ArgsEBR_
FN:183,_RINvCseNzKavzW6Gi_17test_fuzz_runtime10write_argsNtNvNtCs6fBdTSegfKf_14test_fuzz_impl17struct_bar_fuzz__10write_args4ArgsEBR_
FN:183,_RINvCseNzKavzW6Gi_17test_fuzz_runtime10write_argsNtNvNtCs6fBdTSegfKf_14test_fuzz_impl17struct_foo_fuzz__10write_args4ArgsEBR_
FN:183,_RINvCseNzKavzW6Gi_17test_fuzz_runtime10write_argsNtNvNtCs6z3aMDs3O5H_14parse_duration12parse_fuzz__10write_args4ArgsEBR_
FN:183,_RINvCseNzKavzW6Gi_17test_fuzz_runtime10write_argsNtNvNtCs7l6y1YLWhzH_5alloc13target_fuzz__10write_args4ArgsEBR_
FN:183,_RINvCseNzKavzW6Gi_17test_fuzz_runtime10write_argsNtNvNtCs8VL8JzDaoWz_11hello_world19intermediary_fuzz__10write_args4ArgsEBR_
FN:183,_RINvCseNzKavzW6Gi_17test_fuzz_runtime10write_argsNtNvNtCs9i11WczUoNj_7profile13target_fuzz__10write_args4ArgsEBR_
FN:183,_RINvCseNzKavzW6Gi_17test_fuzz_runtime10write_argsNtNvNtCsb7JfYwj8ipQ_10serde_attr13target_fuzz__10write_args4ArgsEBR_
FN:183,_RINvCseNzKavzW6Gi_17test_fuzz_runtime10write_argsNtNvNtCsbupd9d71YLx_16calm_and_panicky11calm_fuzz__10write_args4ArgsEBR_
FN:183,_RINvCseNzKavzW6Gi_17test_fuzz_runtime10write_argsNtNvNtCsbupd9d71YLx_16calm_and_panicky14panicky_fuzz__10write_args4ArgsEBR_
FN:183,_RINvCseNzKavzW6Gi_17test_fuzz_runtime10write_argsNtNvNtCscaf2gEuSGn5_6qwerty13target_fuzz__10write_args4ArgsEBR_
FN:183,_RINvCseNzKavzW6Gi_17test_fuzz_runtime10write_argsNtNvNtCsfEcBWhN4Na3_3arc13target_fuzz__10write_args4ArgsEBR_
FN:183,_RINvCseNzKavzW6Gi_17test_fuzz_runtime10write_argsNtNvNtCsfODoU0UL7aq_11manual_leak23wrapped_key_dump_fuzz__10write_args4ArgsEBR_
FN:183,_RINvCseNzKavzW6Gi_17test_fuzz_runtime10write_argsNtNvNtCsfOIDT8lUV2L_7mut_ref17target_str_fuzz__10write_args4ArgsEBR_
FN:183,_RINvCseNzKavzW6Gi_17test_fuzz_runtime10write_argsNtNvNtCsfOIDT8lUV2L_7mut_ref19target_slice_fuzz__10write_args4ArgsEBR_
FN:183,_RINvCseNzKavzW6Gi_17test_fuzz_runtime10write_argsNtNvNtCsfrSB0FWCrTD_6rename10bar_fuzz__10write_args4ArgsEBR_
FN:183,_RINvCseNzKavzW6Gi_17test_fuzz_runtime10write_argsNtNvNtCsgZ69XjcSWhh_6assert13target_fuzz__10write_args4ArgsEBR_
FN:183,_RINvCseNzKavzW6Gi_17test_fuzz_runtime10write_argsNtNvNtCsikhsy0ZvG4z_4cast13target_fuzz__10write_args4ArgsEBR_
FN:183,_RINvCseNzKavzW6Gi_17test_fuzz_runtime10write_argsNtNvNtCsjk8KY6qq2Wr_8parallel15target_0_fuzz__10write_args4ArgsEBR_
FN:183,_RINvCseNzKavzW6Gi_17test_fuzz_runtime10write_argsNtNvNtCsjk8KY6qq2Wr_8parallel15target_1_fuzz__10write_args4ArgsEBR_
FN:183,_RINvCseNzKavzW6Gi_17test_fuzz_runtime10write_argsNtNvNtCsjk8KY6qq2Wr_8parallel15target_2_fuzz__10write_args4ArgsEBR_
FN:183,_RINvCseNzKavzW6Gi_17test_fuzz_runtime10write_argsNtNvNtCsjk8KY6qq2Wr_8parallel15target_3_fuzz__10write_args4ArgsEBR_
FN:183,_RINvCseNzKavzW6Gi_17test_fuzz_runtime10write_argsNtNvNtCsjk8KY6qq2Wr_8parallel15target_4_fuzz__10write_args4ArgsEBR_
FN:183,_RINvCseNzKavzW6Gi_17test_fuzz_runtime10write_argsNtNvNtCsjk8KY6qq2Wr_8parallel15target_5_fuzz__10write_args4ArgsEBR_
FN:183,_RINvCseNzKavzW6Gi_17test_fuzz_runtime10write_argsNtNvNtCskPkSWzOTnW2_9collision11test_fuzz__10write_args4ArgsEBR_
FN:183,_RINvCseNzKavzW6Gi_17test_fuzz_runtime10write_argsNtNvNtNtCs4RwwcRvri8p_7default10no_default13target_fuzz__10write_args4ArgsEBT_
FN:183,_RINvCseNzKavzW6Gi_17test_fuzz_runtime10write_argsNtNvNtNtCs4RwwcRvri8p_7default7default13target_fuzz__10write_args4ArgsEBT_
FN:183,_RINvCseNzKavzW6Gi_17test_fuzz_runtime10write_argsNtNvNtNtCsbZ6qTFMlSKY_5serde10byte_array13target_fuzz__10write_args4ArgsEBT_
FN:183,_RINvCseNzKavzW6Gi_17test_fuzz_runtime10write_argsNtNvNtNtCsbZ6qTFMlSKY_5serde11unit_struct13target_fuzz__10write_args4ArgsEBT_
FN:183,_RINvCseNzKavzW6Gi_17test_fuzz_runtime10write_argsNtNvNtNtCsbZ6qTFMlSKY_5serde12tuple_struct13target_fuzz__10write_args4ArgsEBT_
FN:183,_RINvCseNzKavzW6Gi_17test_fuzz_runtime10write_argsNtNvNtNtCsbZ6qTFMlSKY_5serde12unit_variant13target_fuzz__10write_args4ArgsEBT_
FN:183,_RINvCseNzKavzW6Gi_17test_fuzz_runtime10write_argsNtNvNtNtCsbZ6qTFMlSKY_5serde13tuple_variant13target_fuzz__10write_args4ArgsEBT_
FN:183,_RINvCseNzKavzW6Gi_17test_fuzz_runtime10write_argsNtNvNtNtCsbZ6qTFMlSKY_5serde14newtype_struct13target_fuzz__10write_args4ArgsEBT_
FN:183,_RINvCseNzKavzW6Gi_17test_fuzz_runtime10write_argsNtNvNtNtCsbZ6qTFMlSKY_5serde14struct_variant13target_fuzz__10write_args4ArgsEBT_
FN:183,_RINvCseNzKavzW6Gi_17test_fuzz_runtime10write_argsNtNvNtNtCsbZ6qTFMlSKY_5serde15newtype_variant13target_fuzz__10write_args4ArgsEBT_
FN:183,_RINvCseNzKavzW6Gi_17test_fuzz_runtime10write_argsNtNvNtNtCsbZ6qTFMlSKY_5serde3map13target_fuzz__10write_args4ArgsEBT_
FN:183,_RINvCseNzKavzW6Gi_17test_fuzz_runtime10write_argsNtNvNtNtCsbZ6qTFMlSKY_5serde3seq13target_fuzz__10write_args4ArgsEBT_
FN:183,_RINvCseNzKavzW6Gi_17test_fuzz_runtime10write_argsNtNvNtNtCsbZ6qTFMlSKY_5serde4unit13target_fuzz__10write_args4ArgsEBT_
FN:183,_RINvCseNzKavzW6Gi_17test_fuzz_runtime10write_argsNtNvNtNtCsbZ6qTFMlSKY_5serde5tuple13target_fuzz__10write_args4ArgsEBT_
FN:183,_RINvCseNzKavzW6Gi_17test_fuzz_runtime10write_argsNtNvNtNtCsbZ6qTFMlSKY_5serde6option13target_fuzz__10write_args4ArgsEBT_
FN:183,_RINvCseNzKavzW6Gi_17test_fuzz_runtime10write_argsNtNvNtNtCsbZ6qTFMlSKY_5serde6string13target_fuzz__10write_args4ArgsEBT_
FN:183,_RINvCseNzKavzW6Gi_17test_fuzz_runtime10write_argsNtNvNtNtCsbZ6qTFMlSKY_5serde6strukt13target_fuzz__10write_args4ArgsEBT_
FN:183,_RINvCseNzKavzW6Gi_17test_fuzz_runtime10write_argsNtNvNtNtCsfL22ijsdh9Q_5debug4hang13target_fuzz__10write_args4ArgsEBT_
FN:183,_RINvCseNzKavzW6Gi_17test_fuzz_runtime10write_argsNtNvNtNtCsfL22ijsdh9Q_5debug5crash13target_fuzz__10write_args4ArgsEBT_
FN:183,_RINvCseNzKavzW6Gi_17test_fuzz_runtime10write_argsNtNvNtNtCsgyJtF4GtVdY_10conversion11uncloneable13target_fuzz__10write_args4ArgsEBT_
FN:183,_RINvCseNzKavzW6Gi_17test_fuzz_runtime10write_argsNtNvNtNtCsgyJtF4GtVdY_10conversion4path13target_fuzz__10write_args4ArgsEBT_
FN:183,_RINvCseNzKavzW6Gi_17test_fuzz_runtime10write_argsNtNvNtNtCsgyJtF4GtVdY_10conversion5array13target_fuzz__10write_args4ArgsEBT_
FN:183,_RINvCseNzKavzW6Gi_17test_fuzz_runtime10write_argsNtNvNtNtCsgyJtF4GtVdY_10conversion7mutable13target_fuzz__10write_args4ArgsEBT_
FN:183,_RINvCseNzKavzW6Gi_17test_fuzz_runtime10write_argsNtNvNtNtCsgyJtF4GtVdY_10conversion8lifetime13target_fuzz__10write_args4ArgsEBT_
FN:183,_RINvCseNzKavzW6Gi_17test_fuzz_runtime10write_argsNtNvNtNtCsgyJtF4GtVdY_10conversion8receiver20x_target_self_fuzz__10write_args4ArgsEBT_
FN:183,_RINvCseNzKavzW6Gi_17test_fuzz_runtime10write_argsNtNvNtNtCsgyJtF4GtVdY_10conversion8receiver21x_target_other_fuzz__10write_args4ArgsEBT_
FN:183,_RINvCseNzKavzW6Gi_17test_fuzz_runtime10write_argsNtNvNtNtCsiGGxYnMUpAI_13auto_generate6signed13target_fuzz__10write_args4ArgsEBT_
FN:183,_RINvCseNzKavzW6Gi_17test_fuzz_runtime10write_argsNtNvNtNtCsiGGxYnMUpAI_13auto_generate8unsigned13target_fuzz__10write_args4ArgsEBT_
FN:183,_RINvCseNzKavzW6Gi_17test_fuzz_runtime10write_argspEB2_
FN:189,_RNvCseNzKavzW6Gi_17test_fuzz_runtime10write_data
FN:19,_RNvNtCs4oWu7nXEoFY_15test_fuzz_macro9pat_utils10pat_idents
FN:199,_RINvCseNzKavzW6Gi_17test_fuzz_runtime9read_argsINtNvMNtCs6ZJvwNFZ5Lo_11return_type16swap_swap_fuzz__INtBP_11UsingReaderpE9read_args4ArgsubENtNtNtCsHIej2QEFI5_3std2io5stdio5StdinEBR_
FN:199,_RINvCseNzKavzW6Gi_17test_fuzz_runtime9read_argsINtNvMNtCsaVSfY7O0uYs_7generic14baz_qux_fuzz__INtBP_11UsingReaderpE9read_args4ArgsNtBR_3BarENtNtNtCsHIej2QEFI5_3std2io5stdio5StdinEBR_
FN:199,_RINvCseNzKavzW6Gi_17test_fuzz_runtime9read_argsINtNvMNtCsaVSfY7O0uYs_7generic20struct_target_fuzz__INtBP_11UsingReaderpE9read_args4ArgsNtBR_3BarENtNtNtCsHIej2QEFI5_3std2io5stdio5StdinEBR_
FN:199,_RINvCseNzKavzW6Gi_17test_fuzz_runtime9read_argsINtNvMNtCsaVSfY7O0uYs_7generic26struct_target_bound_fuzz__INtBP_11UsingReaderpE9read_args4ArgsNtBR_3BarINtBR_3BazB2f_EENtNtNtCsHIej2QEFI5_3std2io5stdio5StdinEBR_
FN:199,_RINvCseNzKavzW6Gi_17test_fuzz_runtime9read_argsINtNvMNtCsaVSfY7O0uYs_7generic33struct_target_where_clause_fuzz__INtBP_11UsingReaderpE9read_args4ArgsNtBR_3BarINtBR_3BazB2m_EENtNtNtCsHIej2QEFI5_3std2io5stdio5StdinEBR_
FN:199,_RINvCseNzKavzW6Gi_17test_fuzz_runtime9read_argsINtNvMNtCskkeazd6lurB_15associated_type20serializes_to_fuzz__INtBP_11UsingReaderpE9read_args4ArgsNtBR_7AddressENtNtNtCsHIej2QEFI5_3std2io5stdio5StdinEBR_
FN:199,_RINvCseNzKavzW6Gi_17test_fuzz_runtime9read_argsINtNvMNtNtCsaVSfY7O0uYs_7generic27receiverless_trait_function20struct_target_fuzz__INtBP_11UsingReaderpE9read_args4ArgsNtBT_3BarENtNtNtCsHIej2QEFI5_3std2io5stdio5StdinEBT_
FN:199,_RINvCseNzKavzW6Gi_17test_fuzz_runtime9read_argsNtNvMNtCs2zeNb6jgslg_19self_ty_in_mod_name20struct_target_fuzz__INtBO_11UsingReaderpE9read_args4ArgsNtNtNtCsHIej2QEFI5_3std2io5stdio5StdinEBQ_
FN:199,_RINvCseNzKavzW6Gi_17test_fuzz_runtime9read_argsNtNvMNtCs4MGHVrkl72m_4from15bar_from_fuzz__INtBO_11UsingReaderpE9read_args4ArgsNtNtNtCsHIej2QEFI5_3std2io5stdio5StdinEBQ_
FN:199,_RINvCseNzKavzW6Gi_17test_fuzz_runtime9read_argsNtNvMNtCs4MGHVrkl72m_4from15baz_into_fuzz__INtBO_11UsingReaderpE9read_args4ArgsNtNtNtCsHIej2QEFI5_3std2io5stdio5StdinEBQ_
FN:199,_RINvCseNzKavzW6Gi_17test_fuzz_runtime9read_argsNtNvMNtCs4MGHVrkl72m_4from19baz_try_from_fuzz__INtBO_11UsingReaderpE9read_args4ArgsNtNtNtCsHIej2QEFI5_3std2io5stdio5StdinEBQ_
FN:199,_RINvCseNzKavzW6Gi_17test_fuzz_runtime9read_argsNtNvMNtCs4jNeg51vteg_8lifetime13target_fuzz__INtBO_11UsingReaderpE9read_args4ArgsNtNtNtCsHIej2QEFI5_3std2io5stdio5StdinEBQ_
FN:199,_RINvCseNzKavzW6Gi_17test_fuzz_runtime9read_argsNtNvMNtCs5fNIG3PZaJo_11hello_world19intermediary_fuzz__INtBO_11UsingReaderpE9read_args4ArgsNtNtNtCsHIej2QEFI5_3std2io5stdio5StdinEBQ_
FN:199,_RINvCseNzKavzW6Gi_17test_fuzz_runtime9read_argsNtNvMNtCs6fBdTSegfKf_14test_fuzz_impl17struct_bar_fuzz__INtBO_11UsingReaderpE9read_args4ArgsNtNtNtCsHIej2QEFI5_3std2io5stdio5StdinEBQ_
FN:199,_RINvCseNzKavzW6Gi_17test_fuzz_runtime9read_argsNtNvMNtCs6fBdTSegfKf_14test_fuzz_impl17struct_foo_fuzz__INtBO_11UsingReaderpE9read_args4ArgsNtNtNtCsHIej2QEFI5_3std2io5stdio5StdinEBQ_
FN:199,_RINvCseNzKavzW6Gi_17test_fuzz_runtime9read_argsNtNvMNtCs6z3aMDs3O5H_14parse_duration12parse_fuzz__INtBO_11UsingReaderpE9read_args4ArgsNtNtNtCsHIej2QEFI5_3std2io5stdio5StdinEBQ_
FN:199,_RINvCseNzKavzW6Gi_17test_fuzz_runtime9read_argsNtNvMNtCs7l6y1YLWhzH_5alloc13target_fuzz__INtBO_11UsingReaderpE9read_args4ArgsNtNtNtCsHIej2QEFI5_3std2io5stdio5StdinEBQ_
FN:199,_RINvCseNzKavzW6Gi_17test_fuzz_runtime9read_argsNtNvMNtCs9i11WczUoNj_7profile13target_fuzz__INtBO_11UsingReaderpE9read_args4ArgsNtNtNtCsHIej2QEFI5_3std2io5stdio5StdinEBQ_
FN:199,_RINvCseNzKavzW6Gi_17test_fuzz_runtime9read_argsNtNvMNtCsb7JfYwj8ipQ_10serde_attr13target_fuzz__INtBO_11UsingReaderpE9read_args4ArgsNtNtNtCsHIej2QEFI5_3std2io5stdio5StdinEBQ_
FN:199,_RINvCseNzKavzW6Gi_17test_fuzz_runtime9read_argsNtNvMNtCsbupd9d71YLx_16calm_and_panicky11calm_fuzz__INtBO_11UsingReaderpE9read_args4ArgsNtNtNtCsHIej2QEFI5_3std2io5stdio5StdinEBQ_
FN:199,_RINvCseNzKavzW6Gi_17test_fuzz_runtime9read_argsNtNvMNtCsbupd9d71YLx_16calm_and_panicky14panicky_fuzz__INtBO_11UsingReaderpE9read_args4ArgsNtNtNtCsHIej2QEFI5_3std2io5stdio5StdinEBQ_
FN:199,_RINvCseNzKavzW6Gi_17test_fuzz_runtime9read_argsNtNvMNtCscaf2gEuSGn5_6qwerty13target_fuzz__INtBO_11UsingReaderpE9read_args4ArgsNtNtNtCsHIej2QEFI5_3std2io5stdio5StdinEBQ_
FN:199,_RINvCseNzKavzW6Gi_17test_fuzz_runtime9read_argsNtNvMNtCsfEcBWhN4Na3_3arc13target_fuzz__INtBO_11UsingReaderpE9read_args4ArgsNtNtNtCsHIej2QEFI5_3std2io5stdio5StdinEBQ_
FN:199,_RINvCseNzKavzW6Gi_17test_fuzz_runtime9read_argsNtNvMNtCsfODoU0UL7aq_11manual_leak23wrapped_key_dump_fuzz__INtBO_11UsingReaderpE9read_args4ArgsNtNtNtCsHIej2QEFI5_3std2io5stdio5StdinEBQ_
FN:199,_RINvCseNzKavzW6Gi_17test_fuzz_runtime9read_argsNtNvMNtCsfOIDT8lUV2L_7mut_ref17target_str_fuzz__INtBO_11UsingReaderpE9read_args4ArgsNtNtNtCsHIej2QEFI5_3std2io5stdio5StdinEBQ_
FN:199,_RINvCseNzKavzW6Gi_17test_fuzz_runtime9read_argsNtNvMNtCsfOIDT8lUV2L_7mut_ref19target_slice_fuzz__INtBO_11UsingReaderpE9read_args4ArgsNtNtNtCsHIej2QEFI5_3std2io5stdio5StdinEBQ_
FN:199,_RINvCseNzKavzW6Gi_17test_fuzz_runtime9read_argsNtNvMNtCsfrSB0FWCrTD_6rename10bar_fuzz__INtBO_11UsingReaderpE9read_args4ArgsNtNtNtCsHIej2QEFI5_3std2io5stdio5StdinEBQ_
FN:199,_RINvCseNzKavzW6Gi_17test_fuzz_runtime9read_argsNtNvMNtCsgZ69XjcSWhh_6assert13target_fuzz__INtBO_11UsingReaderpE9read_args4ArgsNtNtNtCsHIej2QEFI5_3std2io5stdio5StdinEBQ_
FN:199,_RINvCseNzKavzW6Gi_17test_fuzz_runtime9read_argsNtNvMNtCsikhsy0ZvG4z_4cast13target_fuzz__INtBO_11UsingReaderpE9read_args4ArgsNtNtNtCsHIej2QEFI5_3std2io5stdio5StdinEBQ_
FN:199,_RINvCseNzKavzW6Gi_17test_fuzz_runtime9read_argsNtNvMNtCsjk8KY6qq2Wr_8parallel15target_0_fuzz__INtBO_11UsingReaderpE9read_args4ArgsNtNtNtCsHIej2QEFI5_3std2io5stdio5StdinEBQ_
FN:199,_RINvCseNzKavzW6Gi_17test_fuzz_runtime9read_argsNtNvMNtCsjk8KY6qq2Wr_8parallel15target_1_fuzz__INtBO_11UsingReaderpE9read_args4ArgsNtNtNtCsHIej2QEFI5_3std2io5stdio5StdinEBQ_
FN:199,_RINvCseNzKavzW6Gi_17test_fuzz_runtime9read_argsNtNvMNtCsjk8KY6qq2Wr_8parallel15target_2_fuzz__INtBO_11UsingReaderpE9read_args4ArgsNtNtNtCsHIej2QEFI5_3std2io5stdio5StdinEBQ_
FN:199,_RINvCseNzKavzW6Gi_17test_fuzz_runtime9read_argsNtNvMNtCsjk8KY6qq2Wr_8parallel15target_3_fuzz__INtBO_11UsingReaderpE9read_args4ArgsNtNtNtCsHIej2QEFI5_3std2io5stdio5StdinEBQ_
FN:199,_RINvCseNzKavzW6Gi_17test_fuzz_runtime9read_argsNtNvMNtCsjk8KY6qq2Wr_8parallel15target_4_fuzz__INtBO_11UsingReaderpE9read_args4ArgsNtNtNtCsHIej2QEFI5_3std2io5stdio5StdinEBQ_
FN:199,_RINvCseNzKavzW6Gi_17test_fuzz_runtime9read_argsNtNvMNtCsjk8KY6qq2Wr_8parallel15target_5_fuzz__INtBO_11UsingReaderpE9read_args4ArgsNtNtNtCsHIej2QEFI5_3std2io5stdio5StdinEBQ_
FN:199,_RINvCseNzKavzW6Gi_17test_fuzz_runtime9read_argsNtNvMNtCskPkSWzOTnW2_9collision11test_fuzz__INtBO_11UsingReaderpE9read_args4ArgsNtNtNtCsHIej2QEFI5_3std2io5stdio5StdinEBQ_
FN:199,_RINvCseNzKavzW6Gi_17test_fuzz_runtime9read_argsNtNvMNtNtCs4RwwcRvri8p_7default10no_default13target_fuzz__INtBO_11UsingReaderpE9read_args4ArgsNtNtNtCsHIej2QEFI5_3std2io5stdio5StdinEBS_
FN:199,_RINvCseNzKavzW6Gi_17test_fuzz_runtime9read_argsNtNvMNtNtCs4RwwcRvri8p_7default7default13target_fuzz__INtBO_11UsingReaderpE9read_args4ArgsNtNtNtCsHIej2QEFI5_3std2io5stdio5StdinEBS_
FN:199,_RINvCseNzKavzW6Gi_17test_fuzz_runtime9read_argsNtNvMNtNtCsbZ6qTFMlSKY_5serde10byte_array13target_fuzz__INtBO_11UsingReaderpE9read_args4ArgsNtNtNtCsHIej2QEFI5_3std2io5stdio5StdinEBS_
FN:199,_RINvCseNzKavzW6Gi_17test_fuzz_runtime9read_argsNtNvMNtNtCsbZ6qTFMlSKY_5serde11unit_struct13target_fuzz__INtBO_11UsingReaderpE9read_args4ArgsNtNtNtCsHIej2QEFI5_3std2io5stdio5StdinEBS_
FN:199,_RINvCseNzKavzW6Gi_17test_fuzz_runtime9read_argsNtNvMNtNtCsbZ6qTFMlSKY_5serde12tuple_struct13target_fuzz__INtBO_11UsingReaderpE9read_args4ArgsNtNtNtCsHIej2QEFI5_3std2io5stdio5StdinEBS_
FN:199,_RINvCseNzKavzW6Gi_17test_fuzz_runtime9read_argsNtNvMNtNtCsbZ6qTFMlSKY_5serde12unit_variant13target_fuzz__INtBO_11UsingReaderpE9read_args4ArgsNtNtNtCsHIej2QEFI5_3std2io5stdio5StdinEBS_
FN:199,_RINvCseNzKavzW6Gi_17test_fuzz_runtime9read_argsNtNvMNtNtCsbZ6qTFMlSKY_5serde13tuple_variant13target_fuzz__INtBO_11UsingReaderpE9read_args4ArgsNtNtNtCsHIej2QEFI5_3std2io5stdio5StdinEBS_
FN:199,_RINvCseNzKavzW6Gi_17test_fuzz_runtime9read_argsNtNvMNtNtCsbZ6qTFMlSKY_5serde14newtype_struct13target_fuzz__INtBO_11UsingReaderpE9read_args4ArgsNtNtNtCsHIej2QEFI5_3std2io5stdio5StdinEBS_
FN:199,_RINvCseNzKavzW6Gi_17test_fuzz_runtime9read_argsNtNvMNtNtCsbZ6qTFMlSKY_5serde14struct_variant13target_fuzz__INtBO_11UsingReaderpE9read_args4ArgsNtNtNtCsHIej2QEFI5_3std2io5stdio5StdinEBS_
FN:199,_RINvCseNzKavzW6Gi_17test_fuzz_runtime9read_argsNtNvMNtNtCsbZ6qTFMlSKY_5serde15newtype_variant13target_fuzz__INtBO_11UsingReaderpE9read_args4ArgsNtNtNtCsHIej2QEFI5_3std2io5stdio5StdinEBS_
FN:199,_RINvCseNzKavzW6Gi_17test_fuzz_runtime9read_argsNtNvMNtNtCsbZ6qTFMlSKY_5serde3map13target_fuzz__INtBO_11UsingReaderpE9read_args4ArgsNtNtNtCsHIej2QEFI5_3std2io5stdio5StdinEBS_
FN:199,_RINvCseNzKavzW6Gi_17test_fuzz_runtime9read_argsNtNvMNtNtCsbZ6qTFMlSKY_5serde3seq13target_fuzz__INtBO_11UsingReaderpE9read_args4ArgsNtNtNtCsHIej2QEFI5_3std2io5stdio5StdinEBS_
FN:199,_RINvCseNzKavzW6Gi_17test_fuzz_runtime9read_argsNtNvMNtNtCsbZ6qTFMlSKY_5serde4unit13target_fuzz__INtBO_11UsingReaderpE9read_args4ArgsNtNtNtCsHIej2QEFI5_3std2io5stdio5StdinEBS_
FN:199,_RINvCseNzKavzW6Gi_17test_fuzz_runtime9read_argsNtNvMNtNtCsbZ6qTFMlSKY_5serde5tuple13target_fuzz__INtBO_11UsingReaderpE9read_args4ArgsNtNtNtCsHIej2QEFI5_3std2io5stdio5StdinEBS_
FN:199,_RINvCseNzKavzW6Gi_17test_fuzz_runtime9read_argsNtNvMNtNtCsbZ6qTFMlSKY_5serde6option13target_fuzz__INtBO_11UsingReaderpE9read_args4ArgsNtNtNtCsHIej2QEFI5_3std2io5stdio5StdinEBS_
FN:199,_RINvCseNzKavzW6Gi_17test_fuzz_runtime9read_argsNtNvMNtNtCsbZ6qTFMlSKY_5serde6string13target_fuzz__INtBO_11UsingReaderpE9read_args4ArgsNtNtNtCsHIej2QEFI5_3std2io5stdio5StdinEBS_
FN:199,_RINvCseNzKavzW6Gi_17test_fuzz_runtime9read_argsNtNvMNtNtCsbZ6qTFMlSKY_5serde6strukt13target_fuzz__INtBO_11UsingReaderpE9read_args4ArgsNtNtNtCsHIej2QEFI5_3std2io5stdio5StdinEBS_
FN:199,_RINvCseNzKavzW6Gi_17test_fuzz_runtime9read_argsNtNvMNtNtCsfL22ijsdh9Q_5debug4hang13target_fuzz__INtBO_11UsingReaderpE9read_args4ArgsNtNtNtCsHIej2QEFI5_3std2io5stdio5StdinEBS_
FN:199,_RINvCseNzKavzW6Gi_17test_fuzz_runtime9read_argsNtNvMNtNtCsfL22ijsdh9Q_5debug5crash13target_fuzz__INtBO_11UsingReaderpE9read_args4ArgsNtNtNtCsHIej2QEFI5_3std2io5stdio5StdinEBS_
FN:199,_RINvCseNzKavzW6Gi_17test_fuzz_runtime9read_argsNtNvMNtNtCsgyJtF4GtVdY_10conversion11uncloneable13target_fuzz__INtBO_11UsingReaderpE9read_args4ArgsNtNtNtCsHIej2QEFI5_3std2io5stdio5StdinEBS_
FN:199,_RINvCseNzKavzW6Gi_17test_fuzz_runtime9read_argsNtNvMNtNtCsgyJtF4GtVdY_10conversion4path13target_fuzz__INtBO_11UsingReaderpE9read_args4ArgsNtNtNtCsHIej2QEFI5_3std2io5stdio5StdinEBS_
FN:199,_RINvCseNzKavzW6Gi_17test_fuzz_runtime9read_argsNtNvMNtNtCsgyJtF4GtVdY_10conversion5array13target_fuzz__INtBO_11UsingReaderpE9read_args4ArgsNtNtNtCsHIej2QEFI5_3std2io5stdio5StdinEBS_
FN:199,_RINvCseNzKavzW6Gi_17test_fuzz_runtime9read_argsNtNvMNtNtCsgyJtF4GtVdY_10conversion7mutable13target_fuzz__INtBO_11UsingReaderpE9read_args4ArgsNtNtNtCsHIej2QEFI5_3std2io5stdio5StdinEBS_
FN:199,_RINvCseNzKavzW6Gi_17test_fuzz_runtime9read_argsNtNvMNtNtCsgyJtF4GtVdY_10conversion8lifetime13target_fuzz__INtBO_11UsingReaderpE9read_args4ArgsNtNtNtCsHIej2QEFI5_3std2io5stdio5StdinEBS_
FN:199,_RINvCseNzKavzW6Gi_17test_fuzz_runtime9read_argsNtNvMNtNtCsgyJtF4GtVdY_10conversion8receiver20x_target_self_fuzz__INtBO_11UsingReaderpE9read_args4ArgsNtNtNtCsHIej2QEFI5_3std2io5stdio5StdinEBS_
FN:199,_RINvCseNzKavzW6Gi_17test_fuzz_runtime9read_argsNtNvMNtNtCsgyJtF4GtVdY_10conversion8receiver21x_target_other_fuzz__INtBO_11UsingReaderpE9read_args4ArgsNtNtNtCsHIej2QEFI5_3std2io5stdio5StdinEBS_
FN:199,_RINvCseNzKavzW6Gi_17test_fuzz_runtime9read_argsNtNvMNtNtCsiGGxYnMUpAI_13auto_generate6signed13target_fuzz__INtBO_11UsingReaderpE9read_args4ArgsNtNtNtCsHIej2QEFI5_3std2io5stdio5StdinEBS_
FN:199,_RINvCseNzKavzW6Gi_17test_fuzz_runtime9read_argsNtNvMNtNtCsiGGxYnMUpAI_13auto_generate8unsigned13target_fuzz__INtBO_11UsingReaderpE9read_args4ArgsNtNtNtCsHIej2QEFI5_3std2io5stdio5StdinEBS_
FN:199,_RINvCseNzKavzW6Gi_17test_fuzz_runtime9read_argsppEB2_
FN:21,_RNvXs0_NtCs4oWu7nXEoFY_15test_fuzz_macro8ord_typeNtB5_7OrdTypeNtNtCs3XFJfFEDSOQ_4core3cmp3Ord3cmp
FN:22,_RINvNtCs2XBbTT2Tgsj_18test_fuzz_internal4dirs37generic_args_directory_from_args_typeINtNtCs6ZJvwNFZ5Lo_11return_type16swap_swap_fuzz__4ArgsubEEB1p_
FN:22,_RINvNtCs2XBbTT2Tgsj_18test_fuzz_internal4dirs37generic_args_directory_from_args_typeINtNtCsaVSfY7O0uYs_7generic14baz_qux_fuzz__4ArgsNtB1p_3BarEEB1p_
FN:22,_RINvNtCs2XBbTT2Tgsj_18test_fuzz_internal4dirs37generic_args_directory_from_args_typeINtNtCsaVSfY7O0uYs_7generic20struct_target_fuzz__4ArgsNtB1p_3BarEEB1p_
FN:22,_RINvNtCs2XBbTT2Tgsj_18test_fuzz_internal4dirs37generic_args_directory_from_args_typeINtNtCsaVSfY7O0uYs_7generic20struct_target_fuzz__4ArgsNtB1p_3FooEEB1p_
FN:22,_RINvNtCs2XBbTT2Tgsj_18test_fuzz_internal4dirs37generic_args_directory_from_args_typeINtNtCsaVSfY7O0uYs_7generic26struct_target_bound_fuzz__4ArgsNtB1p_3BarINtB1p_3BazB2i_EEEB1p_
FN:22,_RINvNtCs2XBbTT2Tgsj_18test_fuzz_internal4dirs37generic_args_directory_from_args_typeINtNtCsaVSfY7O0uYs_7generic26struct_target_bound_fuzz__4ArgsNtB1p_3FooINtB1p_3BazB2i_EEEB1p_
FN:22,_RINvNtCs2XBbTT2Tgsj_18test_fuzz_internal4dirs37generic_args_directory_from_args_typeINtNtCsaVSfY7O0uYs_7generic33struct_target_where_clause_fuzz__4ArgsNtB1p_3BarINtB1p_3BazB2p_EEEB1p_
FN:22,_RINvNtCs2XBbTT2Tgsj_18test_fuzz_internal4dirs37generic_args_directory_from_args_typeINtNtCsaVSfY7O0uYs_7generic33struct_target_where_clause_fuzz__4ArgsNtB1p_3FooINtB1p_3BazB2p_EEEB1p_
FN:22,_RINvNtCs2XBbTT2Tgsj_18test_fuzz_internal4dirs37generic_args_directory_from_args_typeINtNtCskkeazd6lurB_15associated_type20serializes_to_fuzz__4ArgsNtB1p_7AddressEEB1p_
FN:22,_RINvNtCs2XBbTT2Tgsj_18test_fuzz_internal4dirs37generic_args_directory_from_args_typeINtNtNtCsaVSfY7O0uYs_7generic27receiverless_trait_function20struct_target_fuzz__4ArgsNtB1r_3BarEEB1r_
FN:22,_RINvNtCs2XBbTT2Tgsj_18test_fuzz_internal4dirs37generic_args_directory_from_args_typeNtNtCs2zeNb6jgslg_19self_ty_in_mod_name20struct_target_fuzz__4ArgsEB1o_
FN:22,_RINvNtCs2XBbTT2Tgsj_18test_fuzz_internal4dirs37generic_args_directory_from_args_typeNtNtCs4MGHVrkl72m_4from15bar_from_fuzz__4ArgsEB1o_
FN:22,_RINvNtCs2XBbTT2Tgsj_18test_fuzz_internal4dirs37generic_args_directory_from_args_typeNtNtCs4MGHVrkl72m_4from15baz_into_fuzz__4ArgsEB1o_
FN:22,_RINvNtCs2XBbTT2Tgsj_18test_fuzz_internal4dirs37generic_args_directory_from_args_typeNtNtCs4MGHVrkl72m_4from19baz_try_from_fuzz__4ArgsEB1o_
FN:22,_RINvNtCs2XBbTT2Tgsj_18test_fuzz_internal4dirs37generic_args_directory_from_args_typeNtNtCs4hte0XrDpp0_7unserde13target_fuzz__4ArgsEB1o_
FN:22,_RINvNtCs2XBbTT2Tgsj_18test_fuzz_internal4dirs37generic_args_directory_from_args_typeNtNtCs4hte0XrDpp0_7unserde27target_in_production_fuzz__4ArgsEB1o_
FN:22,_RINvNtCs2XBbTT2Tgsj_18test_fuzz_internal4dirs37generic_args_directory_from_args_typeNtNtCs4jNeg51vteg_8lifetime13target_fuzz__4ArgsEB1o_
FN:22,_RINvNtCs2XBbTT2Tgsj_18test_fuzz_internal4dirs37generic_args_directory_from_args_typeNtNtCs5fNIG3PZaJo_11hello_world19intermediary_fuzz__4ArgsEB1o_
FN:22,_RINvNtCs2XBbTT2Tgsj_18test_fuzz_internal4dirs37generic_args_directory_from_args_typeNtNtCs6fBdTSegfKf_14test_fuzz_impl17struct_bar_fuzz__4ArgsEB1o_
FN:22,_RINvNtCs2XBbTT2Tgsj_18test_fuzz_internal4dirs37generic_args_directory_from_args_typeNtNtCs6fBdTSegfKf_14test_fuzz_impl17struct_foo_fuzz__4ArgsEB1o_
FN:22,_RINvNtCs2XBbTT2Tgsj_18test_fuzz_internal4dirs37generic_args_directory_from_args_typeNtNtCs6z3aMDs3O5H_14parse_duration12parse_fuzz__4ArgsEB1o_
FN:22,_RINvNtCs2XBbTT2Tgsj_18test_fuzz_internal4dirs37generic_args_directory_from_args_typeNtNtCs7l6y1YLWhzH_5alloc13target_fuzz__4ArgsEB1o_
FN:22,_RINvNtCs2XBbTT2Tgsj_18test_fuzz_internal4dirs37generic_args_directory_from_args_typeNtNtCs8VL8JzDaoWz_11hello_world19intermediary_fuzz__4ArgsEB1o_
FN:22,_RINvNtCs2XBbTT2Tgsj_18test_fuzz_internal4dirs37generic_args_directory_from_args_typeNtNtCs9i11WczUoNj_7profile13target_fuzz__4ArgsEB1o_
FN:22,_RINvNtCs2XBbTT2Tgsj_18test_fuzz_internal4dirs37generic_args_directory_from_args_typeNtNtCsaVSfY7O0uYs_7generic38struct_target_only_generic_args_fuzz__4ArgsEB1o_
FN:22,_RINvNtCs2XBbTT2Tgsj_18test_fuzz_internal4dirs37generic_args_directory_from_args_typeNtNtCsb7JfYwj8ipQ_10serde_attr13target_fuzz__4ArgsEB1o_
FN:22,_RINvNtCs2XBbTT2Tgsj_18test_fuzz_internal4dirs37generic_args_directory_from_args_typeNtNtCsbupd9d71YLx_16calm_and_panicky11calm_fuzz__4ArgsEB1o_
FN:22,_RINvNtCs2XBbTT2Tgsj_18test_fuzz_internal4dirs37generic_args_directory_from_args_typeNtNtCsbupd9d71YLx_16calm_and_panicky14panicky_fuzz__4ArgsEB1o_
FN:22,_RINvNtCs2XBbTT2Tgsj_18test_fuzz_internal4dirs37generic_args_directory_from_args_typeNtNtCscaf2gEuSGn5_6qwerty13target_fuzz__4ArgsEB1o_
FN:22,_RINvNtCs2XBbTT2Tgsj_18test_fuzz_internal4dirs37generic_args_directory_from_args_typeNtNtCsfEcBWhN4Na3_3arc13target_fuzz__4ArgsEB1o_
FN:22,_RINvNtCs2XBbTT2Tgsj_18test_fuzz_internal4dirs37generic_args_directory_from_args_typeNtNtCsfODoU0UL7aq_11manual_leak23wrapped_key_dump_fuzz__4ArgsEB1o_
FN:22,_RINvNtCs2XBbTT2Tgsj_18test_fuzz_internal4dirs37generic_args_directory_from_args_typeNtNtCsfOIDT8lUV2L_7mut_ref17target_str_fuzz__4ArgsEB1o_
FN:22,_RINvNtCs2XBbTT2Tgsj_18test_fuzz_internal4dirs37generic_args_directory_from_args_typeNtNtCsfOIDT8lUV2L_7mut_ref19target_slice_fuzz__4ArgsEB1o_
FN:22,_RINvNtCs2XBbTT2Tgsj_18test_fuzz_internal4dirs37generic_args_directory_from_args_typeNtNtCsfrSB0FWCrTD_6rename10bar_fuzz__4ArgsEB1o_
FN:22,_RINvNtCs2XBbTT2Tgsj_18test_fuzz_internal4dirs37generic_args_directory_from_args_typeNtNtCsgZ69XjcSWhh_6assert13target_fuzz__4ArgsEB1o_
FN:22,_RINvNtCs2XBbTT2Tgsj_18test_fuzz_internal4dirs37generic_args_directory_from_args_typeNtNtCsikhsy0ZvG4z_4cast13target_fuzz__4ArgsEB1o_
FN:22,_RINvNtCs2XBbTT2Tgsj_18test_fuzz_internal4dirs37generic_args_directory_from_args_typeNtNtCsjk8KY6qq2Wr_8parallel15target_0_fuzz__4ArgsEB1o_
FN:22,_RINvNtCs2XBbTT2Tgsj_18test_fuzz_internal4dirs37generic_args_directory_from_args_typeNtNtCsjk8KY6qq2Wr_8parallel15target_1_fuzz__4ArgsEB1o_
FN:22,_RINvNtCs2XBbTT2Tgsj_18test_fuzz_internal4dirs37generic_args_directory_from_args_typeNtNtCsjk8KY6qq2Wr_8parallel15target_2_fuzz__4ArgsEB1o_
FN:22,_RINvNtCs2XBbTT2Tgsj_18test_fuzz_internal4dirs37generic_args_directory_from_args_typeNtNtCsjk8KY6qq2Wr_8parallel15target_3_fuzz__4ArgsEB1o_
FN:22,_RINvNtCs2XBbTT2Tgsj_18test_fuzz_internal4dirs37generic_args_directory_from_args_typeNtNtCsjk8KY6qq2Wr_8parallel15target_4_fuzz__4ArgsEB1o_
FN:22,_RINvNtCs2XBbTT2Tgsj_18test_fuzz_internal4dirs37generic_args_directory_from_args_typeNtNtCsjk8KY6qq2Wr_8parallel15target_5_fuzz__4ArgsEB1o_
FN:22,_RINvNtCs2XBbTT2Tgsj_18test_fuzz_internal4dirs37generic_args_directory_from_args_typeNtNtCskPkSWzOTnW2_9collision11test_fuzz__4ArgsEB1o_
FN:22,_RINvNtCs2XBbTT2Tgsj_18test_fuzz_internal4dirs37generic_args_directory_from_args_typeNtNtNtCs4RwwcRvri8p_7default10no_default13target_fuzz__4ArgsEB1q_
FN:22,_RINvNtCs2XBbTT2Tgsj_18test_fuzz_internal4dirs37generic_args_directory_from_args_typeNtNtNtCs4RwwcRvri8p_7default7default13target_fuzz__4ArgsEB1q_
FN:22,_RINvNtCs2XBbTT2Tgsj_18test_fuzz_internal4dirs37generic_args_directory_from_args_typeNtNtNtCsbZ6qTFMlSKY_5serde10byte_array13target_fuzz__4ArgsEB1q_
FN:22,_RINvNtCs2XBbTT2Tgsj_18test_fuzz_internal4dirs37generic_args_directory_from_args_typeNtNtNtCsbZ6qTFMlSKY_5serde11unit_struct13target_fuzz__4ArgsEB1q_
FN:22,_RINvNtCs2XBbTT2Tgsj_18test_fuzz_internal4dirs37generic_args_directory_from_args_typeNtNtNtCsbZ6qTFMlSKY_5serde12tuple_struct13target_fuzz__4ArgsEB1q_
FN:22,_RINvNtCs2XBbTT2Tgsj_18test_fuzz_internal4dirs37generic_args_directory_from_args_typeNtNtNtCsbZ6qTFMlSKY_5serde12unit_variant13target_fuzz__4ArgsEB1q_
FN:22,_RINvNtCs2XBbTT2Tgsj_18test_fuzz_internal4dirs37generic_args_directory_from_args_typeNtNtNtCsbZ6qTFMlSKY_5serde13tuple_variant13target_fuzz__4ArgsEB1q_
FN:22,_RINvNtCs2XBbTT2Tgsj_18test_fuzz_internal4dirs37generic_args_directory_from_args_typeNtNtNtCsbZ6qTFMlSKY_5serde14newtype_struct13target_fuzz__4ArgsEB1q_
FN:22,_RINvNtCs2XBbTT2Tgsj_18test_fuzz_internal4dirs37generic_args_directory_from_args_typeNtNtNtCsbZ6qTFMlSKY_5serde14struct_variant13target_fuzz__4ArgsEB1q_
FN:22,_RINvNtCs2XBbTT2Tgsj_18test_fuzz_internal4dirs37generic_args_directory_from_args_typeNtNtNtCsbZ6qTFMlSKY_5serde15newtype_variant13target_fuzz__4ArgsEB1q_
FN:22,_RINvNtCs2XBbTT2Tgsj_18test_fuzz_internal4dirs37generic_args_directory_from_args_typeNtNtNtCsbZ6qTFMlSKY_5serde3map13target_fuzz__4ArgsEB1q_
FN:22,_RINvNtCs2XBbTT2Tgsj_18test_fuzz_internal4dirs37generic_args_directory_from_args_typeNtNtNtCsbZ6qTFMlSKY_5serde3seq13target_fuzz__4ArgsEB1q_
FN:22,_RINvNtCs2XBbTT2Tgsj_18test_fuzz_internal4dirs37generic_args_directory_from_args_typeNtNtNtCsbZ6qTFMlSKY_5serde4unit13target_fuzz__4ArgsEB1q_
FN:22,_RINvNtCs2XBbTT2Tgsj_18test_fuzz_internal4dirs37generic_args_directory_from_args_typeNtNtNtCsbZ6qTFMlSKY_5serde5tuple13target_fuzz__4ArgsEB1q_
FN:22,_RINvNtCs2XBbTT2Tgsj_18test_fuzz_internal4dirs37generic_args_directory_from_args_typeNtNtNtCsbZ6qTFMlSKY_5serde6option13target_fuzz__4ArgsEB1q_
FN:22,_RINvNtCs2XBbTT2Tgsj_18test_fuzz_internal4dirs37generic_args_directory_from_args_typeNtNtNtCsbZ6qTFMlSKY_5serde6string13target_fuzz__4ArgsEB1q_
FN:22,_RINvNtCs2XBbTT2Tgsj_18test_fuzz_internal4dirs37generic_args_directory_from_args_typeNtNtNtCsbZ6qTFMlSKY_5serde6strukt13target_fuzz__4ArgsEB1q_
FN:22,_RINvNtCs2XBbTT2Tgsj_18test_fuzz_internal4dirs37generic_args_directory_from_args_typeNtNtNtCsfL22ijsdh9Q_5debug4hang13target_fuzz__4ArgsEB1q_
FN:22,_RINvNtCs2XBbTT2Tgsj_18test_fuzz_internal4dirs37generic_args_directory_from_args_typeNtNtNtCsfL22ijsdh9Q_5debug5crash13target_fuzz__4ArgsEB1q_
FN:22,_RINvNtCs2XBbTT2Tgsj_18test_fuzz_internal4dirs37generic_args_directory_from_args_typeNtNtNtCsgyJtF4GtVdY_10conversion11uncloneable13target_fuzz__4ArgsEB1q_
FN:22,_RINvNtCs2XBbTT2Tgsj_18test_fuzz_internal4dirs37generic_args_directory_from_args_typeNtNtNtCsgyJtF4GtVdY_10conversion4path13target_fuzz__4ArgsEB1q_
FN:22,_RINvNtCs2XBbTT2Tgsj_18test_fuzz_internal4dirs37generic_args_directory_from_args_typeNtNtNtCsgyJtF4GtVdY_10conversion5array13target_fuzz__4ArgsEB1q_
FN:22,_RINvNtCs2XBbTT2Tgsj_18test_fuzz_internal4dirs37generic_args_directory_from_args_typeNtNtNtCsgyJtF4GtVdY_10conversion7mutable13target_fuzz__4ArgsEB1q_
FN:22,_RINvNtCs2XBbTT2Tgsj_18test_fuzz_internal4dirs37generic_args_directory_from_args_typeNtNtNtCsgyJtF4GtVdY_10conversion8lifetime13target_fuzz__4ArgsEB1q_
FN:22,_RINvNtCs2XBbTT2Tgsj_18test_fuzz_internal4dirs37generic_args_directory_from_args_typeNtNtNtCsgyJtF4GtVdY_10conversion8receiver20x_target_self_fuzz__4ArgsEB1q_
FN:22,_RINvNtCs2XBbTT2Tgsj_18test_fuzz_internal4dirs37generic_args_directory_from_args_typeNtNtNtCsgyJtF4GtVdY_10conversion8receiver21x_target_other_fuzz__4ArgsEB1q_
FN:22,_RINvNtCs2XBbTT2Tgsj_18test_fuzz_internal4dirs37generic_args_directory_from_args_typeNtNtNtCsiGGxYnMUpAI_13auto_generate6signed13target_fuzz__4ArgsEB1q_
FN:22,_RINvNtCs2XBbTT2Tgsj_18test_fuzz_internal4dirs37generic_args_directory_from_args_typeNtNtNtCsiGGxYnMUpAI_13auto_generate8unsigned13target_fuzz__4ArgsEB1q_
FN:22,_RINvNtCs2XBbTT2Tgsj_18test_fuzz_internal4dirs37generic_args_directory_from_args_typepEB4_
FN:220,_RNvCs4oWu7nXEoFY_15test_fuzz_macro16map_method_or_fn
FN:235,_RNCNvCs4oWu7nXEoFY_15test_fuzz_macro16map_method_or_fn0B3_
FN:25,_RNvXININtCseNzKavzW6Gi_17test_fuzz_runtime6traitss_0pEpNtB5_14MaxValueSubOne17max_value_sub_oneB7_
FN:25,_RNvXs_NtCseNzKavzW6Gi_17test_fuzz_runtime6traitsjNtB4_14MaxValueSubOne17max_value_sub_oneCsfEcBWhN4Na3_3arc
FN:25,_RNvXs_NtCseNzKavzW6Gi_17test_fuzz_runtime6traitslNtB4_14MaxValueSubOne17max_value_sub_oneCsb7JfYwj8ipQ_10serde_attr
FN:25,_RNvXs_NtCseNzKavzW6Gi_17test_fuzz_runtime6traitsxNtB4_14MaxValueSubOne17max_value_sub_oneCsiGGxYnMUpAI_13auto_generate
FN:25,_RNvXs_NtCseNzKavzW6Gi_17test_fuzz_runtime6traitsyNtB4_14MaxValueSubOne17max_value_sub_oneCsiGGxYnMUpAI_13auto_generate
FN:25,_RNvXs_NtCseNzKavzW6Gi_17test_fuzz_runtime6traitsyNtB4_14MaxValueSubOne17max_value_sub_oneCsikhsy0ZvG4z_4cast
FN:27,_RINvXs_NtCsh5MssUcn8TK_17serde_combinators5type_INtB5_4TypeAhj20_ENtB7_15DeserializeWith11deserializeINtNtNtNtCskruJqO5s2DS_7bincode8features5serde8de_owned12SerdeDecoderINtNtNtB1K_2de7decoder11DecoderImplINtNtB1I_8impl_std8IoReaderQNtNtNtCsHIej2QEFI5_3std2io5stdio5StdinEINtNtB1K_6config13ConfigurationNtB4p_12LittleEndianNtB4p_6VarintINtB4p_5LimitKj40000000_EEuEEECsfODoU0UL7aq_11manual_leak
FN:27,_RNvNtCs2XBbTT2Tgsj_18test_fuzz_internal4dirs34generic_args_directory_from_target
FN:27,_RNvXs1_NtCs4oWu7nXEoFY_15test_fuzz_macro8ord_typeNtB5_7OrdTypeNtNtCs3XFJfFEDSOQ_4core3cmp10PartialOrd11partial_cmp
FN:289,_RNCNvCs4oWu7nXEoFY_15test_fuzz_macro16map_method_or_fns_0B3_
FN:29,_RNvXNtCs4oWu7nXEoFY_15test_fuzz_macro10type_utilsNtB2_19GenericParamVisitorNtNtNtCsdIfci7uKNPV_3syn3gen9visit_mut8VisitMut14visit_type_mut
FN:293,_RNCNvCs4oWu7nXEoFY_15test_fuzz_macro16map_method_or_fns0_0B3_
FN:30,_RINvXs_NtCsh5MssUcn8TK_17serde_combinators4ref_INtB5_4RefFINtNtB7_5type_4TypeAhj20_EENtB7_15DeserializeWith11deserializeINtNtNtNtCskruJqO5s2DS_7bincode8features5serde8de_owned12SerdeDecoderINtNtNtB23_2de7decoder11DecoderImplINtNtB21_8impl_std8IoReaderQNtNtNtCsHIej2QEFI5_3std2io5stdio5StdinEINtNtB23_6config13ConfigurationNtB4I_12LittleEndianNtB4I_6VarintINtB4I_5LimitKj40000000_EEuEEECsfODoU0UL7aq_11manual_leak
FN:302,_RNCNvCs4oWu7nXEoFY_15test_fuzz_macro16map_method_or_fns1_0B3_
FN:32,_RINvNtCs2XBbTT2Tgsj_18test_fuzz_internal12serde_format9serializeINtNvNtCs6ZJvwNFZ5Lo_11return_type16swap_swap_fuzz__10write_args4ArgsubEEB17_
FN:32,_RINvNtCs2XBbTT2Tgsj_18test_fuzz_internal12serde_format9serializeINtNvNtCsaVSfY7O0uYs_7generic14baz_qux_fuzz__10write_args4ArgsNtB17_3BarEEB17_
FN:32,_RINvNtCs2XBbTT2Tgsj_18test_fuzz_internal12serde_format9serializeINtNvNtCsaVSfY7O0uYs_7generic20struct_target_fuzz__10write_args4ArgsNtB17_3BarEEB17_
FN:32,_RINvNtCs2XBbTT2Tgsj_18test_fuzz_internal12serde_format9serializeINtNvNtCsaVSfY7O0uYs_7generic20struct_target_fuzz__10write_args4ArgsNtB17_3FooEEB17_
FN:32,_RINvNtCs2XBbTT2Tgsj_18test_fuzz_internal12serde_format9serializeINtNvNtCsaVSfY7O0uYs_7generic26struct_target_bound_fuzz__10write_args4ArgsNtB17_3BarINtB17_3BazB2c_EEEB17_
FN:32,_RINvNtCs2XBbTT2Tgsj_18test_fuzz_internal12serde_format9serializeINtNvNtCsaVSfY7O0uYs_7generic26struct_target_bound_fuzz__10write_args4ArgsNtB17_3FooINtB17_3BazB2c_EEEB17_
FN:32,_RINvNtCs2XBbTT2Tgsj_18test_fuzz_internal12serde_format9serializeINtNvNtCsaVSfY7O0uYs_7generic33struct_target_where_clause_fuzz__10write_args4ArgsNtB17_3BarINtB17_3BazB2j_EEEB17_
FN:32,_RINvNtCs2XBbTT2Tgsj_18test_fuzz_internal12serde_format9serializeINtNvNtCsaVSfY7O0uYs_7generic33struct_target_where_clause_fuzz__10write_args4ArgsNtB17_3FooINtB17_3BazB2j_EEEB17_
FN:32,_RINvNtCs2XBbTT2Tgsj_18test_fuzz_internal12serde_format9serializeINtNvNtCskkeazd6lurB_15associated_type20serializes_to_fuzz__10write_args4ArgsNtB17_7AddressEEB17_
FN:32,_RINvNtCs2XBbTT2Tgsj_18test_fuzz_internal12serde_format9serializeINtNvNtNtCsaVSfY7O0uYs_7generic27receiverless_trait_function20struct_target_fuzz__10write_args4ArgsNtB19_3BarEEB19_
FN:32,_RINvNtCs2XBbTT2Tgsj_18test_fuzz_internal12serde_format9serializeNtNvNtCs2zeNb6jgslg_19self_ty_in_mod_name20struct_target_fuzz__10write_args4ArgsEB16_
FN:32,_RINvNtCs2XBbTT2Tgsj_18test_fuzz_internal12serde_format9serializeNtNvNtCs4MGHVrkl72m_4from15bar_from_fuzz__10write_args4ArgsEB16_
FN:32,_RINvNtCs2XBbTT2Tgsj_18test_fuzz_internal12serde_format9serializeNtNvNtCs4MGHVrkl72m_4from15baz_into_fuzz__10write_args4ArgsEB16_
FN:32,_RINvNtCs2XBbTT2Tgsj_18test_fuzz_internal12serde_format9serializeNtNvNtCs4MGHVrkl72m_4from19baz_try_from_fuzz__10write_args4ArgsEB16_
FN:32,_RINvNtCs2XBbTT2Tgsj_18test_fuzz_internal12serde_format9serializeNtNvNtCs4jNeg51vteg_8lifetime13target_fuzz__10write_args4ArgsEB16_
FN:32,_RINvNtCs2XBbTT2Tgsj_18test_fuzz_internal12serde_format9serializeNtNvNtCs5fNIG3PZaJo_11hello_world19intermediary_fuzz__10write_args4ArgsEB16_
FN:32,_RINvNtCs2XBbTT2Tgsj_18test_fuzz_internal12serde_format9serializeNtNvNtCs6fBdTSegfKf_14test_fuzz_impl17struct_bar_fuzz__10write_args4ArgsEB16_
FN:32,_RINvNtCs2XBbTT2Tgsj_18test_fuzz_internal12serde_format9serializeNtNvNtCs6fBdTSegfKf_14test_fuzz_impl17struct_foo_fuzz__10write_args4ArgsEB16_
FN:32,_RINvNtCs2XBbTT2Tgsj_18test_fuzz_internal12serde_format9serializeNtNvNtCs6z3aMDs3O5H_14parse_duration12parse_fuzz__10write_args4ArgsEB16_
FN:32,_RINvNtCs2XBbTT2Tgsj_18test_fuzz_internal12serde_format9serializeNtNvNtCs7l6y1YLWhzH_5alloc13target_fuzz__10write_args4ArgsEB16_
FN:32,_RINvNtCs2XBbTT2Tgsj_18test_fuzz_internal12serde_format9serializeNtNvNtCs8VL8JzDaoWz_11hello_world19intermediary_fuzz__10write_args4ArgsEB16_
FN:32,_RINvNtCs2XBbTT2Tgsj_18test_fuzz_internal12serde_format9serializeNtNvNtCs9i11WczUoNj_7profile13target_fuzz__10write_args4ArgsEB16_
FN:32,_RINvNtCs2XBbTT2Tgsj_18test_fuzz_internal12serde_format9serializeNtNvNtCsb7JfYwj8ipQ_10serde_attr13target_fuzz__10write_args4ArgsEB16_
FN:32,_RINvNtCs2XBbTT2Tgsj_18test_fuzz_internal12serde_format9serializeNtNvNtCsbupd9d71YLx_16calm_and_panicky11calm_fuzz__10write_args4ArgsEB16_
FN:32,_RINvNtCs2XBbTT2Tgsj_18test_fuzz_internal12serde_format9serializeNtNvNtCsbupd9d71YLx_16calm_and_panicky14panicky_fuzz__10write_args4ArgsEB16_
FN:32,_RINvNtCs2XBbTT2Tgsj_18test_fuzz_internal12serde_format9serializeNtNvNtCscaf2gEuSGn5_6qwerty13target_fuzz__10write_args4ArgsEB16_
FN:32,_RINvNtCs2XBbTT2Tgsj_18test_fuzz_internal12serde_format9serializeNtNvNtCsfEcBWhN4Na3_3arc13target_fuzz__10write_args4ArgsEB16_
FN:32,_RINvNtCs2XBbTT2Tgsj_18test_fuzz_internal12serde_format9serializeNtNvNtCsfODoU0UL7aq_11manual_leak23wrapped_key_dump_fuzz__10write_args4ArgsEB16_
FN:32,_RINvNtCs2XBbTT2Tgsj_18test_fuzz_internal12serde_format9serializeNtNvNtCsfOIDT8lUV2L_7mut_ref17target_str_fuzz__10write_args4ArgsEB16_
FN:32,_RINvNtCs2XBbTT2Tgsj_18test_fuzz_internal12serde_format9serializeNtNvNtCsfOIDT8lUV2L_7mut_ref19target_slice_fuzz__10write_args4ArgsEB16_
FN:32,_RINvNtCs2XBbTT2Tgsj_18test_fuzz_internal12serde_format9serializeNtNvNtCsfrSB0FWCrTD_6rename10bar_fuzz__10write_args4ArgsEB16_
FN:32,_RINvNtCs2XBbTT2Tgsj_18test_fuzz_internal12serde_format9serializeNtNvNtCsgZ69XjcSWhh_6assert13target_fuzz__10write_args4ArgsEB16_
FN:32,_RINvNtCs2XBbTT2Tgsj_18test_fuzz_internal12serde_format9serializeNtNvNtCsikhsy0ZvG4z_4cast13target_fuzz__10write_args4ArgsEB16_
FN:32,_RINvNtCs2XBbTT2Tgsj_18test_fuzz_internal12serde_format9serializeNtNvNtCsjk8KY6qq2Wr_8parallel15target_0_fuzz__10write_args4ArgsEB16_
FN:32,_RINvNtCs2XBbTT2Tgsj_18test_fuzz_internal12serde_format9serializeNtNvNtCsjk8KY6qq2Wr_8parallel15target_1_fuzz__10write_args4ArgsEB16_
FN:32,_RINvNtCs2XBbTT2Tgsj_18test_fuzz_internal12serde_format9serializeNtNvNtCsjk8KY6qq2Wr_8parallel15target_2_fuzz__10write_args4ArgsEB16_
FN:32,_RINvNtCs2XBbTT2Tgsj_18test_fuzz_internal12serde_format9serializeNtNvNtCsjk8KY6qq2Wr_8parallel15target_3_fuzz__10write_args4ArgsEB16_
FN:32,_RINvNtCs2XBbTT2Tgsj_18test_fuzz_internal12serde_format9serializeNtNvNtCsjk8KY6qq2Wr_8parallel15target_4_fuzz__10write_args4ArgsEB16_
FN:32,_RINvNtCs2XBbTT2Tgsj_18test_fuzz_internal12serde_format9serializeNtNvNtCsjk8KY6qq2Wr_8parallel15target_5_fuzz__10write_args4ArgsEB16_
FN:32,_RINvNtCs2XBbTT2Tgsj_18test_fuzz_internal12serde_format9serializeNtNvNtCskPkSWzOTnW2_9collision11test_fuzz__10write_args4ArgsEB16_
FN:32,_RINvNtCs2XBbTT2Tgsj_18test_fuzz_internal12serde_format9serializeNtNvNtNtCs4RwwcRvri8p_7default10no_default13target_fuzz__10write_args4ArgsEB18_
FN:32,_RINvNtCs2XBbTT2Tgsj_18test_fuzz_internal12serde_format9serializeNtNvNtNtCs4RwwcRvri8p_7default7default13target_fuzz__10write_args4ArgsEB18_
FN:32,_RINvNtCs2XBbTT2Tgsj_18test_fuzz_internal12serde_format9serializeNtNvNtNtCsbZ6qTFMlSKY_5serde10byte_array13target_fuzz__10write_args4ArgsEB18_
FN:32,_RINvNtCs2XBbTT2Tgsj_18test_fuzz_internal12serde_format9serializeNtNvNtNtCsbZ6qTFMlSKY_5serde11unit_struct13target_fuzz__10write_args4ArgsEB18_
FN:32,_RINvNtCs2XBbTT2Tgsj_18test_fuzz_internal12serde_format9serializeNtNvNtNtCsbZ6qTFMlSKY_5serde12tuple_struct13target_fuzz__10write_args4ArgsEB18_
FN:32,_RINvNtCs2XBbTT2Tgsj_18test_fuzz_internal12serde_format9serializeNtNvNtNtCsbZ6qTFMlSKY_5serde12unit_variant13target_fuzz__10write_args4ArgsEB18_
FN:32,_RINvNtCs2XBbTT2Tgsj_18test_fuzz_internal12serde_format9serializeNtNvNtNtCsbZ6qTFMlSKY_5serde13tuple_variant13target_fuzz__10write_args4ArgsEB18_
FN:32,_RINvNtCs2XBbTT2Tgsj_18test_fuzz_internal12serde_format9serializeNtNvNtNtCsbZ6qTFMlSKY_5serde14newtype_struct13target_fuzz__10write_args4ArgsEB18_
FN:32,_RINvNtCs2XBbTT2Tgsj_18test_fuzz_internal12serde_format9serializeNtNvNtNtCsbZ6qTFMlSKY_5serde14struct_variant13target_fuzz__10write_args4ArgsEB18_
FN:32,_RINvNtCs2XBbTT2Tgsj_18test_fuzz_internal12serde_format9serializeNtNvNtNtCsbZ6qTFMlSKY_5serde15newtype_variant13target_fuzz__10write_args4ArgsEB18_
FN:32,_RINvNtCs2XBbTT2Tgsj_18test_fuzz_internal12serde_format9serializeNtNvNtNtCsbZ6qTFMlSKY_5serde3map13target_fuzz__10write_args4ArgsEB18_
FN:32,_RINvNtCs2XBbTT2Tgsj_18test_fuzz_internal12serde_format9serializeNtNvNtNtCsbZ6qTFMlSKY_5serde3seq13target_fuzz__10write_args4ArgsEB18_
FN:32,_RINvNtCs2XBbTT2Tgsj_18test_fuzz_internal12serde_format9serializeNtNvNtNtCsbZ6qTFMlSKY_5serde4unit13target_fuzz__10write_args4ArgsEB18_
FN:32,_RINvNtCs2XBbTT2Tgsj_18test_fuzz_internal12serde_format9serializeNtNvNtNtCsbZ6qTFMlSKY_5serde5tuple13target_fuzz__10write_args4ArgsEB18_
FN:32,_RINvNtCs2XBbTT2Tgsj_18test_fuzz_internal12serde_format9serializeNtNvNtNtCsbZ6qTFMlSKY_5serde6option13target_fuzz__10write_args4ArgsEB18_
FN:32,_RINvNtCs2XBbTT2Tgsj_18test_fuzz_internal12serde_format9serializeNtNvNtNtCsbZ6qTFMlSKY_5serde6string13target_fuzz__10write_args4ArgsEB18_
FN:32,_RINvNtCs2XBbTT2Tgsj_18test_fuzz_internal12serde_format9serializeNtNvNtNtCsbZ6qTFMlSKY_5serde6strukt13target_fuzz__10write_args4ArgsEB18_
FN:32,_RINvNtCs2XBbTT2Tgsj_18test_fuzz_internal12serde_format9serializeNtNvNtNtCsfL22ijsdh9Q_5debug4hang13target_fuzz__10write_args4ArgsEB18_
FN:32,_RINvNtCs2XBbTT2Tgsj_18test_fuzz_internal12serde_format9serializeNtNvNtNtCsfL22ijsdh9Q_5debug5crash13target_fuzz__10write_args4ArgsEB18_
FN:32,_RINvNtCs2XBbTT2Tgsj_18test_fuzz_internal12serde_format9serializeNtNvNtNtCsgyJtF4GtVdY_10conversion11uncloneable13target_fuzz__10write_args4ArgsEB18_
FN:32,_RINvNtCs2XBbTT2Tgsj_18test_fuzz_internal12serde_format9serializeNtNvNtNtCsgyJtF4GtVdY_10conversion4path13target_fuzz__10write_args4ArgsEB18_
FN:32,_RINvNtCs2XBbTT2Tgsj_18test_fuzz_internal12serde_format9serializeNtNvNtNtCsgyJtF4GtVdY_10conversion5array13target_fuzz__10write_args4ArgsEB18_
FN:32,_RINvNtCs2XBbTT2Tgsj_18test_fuzz_internal12serde_format9serializeNtNvNtNtCsgyJtF4GtVdY_10conversion7mutable13target_fuzz__10write_args4ArgsEB18_
FN:32,_RINvNtCs2XBbTT2Tgsj_18test_fuzz_internal12serde_format9serializeNtNvNtNtCsgyJtF4GtVdY_10conversion8lifetime13target_fuzz__10write_args4ArgsEB18_
FN:32,_RINvNtCs2XBbTT2Tgsj_18test_fuzz_internal12serde_format9serializeNtNvNtNtCsgyJtF4GtVdY_10conversion8receiver20x_target_self_fuzz__10write_args4ArgsEB18_
FN:32,_RINvNtCs2XBbTT2Tgsj_18test_fuzz_internal12serde_format9serializeNtNvNtNtCsgyJtF4GtVdY_10conversion8receiver21x_target_other_fuzz__10write_args4ArgsEB18_
FN:32,_RINvNtCs2XBbTT2Tgsj_18test_fuzz_internal12serde_format9serializeNtNvNtNtCsiGGxYnMUpAI_13auto_generate6signed13target_fuzz__10write_args4ArgsEB18_
FN:32,_RINvNtCs2XBbTT2Tgsj_18test_fuzz_internal12serde_format9serializeNtNvNtNtCsiGGxYnMUpAI_13auto_generate8unsigned13target_fuzz__10write_args4ArgsEB18_
FN:32,_RINvNtCs2XBbTT2Tgsj_18test_fuzz_internal12serde_format9serializepEB4_
FN:32,_RINvNtCs2XBbTT2Tgsj_18test_fuzz_internal4dirs31corpus_directory_from_args_typeINtNvNtCs6ZJvwNFZ5Lo_11return_type16swap_swap_fuzz__10write_args4ArgsubEEB1l_
FN:32,_RINvNtCs2XBbTT2Tgsj_18test_fuzz_internal4dirs31corpus_directory_from_args_typeINtNvNtCsaVSfY7O0uYs_7generic14baz_qux_fuzz__10write_args4ArgsNtB1l_3BarEEB1l_
FN:32,_RINvNtCs2XBbTT2Tgsj_18test_fuzz_internal4dirs31corpus_directory_from_args_typeINtNvNtCsaVSfY7O0uYs_7generic20struct_target_fuzz__10write_args4ArgsNtB1l_3BarEEB1l_
FN:32,_RINvNtCs2XBbTT2Tgsj_18test_fuzz_internal4dirs31corpus_directory_from_args_typeINtNvNtCsaVSfY7O0uYs_7generic20struct_target_fuzz__10write_args4ArgsNtB1l_3FooEEB1l_
FN:32,_RINvNtCs2XBbTT2Tgsj_18test_fuzz_internal4dirs31corpus_directory_from_args_typeINtNvNtCsaVSfY7O0uYs_7generic26struct_target_bound_fuzz__10write_args4ArgsNtB1l_3BarINtB1l_3BazB2q_EEEB1l_
FN:32,_RINvNtCs2XBbTT2Tgsj_18test_fuzz_internal4dirs31corpus_directory_from_args_typeINtNvNtCsaVSfY7O0uYs_7generic26struct_target_bound_fuzz__10write_args4ArgsNtB1l_3FooINtB1l_3BazB2q_EEEB1l_
FN:32,_RINvNtCs2XBbTT2Tgsj_18test_fuzz_internal4dirs31corpus_directory_from_args_typeINtNvNtCsaVSfY7O0uYs_7generic33struct_target_where_clause_fuzz__10write_args4ArgsNtB1l_3BarINtB1l_3BazB2x_EEEB1l_
FN:32,_RINvNtCs2XBbTT2Tgsj_18test_fuzz_internal4dirs31corpus_directory_from_args_typeINtNvNtCsaVSfY7O0uYs_7generic33struct_target_where_clause_fuzz__10write_args4ArgsNtB1l_3FooINtB1l_3BazB2x_EEEB1l_
FN:32,_RINvNtCs2XBbTT2Tgsj_18test_fuzz_internal4dirs31corpus_directory_from_args_typeINtNvNtCskkeazd6lurB_15associated_type20serializes_to_fuzz__10write_args4ArgsNtB1l_7AddressEEB1l_
FN:32,_RINvNtCs2XBbTT2Tgsj_18test_fuzz_internal4dirs31corpus_directory_from_args_typeINtNvNtNtCsaVSfY7O0uYs_7generic27receiverless_trait_function20struct_target_fuzz__10write_args4ArgsNtB1n_3BarEEB1n_
FN:32,_RINvNtCs2XBbTT2Tgsj_18test_fuzz_internal4dirs31corpus_directory_from_args_typeNtNvNtCs2zeNb6jgslg_19self_ty_in_mod_name20struct_target_fuzz__10write_args4ArgsEB1k_
FN:32,_RINvNtCs2XBbTT2Tgsj_18test_fuzz_internal4dirs31corpus_directory_from_args_typeNtNvNtCs4MGHVrkl72m_4from15bar_from_fuzz__10write_args4ArgsEB1k_
FN:32,_RINvNtCs2XBbTT2Tgsj_18test_fuzz_internal4dirs31corpus_directory_from_args_typeNtNvNtCs4MGHVrkl72m_4from15baz_into_fuzz__10write_args4ArgsEB1k_
FN:32,_RINvNtCs2XBbTT2Tgsj_18test_fuzz_internal4dirs31corpus_directory_from_args_typeNtNvNtCs4MGHVrkl72m_4from19baz_try_from_fuzz__10write_args4ArgsEB1k_
FN:32,_RINvNtCs2XBbTT2Tgsj_18test_fuzz_internal4dirs31corpus_directory_from_args_typeNtNvNtCs4jNeg51vteg_8lifetime13target_fuzz__10write_args4ArgsEB1k_
FN:32,_RINvNtCs2XBbTT2Tgsj_18test_fuzz_internal4dirs31corpus_directory_from_args_typeNtNvNtCs5fNIG3PZaJo_11hello_world19intermediary_fuzz__10write_args4ArgsEB1k_
FN:32,_RINvNtCs2XBbTT2Tgsj_18test_fuzz_internal4dirs31corpus_directory_from_args_typeNtNvNtCs6fBdTSegfKf_14test_fuzz_impl17struct_bar_fuzz__10write_args4ArgsEB1k_
FN:32,_RINvNtCs2XBbTT2Tgsj_18test_fuzz_internal4dirs31corpus_directory_from_args_typeNtNvNtCs6fBdTSegfKf_14test_fuzz_impl17struct_foo_fuzz__10write_args4ArgsEB1k_
FN:32,_RINvNtCs2XBbTT2Tgsj_18test_fuzz_internal4dirs31corpus_directory_from_args_typeNtNvNtCs6z3aMDs3O5H_14parse_duration12parse_fuzz__10write_args4ArgsEB1k_
FN:32,_RINvNtCs2XBbTT2Tgsj_18test_fuzz_internal4dirs31corpus_directory_from_args_typeNtNvNtCs7l6y1YLWhzH_5alloc13target_fuzz__10write_args4ArgsEB1k_
FN:32,_RINvNtCs2XBbTT2Tgsj_18test_fuzz_internal4dirs31corpus_directory_from_args_typeNtNvNtCs8VL8JzDaoWz_11hello_world19intermediary_fuzz__10write_args4ArgsEB1k_
FN:32,_RINvNtCs2XBbTT2Tgsj_18test_fuzz_internal4dirs31corpus_directory_from_args_typeNtNvNtCs9i11WczUoNj_7profile13target_fuzz__10write_args4ArgsEB1k_
FN:32,_RINvNtCs2XBbTT2Tgsj_18test_fuzz_internal4dirs31corpus_directory_from_args_typeNtNvNtCsb7JfYwj8ipQ_10serde_attr13target_fuzz__10write_args4ArgsEB1k_
FN:32,_RINvNtCs2XBbTT2Tgsj_18test_fuzz_internal4dirs31corpus_directory_from_args_typeNtNvNtCsbupd9d71YLx_16calm_and_panicky11calm_fuzz__10write_args4ArgsEB1k_
FN:32,_RINvNtCs2XBbTT2Tgsj_18test_fuzz_internal4dirs31corpus_directory_from_args_typeNtNvNtCsbupd9d71YLx_16calm_and_panicky14panicky_fuzz__10write_args4ArgsEB1k_
FN:32,_RINvNtCs2XBbTT2Tgsj_18test_fuzz_internal4dirs31corpus_directory_from_args_typeNtNvNtCscaf2gEuSGn5_6qwerty13target_fuzz__10write_args4ArgsEB1k_
FN:32,_RINvNtCs2XBbTT2Tgsj_18test_fuzz_internal4dirs31corpus_directory_from_args_typeNtNvNtCsfEcBWhN4Na3_3arc13target_fuzz__10write_args4ArgsEB1k_
FN:32,_RINvNtCs2XBbTT2Tgsj_18test_fuzz_internal4dirs31corpus_directory_from_args_typeNtNvNtCsfODoU0UL7aq_11manual_leak23wrapped_key_dump_fuzz__10write_args4ArgsEB1k_
FN:32,_RINvNtCs2XBbTT2Tgsj_18test_fuzz_internal4dirs31corpus_directory_from_args_typeNtNvNtCsfOIDT8lUV2L_7mut_ref17target_str_fuzz__10write_args4ArgsEB1k_
FN:32,_RINvNtCs2XBbTT2Tgsj_18test_fuzz_internal4dirs31corpus_directory_from_args_typeNtNvNtCsfOIDT8lUV2L_7mut_ref19target_slice_fuzz__10write_args4ArgsEB1k_
FN:32,_RINvNtCs2XBbTT2Tgsj_18test_fuzz_internal4dirs31corpus_directory_from_args_typeNtNvNtCsfrSB0FWCrTD_6rename10bar_fuzz__10write_args4ArgsEB1k_
FN:32,_RINvNtCs2XBbTT2Tgsj_18test_fuzz_internal4dirs31corpus_directory_from_args_typeNtNvNtCsgZ69XjcSWhh_6assert13target_fuzz__10write_args4ArgsEB1k_
FN:32,_RINvNtCs2XBbTT2Tgsj_18test_fuzz_internal4dirs31corpus_directory_from_args_typeNtNvNtCsikhsy0ZvG4z_4cast13target_fuzz__10write_args4ArgsEB1k_
FN:32,_RINvNtCs2XBbTT2Tgsj_18test_fuzz_internal4dirs31corpus_directory_from_args_typeNtNvNtCsjk8KY6qq2Wr_8parallel15target_0_fuzz__10write_args4ArgsEB1k_
FN:32,_RINvNtCs2XBbTT2Tgsj_18test_fuzz_internal4dirs31corpus_directory_from_args_typeNtNvNtCsjk8KY6qq2Wr_8parallel15target_1_fuzz__10write_args4ArgsEB1k_
FN:32,_RINvNtCs2XBbTT2Tgsj_18test_fuzz_internal4dirs31corpus_directory_from_args_typeNtNvNtCsjk8KY6qq2Wr_8parallel15target_2_fuzz__10write_args4ArgsEB1k_
FN:32,_RINvNtCs2XBbTT2Tgsj_18test_fuzz_internal4dirs31corpus_directory_from_args_typeNtNvNtCsjk8KY6qq2Wr_8parallel15target_3_fuzz__10write_args4ArgsEB1k_
FN:32,_RINvNtCs2XBbTT2Tgsj_18test_fuzz_internal4dirs31corpus_directory_from_args_typeNtNvNtCsjk8KY6qq2Wr_8parallel15target_4_fuzz__10write_args4ArgsEB1k_
FN:32,_RINvNtCs2XBbTT2Tgsj_18test_fuzz_internal4dirs31corpus_directory_from_args_typeNtNvNtCsjk8KY6qq2Wr_8parallel15target_5_fuzz__10write_args4ArgsEB1k_
FN:32,_RINvNtCs2XBbTT2Tgsj_18test_fuzz_internal4dirs31corpus_directory_from_args_typeNtNvNtCskPkSWzOTnW2_9collision11test_fuzz__10write_args4ArgsEB1k_
FN:32,_RINvNtCs2XBbTT2Tgsj_18test_fuzz_internal4dirs31corpus_directory_from_args_typeNtNvNtNtCs4RwwcRvri8p_7default10no_default13target_fuzz__10write_args4ArgsEB1m_
FN:32,_RINvNtCs2XBbTT2Tgsj_18test_fuzz_internal4dirs31corpus_directory_from_args_typeNtNvNtNtCs4RwwcRvri8p_7default7default13target_fuzz__10write_args4ArgsEB1m_
FN:32,_RINvNtCs2XBbTT2Tgsj_18test_fuzz_internal4dirs31corpus_directory_from_args_typeNtNvNtNtCsbZ6qTFMlSKY_5serde10byte_array13target_fuzz__10write_args4ArgsEB1m_
FN:32,_RINvNtCs2XBbTT2Tgsj_18test_fuzz_internal4dirs31corpus_directory_from_args_typeNtNvNtNtCsbZ6qTFMlSKY_5serde11unit_struct13target_fuzz__10write_args4ArgsEB1m_
FN:32,_RINvNtCs2XBbTT2Tgsj_18test_fuzz_internal4dirs31corpus_directory_from_args_typeNtNvNtNtCsbZ6qTFMlSKY_5serde12tuple_struct13target_fuzz__10write_args4ArgsEB1m_
FN:32,_RINvNtCs2XBbTT2Tgsj_18test_fuzz_internal4dirs31corpus_directory_from_args_typeNtNvNtNtCsbZ6qTFMlSKY_5serde12unit_variant13target_fuzz__10write_args4ArgsEB1m_
FN:32,_RINvNtCs2XBbTT2Tgsj_18test_fuzz_internal4dirs31corpus_directory_from_args_typeNtNvNtNtCsbZ6qTFMlSKY_5serde13tuple_variant13target_fuzz__10write_args4ArgsEB1m_
FN:32,_RINvNtCs2XBbTT2Tgsj_18test_fuzz_internal4dirs31corpus_directory_from_args_typeNtNvNtNtCsbZ6qTFMlSKY_5serde14newtype_struct13target_fuzz__10write_args4ArgsEB1m_
FN:32,_RINvNtCs2XBbTT2Tgsj_18test_fuzz_internal4dirs31corpus_directory_from_args_typeNtNvNtNtCsbZ6qTFMlSKY_5serde14struct_variant13target_fuzz__10write_args4ArgsEB1m_
FN:32,_RINvNtCs2XBbTT2Tgsj_18test_fuzz_internal4dirs31corpus_directory_from_args_typeNtNvNtNtCsbZ6qTFMlSKY_5serde15newtype_variant13target_fuzz__10write_args4ArgsEB1m_
FN:32,_RINvNtCs2XBbTT2Tgsj_18test_fuzz_internal4dirs31corpus_directory_from_args_typeNtNvNtNtCsbZ6qTFMlSKY_5serde3map13target_fuzz__10write_args4ArgsEB1m_
FN:32,_RINvNtCs2XBbTT2Tgsj_18test_fuzz_internal4dirs31corpus_directory_from_args_typeNtNvNtNtCsbZ6qTFMlSKY_5serde3seq13target_fuzz__10write_args4ArgsEB1m_
FN:32,_RINvNtCs2XBbTT2Tgsj_18test_fuzz_internal4dirs31corpus_directory_from_args_typeNtNvNtNtCsbZ6qTFMlSKY_5serde4unit13target_fuzz__10write_args4ArgsEB1m_
FN:32,_RINvNtCs2XBbTT2Tgsj_18test_fuzz_internal4dirs31corpus_directory_from_args_typeNtNvNtNtCsbZ6qTFMlSKY_5serde5tuple13target_fuzz__10write_args4ArgsEB1m_
FN:32,_RINvNtCs2XBbTT2Tgsj_18test_fuzz_internal4dirs31corpus_directory_from_args_typeNtNvNtNtCsbZ6qTFMlSKY_5serde6option13target_fuzz__10write_args4ArgsEB1m_
FN:32,_RINvNtCs2XBbTT2Tgsj_18test_fuzz_internal4dirs31corpus_directory_from_args_typeNtNvNtNtCsbZ6qTFMlSKY_5serde6string13target_fuzz__10write_args4ArgsEB1m_
FN:32,_RINvNtCs2XBbTT2Tgsj_18test_fuzz_internal4dirs31corpus_directory_from_args_typeNtNvNtNtCsbZ6qTFMlSKY_5serde6strukt13target_fuzz__10write_args4ArgsEB1m_
FN:32,_RINvNtCs2XBbTT2Tgsj_18test_fuzz_internal4dirs31corpus_directory_from_args_typeNtNvNtNtCsfL22ijsdh9Q_5debug4hang13target_fuzz__10write_args4ArgsEB1m_
FN:32,_RINvNtCs2XBbTT2Tgsj_18test_fuzz_internal4dirs31corpus_directory_from_args_typeNtNvNtNtCsfL22ijsdh9Q_5debug5crash13target_fuzz__10write_args4ArgsEB1m_
FN:32,_RINvNtCs2XBbTT2Tgsj_18test_fuzz_internal4dirs31corpus_directory_from_args_typeNtNvNtNtCsgyJtF4GtVdY_10conversion11uncloneable13target_fuzz__10write_args4ArgsEB1m_
FN:32,_RINvNtCs2XBbTT2Tgsj_18test_fuzz_internal4dirs31corpus_directory_from_args_typeNtNvNtNtCsgyJtF4GtVdY_10conversion4path13target_fuzz__10write_args4ArgsEB1m_
FN:32,_RINvNtCs2XBbTT2Tgsj_18test_fuzz_internal4dirs31corpus_directory_from_args_typeNtNvNtNtCsgyJtF4GtVdY_10conversion5array13target_fuzz__10write_args4ArgsEB1m_
FN:32,_RINvNtCs2XBbTT2Tgsj_18test_fuzz_internal4dirs31corpus_directory_from_args_typeNtNvNtNtCsgyJtF4GtVdY_10conversion7mutable13target_fuzz__10write_args4ArgsEB1m_
FN:32,_RINvNtCs2XBbTT2Tgsj_18test_fuzz_internal4dirs31corpus_directory_from_args_typeNtNvNtNtCsgyJtF4GtVdY_10conversion8lifetime13target_fuzz__10write_args4ArgsEB1m_
FN:32,_RINvNtCs2XBbTT2Tgsj_18test_fuzz_internal4dirs31corpus_directory_from_args_typeNtNvNtNtCsgyJtF4GtVdY_10conversion8receiver20x_target_self_fuzz__10write_args4ArgsEB1m_
FN:32,_RINvNtCs2XBbTT2Tgsj_18test_fuzz_internal4dirs31corpus_directory_from_args_typeNtNvNtNtCsgyJtF4GtVdY_10conversion8receiver21x_target_other_fuzz__10write_args4ArgsEB1m_
FN:32,_RINvNtCs2XBbTT2Tgsj_18test_fuzz_internal4dirs31corpus_directory_from_args_typeNtNvNtNtCsiGGxYnMUpAI_13auto_generate6signed13target_fuzz__10write_args4ArgsEB1m_
FN:32,_RINvNtCs2XBbTT2Tgsj_18test_fuzz_internal4dirs31corpus_directory_from_args_typeNtNvNtNtCsiGGxYnMUpAI_13auto_generate8unsigned13target_fuzz__10write_args4ArgsEB1m_
FN:32,_RINvNtCs2XBbTT2Tgsj_18test_fuzz_internal4dirs31corpus_directory_from_args_typepEB4_
FN:324,_RNCNvCs4oWu7nXEoFY_15test_fuzz_macro16map_method_or_fns2_0B3_
FN:33,_RNvXCseNzKavzW6Gi_17test_fuzz_runtimeINtB2_18DebugUnimplementedINtB2_8TryDebugINtCs6ZJvwNFZ5Lo_11return_type4SwapbuEEENtNtCs3XFJfFEDSOQ_4core3fmt5Debug3fmtB1h_
FN:33,_RNvXCseNzKavzW6Gi_17test_fuzz_runtimeINtB2_18DebugUnimplementedINtB2_8TryDebugINtCs6ZJvwNFZ5Lo_11return_type4SwapubEEENtNtCs3XFJfFEDSOQ_4core3fmt5Debug3fmtB1h_
FN:33,_RNvXCseNzKavzW6Gi_17test_fuzz_runtimeINtB2_18DebugUnimplementedINtB2_8TryDebugINtNtCs3XFJfFEDSOQ_4core6result6ResultNtCs4MGHVrkl72m_4from3BazReEEENtNtB1j_3fmt5Debug3fmtB1S_
FN:33,_RNvXCseNzKavzW6Gi_17test_fuzz_runtimeINtB2_18DebugUnimplementedINtB2_8TryDebugNtCs2zeNb6jgslg_19self_ty_in_mod_name6StructEENtNtCs3XFJfFEDSOQ_4core3fmt5Debug3fmtB1g_
FN:33,_RNvXCseNzKavzW6Gi_17test_fuzz_runtimeINtB2_18DebugUnimplementedINtB2_8TryDebugNtCs4MGHVrkl72m_4from3BarEENtNtCs3XFJfFEDSOQ_4core3fmt5Debug3fmtB1g_
FN:33,_RNvXCseNzKavzW6Gi_17test_fuzz_runtimeINtB2_18DebugUnimplementedINtB2_8TryDebugNtCs4MGHVrkl72m_4from3BazEENtNtCs3XFJfFEDSOQ_4core3fmt5Debug3fmtB1g_
FN:33,_RNvXCseNzKavzW6Gi_17test_fuzz_runtimeINtB2_18DebugUnimplementedINtB2_8TryDebugNtCs4MGHVrkl72m_4from3FooEENtNtCs3XFJfFEDSOQ_4core3fmt5Debug3fmtB1g_
FN:33,_RNvXCseNzKavzW6Gi_17test_fuzz_runtimeINtB2_18DebugUnimplementedINtB2_8TryDebugNtCs4jNeg51vteg_8lifetime3BarEENtNtCs3XFJfFEDSOQ_4core3fmt5Debug3fmtB1g_
FN:33,_RNvXCseNzKavzW6Gi_17test_fuzz_runtimeINtB2_18DebugUnimplementedINtB2_8TryDebugNtCs6fBdTSegfKf_14test_fuzz_impl6StructEENtNtCs3XFJfFEDSOQ_4core3fmt5Debug3fmtB1g_
FN:33,_RNvXCseNzKavzW6Gi_17test_fuzz_runtimeINtB2_18DebugUnimplementedINtB2_8TryDebugNtCsaVSfY7O0uYs_7generic3BarEENtNtCs3XFJfFEDSOQ_4core3fmt5Debug3fmtB1g_
FN:33,_RNvXCseNzKavzW6Gi_17test_fuzz_runtimeINtB2_18DebugUnimplementedINtB2_8TryDebugNtCsb7JfYwj8ipQ_10serde_attr7ContextEENtNtCs3XFJfFEDSOQ_4core3fmt5Debug3fmtB1g_
FN:33,_RNvXCseNzKavzW6Gi_17test_fuzz_runtimeINtB2_18DebugUnimplementedINtB2_8TryDebugNtCsbupd9d71YLx_16calm_and_panicky4CalmEENtNtCs3XFJfFEDSOQ_4core3fmt5Debug3fmtB1g_
FN:33,_RNvXCseNzKavzW6Gi_17test_fuzz_runtimeINtB2_18DebugUnimplementedINtB2_8TryDebugNtCsbupd9d71YLx_16calm_and_panicky7PanickyEENtNtCs3XFJfFEDSOQ_4core3fmt5Debug3fmtB1g_
FN:33,_RNvXCseNzKavzW6Gi_17test_fuzz_runtimeINtB2_18DebugUnimplementedINtB2_8TryDebugNtCskkeazd6lurB_15associated_type7AddressEENtNtCs3XFJfFEDSOQ_4core3fmt5Debug3fmtB1g_
FN:33,_RNvXCseNzKavzW6Gi_17test_fuzz_runtimeINtB2_18DebugUnimplementedINtB2_8TryDebugNtNtCs4RwwcRvri8p_7default10no_default6StructEENtNtCs3XFJfFEDSOQ_4core3fmt5Debug3fmtB1i_
FN:33,_RNvXCseNzKavzW6Gi_17test_fuzz_runtimeINtB2_18DebugUnimplementedINtB2_8TryDebugNtNtCs4RwwcRvri8p_7default7default6StructEENtNtCs3XFJfFEDSOQ_4core3fmt5Debug3fmtB1i_
FN:33,_RNvXCseNzKavzW6Gi_17test_fuzz_runtimeINtB2_18DebugUnimplementedINtB2_8TryDebugNtNtCsbZ6qTFMlSKY_5serde11unit_struct10UnitStructEENtNtCs3XFJfFEDSOQ_4core3fmt5Debug3fmtB1i_
FN:33,_RNvXCseNzKavzW6Gi_17test_fuzz_runtimeINtB2_18DebugUnimplementedINtB2_8TryDebugNtNtCsbZ6qTFMlSKY_5serde12tuple_struct11TupleStructEENtNtCs3XFJfFEDSOQ_4core3fmt5Debug3fmtB1i_
FN:33,_RNvXCseNzKavzW6Gi_17test_fuzz_runtimeINtB2_18DebugUnimplementedINtB2_8TryDebugNtNtCsbZ6qTFMlSKY_5serde12unit_variant11UnitVariantEENtNtCs3XFJfFEDSOQ_4core3fmt5Debug3fmtB1i_
FN:33,_RNvXCseNzKavzW6Gi_17test_fuzz_runtimeINtB2_18DebugUnimplementedINtB2_8TryDebugNtNtCsbZ6qTFMlSKY_5serde13tuple_variant12TupleVariantEENtNtCs3XFJfFEDSOQ_4core3fmt5Debug3fmtB1i_
FN:33,_RNvXCseNzKavzW6Gi_17test_fuzz_runtimeINtB2_18DebugUnimplementedINtB2_8TryDebugNtNtCsbZ6qTFMlSKY_5serde14newtype_struct13NewtypeStructEENtNtCs3XFJfFEDSOQ_4core3fmt5Debug3fmtB1i_
FN:33,_RNvXCseNzKavzW6Gi_17test_fuzz_runtimeINtB2_18DebugUnimplementedINtB2_8TryDebugNtNtCsbZ6qTFMlSKY_5serde14struct_variant13StructVariantEENtNtCs3XFJfFEDSOQ_4core3fmt5Debug3fmtB1i_
FN:33,_RNvXCseNzKavzW6Gi_17test_fuzz_runtimeINtB2_18DebugUnimplementedINtB2_8TryDebugNtNtCsbZ6qTFMlSKY_5serde15newtype_variant14NewtypeVariantEENtNtCs3XFJfFEDSOQ_4core3fmt5Debug3fmtB1i_
FN:33,_RNvXCseNzKavzW6Gi_17test_fuzz_runtimeINtB2_18DebugUnimplementedINtB2_8TryDebugNtNtCsbZ6qTFMlSKY_5serde6strukt6StructEENtNtCs3XFJfFEDSOQ_4core3fmt5Debug3fmtB1i_
FN:33,_RNvXCseNzKavzW6Gi_17test_fuzz_runtimeINtB2_18DebugUnimplementedINtB2_8TryDebugNtNtCsgag4BwXrjBQ_5alloc6string6StringEENtNtCs3XFJfFEDSOQ_4core3fmt5Debug3fmtCskkeazd6lurB_15associated_type
FN:33,_RNvXCseNzKavzW6Gi_17test_fuzz_runtimeINtB2_18DebugUnimplementedINtB2_8TryDebugNtNtCsgyJtF4GtVdY_10conversion11uncloneable1YEENtNtCs3XFJfFEDSOQ_4core3fmt5Debug3fmtB1i_
FN:33,_RNvXCseNzKavzW6Gi_17test_fuzz_runtimeINtB2_18DebugUnimplementedINtB2_8TryDebugNtNtCsgyJtF4GtVdY_10conversion7mutable1YEENtNtCs3XFJfFEDSOQ_4core3fmt5Debug3fmtB1i_
FN:33,_RNvXCseNzKavzW6Gi_17test_fuzz_runtimeINtB2_18DebugUnimplementedINtB2_8TryDebugNtNtCsgyJtF4GtVdY_10conversion8lifetime1YEENtNtCs3XFJfFEDSOQ_4core3fmt5Debug3fmtB1i_
FN:33,_RNvXCseNzKavzW6Gi_17test_fuzz_runtimeINtB2_18DebugUnimplementedINtB2_8TryDebugNtNtCsgyJtF4GtVdY_10conversion8receiver1YEENtNtCs3XFJfFEDSOQ_4core3fmt5Debug3fmtB1i_
FN:33,_RNvXINICseNzKavzW6Gi_17test_fuzz_runtime0pEINtB5_18DebugUnimplementedpENtNtCs3XFJfFEDSOQ_4core3fmt5Debug3fmtB5_
FN:334,_RNCNvCs4oWu7nXEoFY_15test_fuzz_macro16map_method_or_fns3_0B3_
FN:34,_RNCINvXs_NtCsh5MssUcn8TK_17serde_combinators4ref_INtB7_4RefFINtNtB9_5type_4TypeAhj20_EENtB9_15DeserializeWith11deserializeINtNtNtNtCskruJqO5s2DS_7bincode8features5serde8de_owned12SerdeDecoderINtNtNtB25_2de7decoder11DecoderImplINtNtB23_8impl_std8IoReaderQNtNtNtCsHIej2QEFI5_3std2io5stdio5StdinEINtNtB25_6config13ConfigurationNtB4K_12LittleEndianNtB4K_6VarintINtB4K_5LimitKj40000000_EEuEEE0CsfODoU0UL7aq_11manual_leak
FN:349,_RNCNvCs4oWu7nXEoFY_15test_fuzz_macro16map_method_or_fns4_0B3_
FN:35,_RNvXs3_NtCs4oWu7nXEoFY_15test_fuzz_macro8ord_typeNtB5_7OrdTypeNtNtCs3XFJfFEDSOQ_4core3cmp9PartialEq2eq
FN:37,_RNCNvCs4oWu7nXEoFY_15test_fuzz_macro16CARGO_CRATE_NAME0B3_
FN:37,_RNvNtCs2XBbTT2Tgsj_18test_fuzz_internal4dirs28corpus_directory_from_target
FN:38,_RNvXININtCseNzKavzW6Gi_17test_fuzz_runtime6traitss0_0pEpNtB5_3Two3twoB7_
FN:38,_RNvXs0_NtCseNzKavzW6Gi_17test_fuzz_runtime6traitsjNtB5_3Two3twoCsfEcBWhN4Na3_3arc
FN:38,_RNvXs0_NtCseNzKavzW6Gi_17test_fuzz_runtime6traitslNtB5_3Two3twoCsb7JfYwj8ipQ_10serde_attr
FN:38,_RNvXs0_NtCseNzKavzW6Gi_17test_fuzz_runtime6traitsxNtB5_3Two3twoCsiGGxYnMUpAI_13auto_generate
FN:38,_RNvXs0_NtCseNzKavzW6Gi_17test_fuzz_runtime6traitsyNtB5_3Two3twoCsiGGxYnMUpAI_13auto_generate
FN:38,_RNvXs0_NtCseNzKavzW6Gi_17test_fuzz_runtime6traitsyNtB5_3Two3twoCsikhsy0ZvG4z_4cast
FN:382,_RNCNvCs4oWu7nXEoFY_15test_fuzz_macro16map_method_or_fns5_0B3_
FN:392,_RNCNvCs4oWu7nXEoFY_15test_fuzz_macro16map_method_or_fns6_0B3_
FN:402,_RNCNvCs4oWu7nXEoFY_15test_fuzz_macro16map_method_or_fns7_0B3_
FN:41,_RNvXNtCsgyJtF4GtVdY_10conversion4pathNtB2_10LeakedPathINtNtCs3XFJfFEDSOQ_4core7convert4FromRNtNtCsHIej2QEFI5_3std4path4PathE4from
FN:41,_RNvXNtCsgyJtF4GtVdY_10conversion5arrayNtB2_11LeakedArrayINtNtCs3XFJfFEDSOQ_4core7convert4FromRSNtNtCsgag4BwXrjBQ_5alloc6string6StringE4from
FN:410,_RNCNvCs4oWu7nXEoFY_15test_fuzz_macro16map_method_or_fns8_0B3_
FN:419,_RNCNvCs4oWu7nXEoFY_15test_fuzz_macro16map_method_or_fns9_0B3_
FN:42,_RNvNtCs2XBbTT2Tgsj_18test_fuzz_internal4dirs29crashes_directory_from_target
FN:420,_RNCNvCs4oWu7nXEoFY_15test_fuzz_macro16map_method_or_fnsa_0B3_
FN:43,_RNvCs4oWu7nXEoFY_15test_fuzz_macro14test_fuzz_impl
FN:47,_RNvNtCs2XBbTT2Tgsj_18test_fuzz_internal4dirs27hangs_directory_from_target
FN:47,_RNvNtCs4oWu7nXEoFY_15test_fuzz_macro10type_utils17path_as_turbofish
FN:47,_RNvXs_NtCsgyJtF4GtVdY_10conversion4pathNtB4_10LeakedPathINtNtCsR0Fn1Tqyat_9test_fuzz7convert4IntoRNtNtCsHIej2QEFI5_3std4path4PathE4into
FN:47,_RNvXs_NtCsgyJtF4GtVdY_10conversion5arrayNtB4_11LeakedArrayINtNtCsR0Fn1Tqyat_9test_fuzz7convert4IntoRSNtNtCsgag4BwXrjBQ_5alloc6string6StringE4into
FN:50,_RINvXINICseNzKavzW6Gi_17test_fuzz_runtimes_0pEpNtB6_16TryDebugFallback5applypEB6_
FN:50,_RINvXs_CseNzKavzW6Gi_17test_fuzz_runtimeINtB5_8TryDebugINtCs6ZJvwNFZ5Lo_11return_type4SwapbuEENtB5_16TryDebugFallback5applyuEBU_
FN:50,_RINvXs_CseNzKavzW6Gi_17test_fuzz_runtimeINtB5_8TryDebugINtCs6ZJvwNFZ5Lo_11return_type4SwapubEENtB5_16TryDebugFallback5applyuEBU_
FN:50,_RINvXs_CseNzKavzW6Gi_17test_fuzz_runtimeINtB5_8TryDebugINtNtCs3XFJfFEDSOQ_4core6result6ResultNtCs4MGHVrkl72m_4from3BazReEENtB5_16TryDebugFallback5applyuEB1v_
FN:50,_RINvXs_CseNzKavzW6Gi_17test_fuzz_runtimeINtB5_8TryDebugNtCs2zeNb6jgslg_19self_ty_in_mod_name6StructENtB5_16TryDebugFallback5applyuEBT_
FN:50,_RINvXs_CseNzKavzW6Gi_17test_fuzz_runtimeINtB5_8TryDebugNtCs4MGHVrkl72m_4from3BarENtB5_16TryDebugFallback5applyuEBT_
FN:50,_RINvXs_CseNzKavzW6Gi_17test_fuzz_runtimeINtB5_8TryDebugNtCs4MGHVrkl72m_4from3BazENtB5_16TryDebugFallback5applyuEBT_
FN:50,_RINvXs_CseNzKavzW6Gi_17test_fuzz_runtimeINtB5_8TryDebugNtCs4MGHVrkl72m_4from3FooENtB5_16TryDebugFallback5applyuEBT_
FN:50,_RINvXs_CseNzKavzW6Gi_17test_fuzz_runtimeINtB5_8TryDebugNtCs4jNeg51vteg_8lifetime3BarENtB5_16TryDebugFallback5applyuEBT_
FN:50,_RINvXs_CseNzKavzW6Gi_17test_fuzz_runtimeINtB5_8TryDebugNtCs6fBdTSegfKf_14test_fuzz_impl6StructENtB5_16TryDebugFallback5applyuEBT_
FN:50,_RINvXs_CseNzKavzW6Gi_17test_fuzz_runtimeINtB5_8TryDebugNtCsaVSfY7O0uYs_7generic3BarENtB5_16TryDebugFallback5applyuEBT_
FN:50,_RINvXs_CseNzKavzW6Gi_17test_fuzz_runtimeINtB5_8TryDebugNtCsb7JfYwj8ipQ_10serde_attr7ContextENtB5_16TryDebugFallback5applyuEBT_
FN:50,_RINvXs_CseNzKavzW6Gi_17test_fuzz_runtimeINtB5_8TryDebugNtCsbupd9d71YLx_16calm_and_panicky4CalmENtB5_16TryDebugFallback5applyuEBT_
FN:50,_RINvXs_CseNzKavzW6Gi_17test_fuzz_runtimeINtB5_8TryDebugNtCsbupd9d71YLx_16calm_and_panicky7PanickyENtB5_16TryDebugFallback5applyuEBT_
FN:50,_RINvXs_CseNzKavzW6Gi_17test_fuzz_runtimeINtB5_8TryDebugNtCskkeazd6lurB_15associated_type7AddressENtB5_16TryDebugFallback5applyuEBT_
FN:50,_RINvXs_CseNzKavzW6Gi_17test_fuzz_runtimeINtB5_8TryDebugNtNtCs4RwwcRvri8p_7default10no_default6StructENtB5_16TryDebugFallback5applyuEBV_
FN:50,_RINvXs_CseNzKavzW6Gi_17test_fuzz_runtimeINtB5_8TryDebugNtNtCs4RwwcRvri8p_7default7default6StructENtB5_16TryDebugFallback5applyuEBV_
FN:50,_RINvXs_CseNzKavzW6Gi_17test_fuzz_runtimeINtB5_8TryDebugNtNtCsbZ6qTFMlSKY_5serde11unit_struct10UnitStructENtB5_16TryDebugFallback5applyuEBV_
FN:50,_RINvXs_CseNzKavzW6Gi_17test_fuzz_runtimeINtB5_8TryDebugNtNtCsbZ6qTFMlSKY_5serde12tuple_struct11TupleStructENtB5_16TryDebugFallback5applyuEBV_
FN:50,_RINvXs_CseNzKavzW6Gi_17test_fuzz_runtimeINtB5_8TryDebugNtNtCsbZ6qTFMlSKY_5serde12unit_variant11UnitVariantENtB5_16TryDebugFallback5applyuEBV_
FN:50,_RINvXs_CseNzKavzW6Gi_17test_fuzz_runtimeINtB5_8TryDebugNtNtCsbZ6qTFMlSKY_5serde13tuple_variant12TupleVariantENtB5_16TryDebugFallback5applyuEBV_
FN:50,_RINvXs_CseNzKavzW6Gi_17test_fuzz_runtimeINtB5_8TryDebugNtNtCsbZ6qTFMlSKY_5serde14newtype_struct13NewtypeStructENtB5_16TryDebugFallback5applyuEBV_
FN:50,_RINvXs_CseNzKavzW6Gi_17test_fuzz_runtimeINtB5_8TryDebugNtNtCsbZ6qTFMlSKY_5serde14struct_variant13StructVariantENtB5_16TryDebugFallback5applyuEBV_
FN:50,_RINvXs_CseNzKavzW6Gi_17test_fuzz_runtimeINtB5_8TryDebugNtNtCsbZ6qTFMlSKY_5serde15newtype_variant14NewtypeVariantENtB5_16TryDebugFallback5applyuEBV_
FN:50,_RINvXs_CseNzKavzW6Gi_17test_fuzz_runtimeINtB5_8TryDebugNtNtCsbZ6qTFMlSKY_5serde6strukt6StructENtB5_16TryDebugFallback5applyuEBV_
FN:50,_RINvXs_CseNzKavzW6Gi_17test_fuzz_runtimeINtB5_8TryDebugNtNtCsgag4BwXrjBQ_5alloc6string6StringENtB5_16TryDebugFallback5applyuECskkeazd6lurB_15associated_type
FN:50,_RINvXs_CseNzKavzW6Gi_17test_fuzz_runtimeINtB5_8TryDebugNtNtCsgyJtF4GtVdY_10conversion11uncloneable1YENtB5_16TryDebugFallback5applyuEBV_
FN:50,_RINvXs_CseNzKavzW6Gi_17test_fuzz_runtimeINtB5_8TryDebugNtNtCsgyJtF4GtVdY_10conversion7mutable1YENtB5_16TryDebugFallback5applyuEBV_
FN:50,_RINvXs_CseNzKavzW6Gi_17test_fuzz_runtimeINtB5_8TryDebugNtNtCsgyJtF4GtVdY_10conversion8lifetime1YENtB5_16TryDebugFallback5applyuEBV_
FN:50,_RINvXs_CseNzKavzW6Gi_17test_fuzz_runtimeINtB5_8TryDebugNtNtCsgyJtF4GtVdY_10conversion8receiver1YENtB5_16TryDebugFallback5applyuEBV_
FN:52,_RNvNtCs2XBbTT2Tgsj_18test_fuzz_internal4dirs27queue_directory_from_target
FN:52,_RNvXININtCseNzKavzW6Gi_17test_fuzz_runtime6traitss1_0pEpNtB5_6Middle3lowB7_
FN:52,_RNvXs1_NtCseNzKavzW6Gi_17test_fuzz_runtime6traitsjNtB5_6Middle3lowCsfEcBWhN4Na3_3arc
FN:52,_RNvXs1_NtCseNzKavzW6Gi_17test_fuzz_runtime6traitslNtB5_6Middle3lowCsb7JfYwj8ipQ_10serde_attr
FN:52,_RNvXs1_NtCseNzKavzW6Gi_17test_fuzz_runtime6traitsxNtB5_6Middle3lowCsiGGxYnMUpAI_13auto_generate
FN:52,_RNvXs1_NtCseNzKavzW6Gi_17test_fuzz_runtime6traitsyNtB5_6Middle3lowCsiGGxYnMUpAI_13auto_generate
FN:52,_RNvXs1_NtCseNzKavzW6Gi_17test_fuzz_runtime6traitsyNtB5_6Middle3lowCsikhsy0ZvG4z_4cast
FN:54,_RNvNtCs4oWu7nXEoFY_15test_fuzz_macro10type_utils17type_as_turbofish
FN:55,_RNvXININtCseNzKavzW6Gi_17test_fuzz_runtime6traitss1_0pEpNtB5_6Middle4highB7_
FN:55,_RNvXs1_NtCseNzKavzW6Gi_17test_fuzz_runtime6traitsjNtB5_6Middle4highCsfEcBWhN4Na3_3arc
FN:55,_RNvXs1_NtCseNzKavzW6Gi_17test_fuzz_runtime6traitslNtB5_6Middle4highCsb7JfYwj8ipQ_10serde_attr
FN:55,_RNvXs1_NtCseNzKavzW6Gi_17test_fuzz_runtime6traitsxNtB5_6Middle4highCsiGGxYnMUpAI_13auto_generate
FN:55,_RNvXs1_NtCseNzKavzW6Gi_17test_fuzz_runtime6traitsyNtB5_6Middle4highCsiGGxYnMUpAI_13auto_generate
FN:55,_RNvXs1_NtCseNzKavzW6Gi_17test_fuzz_runtime6traitsyNtB5_6Middle4highCsikhsy0ZvG4z_4cast
FN:56,_RINvNtCs2XBbTT2Tgsj_18test_fuzz_internal12serde_format11deserializeINtNvMNtCs6ZJvwNFZ5Lo_11return_type16swap_swap_fuzz__INtB19_11UsingReaderpE9read_args4ArgsubENtNtNtCsHIej2QEFI5_3std2io5stdio5StdinEB1b_
FN:56,_RINvNtCs2XBbTT2Tgsj_18test_fuzz_internal12serde_format11deserializeINtNvMNtCsaVSfY7O0uYs_7generic14baz_qux_fuzz__INtB19_11UsingReaderpE9read_args4ArgsNtB1b_3BarENtNtNtCsHIej2QEFI5_3std2io5stdio5StdinEB1b_
FN:56,_RINvNtCs2XBbTT2Tgsj_18test_fuzz_internal12serde_format11deserializeINtNvMNtCsaVSfY7O0uYs_7generic20struct_target_fuzz__INtB19_11UsingReaderpE9read_args4ArgsNtB1b_3BarENtNtNtCsHIej2QEFI5_3std2io5stdio5StdinEB1b_
FN:56,_RINvNtCs2XBbTT2Tgsj_18test_fuzz_internal12serde_format11deserializeINtNvMNtCsaVSfY7O0uYs_7generic26struct_target_bound_fuzz__INtB19_11UsingReaderpE9read_args4ArgsNtB1b_3BarINtB1b_3BazB2A_EENtNtNtCsHIej2QEFI5_3std2io5stdio5StdinEB1b_
FN:56,_RINvNtCs2XBbTT2Tgsj_18test_fuzz_internal12serde_format11deserializeINtNvMNtCsaVSfY7O0uYs_7generic33struct_target_where_clause_fuzz__INtB19_11UsingReaderpE9read_args4ArgsNtB1b_3BarINtB1b_3BazB2H_EENtNtNtCsHIej2QEFI5_3std2io5stdio5StdinEB1b_
FN:56,_RINvNtCs2XBbTT2Tgsj_18test_fuzz_internal12serde_format11deserializeINtNvMNtCskkeazd6lurB_15associated_type20serializes_to_fuzz__INtB19_11UsingReaderpE9read_args4ArgsNtB1b_7AddressENtNtNtCsHIej2QEFI5_3std2io5stdio5StdinEB1b_
FN:56,_RINvNtCs2XBbTT2Tgsj_18test_fuzz_internal12serde_format11deserializeINtNvMNtNtCsaVSfY7O0uYs_7generic27receiverless_trait_function20struct_target_fuzz__INtB19_11UsingReaderpE9read_args4ArgsNtB1d_3BarENtNtNtCsHIej2QEFI5_3std2io5stdio5StdinEB1d_
FN:56,_RINvNtCs2XBbTT2Tgsj_18test_fuzz_internal12serde_format11deserializeNtNvMNtCs2zeNb6jgslg_19self_ty_in_mod_name20struct_target_fuzz__INtB18_11UsingReaderpE9read_args4ArgsNtNtNtCsHIej2QEFI5_3std2io5stdio5StdinEB1a_
FN:56,_RINvNtCs2XBbTT2Tgsj_18test_fuzz_internal12serde_format11deserializeNtNvMNtCs4MGHVrkl72m_4from15bar_from_fuzz__INtB18_11UsingReaderpE9read_args4ArgsNtNtNtCsHIej2QEFI5_3std2io5stdio5StdinEB1a_
FN:56,_RINvNtCs2XBbTT2Tgsj_18test_fuzz_internal12serde_format11deserializeNtNvMNtCs4MGHVrkl72m_4from15baz_into_fuzz__INtB18_11UsingReaderpE9read_args4ArgsNtNtNtCsHIej2QEFI5_3std2io5stdio5StdinEB1a_
FN:56,_RINvNtCs2XBbTT2Tgsj_18test_fuzz_internal12serde_format11deserializeNtNvMNtCs4MGHVrkl72m_4from19baz_try_from_fuzz__INtB18_11UsingReaderpE9read_args4ArgsNtNtNtCsHIej2QEFI5_3std2io5stdio5StdinEB1a_
FN:56,_RINvNtCs2XBbTT2Tgsj_18test_fuzz_internal12serde_format11deserializeNtNvMNtCs4jNeg51vteg_8lifetime13target_fuzz__INtB18_11UsingReaderpE9read_args4ArgsNtNtNtCsHIej2QEFI5_3std2io5stdio5StdinEB1a_
FN:56,_RINvNtCs2XBbTT2Tgsj_18test_fuzz_internal12serde_format11deserializeNtNvMNtCs5fNIG3PZaJo_11hello_world19intermediary_fuzz__INtB18_11UsingReaderpE9read_args4ArgsNtNtNtCsHIej2QEFI5_3std2io5stdio5StdinEB1a_
FN:56,_RINvNtCs2XBbTT2Tgsj_18test_fuzz_internal12serde_format11deserializeNtNvMNtCs6fBdTSegfKf_14test_fuzz_impl17struct_bar_fuzz__INtB18_11UsingReaderpE9read_args4ArgsNtNtNtCsHIej2QEFI5_3std2io5stdio5StdinEB1a_
FN:56,_RINvNtCs2XBbTT2Tgsj_18test_fuzz_internal12serde_format11deserializeNtNvMNtCs6fBdTSegfKf_14test_fuzz_impl17struct_foo_fuzz__INtB18_11UsingReaderpE9read_args4ArgsNtNtNtCsHIej2QEFI5_3std2io5stdio5StdinEB1a_
FN:56,_RINvNtCs2XBbTT2Tgsj_18test_fuzz_internal12serde_format11deserializeNtNvMNtCs6z3aMDs3O5H_14parse_duration12parse_fuzz__INtB18_11UsingReaderpE9read_args4ArgsNtNtNtCsHIej2QEFI5_3std2io5stdio5StdinEB1a_
FN:56,_RINvNtCs2XBbTT2Tgsj_18test_fuzz_internal12serde_format11deserializeNtNvMNtCs7l6y1YLWhzH_5alloc13target_fuzz__INtB18_11UsingReaderpE9read_args4ArgsNtNtNtCsHIej2QEFI5_3std2io5stdio5StdinEB1a_
FN:56,_RINvNtCs2XBbTT2Tgsj_18test_fuzz_internal12serde_format11deserializeNtNvMNtCs9i11WczUoNj_7profile13target_fuzz__INtB18_11UsingReaderpE9read_args4ArgsNtNtNtCsHIej2QEFI5_3std2io5stdio5StdinEB1a_
FN:56,_RINvNtCs2XBbTT2Tgsj_18test_fuzz_internal12serde_format11deserializeNtNvMNtCsb7JfYwj8ipQ_10serde_attr13target_fuzz__INtB18_11UsingReaderpE9read_args4ArgsNtNtNtCsHIej2QEFI5_3std2io5stdio5StdinEB1a_
FN:56,_RINvNtCs2XBbTT2Tgsj_18test_fuzz_internal12serde_format11deserializeNtNvMNtCsbupd9d71YLx_16calm_and_panicky11calm_fuzz__INtB18_11UsingReaderpE9read_args4ArgsNtNtNtCsHIej2QEFI5_3std2io5stdio5StdinEB1a_
FN:56,_RINvNtCs2XBbTT2Tgsj_18test_fuzz_internal12serde_format11deserializeNtNvMNtCsbupd9d71YLx_16calm_and_panicky14panicky_fuzz__INtB18_11UsingReaderpE9read_args4ArgsNtNtNtCsHIej2QEFI5_3std2io5stdio5StdinEB1a_
FN:56,_RINvNtCs2XBbTT2Tgsj_18test_fuzz_internal12serde_format11deserializeNtNvMNtCscaf2gEuSGn5_6qwerty13target_fuzz__INtB18_11UsingReaderpE9read_args4ArgsNtNtNtCsHIej2QEFI5_3std2io5stdio5StdinEB1a_
FN:56,_RINvNtCs2XBbTT2Tgsj_18test_fuzz_internal12serde_format11deserializeNtNvMNtCsfEcBWhN4Na3_3arc13target_fuzz__INtB18_11UsingReaderpE9read_args4ArgsNtNtNtCsHIej2QEFI5_3std2io5stdio5StdinEB1a_
FN:56,_RINvNtCs2XBbTT2Tgsj_18test_fuzz_internal12serde_format11deserializeNtNvMNtCsfODoU0UL7aq_11manual_leak23wrapped_key_dump_fuzz__INtB18_11UsingReaderpE9read_args4ArgsNtNtNtCsHIej2QEFI5_3std2io5stdio5StdinEB1a_
FN:56,_RINvNtCs2XBbTT2Tgsj_18test_fuzz_internal12serde_format11deserializeNtNvMNtCsfOIDT8lUV2L_7mut_ref17target_str_fuzz__INtB18_11UsingReaderpE9read_args4ArgsNtNtNtCsHIej2QEFI5_3std2io5stdio5StdinEB1a_
FN:56,_RINvNtCs2XBbTT2Tgsj_18test_fuzz_internal12serde_format11deserializeNtNvMNtCsfOIDT8lUV2L_7mut_ref19target_slice_fuzz__INtB18_11UsingReaderpE9read_args4ArgsNtNtNtCsHIej2QEFI5_3std2io5stdio5StdinEB1a_
FN:56,_RINvNtCs2XBbTT2Tgsj_18test_fuzz_internal12serde_format11deserializeNtNvMNtCsfrSB0FWCrTD_6rename10bar_fuzz__INtB18_11UsingReaderpE9read_args4ArgsNtNtNtCsHIej2QEFI5_3std2io5stdio5StdinEB1a_
FN:56,_RINvNtCs2XBbTT2Tgsj_18test_fuzz_internal12serde_format11deserializeNtNvMNtCsgZ69XjcSWhh_6assert13target_fuzz__INtB18_11UsingReaderpE9read_args4ArgsNtNtNtCsHIej2QEFI5_3std2io5stdio5StdinEB1a_
FN:56,_RINvNtCs2XBbTT2Tgsj_18test_fuzz_internal12serde_format11deserializeNtNvMNtCsikhsy0ZvG4z_4cast13target_fuzz__INtB18_11UsingReaderpE9read_args4ArgsNtNtNtCsHIej2QEFI5_3std2io5stdio5StdinEB1a_
FN:56,_RINvNtCs2XBbTT2Tgsj_18test_fuzz_internal12serde_format11deserializeNtNvMNtCsjk8KY6qq2Wr_8parallel15target_0_fuzz__INtB18_11UsingReaderpE9read_args4ArgsNtNtNtCsHIej2QEFI5_3std2io5stdio5StdinEB1a_
FN:56,_RINvNtCs2XBbTT2Tgsj_18test_fuzz_internal12serde_format11deserializeNtNvMNtCsjk8KY6qq2Wr_8parallel15target_1_fuzz__INtB18_11UsingReaderpE9read_args4ArgsNtNtNtCsHIej2QEFI5_3std2io5stdio5StdinEB1a_
FN:56,_RINvNtCs2XBbTT2Tgsj_18test_fuzz_internal12serde_format11deserializeNtNvMNtCsjk8KY6qq2Wr_8parallel15target_2_fuzz__INtB18_11UsingReaderpE9read_args4ArgsNtNtNtCsHIej2QEFI5_3std2io5stdio5StdinEB1a_
FN:56,_RINvNtCs2XBbTT2Tgsj_18test_fuzz_internal12serde_format11deserializeNtNvMNtCsjk8KY6qq2Wr_8parallel15target_3_fuzz__INtB18_11UsingReaderpE9read_args4ArgsNtNtNtCsHIej2QEFI5_3std2io5stdio5StdinEB1a_
FN:56,_RINvNtCs2XBbTT2Tgsj_18test_fuzz_internal12serde_format11deserializeNtNvMNtCsjk8KY6qq2Wr_8parallel15target_4_fuzz__INtB18_11UsingReaderpE9read_args4ArgsNtNtNtCsHIej2QEFI5_3std2io5stdio5StdinEB1a_
FN:56,_RINvNtCs2XBbTT2Tgsj_18test_fuzz_internal12serde_format11deserializeNtNvMNtCsjk8KY6qq2Wr_8parallel15target_5_fuzz__INtB18_11UsingReaderpE9read_args4ArgsNtNtNtCsHIej2QEFI5_3std2io5stdio5StdinEB1a_
FN:56,_RINvNtCs2XBbTT2Tgsj_18test_fuzz_internal12serde_format11deserializeNtNvMNtCskPkSWzOTnW2_9collision11test_fuzz__INtB18_11UsingReaderpE9read_args4ArgsNtNtNtCsHIej2QEFI5_3std2io5stdio5StdinEB1a_
FN:56,_RINvNtCs2XBbTT2Tgsj_18test_fuzz_internal12serde_format11deserializeNtNvMNtNtCs4RwwcRvri8p_7default10no_default13target_fuzz__INtB18_11UsingReaderpE9read_args4ArgsNtNtNtCsHIej2QEFI5_3std2io5stdio5StdinEB1c_
FN:56,_RINvNtCs2XBbTT2Tgsj_18test_fuzz_internal12serde_format11deserializeNtNvMNtNtCs4RwwcRvri8p_7default7default13target_fuzz__INtB18_11UsingReaderpE9read_args4ArgsNtNtNtCsHIej2QEFI5_3std2io5stdio5StdinEB1c_
FN:56,_RINvNtCs2XBbTT2Tgsj_18test_fuzz_internal12serde_format11deserializeNtNvMNtNtCsbZ6qTFMlSKY_5serde10byte_array13target_fuzz__INtB18_11UsingReaderpE9read_args4ArgsNtNtNtCsHIej2QEFI5_3std2io5stdio5StdinEB1c_
FN:56,_RINvNtCs2XBbTT2Tgsj_18test_fuzz_internal12serde_format11deserializeNtNvMNtNtCsbZ6qTFMlSKY_5serde11unit_struct13target_fuzz__INtB18_11UsingReaderpE9read_args4ArgsNtNtNtCsHIej2QEFI5_3std2io5stdio5StdinEB1c_
FN:56,_RINvNtCs2XBbTT2Tgsj_18test_fuzz_internal12serde_format11deserializeNtNvMNtNtCsbZ6qTFMlSKY_5serde12tuple_struct13target_fuzz__INtB18_11UsingReaderpE9read_args4ArgsNtNtNtCsHIej2QEFI5_3std2io5stdio5StdinEB1c_
FN:56,_RINvNtCs2XBbTT2Tgsj_18test_fuzz_internal12serde_format11deserializeNtNvMNtNtCsbZ6qTFMlSKY_5serde12unit_variant13target_fuzz__INtB18_11UsingReaderpE9read_args4ArgsNtNtNtCsHIej2QEFI5_3std2io5stdio5StdinEB1c_
FN:56,_RINvNtCs2XBbTT2Tgsj_18test_fuzz_internal12serde_format11deserializeNtNvMNtNtCsbZ6qTFMlSKY_5serde13tuple_variant13target_fuzz__INtB18_11UsingReaderpE9read_args4ArgsNtNtNtCsHIej2QEFI5_3std2io5stdio5StdinEB1c_
FN:56,_RINvNtCs2XBbTT2Tgsj_18test_fuzz_internal12serde_format11deserializeNtNvMNtNtCsbZ6qTFMlSKY_5serde14newtype_struct13target_fuzz__INtB18_11UsingReaderpE9read_args4ArgsNtNtNtCsHIej2QEFI5_3std2io5stdio5StdinEB1c_
FN:56,_RINvNtCs2XBbTT2Tgsj_18test_fuzz_internal12serde_format11deserializeNtNvMNtNtCsbZ6qTFMlSKY_5serde14struct_variant13target_fuzz__INtB18_11UsingReaderpE9read_args4ArgsNtNtNtCsHIej2QEFI5_3std2io5stdio5StdinEB1c_
FN:56,_RINvNtCs2XBbTT2Tgsj_18test_fuzz_internal12serde_format11deserializeNtNvMNtNtCsbZ6qTFMlSKY_5serde15newtype_variant13target_fuzz__INtB18_11UsingReaderpE9read_args4ArgsNtNtNtCsHIej2QEFI5_3std2io5stdio5StdinEB1c_
FN:56,_RINvNtCs2XBbTT2Tgsj_18test_fuzz_internal12serde_format11deserializeNtNvMNtNtCsbZ6qTFMlSKY_5serde3map13target_fuzz__INtB18_11UsingReaderpE9read_args4ArgsNtNtNtCsHIej2QEFI5_3std2io5stdio5StdinEB1c_
FN:56,_RINvNtCs2XBbTT2Tgsj_18test_fuzz_internal12serde_format11deserializeNtNvMNtNtCsbZ6qTFMlSKY_5serde3seq13target_fuzz__INtB18_11UsingReaderpE9read_args4ArgsNtNtNtCsHIej2QEFI5_3std2io5stdio5StdinEB1c_
FN:56,_RINvNtCs2XBbTT2Tgsj_18test_fuzz_internal12serde_format11deserializeNtNvMNtNtCsbZ6qTFMlSKY_5serde4unit13target_fuzz__INtB18_11UsingReaderpE9read_args4ArgsNtNtNtCsHIej2QEFI5_3std2io5stdio5StdinEB1c_
FN:56,_RINvNtCs2XBbTT2Tgsj_18test_fuzz_internal12serde_format11deserializeNtNvMNtNtCsbZ6qTFMlSKY_5serde5tuple13target_fuzz__INtB18_11UsingReaderpE9read_args4ArgsNtNtNtCsHIej2QEFI5_3std2io5stdio5StdinEB1c_
FN:56,_RINvNtCs2XBbTT2Tgsj_18test_fuzz_internal12serde_format11deserializeNtNvMNtNtCsbZ6qTFMlSKY_5serde6option13target_fuzz__INtB18_11UsingReaderpE9read_args4ArgsNtNtNtCsHIej2QEFI5_3std2io5stdio5StdinEB1c_
FN:56,_RINvNtCs2XBbTT2Tgsj_18test_fuzz_internal12serde_format11deserializeNtNvMNtNtCsbZ6qTFMlSKY_5serde6string13target_fuzz__INtB18_11UsingReaderpE9read_args4ArgsNtNtNtCsHIej2QEFI5_3std2io5stdio5StdinEB1c_
FN:56,_RINvNtCs2XBbTT2Tgsj_18test_fuzz_internal12serde_format11deserializeNtNvMNtNtCsbZ6qTFMlSKY_5serde6strukt13target_fuzz__INtB18_11UsingReaderpE9read_args4ArgsNtNtNtCsHIej2QEFI5_3std2io5stdio5StdinEB1c_
FN:56,_RINvNtCs2XBbTT2Tgsj_18test_fuzz_internal12serde_format11deserializeNtNvMNtNtCsfL22ijsdh9Q_5debug4hang13target_fuzz__INtB18_11UsingReaderpE9read_args4ArgsNtNtNtCsHIej2QEFI5_3std2io5stdio5StdinEB1c_
FN:56,_RINvNtCs2XBbTT2Tgsj_18test_fuzz_internal12serde_format11deserializeNtNvMNtNtCsfL22ijsdh9Q_5debug5crash13target_fuzz__INtB18_11UsingReaderpE9read_args4ArgsNtNtNtCsHIej2QEFI5_3std2io5stdio5StdinEB1c_
FN:56,_RINvNtCs2XBbTT2Tgsj_18test_fuzz_internal12serde_format11deserializeNtNvMNtNtCsgyJtF4GtVdY_10conversion11uncloneable13target_fuzz__INtB18_11UsingReaderpE9read_args4ArgsNtNtNtCsHIej2QEFI5_3std2io5stdio5StdinEB1c_
FN:56,_RINvNtCs2XBbTT2Tgsj_18test_fuzz_internal12serde_format11deserializeNtNvMNtNtCsgyJtF4GtVdY_10conversion4path13target_fuzz__INtB18_11UsingReaderpE9read_args4ArgsNtNtNtCsHIej2QEFI5_3std2io5stdio5StdinEB1c_
FN:56,_RINvNtCs2XBbTT2Tgsj_18test_fuzz_internal12serde_format11deserializeNtNvMNtNtCsgyJtF4GtVdY_10conversion5array13target_fuzz__INtB18_11UsingReaderpE9read_args4ArgsNtNtNtCsHIej2QEFI5_3std2io5stdio5StdinEB1c_
FN:56,_RINvNtCs2XBbTT2Tgsj_18test_fuzz_internal12serde_format11deserializeNtNvMNtNtCsgyJtF4GtVdY_10conversion7mutable13target_fuzz__INtB18_11UsingReaderpE9read_args4ArgsNtNtNtCsHIej2QEFI5_3std2io5stdio5StdinEB1c_
FN:56,_RINvNtCs2XBbTT2Tgsj_18test_fuzz_internal12serde_format11deserializeNtNvMNtNtCsgyJtF4GtVdY_10conversion8lifetime13target_fuzz__INtB18_11UsingReaderpE9read_args4ArgsNtNtNtCsHIej2QEFI5_3std2io5stdio5StdinEB1c_
FN:56,_RINvNtCs2XBbTT2Tgsj_18test_fuzz_internal12serde_format11deserializeNtNvMNtNtCsgyJtF4GtVdY_10conversion8receiver20x_target_self_fuzz__INtB18_11UsingReaderpE9read_args4ArgsNtNtNtCsHIej2QEFI5_3std2io5stdio5StdinEB1c_
FN:56,_RINvNtCs2XBbTT2Tgsj_18test_fuzz_internal12serde_format11deserializeNtNvMNtNtCsgyJtF4GtVdY_10conversion8receiver21x_target_other_fuzz__INtB18_11UsingReaderpE9read_args4ArgsNtNtNtCsHIej2QEFI5_3std2io5stdio5StdinEB1c_
FN:56,_RINvNtCs2XBbTT2Tgsj_18test_fuzz_internal12serde_format11deserializeNtNvMNtNtCsiGGxYnMUpAI_13auto_generate6signed13target_fuzz__INtB18_11UsingReaderpE9read_args4ArgsNtNtNtCsHIej2QEFI5_3std2io5stdio5StdinEB1c_
FN:56,_RINvNtCs2XBbTT2Tgsj_18test_fuzz_internal12serde_format11deserializeNtNvMNtNtCsiGGxYnMUpAI_13auto_generate8unsigned13target_fuzz__INtB18_11UsingReaderpE9read_args4ArgsNtNtNtCsHIej2QEFI5_3std2io5stdio5StdinEB1c_
FN:56,_RINvNtCs2XBbTT2Tgsj_18test_fuzz_internal12serde_format11deserializeppEB4_
FN:57,_RNvNtCs2XBbTT2Tgsj_18test_fuzz_internal4dirs28output_directory_from_target
FN:58,_RINvMs0_CseNzKavzW6Gi_17test_fuzz_runtimeINtB6_8TryDebugAhj0_E5applyuECsbZ6qTFMlSKY_5serde
FN:58,_RINvMs0_CseNzKavzW6Gi_17test_fuzz_runtimeINtB6_8TryDebugAhj1_E5applyuECsbZ6qTFMlSKY_5serde
FN:58,_RINvMs0_CseNzKavzW6Gi_17test_fuzz_runtimeINtB6_8TryDebugAhj2_E5applyuECsbZ6qTFMlSKY_5serde
FN:58,_RINvMs0_CseNzKavzW6Gi_17test_fuzz_runtimeINtB6_8TryDebugINtCsaVSfY7O0uYs_7generic3BazNtBV_3BarEE5applyuEBV_
FN:58,_RINvMs0_CseNzKavzW6Gi_17test_fuzz_runtimeINtB6_8TryDebugINtNtCs3XFJfFEDSOQ_4core6option6OptionhEE5applyuECsbZ6qTFMlSKY_5serde
FN:58,_RINvMs0_CseNzKavzW6Gi_17test_fuzz_runtimeINtB6_8TryDebugINtNtCs3XFJfFEDSOQ_4core6result6ResultNtNtBX_4time8DurationNtNtCs3mYhVbIHfbi_14parse_duration5parse5ErrorEE5applyuECs6z3aMDs3O5H_14parse_duration
FN:58,_RINvMs0_CseNzKavzW6Gi_17test_fuzz_runtimeINtB6_8TryDebugINtNtCsgag4BwXrjBQ_5alloc3vec3VechEE5applyuECsbZ6qTFMlSKY_5serde
FN:58,_RINvMs0_CseNzKavzW6Gi_17test_fuzz_runtimeINtB6_8TryDebugINtNtCsgag4BwXrjBQ_5alloc3vec3VechEE5applyuECsfOIDT8lUV2L_7mut_ref
FN:58,_RINvMs0_CseNzKavzW6Gi_17test_fuzz_runtimeINtB6_8TryDebugINtNtCsgag4BwXrjBQ_5alloc4sync3ArcINtNtNtNtCsHIej2QEFI5_3std11collections4hash3set7HashSetmEEE5applyuECsfEcBWhN4Na3_3arc
FN:58,_RINvMs0_CseNzKavzW6Gi_17test_fuzz_runtimeINtB6_8TryDebugINtNtNtNtCsHIej2QEFI5_3std11collections4hash3set7HashSethEE5applyuECsbZ6qTFMlSKY_5serde
FN:58,_RINvMs0_CseNzKavzW6Gi_17test_fuzz_runtimeINtB6_8TryDebugINtNtNtNtCsgag4BwXrjBQ_5alloc11collections5btree3map8BTreeMaphhEE5applyuECsbZ6qTFMlSKY_5serde
FN:58,_RINvMs0_CseNzKavzW6Gi_17test_fuzz_runtimeINtB6_8TryDebugNtCsaVSfY7O0uYs_7generic3BarE5applyuEBU_
FN:58,_RINvMs0_CseNzKavzW6Gi_17test_fuzz_runtimeINtB6_8TryDebugNtCsaVSfY7O0uYs_7generic6StructE5applyuEBU_
FN:58,_RINvMs0_CseNzKavzW6Gi_17test_fuzz_runtimeINtB6_8TryDebugNtCsfODoU0UL7aq_11manual_leak10WrappedKeyE5applyuEBU_
FN:58,_RINvMs0_CseNzKavzW6Gi_17test_fuzz_runtimeINtB6_8TryDebugNtNtCsfL22ijsdh9Q_5debug4hang6StructE5applyuEBW_
FN:58,_RINvMs0_CseNzKavzW6Gi_17test_fuzz_runtimeINtB6_8TryDebugNtNtCsfL22ijsdh9Q_5debug5crash6StructE5applyuEBW_
FN:58,_RINvMs0_CseNzKavzW6Gi_17test_fuzz_runtimeINtB6_8TryDebugNtNtCsgag4BwXrjBQ_5alloc6string6StringE5applyuECs5fNIG3PZaJo_11hello_world
FN:58,_RINvMs0_CseNzKavzW6Gi_17test_fuzz_runtimeINtB6_8TryDebugNtNtCsgag4BwXrjBQ_5alloc6string6StringE5applyuECs6z3aMDs3O5H_14parse_duration
FN:58,_RINvMs0_CseNzKavzW6Gi_17test_fuzz_runtimeINtB6_8TryDebugNtNtCsgag4BwXrjBQ_5alloc6string6StringE5applyuECsbZ6qTFMlSKY_5serde
FN:58,_RINvMs0_CseNzKavzW6Gi_17test_fuzz_runtimeINtB6_8TryDebugNtNtCsgag4BwXrjBQ_5alloc6string6StringE5applyuECscaf2gEuSGn5_6qwerty
FN:58,_RINvMs0_CseNzKavzW6Gi_17test_fuzz_runtimeINtB6_8TryDebugNtNtCsgag4BwXrjBQ_5alloc6string6StringE5applyuECsfOIDT8lUV2L_7mut_ref
FN:58,_RINvMs0_CseNzKavzW6Gi_17test_fuzz_runtimeINtB6_8TryDebugNtNtCsgyJtF4GtVdY_10conversion4path10LeakedPathE5applyuEBW_
FN:58,_RINvMs0_CseNzKavzW6Gi_17test_fuzz_runtimeINtB6_8TryDebugNtNtCsgyJtF4GtVdY_10conversion5array11LeakedArrayE5applyuEBW_
FN:58,_RINvMs0_CseNzKavzW6Gi_17test_fuzz_runtimeINtB6_8TryDebugThEE5applyuECsbZ6qTFMlSKY_5serde
FN:58,_RINvMs0_CseNzKavzW6Gi_17test_fuzz_runtimeINtB6_8TryDebugThhEE5applyuECsbZ6qTFMlSKY_5serde
FN:58,_RINvMs0_CseNzKavzW6Gi_17test_fuzz_runtimeINtB6_8TryDebugbE5applyuECs9i11WczUoNj_7profile
FN:58,_RINvMs0_CseNzKavzW6Gi_17test_fuzz_runtimeINtB6_8TryDebugbE5applyuECsgZ69XjcSWhh_6assert
FN:58,_RINvMs0_CseNzKavzW6Gi_17test_fuzz_runtimeINtB6_8TryDebugbE5applyuECsjk8KY6qq2Wr_8parallel
FN:58,_RINvMs0_CseNzKavzW6Gi_17test_fuzz_runtimeINtB6_8TryDebugbE5applyuECskkeazd6lurB_15associated_type
FN:58,_RINvMs0_CseNzKavzW6Gi_17test_fuzz_runtimeINtB6_8TryDebugjE5applyuECs7l6y1YLWhzH_5alloc
FN:58,_RINvMs0_CseNzKavzW6Gi_17test_fuzz_runtimeINtB6_8TryDebugjE5applyuECsfEcBWhN4Na3_3arc
FN:58,_RINvMs0_CseNzKavzW6Gi_17test_fuzz_runtimeINtB6_8TryDebuglE5applyuECsb7JfYwj8ipQ_10serde_attr
FN:58,_RINvMs0_CseNzKavzW6Gi_17test_fuzz_runtimeINtB6_8TryDebugpE5applypEB6_
FN:58,_RINvMs0_CseNzKavzW6Gi_17test_fuzz_runtimeINtB6_8TryDebuguE5applyuECs2zeNb6jgslg_19self_ty_in_mod_name
FN:58,_RINvMs0_CseNzKavzW6Gi_17test_fuzz_runtimeINtB6_8TryDebuguE5applyuECs4RwwcRvri8p_7default
FN:58,_RINvMs0_CseNzKavzW6Gi_17test_fuzz_runtimeINtB6_8TryDebuguE5applyuECs4jNeg51vteg_8lifetime
FN:58,_RINvMs0_CseNzKavzW6Gi_17test_fuzz_runtimeINtB6_8TryDebuguE5applyuECs5fNIG3PZaJo_11hello_world
FN:58,_RINvMs0_CseNzKavzW6Gi_17test_fuzz_runtimeINtB6_8TryDebuguE5applyuECs6fBdTSegfKf_14test_fuzz_impl
FN:58,_RINvMs0_CseNzKavzW6Gi_17test_fuzz_runtimeINtB6_8TryDebuguE5applyuECs7l6y1YLWhzH_5alloc
FN:58,_RINvMs0_CseNzKavzW6Gi_17test_fuzz_runtimeINtB6_8TryDebuguE5applyuECs9i11WczUoNj_7profile
FN:58,_RINvMs0_CseNzKavzW6Gi_17test_fuzz_runtimeINtB6_8TryDebuguE5applyuECsaVSfY7O0uYs_7generic
FN:58,_RINvMs0_CseNzKavzW6Gi_17test_fuzz_runtimeINtB6_8TryDebuguE5applyuECsb7JfYwj8ipQ_10serde_attr
FN:58,_RINvMs0_CseNzKavzW6Gi_17test_fuzz_runtimeINtB6_8TryDebuguE5applyuECsbZ6qTFMlSKY_5serde
FN:58,_RINvMs0_CseNzKavzW6Gi_17test_fuzz_runtimeINtB6_8TryDebuguE5applyuECsbupd9d71YLx_16calm_and_panicky
FN:58,_RINvMs0_CseNzKavzW6Gi_17test_fuzz_runtimeINtB6_8TryDebuguE5applyuECscaf2gEuSGn5_6qwerty
FN:58,_RINvMs0_CseNzKavzW6Gi_17test_fuzz_runtimeINtB6_8TryDebuguE5applyuECsfEcBWhN4Na3_3arc
FN:58,_RINvMs0_CseNzKavzW6Gi_17test_fuzz_runtimeINtB6_8TryDebuguE5applyuECsfL22ijsdh9Q_5debug
FN:58,_RINvMs0_CseNzKavzW6Gi_17test_fuzz_runtimeINtB6_8TryDebuguE5applyuECsfODoU0UL7aq_11manual_leak
FN:58,_RINvMs0_CseNzKavzW6Gi_17test_fuzz_runtimeINtB6_8TryDebuguE5applyuECsfOIDT8lUV2L_7mut_ref
FN:58,_RINvMs0_CseNzKavzW6Gi_17test_fuzz_runtimeINtB6_8TryDebuguE5applyuECsfrSB0FWCrTD_6rename
FN:58,_RINvMs0_CseNzKavzW6Gi_17test_fuzz_runtimeINtB6_8TryDebuguE5applyuECsgZ69XjcSWhh_6assert
FN:58,_RINvMs0_CseNzKavzW6Gi_17test_fuzz_runtimeINtB6_8TryDebuguE5applyuECsgyJtF4GtVdY_10conversion
FN:58,_RINvMs0_CseNzKavzW6Gi_17test_fuzz_runtimeINtB6_8TryDebuguE5applyuECsiGGxYnMUpAI_13auto_generate
FN:58,_RINvMs0_CseNzKavzW6Gi_17test_fuzz_runtimeINtB6_8TryDebuguE5applyuECsikhsy0ZvG4z_4cast
FN:58,_RINvMs0_CseNzKavzW6Gi_17test_fuzz_runtimeINtB6_8TryDebuguE5applyuECsjk8KY6qq2Wr_8parallel
FN:58,_RINvMs0_CseNzKavzW6Gi_17test_fuzz_runtimeINtB6_8TryDebuguE5applyuECskPkSWzOTnW2_9collision
FN:58,_RINvMs0_CseNzKavzW6Gi_17test_fuzz_runtimeINtB6_8TryDebugxE5applyuECsiGGxYnMUpAI_13auto_generate
FN:58,_RINvMs0_CseNzKavzW6Gi_17test_fuzz_runtimeINtB6_8TryDebugyE5applyuECsiGGxYnMUpAI_13auto_generate
FN:58,_RINvMs0_CseNzKavzW6Gi_17test_fuzz_runtimeINtB6_8TryDebugyE5applyuECsikhsy0ZvG4z_4cast
FN:62,_RINvNtCsR0Fn1Tqyat_9test_fuzz5utils13serialize_refINtNtNtNtCskruJqO5s2DS_7bincode8features5serde3ser12SerdeEncoderINtNtNtBV_3enc7encoder11EncoderImplNtNtBT_10impl_alloc9VecWriterINtNtBV_6config13ConfigurationNtB2T_12LittleEndianNtB2T_6VarintINtB2T_5LimitKj40000000_EEEEAhj20_ECsfODoU0UL7aq_11manual_leak
FN:62,_RNvNtCs2XBbTT2Tgsj_18test_fuzz_internal4dirs27impl_generic_args_directory
FN:66,_RNvXs_NtCs4oWu7nXEoFY_15test_fuzz_macro10type_utilsNtB4_16TurbofishVisitorNtNtNtCsdIfci7uKNPV_3syn3gen5visit5Visit20visit_path_arguments
FN:67,_RNCNvCs4oWu7nXEoFY_15test_fuzz_macro14test_fuzz_impl0B3_
FN:68,_RINvCsh5MssUcn8TK_17serde_combinators17compose_serializeINtNtNtNtCskruJqO5s2DS_7bincode8features5serde3ser12SerdeEncoderINtNtNtB11_3enc7encoder11EncoderImplNtNtBZ_10impl_alloc9VecWriterINtNtB11_6config13ConfigurationNtB30_12LittleEndianNtB30_6VarintINtB30_5LimitKj40000000_EEEEAhj20_B4r_INvYINtNtB2_5type_4TypeB4r_ENtB2_13SerializeWith9serializeBS_ENCINvXNtB2_4ref_INtB5H_4RefFB4F_EB53_9serializeBS_E0ECsfODoU0UL7aq_11manual_leak
FN:68,_RNvNtCs2XBbTT2Tgsj_18test_fuzz_internal4dirs22generic_args_directory
FN:74,_RNvNtCs2XBbTT2Tgsj_18test_fuzz_internal4dirs16corpus_directory
FN:75,_RINvNtCsR0Fn1Tqyat_9test_fuzz5utils15deserialize_refINtNtNtNtCskruJqO5s2DS_7bincode8features5serde8de_owned12SerdeDecoderINtNtNtBX_2de7decoder11DecoderImplINtNtBV_8impl_std8IoReaderQNtNtNtCsHIej2QEFI5_3std2io5stdio5StdinEINtNtBX_6config13ConfigurationNtB3A_12LittleEndianNtB3A_6VarintINtB3A_5LimitKj40000000_EEuEEAhj20_ECsfODoU0UL7aq_11manual_leak
FN:76,_RNCINvCsh5MssUcn8TK_17serde_combinators17compose_serializeINtNtNtNtCskruJqO5s2DS_7bincode8features5serde3ser12SerdeEncoderINtNtNtB13_3enc7encoder11EncoderImplNtNtB11_10impl_alloc9VecWriterINtNtB13_6config13ConfigurationNtB33_12LittleEndianNtB33_6VarintINtB33_5LimitKj40000000_EEEEAhj20_B4u_INvYINtNtB4_5type_4TypeB4u_ENtB4_13SerializeWith9serializeBU_ENCINvXNtB4_4ref_INtB5K_4RefFB4I_EB56_9serializeBU_E0E0CsfODoU0UL7aq_11manual_leak
FN:76,_RNvXININvMs1_NtCs4jNeg51vteg_8lifetime13target_fuzz__NtBb_4Args13auto_generatesa_0ppEpINtB5_s4_12AutoFallbackpE4autoBd_
FN:76,_RNvXININvMs1_NtCs5fNIG3PZaJo_11hello_world19intermediary_fuzz__NtBb_4Args13auto_generates0_0ppEpINtB5_s_12AutoFallbackpE4autoBd_
FN:76,_RNvXININvMs1_NtCs6ZJvwNFZ5Lo_11return_type16swap_swap_fuzz__INtBb_4ArgsppE13auto_generatesa_0ppEpINtB5_s4_12AutoFallbackpE4autoBd_
FN:76,_RNvXININvMs1_NtCs6ZJvwNFZ5Lo_11return_type16swap_swap_fuzz__INtBb_4ArgsppE13auto_generatesk_0ppEpINtB5_s9_12AutoFallbackpE4autoBd_
FN:76,_RNvXININvMs1_NtCs6z3aMDs3O5H_14parse_duration12parse_fuzz__NtBb_4Args13auto_generates0_0ppEpINtB5_s_12AutoFallbackpE4autoBd_
FN:76,_RNvXININvMs1_NtCs7l6y1YLWhzH_5alloc13target_fuzz__NtBb_4Args13auto_generate0ppEpINtB5_12AutoFallbackpE4autoBd_
FN:76,_RNvXININvMs1_NtCs7l6y1YLWhzH_5alloc13target_fuzz__NtBb_4Args13auto_generates0_0ppEpINtB5_s_12AutoFallbackpE4autoBd_
FN:76,_RNvXININvMs1_NtCs7l6y1YLWhzH_5alloc13target_fuzz__NtBb_4Args13auto_generates2_0ppEpINtB5_s0_12AutoFallbackpE4autoBd_
FN:76,_RNvXININvMs1_NtCs7l6y1YLWhzH_5alloc13target_fuzz__NtBb_4Args13auto_generates4_0ppEpINtB5_s1_12AutoFallbackpE4autoBd_
FN:76,_RNvXININvMs1_NtCs7l6y1YLWhzH_5alloc13target_fuzz__NtBb_4Args13auto_generates6_0ppEpINtB5_s2_12AutoFallbackpE4autoBd_
FN:76,_RNvXININvMs1_NtCs8VL8JzDaoWz_11hello_world19intermediary_fuzz__NtBb_4Args13auto_generate0ppEpINtB5_12AutoFallbackpE4autoBd_
FN:76,_RNvXININvMs1_NtCs8VL8JzDaoWz_11hello_world19intermediary_fuzz__NtBb_4Args13auto_generates0_0ppEpINtB5_s_12AutoFallbackpE4autoBd_
FN:76,_RNvXININvMs1_NtCs8VL8JzDaoWz_11hello_world19intermediary_fuzz__NtBb_4Args13auto_generates2_0ppEpINtB5_s0_12AutoFallbackpE4autoBd_
FN:76,_RNvXININvMs1_NtCs8VL8JzDaoWz_11hello_world19intermediary_fuzz__NtBb_4Args13auto_generates4_0ppEpINtB5_s1_12AutoFallbackpE4autoBd_
FN:76,_RNvXININvMs1_NtCs8VL8JzDaoWz_11hello_world19intermediary_fuzz__NtBb_4Args13auto_generates6_0ppEpINtB5_s2_12AutoFallbackpE4autoBd_
FN:76,_RNvXININvMs1_NtCs9i11WczUoNj_7profile13target_fuzz__NtBb_4Args13auto_generates0_0ppEpINtB5_s_12AutoFallbackpE4autoBd_
FN:76,_RNvXININvMs1_NtCsaVSfY7O0uYs_7generic14baz_qux_fuzz__INtBb_4ArgspE13auto_generates0_0ppEpINtB5_s_12AutoFallbackpE4autoBd_
FN:76,_RNvXININvMs1_NtCsaVSfY7O0uYs_7generic20struct_target_fuzz__INtBb_4ArgspE13auto_generatesk_0ppEpINtB5_s9_12AutoFallbackpE4autoBd_
FN:76,_RNvXININvMs1_NtCsaVSfY7O0uYs_7generic26struct_target_bound_fuzz__INtBb_4ArgsppE13auto_generatesE_0ppEpINtB5_sj_12AutoFallbackpE4autoBd_
FN:76,_RNvXININvMs1_NtCsaVSfY7O0uYs_7generic26struct_target_bound_fuzz__INtBb_4ArgsppE13auto_generatesu_0ppEpINtB5_se_12AutoFallbackpE4autoBd_
FN:76,_RNvXININvMs1_NtCsaVSfY7O0uYs_7generic33struct_target_where_clause_fuzz__INtBb_4ArgsppE13auto_generatesE_0ppEpINtB5_sj_12AutoFallbackpE4autoBd_
FN:76,_RNvXININvMs1_NtCsaVSfY7O0uYs_7generic33struct_target_where_clause_fuzz__INtBb_4ArgsppE13auto_generatesu_0ppEpINtB5_se_12AutoFallbackpE4autoBd_
FN:76,_RNvXININvMs1_NtCsb7JfYwj8ipQ_10serde_attr13target_fuzz__NtBb_4Args13auto_generates0_0ppEpINtB5_s_12AutoFallbackpE4autoBd_
FN:76,_RNvXININvMs1_NtCsb7JfYwj8ipQ_10serde_attr13target_fuzz__NtBb_4Args13auto_generates8_0ppEpINtB5_s3_12AutoFallbackpE4autoBd_
FN:76,_RNvXININvMs1_NtCsb7JfYwj8ipQ_10serde_attr13target_fuzz__NtBb_4Args13auto_generatesa_0ppEpINtB5_s4_12AutoFallbackpE4autoBd_
FN:76,_RNvXININvMs1_NtCsb7JfYwj8ipQ_10serde_attr13target_fuzz__NtBb_4Args13auto_generatesc_0ppEpINtB5_s5_12AutoFallbackpE4autoBd_
FN:76,_RNvXININvMs1_NtCsb7JfYwj8ipQ_10serde_attr13target_fuzz__NtBb_4Args13auto_generatese_0ppEpINtB5_s6_12AutoFallbackpE4autoBd_
FN:76,_RNvXININvMs1_NtCsb7JfYwj8ipQ_10serde_attr13target_fuzz__NtBb_4Args13auto_generatesg_0ppEpINtB5_s7_12AutoFallbackpE4autoBd_
FN:76,_RNvXININvMs1_NtCscaf2gEuSGn5_6qwerty13target_fuzz__NtBb_4Args13auto_generates0_0ppEpINtB5_s_12AutoFallbackpE4autoBd_
FN:76,_RNvXININvMs1_NtCsfEcBWhN4Na3_3arc13target_fuzz__NtBb_4Args13auto_generates0_0ppEpINtB5_s_12AutoFallbackpE4autoBd_
FN:76,_RNvXININvMs1_NtCsfEcBWhN4Na3_3arc13target_fuzz__NtBb_4Args13auto_generates8_0ppEpINtB5_s3_12AutoFallbackpE4autoBd_
FN:76,_RNvXININvMs1_NtCsfEcBWhN4Na3_3arc13target_fuzz__NtBb_4Args13auto_generatesa_0ppEpINtB5_s4_12AutoFallbackpE4autoBd_
FN:76,_RNvXININvMs1_NtCsfEcBWhN4Na3_3arc13target_fuzz__NtBb_4Args13auto_generatesc_0ppEpINtB5_s5_12AutoFallbackpE4autoBd_
FN:76,_RNvXININvMs1_NtCsfEcBWhN4Na3_3arc13target_fuzz__NtBb_4Args13auto_generatese_0ppEpINtB5_s6_12AutoFallbackpE4autoBd_
FN:76,_RNvXININvMs1_NtCsfEcBWhN4Na3_3arc13target_fuzz__NtBb_4Args13auto_generatesg_0ppEpINtB5_s7_12AutoFallbackpE4autoBd_
FN:76,_RNvXININvMs1_NtCsfODoU0UL7aq_11manual_leak23wrapped_key_dump_fuzz__NtBb_4Args13auto_generatesa_0ppEpINtB5_s4_12AutoFallbackpE4autoBd_
FN:76,_RNvXININvMs1_NtCsfOIDT8lUV2L_7mut_ref17target_str_fuzz__NtBb_4Args13auto_generates0_0ppEpINtB5_s_12AutoFallbackpE4autoBd_
FN:76,_RNvXININvMs1_NtCsfOIDT8lUV2L_7mut_ref19target_slice_fuzz__NtBb_4Args13auto_generates0_0ppEpINtB5_s_12AutoFallbackpE4autoBd_
FN:76,_RNvXININvMs1_NtCsgZ69XjcSWhh_6assert13target_fuzz__NtBb_4Args13auto_generates0_0ppEpINtB5_s_12AutoFallbackpE4autoBd_
FN:76,_RNvXININvMs1_NtCsikhsy0ZvG4z_4cast13target_fuzz__NtBb_4Args13auto_generate0ppEpINtB5_12AutoFallbackpE4autoBd_
FN:76,_RNvXININvMs1_NtCsikhsy0ZvG4z_4cast13target_fuzz__NtBb_4Args13auto_generates0_0ppEpINtB5_s_12AutoFallbackpE4autoBd_
FN:76,_RNvXININvMs1_NtCsikhsy0ZvG4z_4cast13target_fuzz__NtBb_4Args13auto_generates2_0ppEpINtB5_s0_12AutoFallbackpE4autoBd_
FN:76,_RNvXININvMs1_NtCsikhsy0ZvG4z_4cast13target_fuzz__NtBb_4Args13auto_generates4_0ppEpINtB5_s1_12AutoFallbackpE4autoBd_
FN:76,_RNvXININvMs1_NtCsikhsy0ZvG4z_4cast13target_fuzz__NtBb_4Args13auto_generates6_0ppEpINtB5_s2_12AutoFallbackpE4autoBd_
FN:76,_RNvXININvMs1_NtCsjk8KY6qq2Wr_8parallel15target_0_fuzz__NtBb_4Args13auto_generates0_0ppEpINtB5_s_12AutoFallbackpE4autoBd_
FN:76,_RNvXININvMs1_NtCsjk8KY6qq2Wr_8parallel15target_1_fuzz__NtBb_4Args13auto_generates0_0ppEpINtB5_s_12AutoFallbackpE4autoBd_
FN:76,_RNvXININvMs1_NtCsjk8KY6qq2Wr_8parallel15target_2_fuzz__NtBb_4Args13auto_generates0_0ppEpINtB5_s_12AutoFallbackpE4autoBd_
FN:76,_RNvXININvMs1_NtCsjk8KY6qq2Wr_8parallel15target_3_fuzz__NtBb_4Args13auto_generates0_0ppEpINtB5_s_12AutoFallbackpE4autoBd_
FN:76,_RNvXININvMs1_NtCsjk8KY6qq2Wr_8parallel15target_4_fuzz__NtBb_4Args13auto_generates0_0ppEpINtB5_s_12AutoFallbackpE4autoBd_
FN:76,_RNvXININvMs1_NtCsjk8KY6qq2Wr_8parallel15target_5_fuzz__NtBb_4Args13auto_generates0_0ppEpINtB5_s_12AutoFallbackpE4autoBd_
FN:76,_RNvXININvMs1_NtCskkeazd6lurB_15associated_type20serializes_to_fuzz__INtBb_4ArgspE13auto_generatesk_0ppEpINtB5_s9_12AutoFallbackpE4autoBd_
FN:76,_RNvXININvMs1_NtNtCs4RwwcRvri8p_7default7default13target_fuzz__NtBb_4Args13auto_generates0_0ppEpINtB5_s_12AutoFallbackpE4autoBf_
FN:76,_RNvXININvMs1_NtNtCsaVSfY7O0uYs_7generic27receiverless_trait_function20struct_target_fuzz__INtBb_4ArgspE13auto_generatesa_0ppEpINtB5_s4_12AutoFallbackpE4autoBf_
FN:76,_RNvXININvMs1_NtNtCsbZ6qTFMlSKY_5serde10byte_array13target_fuzz__NtBb_4Args13auto_generates0_0ppEpINtB5_s_12AutoFallbackpE4autoBf_
FN:76,_RNvXININvMs1_NtNtCsbZ6qTFMlSKY_5serde10byte_array13target_fuzz__NtBb_4Args13auto_generates18_0ppEpINtB5_sy_12AutoFallbackpE4autoBf_
FN:76,_RNvXININvMs1_NtNtCsbZ6qTFMlSKY_5serde10byte_array13target_fuzz__NtBb_4Args13auto_generates1i_0ppEpINtB5_sD_12AutoFallbackpE4autoBf_
FN:76,_RNvXININvMs1_NtNtCsbZ6qTFMlSKY_5serde10byte_array13target_fuzz__NtBb_4Args13auto_generatesE_0ppEpINtB5_sj_12AutoFallbackpE4autoBf_
FN:76,_RNvXININvMs1_NtNtCsbZ6qTFMlSKY_5serde10byte_array13target_fuzz__NtBb_4Args13auto_generatesO_0ppEpINtB5_so_12AutoFallbackpE4autoBf_
FN:76,_RNvXININvMs1_NtNtCsbZ6qTFMlSKY_5serde10byte_array13target_fuzz__NtBb_4Args13auto_generatesY_0ppEpINtB5_st_12AutoFallbackpE4autoBf_
FN:76,_RNvXININvMs1_NtNtCsbZ6qTFMlSKY_5serde10byte_array13target_fuzz__NtBb_4Args13auto_generatesa_0ppEpINtB5_s4_12AutoFallbackpE4autoBf_
FN:76,_RNvXININvMs1_NtNtCsbZ6qTFMlSKY_5serde10byte_array13target_fuzz__NtBb_4Args13auto_generatesk_0ppEpINtB5_s9_12AutoFallbackpE4autoBf_
FN:76,_RNvXININvMs1_NtNtCsbZ6qTFMlSKY_5serde10byte_array13target_fuzz__NtBb_4Args13auto_generatesu_0ppEpINtB5_se_12AutoFallbackpE4autoBf_
FN:76,_RNvXININvMs1_NtNtCsbZ6qTFMlSKY_5serde11unit_struct13target_fuzz__NtBb_4Args13auto_generates0_0ppEpINtB5_s_12AutoFallbackpE4autoBf_
FN:76,_RNvXININvMs1_NtNtCsbZ6qTFMlSKY_5serde11unit_struct13target_fuzz__NtBb_4Args13auto_generatesa_0ppEpINtB5_s4_12AutoFallbackpE4autoBf_
FN:76,_RNvXININvMs1_NtNtCsbZ6qTFMlSKY_5serde11unit_struct13target_fuzz__NtBb_4Args13auto_generatesk_0ppEpINtB5_s9_12AutoFallbackpE4autoBf_
FN:76,_RNvXININvMs1_NtNtCsbZ6qTFMlSKY_5serde12tuple_struct13target_fuzz__NtBb_4Args13auto_generates0_0ppEpINtB5_s_12AutoFallbackpE4autoBf_
FN:76,_RNvXININvMs1_NtNtCsbZ6qTFMlSKY_5serde12tuple_struct13target_fuzz__NtBb_4Args13auto_generatesa_0ppEpINtB5_s4_12AutoFallbackpE4autoBf_
FN:76,_RNvXININvMs1_NtNtCsbZ6qTFMlSKY_5serde12tuple_struct13target_fuzz__NtBb_4Args13auto_generatesk_0ppEpINtB5_s9_12AutoFallbackpE4autoBf_
FN:76,_RNvXININvMs1_NtNtCsbZ6qTFMlSKY_5serde13tuple_variant13target_fuzz__NtBb_4Args13auto_generates0_0ppEpINtB5_s_12AutoFallbackpE4autoBf_
FN:76,_RNvXININvMs1_NtNtCsbZ6qTFMlSKY_5serde13tuple_variant13target_fuzz__NtBb_4Args13auto_generatesa_0ppEpINtB5_s4_12AutoFallbackpE4autoBf_
FN:76,_RNvXININvMs1_NtNtCsbZ6qTFMlSKY_5serde13tuple_variant13target_fuzz__NtBb_4Args13auto_generatesk_0ppEpINtB5_s9_12AutoFallbackpE4autoBf_
FN:76,_RNvXININvMs1_NtNtCsbZ6qTFMlSKY_5serde14newtype_struct13target_fuzz__NtBb_4Args13auto_generates0_0ppEpINtB5_s_12AutoFallbackpE4autoBf_
FN:76,_RNvXININvMs1_NtNtCsbZ6qTFMlSKY_5serde14newtype_struct13target_fuzz__NtBb_4Args13auto_generatesa_0ppEpINtB5_s4_12AutoFallbackpE4autoBf_
FN:76,_RNvXININvMs1_NtNtCsbZ6qTFMlSKY_5serde14newtype_struct13target_fuzz__NtBb_4Args13auto_generatesk_0ppEpINtB5_s9_12AutoFallbackpE4autoBf_
FN:76,_RNvXININvMs1_NtNtCsbZ6qTFMlSKY_5serde14struct_variant13target_fuzz__NtBb_4Args13auto_generates0_0ppEpINtB5_s_12AutoFallbackpE4autoBf_
FN:76,_RNvXININvMs1_NtNtCsbZ6qTFMlSKY_5serde14struct_variant13target_fuzz__NtBb_4Args13auto_generatesa_0ppEpINtB5_s4_12AutoFallbackpE4autoBf_
FN:76,_RNvXININvMs1_NtNtCsbZ6qTFMlSKY_5serde14struct_variant13target_fuzz__NtBb_4Args13auto_generatesk_0ppEpINtB5_s9_12AutoFallbackpE4autoBf_
FN:76,_RNvXININvMs1_NtNtCsbZ6qTFMlSKY_5serde15newtype_variant13target_fuzz__NtBb_4Args13auto_generates0_0ppEpINtB5_s_12AutoFallbackpE4autoBf_
FN:76,_RNvXININvMs1_NtNtCsbZ6qTFMlSKY_5serde15newtype_variant13target_fuzz__NtBb_4Args13auto_generatesa_0ppEpINtB5_s4_12AutoFallbackpE4autoBf_
FN:76,_RNvXININvMs1_NtNtCsbZ6qTFMlSKY_5serde15newtype_variant13target_fuzz__NtBb_4Args13auto_generatesk_0ppEpINtB5_s9_12AutoFallbackpE4autoBf_
FN:76,_RNvXININvMs1_NtNtCsbZ6qTFMlSKY_5serde3map13target_fuzz__NtBb_4Args13auto_generates0_0ppEpINtB5_s_12AutoFallbackpE4autoBf_
FN:76,_RNvXININvMs1_NtNtCsbZ6qTFMlSKY_5serde3map13target_fuzz__NtBb_4Args13auto_generatesa_0ppEpINtB5_s4_12AutoFallbackpE4autoBf_
FN:76,_RNvXININvMs1_NtNtCsbZ6qTFMlSKY_5serde3map13target_fuzz__NtBb_4Args13auto_generatesk_0ppEpINtB5_s9_12AutoFallbackpE4autoBf_
FN:76,_RNvXININvMs1_NtNtCsbZ6qTFMlSKY_5serde3seq13target_fuzz__NtBb_4Args13auto_generates0_0ppEpINtB5_s_12AutoFallbackpE4autoBf_
FN:76,_RNvXININvMs1_NtNtCsbZ6qTFMlSKY_5serde3seq13target_fuzz__NtBb_4Args13auto_generatesE_0ppEpINtB5_sj_12AutoFallbackpE4autoBf_
FN:76,_RNvXININvMs1_NtNtCsbZ6qTFMlSKY_5serde3seq13target_fuzz__NtBb_4Args13auto_generatesO_0ppEpINtB5_so_12AutoFallbackpE4autoBf_
FN:76,_RNvXININvMs1_NtNtCsbZ6qTFMlSKY_5serde3seq13target_fuzz__NtBb_4Args13auto_generatesY_0ppEpINtB5_st_12AutoFallbackpE4autoBf_
FN:76,_RNvXININvMs1_NtNtCsbZ6qTFMlSKY_5serde3seq13target_fuzz__NtBb_4Args13auto_generatesa_0ppEpINtB5_s4_12AutoFallbackpE4autoBf_
FN:76,_RNvXININvMs1_NtNtCsbZ6qTFMlSKY_5serde3seq13target_fuzz__NtBb_4Args13auto_generatesk_0ppEpINtB5_s9_12AutoFallbackpE4autoBf_
FN:76,_RNvXININvMs1_NtNtCsbZ6qTFMlSKY_5serde3seq13target_fuzz__NtBb_4Args13auto_generatesu_0ppEpINtB5_se_12AutoFallbackpE4autoBf_
FN:76,_RNvXININvMs1_NtNtCsbZ6qTFMlSKY_5serde4unit13target_fuzz__NtBb_4Args13auto_generate0ppEpINtB5_12AutoFallbackpE4autoBf_
FN:76,_RNvXININvMs1_NtNtCsbZ6qTFMlSKY_5serde4unit13target_fuzz__NtBb_4Args13auto_generates0_0ppEpINtB5_s_12AutoFallbackpE4autoBf_
FN:76,_RNvXININvMs1_NtNtCsbZ6qTFMlSKY_5serde4unit13target_fuzz__NtBb_4Args13auto_generates8_0ppEpINtB5_s3_12AutoFallbackpE4autoBf_
FN:76,_RNvXININvMs1_NtNtCsbZ6qTFMlSKY_5serde4unit13target_fuzz__NtBb_4Args13auto_generatesa_0ppEpINtB5_s4_12AutoFallbackpE4autoBf_
FN:76,_RNvXININvMs1_NtNtCsbZ6qTFMlSKY_5serde4unit13target_fuzz__NtBb_4Args13auto_generatesi_0ppEpINtB5_s8_12AutoFallbackpE4autoBf_
FN:76,_RNvXININvMs1_NtNtCsbZ6qTFMlSKY_5serde4unit13target_fuzz__NtBb_4Args13auto_generatesk_0ppEpINtB5_s9_12AutoFallbackpE4autoBf_
FN:76,_RNvXININvMs1_NtNtCsbZ6qTFMlSKY_5serde5tuple13target_fuzz__NtBb_4Args13auto_generate0ppEpINtB5_12AutoFallbackpE4autoBf_
FN:76,_RNvXININvMs1_NtNtCsbZ6qTFMlSKY_5serde5tuple13target_fuzz__NtBb_4Args13auto_generates0_0ppEpINtB5_s_12AutoFallbackpE4autoBf_
FN:76,_RNvXININvMs1_NtNtCsbZ6qTFMlSKY_5serde5tuple13target_fuzz__NtBb_4Args13auto_generates8_0ppEpINtB5_s3_12AutoFallbackpE4autoBf_
FN:76,_RNvXININvMs1_NtNtCsbZ6qTFMlSKY_5serde5tuple13target_fuzz__NtBb_4Args13auto_generatesC_0ppEpINtB5_si_12AutoFallbackpE4autoBf_
FN:76,_RNvXININvMs1_NtNtCsbZ6qTFMlSKY_5serde5tuple13target_fuzz__NtBb_4Args13auto_generatesE_0ppEpINtB5_sj_12AutoFallbackpE4autoBf_
FN:76,_RNvXININvMs1_NtNtCsbZ6qTFMlSKY_5serde5tuple13target_fuzz__NtBb_4Args13auto_generatesM_0ppEpINtB5_sn_12AutoFallbackpE4autoBf_
FN:76,_RNvXININvMs1_NtNtCsbZ6qTFMlSKY_5serde5tuple13target_fuzz__NtBb_4Args13auto_generatesO_0ppEpINtB5_so_12AutoFallbackpE4autoBf_
FN:76,_RNvXININvMs1_NtNtCsbZ6qTFMlSKY_5serde5tuple13target_fuzz__NtBb_4Args13auto_generatesa_0ppEpINtB5_s4_12AutoFallbackpE4autoBf_
FN:76,_RNvXININvMs1_NtNtCsbZ6qTFMlSKY_5serde5tuple13target_fuzz__NtBb_4Args13auto_generatesi_0ppEpINtB5_s8_12AutoFallbackpE4autoBf_
FN:76,_RNvXININvMs1_NtNtCsbZ6qTFMlSKY_5serde5tuple13target_fuzz__NtBb_4Args13auto_generatesk_0ppEpINtB5_s9_12AutoFallbackpE4autoBf_
FN:76,_RNvXININvMs1_NtNtCsbZ6qTFMlSKY_5serde5tuple13target_fuzz__NtBb_4Args13auto_generatess_0ppEpINtB5_sd_12AutoFallbackpE4autoBf_
FN:76,_RNvXININvMs1_NtNtCsbZ6qTFMlSKY_5serde5tuple13target_fuzz__NtBb_4Args13auto_generatesu_0ppEpINtB5_se_12AutoFallbackpE4autoBf_
FN:76,_RNvXININvMs1_NtNtCsbZ6qTFMlSKY_5serde6option13target_fuzz__NtBb_4Args13auto_generates0_0ppEpINtB5_s_12AutoFallbackpE4autoBf_
FN:76,_RNvXININvMs1_NtNtCsbZ6qTFMlSKY_5serde6option13target_fuzz__NtBb_4Args13auto_generatesa_0ppEpINtB5_s4_12AutoFallbackpE4autoBf_
FN:76,_RNvXININvMs1_NtNtCsbZ6qTFMlSKY_5serde6option13target_fuzz__NtBb_4Args13auto_generatesk_0ppEpINtB5_s9_12AutoFallbackpE4autoBf_
FN:76,_RNvXININvMs1_NtNtCsbZ6qTFMlSKY_5serde6string13target_fuzz__NtBb_4Args13auto_generates0_0ppEpINtB5_s_12AutoFallbackpE4autoBf_
FN:76,_RNvXININvMs1_NtNtCsbZ6qTFMlSKY_5serde6string13target_fuzz__NtBb_4Args13auto_generatesa_0ppEpINtB5_s4_12AutoFallbackpE4autoBf_
FN:76,_RNvXININvMs1_NtNtCsbZ6qTFMlSKY_5serde6string13target_fuzz__NtBb_4Args13auto_generatesk_0ppEpINtB5_s9_12AutoFallbackpE4autoBf_
FN:76,_RNvXININvMs1_NtNtCsbZ6qTFMlSKY_5serde6string13target_fuzz__NtBb_4Args13auto_generatesu_0ppEpINtB5_se_12AutoFallbackpE4autoBf_
FN:76,_RNvXININvMs1_NtNtCsbZ6qTFMlSKY_5serde6strukt13target_fuzz__NtBb_4Args13auto_generates0_0ppEpINtB5_s_12AutoFallbackpE4autoBf_
FN:76,_RNvXININvMs1_NtNtCsbZ6qTFMlSKY_5serde6strukt13target_fuzz__NtBb_4Args13auto_generatesa_0ppEpINtB5_s4_12AutoFallbackpE4autoBf_
FN:76,_RNvXININvMs1_NtNtCsbZ6qTFMlSKY_5serde6strukt13target_fuzz__NtBb_4Args13auto_generatesk_0ppEpINtB5_s9_12AutoFallbackpE4autoBf_
FN:76,_RNvXININvMs1_NtNtCsfL22ijsdh9Q_5debug4hang13target_fuzz__NtBb_4Args13auto_generates0_0ppEpINtB5_s_12AutoFallbackpE4autoBf_
FN:76,_RNvXININvMs1_NtNtCsfL22ijsdh9Q_5debug5crash13target_fuzz__NtBb_4Args13auto_generates0_0ppEpINtB5_s_12AutoFallbackpE4autoBf_
FN:76,_RNvXININvMs1_NtNtCsgyJtF4GtVdY_10conversion8lifetime13target_fuzz__NtBb_4Args13auto_generatesa_0ppEpINtB5_s4_12AutoFallbackpE4autoBf_
FN:76,_RNvXININvMs1_NtNtCsiGGxYnMUpAI_13auto_generate6signed13target_fuzz__NtBb_4Args13auto_generate0ppEpINtB5_12AutoFallbackpE4autoBf_
FN:76,_RNvXININvMs1_NtNtCsiGGxYnMUpAI_13auto_generate6signed13target_fuzz__NtBb_4Args13auto_generates0_0ppEpINtB5_s_12AutoFallbackpE4autoBf_
FN:76,_RNvXININvMs1_NtNtCsiGGxYnMUpAI_13auto_generate6signed13target_fuzz__NtBb_4Args13auto_generates2_0ppEpINtB5_s0_12AutoFallbackpE4autoBf_
FN:76,_RNvXININvMs1_NtNtCsiGGxYnMUpAI_13auto_generate6signed13target_fuzz__NtBb_4Args13auto_generates4_0ppEpINtB5_s1_12AutoFallbackpE4autoBf_
FN:76,_RNvXININvMs1_NtNtCsiGGxYnMUpAI_13auto_generate6signed13target_fuzz__NtBb_4Args13auto_generates6_0ppEpINtB5_s2_12AutoFallbackpE4autoBf_
FN:76,_RNvXININvMs1_NtNtCsiGGxYnMUpAI_13auto_generate8unsigned13target_fuzz__NtBb_4Args13auto_generate0ppEpINtB5_12AutoFallbackpE4autoBf_
FN:76,_RNvXININvMs1_NtNtCsiGGxYnMUpAI_13auto_generate8unsigned13target_fuzz__NtBb_4Args13auto_generates0_0ppEpINtB5_s_12AutoFallbackpE4autoBf_
FN:76,_RNvXININvMs1_NtNtCsiGGxYnMUpAI_13auto_generate8unsigned13target_fuzz__NtBb_4Args13auto_generates2_0ppEpINtB5_s0_12AutoFallbackpE4autoBf_
FN:76,_RNvXININvMs1_NtNtCsiGGxYnMUpAI_13auto_generate8unsigned13target_fuzz__NtBb_4Args13auto_generates4_0ppEpINtB5_s1_12AutoFallbackpE4autoBf_
FN:76,_RNvXININvMs1_NtNtCsiGGxYnMUpAI_13auto_generate8unsigned13target_fuzz__NtBb_4Args13auto_generates6_0ppEpINtB5_s2_12AutoFallbackpE4autoBf_
FN:76,_RNvXNvMs1_NtCs2zeNb6jgslg_19self_ty_in_mod_name20struct_target_fuzz__NtB8_4Args13auto_generateINtB2_4AutoNtBa_6StructEINtB2_12AutoFallbackB1F_E4autoBa_
FN:76,_RNvXNvMs1_NtCs4MGHVrkl72m_4from15bar_from_fuzz__NtB8_4Args13auto_generateINtB2_4AutoNtBa_3FooEINtB2_12AutoFallbackB1k_E4autoBa_
FN:76,_RNvXNvMs1_NtCs4MGHVrkl72m_4from15baz_into_fuzz__NtB8_4Args13auto_generateINtB2_4AutoNtBa_3BazEINtB2_12AutoFallbackB1k_E4autoBa_
FN:76,_RNvXNvMs1_NtCs4MGHVrkl72m_4from19baz_try_from_fuzz__NtB8_4Args13auto_generateINtB2_4AutoNtBa_3BarEINtB2_12AutoFallbackB1o_E4autoBa_
FN:76,_RNvXNvMs1_NtCs4jNeg51vteg_8lifetime13target_fuzz__NtB8_4Args13auto_generateINtB2_4AutoNtBa_3BarEINtB2_12AutoFallbackB1m_E4autoBa_
FN:76,_RNvXNvMs1_NtCs5fNIG3PZaJo_11hello_world19intermediary_fuzz__NtB8_4Args13auto_generateINtB2_4AutoNtNtCsgag4BwXrjBQ_5alloc6string6StringEINtB2_12AutoFallbackB1w_E4autoBa_
FN:76,_RNvXNvMs1_NtCs6ZJvwNFZ5Lo_11return_type16swap_swap_fuzz__INtB8_4ArgsppE13auto_generateINtB2_4AutoINtBa_4SwapubEEINtB2_12AutoFallbackB1x_E4autoBa_
FN:76,_RNvXNvMs1_NtCs6fBdTSegfKf_14test_fuzz_impl17struct_bar_fuzz__NtB8_4Args13auto_generateINtB2_4AutoNtBa_6StructEINtB2_12AutoFallbackB1x_E4autoBa_
FN:76,_RNvXNvMs1_NtCs6fBdTSegfKf_14test_fuzz_impl17struct_foo_fuzz__NtB8_4Args13auto_generateINtB2_4AutoNtBa_6StructEINtB2_12AutoFallbackB1x_E4autoBa_
FN:76,_RNvXNvMs1_NtCs6z3aMDs3O5H_14parse_duration12parse_fuzz__NtB8_4Args13auto_generateINtB2_4AutoNtNtCsgag4BwXrjBQ_5alloc6string6StringEINtB2_12AutoFallbackB1s_E4autoBa_
FN:76,_RNvXNvMs1_NtCs9i11WczUoNj_7profile13target_fuzz__NtB8_4Args13auto_generateINtB2_4AutobEINtB2_12AutoFallbackbE4autoBa_
FN:76,_RNvXNvMs1_NtCsaVSfY7O0uYs_7generic14baz_qux_fuzz__INtB8_4ArgspE13auto_generateINtB2_4AutoINtNtCs3XFJfFEDSOQ_4core6marker11PhantomDataNtBa_3BarEEINtB2_12AutoFallbackB1p_E4autoBa_
FN:76,_RNvXNvMs1_NtCsaVSfY7O0uYs_7generic20struct_target_fuzz__INtB8_4ArgspE13auto_generateINtB2_4AutoNtBa_6StructEINtB2_12AutoFallbackB1v_E4autoBa_
FN:76,_RNvXNvMs1_NtCsaVSfY7O0uYs_7generic26struct_target_bound_fuzz__INtB8_4ArgsppE13auto_generateINtB2_4AutoNtBa_6StructEINtB2_12AutoFallbackB1C_E4autoBa_
FN:76,_RNvXNvMs1_NtCsaVSfY7O0uYs_7generic33struct_target_where_clause_fuzz__INtB8_4ArgsppE13auto_generateINtB2_4AutoNtBa_6StructEINtB2_12AutoFallbackB1J_E4autoBa_
FN:76,_RNvXNvMs1_NtCsb7JfYwj8ipQ_10serde_attr13target_fuzz__NtB8_4Args13auto_generateINtB2_4AutoNtBa_7ContextEINtB2_12AutoFallbackB1p_E4autoBa_
FN:76,_RNvXNvMs1_NtCsbupd9d71YLx_16calm_and_panicky11calm_fuzz__NtB8_4Args13auto_generateINtB2_4AutoNtBa_4CalmEINtB2_12AutoFallbackB1t_E4autoBa_
FN:76,_RNvXNvMs1_NtCsbupd9d71YLx_16calm_and_panicky14panicky_fuzz__NtB8_4Args13auto_generateINtB2_4AutoNtBa_7PanickyEINtB2_12AutoFallbackB1w_E4autoBa_
FN:76,_RNvXNvMs1_NtCscaf2gEuSGn5_6qwerty13target_fuzz__NtB8_4Args13auto_generateINtB2_4AutoNtNtCsgag4BwXrjBQ_5alloc6string6StringEINtB2_12AutoFallbackB1k_E4autoBa_
FN:76,_RNvXNvMs1_NtCsfEcBWhN4Na3_3arc13target_fuzz__NtB8_4Args13auto_generateINtB2_4AutoINtNtCsgag4BwXrjBQ_5alloc4sync3ArcINtNtNtNtCsHIej2QEFI5_3std11collections4hash3set7HashSetmEEEINtB2_12AutoFallbackB1h_E4autoBa_
FN:76,_RNvXNvMs1_NtCsfODoU0UL7aq_11manual_leak23wrapped_key_dump_fuzz__NtB8_4Args13auto_generateINtB2_4AutoNtBa_10WrappedKeyEINtB2_12AutoFallbackB1A_E4autoBa_
FN:76,_RNvXNvMs1_NtCsfOIDT8lUV2L_7mut_ref17target_str_fuzz__NtB8_4Args13auto_generateINtB2_4AutoNtNtCsgag4BwXrjBQ_5alloc6string6StringEINtB2_12AutoFallbackB1p_E4autoBa_
FN:76,_RNvXNvMs1_NtCsfOIDT8lUV2L_7mut_ref19target_slice_fuzz__NtB8_4Args13auto_generateINtB2_4AutoINtNtCsgag4BwXrjBQ_5alloc3vec3VechEEINtB2_12AutoFallbackB1r_E4autoBa_
FN:76,_RNvXNvMs1_NtCsgZ69XjcSWhh_6assert13target_fuzz__NtB8_4Args13auto_generateINtB2_4AutobEINtB2_12AutoFallbackbE4autoBa_
FN:76,_RNvXNvMs1_NtCsjk8KY6qq2Wr_8parallel15target_0_fuzz__NtB8_4Args13auto_generateINtB2_4AutobEINtB2_12AutoFallbackbE4autoBa_
FN:76,_RNvXNvMs1_NtCsjk8KY6qq2Wr_8parallel15target_1_fuzz__NtB8_4Args13auto_generateINtB2_4AutobEINtB2_12AutoFallbackbE4autoBa_
FN:76,_RNvXNvMs1_NtCsjk8KY6qq2Wr_8parallel15target_2_fuzz__NtB8_4Args13auto_generateINtB2_4AutobEINtB2_12AutoFallbackbE4autoBa_
FN:76,_RNvXNvMs1_NtCsjk8KY6qq2Wr_8parallel15target_3_fuzz__NtB8_4Args13auto_generateINtB2_4AutobEINtB2_12AutoFallbackbE4autoBa_
FN:76,_RNvXNvMs1_NtCsjk8KY6qq2Wr_8parallel15target_4_fuzz__NtB8_4Args13auto_generateINtB2_4AutobEINtB2_12AutoFallbackbE4autoBa_
FN:76,_RNvXNvMs1_NtCsjk8KY6qq2Wr_8parallel15target_5_fuzz__NtB8_4Args13auto_generateINtB2_4AutobEINtB2_12AutoFallbackbE4autoBa_
FN:76,_RNvXNvMs1_NtCskkeazd6lurB_15associated_type20serializes_to_fuzz__INtB8_4ArgspE13auto_generateINtB2_4AutoNtBa_7AddressEINtB2_12AutoFallbackB1E_E4autoBa_
FN:76,_RNvXNvMs1_NtNtCs4RwwcRvri8p_7default10no_default13target_fuzz__NtB8_4Args13auto_generateINtB2_4AutoNtBa_6StructEINtB2_12AutoFallbackB1z_E4autoBc_
FN:76,_RNvXNvMs1_NtNtCs4RwwcRvri8p_7default7default13target_fuzz__NtB8_4Args13auto_generateINtB2_4AutoNtBa_6StructEINtB2_12AutoFallbackB1v_E4autoBc_
FN:76,_RNvXNvMs1_NtNtCsaVSfY7O0uYs_7generic27receiverless_trait_function20struct_target_fuzz__INtB8_4ArgspE13auto_generateINtB2_4AutoNtBc_3BarEINtB2_12AutoFallbackB20_E4autoBc_
FN:76,_RNvXNvMs1_NtNtCsbZ6qTFMlSKY_5serde10byte_array13target_fuzz__NtB8_4Args13auto_generateINtB2_4AutoAhj0_EINtB2_12AutoFallbackB1x_E4autoBc_
FN:76,_RNvXNvMs1_NtNtCsbZ6qTFMlSKY_5serde11unit_struct13target_fuzz__NtB8_4Args13auto_generateINtB2_4AutoNtBa_10UnitStructEINtB2_12AutoFallbackB1y_E4autoBc_
FN:76,_RNvXNvMs1_NtNtCsbZ6qTFMlSKY_5serde12tuple_struct13target_fuzz__NtB8_4Args13auto_generateINtB2_4AutoNtBa_11TupleStructEINtB2_12AutoFallbackB1z_E4autoBc_
FN:76,_RNvXNvMs1_NtNtCsbZ6qTFMlSKY_5serde12unit_variant13target_fuzz__NtB8_4Args13auto_generateINtB2_4AutoNtBa_11UnitVariantEINtB2_12AutoFallbackB1z_E4autoBc_
FN:76,_RNvXNvMs1_NtNtCsbZ6qTFMlSKY_5serde13tuple_variant13target_fuzz__NtB8_4Args13auto_generateINtB2_4AutoNtBa_12TupleVariantEINtB2_12AutoFallbackB1A_E4autoBc_
FN:76,_RNvXNvMs1_NtNtCsbZ6qTFMlSKY_5serde14newtype_struct13target_fuzz__NtB8_4Args13auto_generateINtB2_4AutoNtBa_13NewtypeStructEINtB2_12AutoFallbackB1B_E4autoBc_
FN:76,_RNvXNvMs1_NtNtCsbZ6qTFMlSKY_5serde14struct_variant13target_fuzz__NtB8_4Args13auto_generateINtB2_4AutoNtBa_13StructVariantEINtB2_12AutoFallbackB1B_E4autoBc_
FN:76,_RNvXNvMs1_NtNtCsbZ6qTFMlSKY_5serde15newtype_variant13target_fuzz__NtB8_4Args13auto_generateINtB2_4AutoNtBa_14NewtypeVariantEINtB2_12AutoFallbackB1C_E4autoBc_
FN:76,_RNvXNvMs1_NtNtCsbZ6qTFMlSKY_5serde3map13target_fuzz__NtB8_4Args13auto_generateINtB2_4AutoINtNtNtNtCsgag4BwXrjBQ_5alloc11collections5btree3map8BTreeMaphhEEINtB2_12AutoFallbackB1p_E4autoBc_
FN:76,_RNvXNvMs1_NtNtCsbZ6qTFMlSKY_5serde3seq13target_fuzz__NtB8_4Args13auto_generateINtB2_4AutoINtNtCsgag4BwXrjBQ_5alloc3vec3VechEEINtB2_12AutoFallbackB1p_E4autoBc_
FN:76,_RNvXNvMs1_NtNtCsbZ6qTFMlSKY_5serde6option13target_fuzz__NtB8_4Args13auto_generateINtB2_4AutoINtNtCs3XFJfFEDSOQ_4core6option6OptionhEEINtB2_12AutoFallbackB1s_E4autoBc_
FN:76,_RNvXNvMs1_NtNtCsbZ6qTFMlSKY_5serde6string13target_fuzz__NtB8_4Args13auto_generateINtB2_4AutoNtNtCsgag4BwXrjBQ_5alloc6string6StringEINtB2_12AutoFallbackB1s_E4autoBc_
FN:76,_RNvXNvMs1_NtNtCsbZ6qTFMlSKY_5serde6strukt13target_fuzz__NtB8_4Args13auto_generateINtB2_4AutoNtBa_6StructEINtB2_12AutoFallbackB1s_E4autoBc_
FN:76,_RNvXNvMs1_NtNtCsfL22ijsdh9Q_5debug4hang13target_fuzz__NtB8_4Args13auto_generateINtB2_4AutoNtBa_6StructEINtB2_12AutoFallbackB1q_E4autoBc_
FN:76,_RNvXNvMs1_NtNtCsfL22ijsdh9Q_5debug5crash13target_fuzz__NtB8_4Args13auto_generateINtB2_4AutoNtBa_6StructEINtB2_12AutoFallbackB1r_E4autoBc_
FN:76,_RNvXNvMs1_NtNtCsgyJtF4GtVdY_10conversion11uncloneable13target_fuzz__NtB8_4Args13auto_generateINtB2_4AutoNtBa_1YEINtB2_12AutoFallbackB1E_E4autoBc_
FN:76,_RNvXNvMs1_NtNtCsgyJtF4GtVdY_10conversion4path13target_fuzz__NtB8_4Args13auto_generateINtB2_4AutoNtBa_10LeakedPathEINtB2_12AutoFallbackB1w_E4autoBc_
FN:76,_RNvXNvMs1_NtNtCsgyJtF4GtVdY_10conversion5array13target_fuzz__NtB8_4Args13auto_generateINtB2_4AutoNtBa_11LeakedArrayEINtB2_12AutoFallbackB1x_E4autoBc_
FN:76,_RNvXNvMs1_NtNtCsgyJtF4GtVdY_10conversion7mutable13target_fuzz__NtB8_4Args13auto_generateINtB2_4AutoNtBa_1YEINtB2_12AutoFallbackB1z_E4autoBc_
FN:76,_RNvXNvMs1_NtNtCsgyJtF4GtVdY_10conversion8lifetime13target_fuzz__NtB8_4Args13auto_generateINtB2_4AutoNtBa_1YEINtB2_12AutoFallbackB1A_E4autoBc_
FN:76,_RNvXNvMs1_NtNtCsgyJtF4GtVdY_10conversion8receiver20x_target_self_fuzz__NtB8_4Args13auto_generateINtB2_4AutoNtBa_1YEINtB2_12AutoFallbackB1H_E4autoBc_
FN:76,_RNvXNvMs1_NtNtCsgyJtF4GtVdY_10conversion8receiver21x_target_other_fuzz__NtB8_4Args13auto_generateINtB2_4AutoNtBa_1YEINtB2_12AutoFallbackB1I_E4autoBc_
FN:76,_RNvXs0_NvMs1_NtCs2zeNb6jgslg_19self_ty_in_mod_name20struct_target_fuzz__NtBb_4Args13auto_generateINtB5_s_4AutoNtBd_6StructEINtB5_s_12AutoFallbackB1K_E4autoBd_
FN:76,_RNvXs0_NvMs1_NtCs4MGHVrkl72m_4from15bar_from_fuzz__NtBb_4Args13auto_generateINtB5_s_4AutoNtBd_3FooEINtB5_s_12AutoFallbackB1p_E4autoBd_
FN:76,_RNvXs0_NvMs1_NtCs4MGHVrkl72m_4from15baz_into_fuzz__NtBb_4Args13auto_generateINtB5_s_4AutoNtBd_3BazEINtB5_s_12AutoFallbackB1p_E4autoBd_
FN:76,_RNvXs0_NvMs1_NtCs4MGHVrkl72m_4from19baz_try_from_fuzz__NtBb_4Args13auto_generateINtB5_s_4AutoNtBd_3BarEINtB5_s_12AutoFallbackB1t_E4autoBd_
FN:76,_RNvXs0_NvMs1_NtCs4jNeg51vteg_8lifetime13target_fuzz__NtBb_4Args13auto_generateINtB5_s_4AutoNtBd_3BarEINtB5_s_12AutoFallbackB1r_E4autoBd_
FN:76,_RNvXs0_NvMs1_NtCs6ZJvwNFZ5Lo_11return_type16swap_swap_fuzz__INtBb_4ArgsppE13auto_generateINtB5_s_4AutoINtBd_4SwapubEEINtB5_s_12AutoFallbackB1C_E4autoBd_
FN:76,_RNvXs0_NvMs1_NtCs6fBdTSegfKf_14test_fuzz_impl17struct_bar_fuzz__NtBb_4Args13auto_generateINtB5_s_4AutoNtBd_6StructEINtB5_s_12AutoFallbackB1C_E4autoBd_
FN:76,_RNvXs0_NvMs1_NtCs6fBdTSegfKf_14test_fuzz_impl17struct_foo_fuzz__NtBb_4Args13auto_generateINtB5_s_4AutoNtBd_6StructEINtB5_s_12AutoFallbackB1C_E4autoBd_
FN:76,_RNvXs0_NvMs1_NtCsaVSfY7O0uYs_7generic20struct_target_fuzz__INtBb_4ArgspE13auto_generateINtB5_s_4AutoNtBd_6StructEINtB5_s_12AutoFallbackB1A_E4autoBd_
FN:76,_RNvXs0_NvMs1_NtCsaVSfY7O0uYs_7generic26struct_target_bound_fuzz__INtBb_4ArgsppE13auto_generateINtB5_s_4AutoNtBd_6StructEINtB5_s_12AutoFallbackB1H_E4autoBd_
FN:76,_RNvXs0_NvMs1_NtCsaVSfY7O0uYs_7generic33struct_target_where_clause_fuzz__INtBb_4ArgsppE13auto_generateINtB5_s_4AutoNtBd_6StructEINtB5_s_12AutoFallbackB1O_E4autoBd_
FN:76,_RNvXs0_NvMs1_NtCsbupd9d71YLx_16calm_and_panicky11calm_fuzz__NtBb_4Args13auto_generateINtB5_s_4AutoNtBd_4CalmEINtB5_s_12AutoFallbackB1y_E4autoBd_
FN:76,_RNvXs0_NvMs1_NtCsbupd9d71YLx_16calm_and_panicky14panicky_fuzz__NtBb_4Args13auto_generateINtB5_s_4AutoNtBd_7PanickyEINtB5_s_12AutoFallbackB1B_E4autoBd_
FN:76,_RNvXs0_NvMs1_NtCsfODoU0UL7aq_11manual_leak23wrapped_key_dump_fuzz__NtBb_4Args13auto_generateINtB5_s_4AutoNtBd_10WrappedKeyEINtB5_s_12AutoFallbackB1F_E4autoBd_
FN:76,_RNvXs0_NvMs1_NtCskkeazd6lurB_15associated_type20serializes_to_fuzz__INtBb_4ArgspE13auto_generateINtB5_s_4AutoNtBd_7AddressEINtB5_s_12AutoFallbackB1J_E4autoBd_
FN:76,_RNvXs0_NvMs1_NtNtCs4RwwcRvri8p_7default10no_default13target_fuzz__NtBb_4Args13auto_generateINtB5_s_4AutoNtBd_6StructEINtB5_s_12AutoFallbackB1E_E4autoBf_
FN:76,_RNvXs0_NvMs1_NtNtCsaVSfY7O0uYs_7generic27receiverless_trait_function20struct_target_fuzz__INtBb_4ArgspE13auto_generateINtB5_s_4AutoNtBf_3BarEINtB5_s_12AutoFallbackB25_E4autoBf_
FN:76,_RNvXs0_NvMs1_NtNtCsbZ6qTFMlSKY_5serde12unit_variant13target_fuzz__NtBb_4Args13auto_generateINtB5_s_4AutoNtBd_11UnitVariantEINtB5_s_12AutoFallbackB1E_E4autoBf_
FN:76,_RNvXs0_NvMs1_NtNtCsgyJtF4GtVdY_10conversion11uncloneable13target_fuzz__NtBb_4Args13auto_generateINtB5_s_4AutoNtBd_1YEINtB5_s_12AutoFallbackB1J_E4autoBf_
FN:76,_RNvXs0_NvMs1_NtNtCsgyJtF4GtVdY_10conversion4path13target_fuzz__NtBb_4Args13auto_generateINtB5_s_4AutoNtBd_10LeakedPathEINtB5_s_12AutoFallbackB1B_E4autoBf_
FN:76,_RNvXs0_NvMs1_NtNtCsgyJtF4GtVdY_10conversion5array13target_fuzz__NtBb_4Args13auto_generateINtB5_s_4AutoNtBd_11LeakedArrayEINtB5_s_12AutoFallbackB1C_E4autoBf_
FN:76,_RNvXs0_NvMs1_NtNtCsgyJtF4GtVdY_10conversion7mutable13target_fuzz__NtBb_4Args13auto_generateINtB5_s_4AutoNtBd_1YEINtB5_s_12AutoFallbackB1E_E4autoBf_
FN:76,_RNvXs0_NvMs1_NtNtCsgyJtF4GtVdY_10conversion8lifetime13target_fuzz__NtBb_4Args13auto_generateINtB5_s_4AutoNtBd_1YEINtB5_s_12AutoFallbackB1F_E4autoBf_
FN:76,_RNvXs0_NvMs1_NtNtCsgyJtF4GtVdY_10conversion8receiver20x_target_self_fuzz__NtBb_4Args13auto_generateINtB5_s_4AutoNtBd_1YEINtB5_s_12AutoFallbackB1M_E4autoBf_
FN:76,_RNvXs0_NvMs1_NtNtCsgyJtF4GtVdY_10conversion8receiver21x_target_other_fuzz__NtBb_4Args13auto_generateINtB5_s_4AutoNtBd_1YEINtB5_s_12AutoFallbackB1N_E4autoBf_
FN:76,_RNvXs10_NvMs1_NtNtCsbZ6qTFMlSKY_5serde10byte_array13target_fuzz__NtBc_4Args13auto_generateINtB6_su_4AutoAhj2_EINtB6_su_12AutoFallbackB1E_E4autoBg_
FN:76,_RNvXs10_NvMs1_NtNtCsbZ6qTFMlSKY_5serde3seq13target_fuzz__NtBc_4Args13auto_generateINtB6_su_4AutoINtNtNtNtCsHIej2QEFI5_3std11collections4hash3set7HashSethEEINtB6_su_12AutoFallbackB1w_E4autoBg_
FN:76,_RNvXs12_NvMs1_NtNtCsbZ6qTFMlSKY_5serde10byte_array13target_fuzz__NtBc_4Args13auto_generateINtB6_sv_4AutoAhj2_EINtB6_sv_12AutoFallbackB1E_E4autoBg_
FN:76,_RNvXs12_NvMs1_NtNtCsbZ6qTFMlSKY_5serde3seq13target_fuzz__NtBc_4Args13auto_generateINtB6_sv_4AutoINtNtNtNtCsHIej2QEFI5_3std11collections4hash3set7HashSethEEINtB6_sv_12AutoFallbackB1w_E4autoBg_
FN:76,_RNvXs14_NvMs1_NtNtCsbZ6qTFMlSKY_5serde10byte_array13target_fuzz__NtBc_4Args13auto_generateINtB6_sw_4AutoAhj2_EINtB6_sw_12AutoFallbackB1E_E4autoBg_
FN:76,_RNvXs14_NvMs1_NtNtCsbZ6qTFMlSKY_5serde3seq13target_fuzz__NtBc_4Args13auto_generateINtB6_sw_4AutoINtNtNtNtCsHIej2QEFI5_3std11collections4hash3set7HashSethEEINtB6_sw_12AutoFallbackB1w_E4autoBg_
FN:76,_RNvXs16_NvMs1_NtNtCsbZ6qTFMlSKY_5serde10byte_array13target_fuzz__NtBc_4Args13auto_generateINtB6_sx_4AutoAhj2_EINtB6_sx_12AutoFallbackB1E_E4autoBg_
FN:76,_RNvXs1a_NvMs1_NtNtCsbZ6qTFMlSKY_5serde10byte_array13target_fuzz__NtBc_4Args13auto_generateINtB6_sz_4AutoAhj2_EINtB6_sz_12AutoFallbackB1E_E4autoBg_
FN:76,_RNvXs1c_NvMs1_NtNtCsbZ6qTFMlSKY_5serde10byte_array13target_fuzz__NtBc_4Args13auto_generateINtB6_sA_4AutoAhj2_EINtB6_sA_12AutoFallbackB1E_E4autoBg_
FN:76,_RNvXs1e_NvMs1_NtNtCsbZ6qTFMlSKY_5serde10byte_array13target_fuzz__NtBc_4Args13auto_generateINtB6_sB_4AutoAhj2_EINtB6_sB_12AutoFallbackB1E_E4autoBg_
FN:76,_RNvXs1g_NvMs1_NtNtCsbZ6qTFMlSKY_5serde10byte_array13target_fuzz__NtBc_4Args13auto_generateINtB6_sC_4AutoAhj2_EINtB6_sC_12AutoFallbackB1E_E4autoBg_
FN:76,_RNvXs1k_NvMs1_NtNtCsbZ6qTFMlSKY_5serde10byte_array13target_fuzz__NtBc_4Args13auto_generateINtB6_sE_4AutoAhj2_EINtB6_sE_12AutoFallbackB1E_E4autoBg_
FN:76,_RNvXs1m_NvMs1_NtNtCsbZ6qTFMlSKY_5serde10byte_array13target_fuzz__NtBc_4Args13auto_generateINtB6_sF_4AutoAhj2_EINtB6_sF_12AutoFallbackB1E_E4autoBg_
FN:76,_RNvXs1o_NvMs1_NtNtCsbZ6qTFMlSKY_5serde10byte_array13target_fuzz__NtBc_4Args13auto_generateINtB6_sG_4AutoAhj2_EINtB6_sG_12AutoFallbackB1E_E4autoBg_
FN:76,_RNvXs2_NvMs1_NtCs2zeNb6jgslg_19self_ty_in_mod_name20struct_target_fuzz__NtBb_4Args13auto_generateINtB5_s0_4AutoNtBd_6StructEINtB5_s0_12AutoFallbackB1L_E4autoBd_
FN:76,_RNvXs2_NvMs1_NtCs4MGHVrkl72m_4from15bar_from_fuzz__NtBb_4Args13auto_generateINtB5_s0_4AutoNtBd_3FooEINtB5_s0_12AutoFallbackB1q_E4autoBd_
FN:76,_RNvXs2_NvMs1_NtCs4MGHVrkl72m_4from15baz_into_fuzz__NtBb_4Args13auto_generateINtB5_s0_4AutoNtBd_3BazEINtB5_s0_12AutoFallbackB1q_E4autoBd_
FN:76,_RNvXs2_NvMs1_NtCs4MGHVrkl72m_4from19baz_try_from_fuzz__NtBb_4Args13auto_generateINtB5_s0_4AutoNtBd_3BarEINtB5_s0_12AutoFallbackB1u_E4autoBd_
FN:76,_RNvXs2_NvMs1_NtCs4jNeg51vteg_8lifetime13target_fuzz__NtBb_4Args13auto_generateINtB5_s0_4AutoNtBd_3BarEINtB5_s0_12AutoFallbackB1s_E4autoBd_
FN:76,_RNvXs2_NvMs1_NtCs5fNIG3PZaJo_11hello_world19intermediary_fuzz__NtBb_4Args13auto_generateINtB5_s0_4AutoNtNtCsgag4BwXrjBQ_5alloc6string6StringEINtB5_s0_12AutoFallbackB1C_E4autoBd_
FN:76,_RNvXs2_NvMs1_NtCs6ZJvwNFZ5Lo_11return_type16swap_swap_fuzz__INtBb_4ArgsppE13auto_generateINtB5_s0_4AutoINtBd_4SwapubEEINtB5_s0_12AutoFallbackB1D_E4autoBd_
FN:76,_RNvXs2_NvMs1_NtCs6fBdTSegfKf_14test_fuzz_impl17struct_bar_fuzz__NtBb_4Args13auto_generateINtB5_s0_4AutoNtBd_6StructEINtB5_s0_12AutoFallbackB1D_E4autoBd_
FN:76,_RNvXs2_NvMs1_NtCs6fBdTSegfKf_14test_fuzz_impl17struct_foo_fuzz__NtBb_4Args13auto_generateINtB5_s0_4AutoNtBd_6StructEINtB5_s0_12AutoFallbackB1D_E4autoBd_
FN:76,_RNvXs2_NvMs1_NtCs6z3aMDs3O5H_14parse_duration12parse_fuzz__NtBb_4Args13auto_generateINtB5_s0_4AutoNtNtCsgag4BwXrjBQ_5alloc6string6StringEINtB5_s0_12AutoFallbackB1y_E4autoBd_
FN:76,_RNvXs2_NvMs1_NtCs9i11WczUoNj_7profile13target_fuzz__NtBb_4Args13auto_generateINtB5_s0_4AutobEINtB5_s0_12AutoFallbackbE4autoBd_
FN:76,_RNvXs2_NvMs1_NtCsaVSfY7O0uYs_7generic14baz_qux_fuzz__INtBb_4ArgspE13auto_generateINtB5_s0_4AutoINtNtCs3XFJfFEDSOQ_4core6marker11PhantomDataNtBd_3BarEEINtB5_s0_12AutoFallbackB1v_E4autoBd_
FN:76,_RNvXs2_NvMs1_NtCsaVSfY7O0uYs_7generic20struct_target_fuzz__INtBb_4ArgspE13auto_generateINtB5_s0_4AutoNtBd_6StructEINtB5_s0_12AutoFallbackB1B_E4autoBd_
FN:76,_RNvXs2_NvMs1_NtCsaVSfY7O0uYs_7generic26struct_target_bound_fuzz__INtBb_4ArgsppE13auto_generateINtB5_s0_4AutoNtBd_6StructEINtB5_s0_12AutoFallbackB1I_E4autoBd_
FN:76,_RNvXs2_NvMs1_NtCsaVSfY7O0uYs_7generic33struct_target_where_clause_fuzz__INtBb_4ArgsppE13auto_generateINtB5_s0_4AutoNtBd_6StructEINtB5_s0_12AutoFallbackB1P_E4autoBd_
FN:76,_RNvXs2_NvMs1_NtCsb7JfYwj8ipQ_10serde_attr13target_fuzz__NtBb_4Args13auto_generateINtB5_s0_4AutoNtBd_7ContextEINtB5_s0_12AutoFallbackB1v_E4autoBd_
FN:76,_RNvXs2_NvMs1_NtCsbupd9d71YLx_16calm_and_panicky11calm_fuzz__NtBb_4Args13auto_generateINtB5_s0_4AutoNtBd_4CalmEINtB5_s0_12AutoFallbackB1z_E4autoBd_
FN:76,_RNvXs2_NvMs1_NtCsbupd9d71YLx_16calm_and_panicky14panicky_fuzz__NtBb_4Args13auto_generateINtB5_s0_4AutoNtBd_7PanickyEINtB5_s0_12AutoFallbackB1C_E4autoBd_
FN:76,_RNvXs2_NvMs1_NtCscaf2gEuSGn5_6qwerty13target_fuzz__NtBb_4Args13auto_generateINtB5_s0_4AutoNtNtCsgag4BwXrjBQ_5alloc6string6StringEINtB5_s0_12AutoFallbackB1q_E4autoBd_
FN:76,_RNvXs2_NvMs1_NtCsfEcBWhN4Na3_3arc13target_fuzz__NtBb_4Args13auto_generateINtB5_s0_4AutoINtNtCsgag4BwXrjBQ_5alloc4sync3ArcINtNtNtNtCsHIej2QEFI5_3std11collections4hash3set7HashSetmEEEINtB5_s0_12AutoFallbackB1n_E4autoBd_
FN:76,_RNvXs2_NvMs1_NtCsfODoU0UL7aq_11manual_leak23wrapped_key_dump_fuzz__NtBb_4Args13auto_generateINtB5_s0_4AutoNtBd_10WrappedKeyEINtB5_s0_12AutoFallbackB1G_E4autoBd_
FN:76,_RNvXs2_NvMs1_NtCsfOIDT8lUV2L_7mut_ref17target_str_fuzz__NtBb_4Args13auto_generateINtB5_s0_4AutoNtNtCsgag4BwXrjBQ_5alloc6string6StringEINtB5_s0_12AutoFallbackB1v_E4autoBd_
FN:76,_RNvXs2_NvMs1_NtCsfOIDT8lUV2L_7mut_ref19target_slice_fuzz__NtBb_4Args13auto_generateINtB5_s0_4AutoINtNtCsgag4BwXrjBQ_5alloc3vec3VechEEINtB5_s0_12AutoFallbackB1x_E4autoBd_
FN:76,_RNvXs2_NvMs1_NtCsgZ69XjcSWhh_6assert13target_fuzz__NtBb_4Args13auto_generateINtB5_s0_4AutobEINtB5_s0_12AutoFallbackbE4autoBd_
FN:76,_RNvXs2_NvMs1_NtCsjk8KY6qq2Wr_8parallel15target_0_fuzz__NtBb_4Args13auto_generateINtB5_s0_4AutobEINtB5_s0_12AutoFallbackbE4autoBd_
FN:76,_RNvXs2_NvMs1_NtCsjk8KY6qq2Wr_8parallel15target_1_fuzz__NtBb_4Args13auto_generateINtB5_s0_4AutobEINtB5_s0_12AutoFallbackbE4autoBd_
FN:76,_RNvXs2_NvMs1_NtCsjk8KY6qq2Wr_8parallel15target_2_fuzz__NtBb_4Args13auto_generateINtB5_s0_4AutobEINtB5_s0_12AutoFallbackbE4autoBd_
FN:76,_RNvXs2_NvMs1_NtCsjk8KY6qq2Wr_8parallel15target_3_fuzz__NtBb_4Args13auto_generateINtB5_s0_4AutobEINtB5_s0_12AutoFallbackbE4autoBd_
FN:76,_RNvXs2_NvMs1_NtCsjk8KY6qq2Wr_8parallel15target_4_fuzz__NtBb_4Args13auto_generateINtB5_s0_4AutobEINtB5_s0_12AutoFallbackbE4autoBd_
FN:76,_RNvXs2_NvMs1_NtCsjk8KY6qq2Wr_8parallel15target_5_fuzz__NtBb_4Args13auto_generateINtB5_s0_4AutobEINtB5_s0_12AutoFallbackbE4autoBd_
FN:76,_RNvXs2_NvMs1_NtCskkeazd6lurB_15associated_type20serializes_to_fuzz__INtBb_4ArgspE13auto_generateINtB5_s0_4AutoNtBd_7AddressEINtB5_s0_12AutoFallbackB1K_E4autoBd_
FN:76,_RNvXs2_NvMs1_NtNtCs4RwwcRvri8p_7default10no_default13target_fuzz__NtBb_4Args13auto_generateINtB5_s0_4AutoNtBd_6StructEINtB5_s0_12AutoFallbackB1F_E4autoBf_
FN:76,_RNvXs2_NvMs1_NtNtCs4RwwcRvri8p_7default7default13target_fuzz__NtBb_4Args13auto_generateINtB5_s0_4AutoNtBd_6StructEINtB5_s0_12AutoFallbackB1B_E4autoBf_
FN:76,_RNvXs2_NvMs1_NtNtCsaVSfY7O0uYs_7generic27receiverless_trait_function20struct_target_fuzz__INtBb_4ArgspE13auto_generateINtB5_s0_4AutoNtBf_3BarEINtB5_s0_12AutoFallbackB26_E4autoBf_
FN:76,_RNvXs2_NvMs1_NtNtCsbZ6qTFMlSKY_5serde10byte_array13target_fuzz__NtBb_4Args13auto_generateINtB5_s0_4AutoAhj0_EINtB5_s0_12AutoFallbackB1D_E4autoBf_
FN:76,_RNvXs2_NvMs1_NtNtCsbZ6qTFMlSKY_5serde11unit_struct13target_fuzz__NtBb_4Args13auto_generateINtB5_s0_4AutoNtBd_10UnitStructEINtB5_s0_12AutoFallbackB1E_E4autoBf_
FN:76,_RNvXs2_NvMs1_NtNtCsbZ6qTFMlSKY_5serde12tuple_struct13target_fuzz__NtBb_4Args13auto_generateINtB5_s0_4AutoNtBd_11TupleStructEINtB5_s0_12AutoFallbackB1F_E4autoBf_
FN:76,_RNvXs2_NvMs1_NtNtCsbZ6qTFMlSKY_5serde12unit_variant13target_fuzz__NtBb_4Args13auto_generateINtB5_s0_4AutoNtBd_11UnitVariantEINtB5_s0_12AutoFallbackB1F_E4autoBf_
FN:76,_RNvXs2_NvMs1_NtNtCsbZ6qTFMlSKY_5serde13tuple_variant13target_fuzz__NtBb_4Args13auto_generateINtB5_s0_4AutoNtBd_12TupleVariantEINtB5_s0_12AutoFallbackB1G_E4autoBf_
FN:76,_RNvXs2_NvMs1_NtNtCsbZ6qTFMlSKY_5serde14newtype_struct13target_fuzz__NtBb_4Args13auto_generateINtB5_s0_4AutoNtBd_13NewtypeStructEINtB5_s0_12AutoFallbackB1H_E4autoBf_
FN:76,_RNvXs2_NvMs1_NtNtCsbZ6qTFMlSKY_5serde14struct_variant13target_fuzz__NtBb_4Args13auto_generateINtB5_s0_4AutoNtBd_13StructVariantEINtB5_s0_12AutoFallbackB1H_E4autoBf_
FN:76,_RNvXs2_NvMs1_NtNtCsbZ6qTFMlSKY_5serde15newtype_variant13target_fuzz__NtBb_4Args13auto_generateINtB5_s0_4AutoNtBd_14NewtypeVariantEINtB5_s0_12AutoFallbackB1I_E4autoBf_
FN:76,_RNvXs2_NvMs1_NtNtCsbZ6qTFMlSKY_5serde3map13target_fuzz__NtBb_4Args13auto_generateINtB5_s0_4AutoINtNtNtNtCsgag4BwXrjBQ_5alloc11collections5btree3map8BTreeMaphhEEINtB5_s0_12AutoFallbackB1v_E4autoBf_
FN:76,_RNvXs2_NvMs1_NtNtCsbZ6qTFMlSKY_5serde3seq13target_fuzz__NtBb_4Args13auto_generateINtB5_s0_4AutoINtNtCsgag4BwXrjBQ_5alloc3vec3VechEEINtB5_s0_12AutoFallbackB1v_E4autoBf_
FN:76,_RNvXs2_NvMs1_NtNtCsbZ6qTFMlSKY_5serde4unit13target_fuzz__NtBb_4Args13auto_generateINtB5_s0_4AutouEINtB5_s0_12AutoFallbackuE4autoBf_
FN:76,_RNvXs2_NvMs1_NtNtCsbZ6qTFMlSKY_5serde5tuple13target_fuzz__NtBb_4Args13auto_generateINtB5_s0_4AutoThEEINtB5_s0_12AutoFallbackB1x_E4autoBf_
FN:76,_RNvXs2_NvMs1_NtNtCsbZ6qTFMlSKY_5serde6option13target_fuzz__NtBb_4Args13auto_generateINtB5_s0_4AutoINtNtCs3XFJfFEDSOQ_4core6option6OptionhEEINtB5_s0_12AutoFallbackB1y_E4autoBf_
FN:76,_RNvXs2_NvMs1_NtNtCsbZ6qTFMlSKY_5serde6string13target_fuzz__NtBb_4Args13auto_generateINtB5_s0_4AutoNtNtCsgag4BwXrjBQ_5alloc6string6StringEINtB5_s0_12AutoFallbackB1y_E4autoBf_
FN:76,_RNvXs2_NvMs1_NtNtCsbZ6qTFMlSKY_5serde6strukt13target_fuzz__NtBb_4Args13auto_generateINtB5_s0_4AutoNtBd_6StructEINtB5_s0_12AutoFallbackB1y_E4autoBf_
FN:76,_RNvXs2_NvMs1_NtNtCsfL22ijsdh9Q_5debug4hang13target_fuzz__NtBb_4Args13auto_generateINtB5_s0_4AutoNtBd_6StructEINtB5_s0_12AutoFallbackB1w_E4autoBf_
FN:76,_RNvXs2_NvMs1_NtNtCsfL22ijsdh9Q_5debug5crash13target_fuzz__NtBb_4Args13auto_generateINtB5_s0_4AutoNtBd_6StructEINtB5_s0_12AutoFallbackB1x_E4autoBf_
FN:76,_RNvXs2_NvMs1_NtNtCsgyJtF4GtVdY_10conversion11uncloneable13target_fuzz__NtBb_4Args13auto_generateINtB5_s0_4AutoNtBd_1YEINtB5_s0_12AutoFallbackB1K_E4autoBf_
FN:76,_RNvXs2_NvMs1_NtNtCsgyJtF4GtVdY_10conversion4path13target_fuzz__NtBb_4Args13auto_generateINtB5_s0_4AutoNtBd_10LeakedPathEINtB5_s0_12AutoFallbackB1C_E4autoBf_
FN:76,_RNvXs2_NvMs1_NtNtCsgyJtF4GtVdY_10conversion5array13target_fuzz__NtBb_4Args13auto_generateINtB5_s0_4AutoNtBd_11LeakedArrayEINtB5_s0_12AutoFallbackB1D_E4autoBf_
FN:76,_RNvXs2_NvMs1_NtNtCsgyJtF4GtVdY_10conversion7mutable13target_fuzz__NtBb_4Args13auto_generateINtB5_s0_4AutoNtBd_1YEINtB5_s0_12AutoFallbackB1F_E4autoBf_
FN:76,_RNvXs2_NvMs1_NtNtCsgyJtF4GtVdY_10conversion8lifetime13target_fuzz__NtBb_4Args13auto_generateINtB5_s0_4AutoNtBd_1YEINtB5_s0_12AutoFallbackB1G_E4autoBf_
FN:76,_RNvXs2_NvMs1_NtNtCsgyJtF4GtVdY_10conversion8receiver20x_target_self_fuzz__NtBb_4Args13auto_generateINtB5_s0_4AutoNtBd_1YEINtB5_s0_12AutoFallbackB1N_E4autoBf_
FN:76,_RNvXs2_NvMs1_NtNtCsgyJtF4GtVdY_10conversion8receiver21x_target_other_fuzz__NtBb_4Args13auto_generateINtB5_s0_4AutoNtBd_1YEINtB5_s0_12AutoFallbackB1O_E4autoBf_
FN:76,_RNvXs4_NvMs1_NtCs2zeNb6jgslg_19self_ty_in_mod_name20struct_target_fuzz__NtBb_4Args13auto_generateINtB5_s1_4AutoNtBd_6StructEINtB5_s1_12AutoFallbackB1L_E4autoBd_
FN:76,_RNvXs4_NvMs1_NtCs4MGHVrkl72m_4from15bar_from_fuzz__NtBb_4Args13auto_generateINtB5_s1_4AutoNtBd_3FooEINtB5_s1_12AutoFallbackB1q_E4autoBd_
FN:76,_RNvXs4_NvMs1_NtCs4MGHVrkl72m_4from15baz_into_fuzz__NtBb_4Args13auto_generateINtB5_s1_4AutoNtBd_3BazEINtB5_s1_12AutoFallbackB1q_E4autoBd_
FN:76,_RNvXs4_NvMs1_NtCs4MGHVrkl72m_4from19baz_try_from_fuzz__NtBb_4Args13auto_generateINtB5_s1_4AutoNtBd_3BarEINtB5_s1_12AutoFallbackB1u_E4autoBd_
FN:76,_RNvXs4_NvMs1_NtCs4jNeg51vteg_8lifetime13target_fuzz__NtBb_4Args13auto_generateINtB5_s1_4AutoNtBd_3BarEINtB5_s1_12AutoFallbackB1s_E4autoBd_
FN:76,_RNvXs4_NvMs1_NtCs5fNIG3PZaJo_11hello_world19intermediary_fuzz__NtBb_4Args13auto_generateINtB5_s1_4AutoNtNtCsgag4BwXrjBQ_5alloc6string6StringEINtB5_s1_12AutoFallbackB1C_E4autoBd_
FN:76,_RNvXs4_NvMs1_NtCs6ZJvwNFZ5Lo_11return_type16swap_swap_fuzz__INtBb_4ArgsppE13auto_generateINtB5_s1_4AutoINtBd_4SwapubEEINtB5_s1_12AutoFallbackB1D_E4autoBd_
FN:76,_RNvXs4_NvMs1_NtCs6fBdTSegfKf_14test_fuzz_impl17struct_bar_fuzz__NtBb_4Args13auto_generateINtB5_s1_4AutoNtBd_6StructEINtB5_s1_12AutoFallbackB1D_E4autoBd_
FN:76,_RNvXs4_NvMs1_NtCs6fBdTSegfKf_14test_fuzz_impl17struct_foo_fuzz__NtBb_4Args13auto_generateINtB5_s1_4AutoNtBd_6StructEINtB5_s1_12AutoFallbackB1D_E4autoBd_
FN:76,_RNvXs4_NvMs1_NtCs6z3aMDs3O5H_14parse_duration12parse_fuzz__NtBb_4Args13auto_generateINtB5_s1_4AutoNtNtCsgag4BwXrjBQ_5alloc6string6StringEINtB5_s1_12AutoFallbackB1y_E4autoBd_
FN:76,_RNvXs4_NvMs1_NtCs9i11WczUoNj_7profile13target_fuzz__NtBb_4Args13auto_generateINtB5_s1_4AutobEINtB5_s1_12AutoFallbackbE4autoBd_
FN:76,_RNvXs4_NvMs1_NtCsaVSfY7O0uYs_7generic14baz_qux_fuzz__INtBb_4ArgspE13auto_generateINtB5_s1_4AutoINtNtCs3XFJfFEDSOQ_4core6marker11PhantomDataNtBd_3BarEEINtB5_s1_12AutoFallbackB1v_E4autoBd_
FN:76,_RNvXs4_NvMs1_NtCsaVSfY7O0uYs_7generic20struct_target_fuzz__INtBb_4ArgspE13auto_generateINtB5_s1_4AutoNtBd_6StructEINtB5_s1_12AutoFallbackB1B_E4autoBd_
FN:76,_RNvXs4_NvMs1_NtCsaVSfY7O0uYs_7generic26struct_target_bound_fuzz__INtBb_4ArgsppE13auto_generateINtB5_s1_4AutoNtBd_6StructEINtB5_s1_12AutoFallbackB1I_E4autoBd_
FN:76,_RNvXs4_NvMs1_NtCsaVSfY7O0uYs_7generic33struct_target_where_clause_fuzz__INtBb_4ArgsppE13auto_generateINtB5_s1_4AutoNtBd_6StructEINtB5_s1_12AutoFallbackB1P_E4autoBd_
FN:76,_RNvXs4_NvMs1_NtCsb7JfYwj8ipQ_10serde_attr13target_fuzz__NtBb_4Args13auto_generateINtB5_s1_4AutoNtBd_7ContextEINtB5_s1_12AutoFallbackB1v_E4autoBd_
FN:76,_RNvXs4_NvMs1_NtCsbupd9d71YLx_16calm_and_panicky11calm_fuzz__NtBb_4Args13auto_generateINtB5_s1_4AutoNtBd_4CalmEINtB5_s1_12AutoFallbackB1z_E4autoBd_
FN:76,_RNvXs4_NvMs1_NtCsbupd9d71YLx_16calm_and_panicky14panicky_fuzz__NtBb_4Args13auto_generateINtB5_s1_4AutoNtBd_7PanickyEINtB5_s1_12AutoFallbackB1C_E4autoBd_
FN:76,_RNvXs4_NvMs1_NtCscaf2gEuSGn5_6qwerty13target_fuzz__NtBb_4Args13auto_generateINtB5_s1_4AutoNtNtCsgag4BwXrjBQ_5alloc6string6StringEINtB5_s1_12AutoFallbackB1q_E4autoBd_
FN:76,_RNvXs4_NvMs1_NtCsfEcBWhN4Na3_3arc13target_fuzz__NtBb_4Args13auto_generateINtB5_s1_4AutoINtNtCsgag4BwXrjBQ_5alloc4sync3ArcINtNtNtNtCsHIej2QEFI5_3std11collections4hash3set7HashSetmEEEINtB5_s1_12AutoFallbackB1n_E4autoBd_
FN:76,_RNvXs4_NvMs1_NtCsfODoU0UL7aq_11manual_leak23wrapped_key_dump_fuzz__NtBb_4Args13auto_generateINtB5_s1_4AutoNtBd_10WrappedKeyEINtB5_s1_12AutoFallbackB1G_E4autoBd_
FN:76,_RNvXs4_NvMs1_NtCsfOIDT8lUV2L_7mut_ref17target_str_fuzz__NtBb_4Args13auto_generateINtB5_s1_4AutoNtNtCsgag4BwXrjBQ_5alloc6string6StringEINtB5_s1_12AutoFallbackB1v_E4autoBd_
FN:76,_RNvXs4_NvMs1_NtCsfOIDT8lUV2L_7mut_ref19target_slice_fuzz__NtBb_4Args13auto_generateINtB5_s1_4AutoINtNtCsgag4BwXrjBQ_5alloc3vec3VechEEINtB5_s1_12AutoFallbackB1x_E4autoBd_
FN:76,_RNvXs4_NvMs1_NtCsgZ69XjcSWhh_6assert13target_fuzz__NtBb_4Args13auto_generateINtB5_s1_4AutobEINtB5_s1_12AutoFallbackbE4autoBd_
FN:76,_RNvXs4_NvMs1_NtCsjk8KY6qq2Wr_8parallel15target_0_fuzz__NtBb_4Args13auto_generateINtB5_s1_4AutobEINtB5_s1_12AutoFallbackbE4autoBd_
FN:76,_RNvXs4_NvMs1_NtCsjk8KY6qq2Wr_8parallel15target_1_fuzz__NtBb_4Args13auto_generateINtB5_s1_4AutobEINtB5_s1_12AutoFallbackbE4autoBd_
FN:76,_RNvXs4_NvMs1_NtCsjk8KY6qq2Wr_8parallel15target_2_fuzz__NtBb_4Args13auto_generateINtB5_s1_4AutobEINtB5_s1_12AutoFallbackbE4autoBd_
FN:76,_RNvXs4_NvMs1_NtCsjk8KY6qq2Wr_8parallel15target_3_fuzz__NtBb_4Args13auto_generateINtB5_s1_4AutobEINtB5_s1_12AutoFallbackbE4autoBd_
FN:76,_RNvXs4_NvMs1_NtCsjk8KY6qq2Wr_8parallel15target_4_fuzz__NtBb_4Args13auto_generateINtB5_s1_4AutobEINtB5_s1_12AutoFallbackbE4autoBd_
FN:76,_RNvXs4_NvMs1_NtCsjk8KY6qq2Wr_8parallel15target_5_fuzz__NtBb_4Args13auto_generateINtB5_s1_4AutobEINtB5_s1_12AutoFallbackbE4autoBd_
FN:76,_RNvXs4_NvMs1_NtCskkeazd6lurB_15associated_type20serializes_to_fuzz__INtBb_4ArgspE13auto_generateINtB5_s1_4AutoNtBd_7AddressEINtB5_s1_12AutoFallbackB1K_E4autoBd_
FN:76,_RNvXs4_NvMs1_NtNtCs4RwwcRvri8p_7default10no_default13target_fuzz__NtBb_4Args13auto_generateINtB5_s1_4AutoNtBd_6StructEINtB5_s1_12AutoFallbackB1F_E4autoBf_
FN:76,_RNvXs4_NvMs1_NtNtCs4RwwcRvri8p_7default7default13target_fuzz__NtBb_4Args13auto_generateINtB5_s1_4AutoNtBd_6StructEINtB5_s1_12AutoFallbackB1B_E4autoBf_
FN:76,_RNvXs4_NvMs1_NtNtCsaVSfY7O0uYs_7generic27receiverless_trait_function20struct_target_fuzz__INtBb_4ArgspE13auto_generateINtB5_s1_4AutoNtBf_3BarEINtB5_s1_12AutoFallbackB26_E4autoBf_
FN:76,_RNvXs4_NvMs1_NtNtCsbZ6qTFMlSKY_5serde10byte_array13target_fuzz__NtBb_4Args13auto_generateINtB5_s1_4AutoAhj0_EINtB5_s1_12AutoFallbackB1D_E4autoBf_
FN:76,_RNvXs4_NvMs1_NtNtCsbZ6qTFMlSKY_5serde11unit_struct13target_fuzz__NtBb_4Args13auto_generateINtB5_s1_4AutoNtBd_10UnitStructEINtB5_s1_12AutoFallbackB1E_E4autoBf_
FN:76,_RNvXs4_NvMs1_NtNtCsbZ6qTFMlSKY_5serde12tuple_struct13target_fuzz__NtBb_4Args13auto_generateINtB5_s1_4AutoNtBd_11TupleStructEINtB5_s1_12AutoFallbackB1F_E4autoBf_
FN:76,_RNvXs4_NvMs1_NtNtCsbZ6qTFMlSKY_5serde12unit_variant13target_fuzz__NtBb_4Args13auto_generateINtB5_s1_4AutoNtBd_11UnitVariantEINtB5_s1_12AutoFallbackB1F_E4autoBf_
FN:76,_RNvXs4_NvMs1_NtNtCsbZ6qTFMlSKY_5serde13tuple_variant13target_fuzz__NtBb_4Args13auto_generateINtB5_s1_4AutoNtBd_12TupleVariantEINtB5_s1_12AutoFallbackB1G_E4autoBf_
FN:76,_RNvXs4_NvMs1_NtNtCsbZ6qTFMlSKY_5serde14newtype_struct13target_fuzz__NtBb_4Args13auto_generateINtB5_s1_4AutoNtBd_13NewtypeStructEINtB5_s1_12AutoFallbackB1H_E4autoBf_
FN:76,_RNvXs4_NvMs1_NtNtCsbZ6qTFMlSKY_5serde14struct_variant13target_fuzz__NtBb_4Args13auto_generateINtB5_s1_4AutoNtBd_13StructVariantEINtB5_s1_12AutoFallbackB1H_E4autoBf_
FN:76,_RNvXs4_NvMs1_NtNtCsbZ6qTFMlSKY_5serde15newtype_variant13target_fuzz__NtBb_4Args13auto_generateINtB5_s1_4AutoNtBd_14NewtypeVariantEINtB5_s1_12AutoFallbackB1I_E4autoBf_
FN:76,_RNvXs4_NvMs1_NtNtCsbZ6qTFMlSKY_5serde3map13target_fuzz__NtBb_4Args13auto_generateINtB5_s1_4AutoINtNtNtNtCsgag4BwXrjBQ_5alloc11collections5btree3map8BTreeMaphhEEINtB5_s1_12AutoFallbackB1v_E4autoBf_
FN:76,_RNvXs4_NvMs1_NtNtCsbZ6qTFMlSKY_5serde3seq13target_fuzz__NtBb_4Args13auto_generateINtB5_s1_4AutoINtNtCsgag4BwXrjBQ_5alloc3vec3VechEEINtB5_s1_12AutoFallbackB1v_E4autoBf_
FN:76,_RNvXs4_NvMs1_NtNtCsbZ6qTFMlSKY_5serde4unit13target_fuzz__NtBb_4Args13auto_generateINtB5_s1_4AutouEINtB5_s1_12AutoFallbackuE4autoBf_
FN:76,_RNvXs4_NvMs1_NtNtCsbZ6qTFMlSKY_5serde5tuple13target_fuzz__NtBb_4Args13auto_generateINtB5_s1_4AutoThEEINtB5_s1_12AutoFallbackB1x_E4autoBf_
FN:76,_RNvXs4_NvMs1_NtNtCsbZ6qTFMlSKY_5serde6option13target_fuzz__NtBb_4Args13auto_generateINtB5_s1_4AutoINtNtCs3XFJfFEDSOQ_4core6option6OptionhEEINtB5_s1_12AutoFallbackB1y_E4autoBf_
FN:76,_RNvXs4_NvMs1_NtNtCsbZ6qTFMlSKY_5serde6string13target_fuzz__NtBb_4Args13auto_generateINtB5_s1_4AutoNtNtCsgag4BwXrjBQ_5alloc6string6StringEINtB5_s1_12AutoFallbackB1y_E4autoBf_
FN:76,_RNvXs4_NvMs1_NtNtCsbZ6qTFMlSKY_5serde6strukt13target_fuzz__NtBb_4Args13auto_generateINtB5_s1_4AutoNtBd_6StructEINtB5_s1_12AutoFallbackB1y_E4autoBf_
FN:76,_RNvXs4_NvMs1_NtNtCsfL22ijsdh9Q_5debug4hang13target_fuzz__NtBb_4Args13auto_generateINtB5_s1_4AutoNtBd_6StructEINtB5_s1_12AutoFallbackB1w_E4autoBf_
FN:76,_RNvXs4_NvMs1_NtNtCsfL22ijsdh9Q_5debug5crash13target_fuzz__NtBb_4Args13auto_generateINtB5_s1_4AutoNtBd_6StructEINtB5_s1_12AutoFallbackB1x_E4autoBf_
FN:76,_RNvXs4_NvMs1_NtNtCsgyJtF4GtVdY_10conversion11uncloneable13target_fuzz__NtBb_4Args13auto_generateINtB5_s1_4AutoNtBd_1YEINtB5_s1_12AutoFallbackB1K_E4autoBf_
FN:76,_RNvXs4_NvMs1_NtNtCsgyJtF4GtVdY_10conversion4path13target_fuzz__NtBb_4Args13auto_generateINtB5_s1_4AutoNtBd_10LeakedPathEINtB5_s1_12AutoFallbackB1C_E4autoBf_
FN:76,_RNvXs4_NvMs1_NtNtCsgyJtF4GtVdY_10conversion5array13target_fuzz__NtBb_4Args13auto_generateINtB5_s1_4AutoNtBd_11LeakedArrayEINtB5_s1_12AutoFallbackB1D_E4autoBf_
FN:76,_RNvXs4_NvMs1_NtNtCsgyJtF4GtVdY_10conversion7mutable13target_fuzz__NtBb_4Args13auto_generateINtB5_s1_4AutoNtBd_1YEINtB5_s1_12AutoFallbackB1F_E4autoBf_
FN:76,_RNvXs4_NvMs1_NtNtCsgyJtF4GtVdY_10conversion8lifetime13target_fuzz__NtBb_4Args13auto_generateINtB5_s1_4AutoNtBd_1YEINtB5_s1_12AutoFallbackB1G_E4autoBf_
FN:76,_RNvXs4_NvMs1_NtNtCsgyJtF4GtVdY_10conversion8receiver20x_target_self_fuzz__NtBb_4Args13auto_generateINtB5_s1_4AutoNtBd_1YEINtB5_s1_12AutoFallbackB1N_E4autoBf_
FN:76,_RNvXs4_NvMs1_NtNtCsgyJtF4GtVdY_10conversion8receiver21x_target_other_fuzz__NtBb_4Args13auto_generateINtB5_s1_4AutoNtBd_1YEINtB5_s1_12AutoFallbackB1O_E4autoBf_
FN:76,_RNvXs6_NvMs1_NtCs2zeNb6jgslg_19self_ty_in_mod_name20struct_target_fuzz__NtBb_4Args13auto_generateINtB5_s2_4AutoNtBd_6StructEINtB5_s2_12AutoFallbackB1L_E4autoBd_
FN:76,_RNvXs6_NvMs1_NtCs4MGHVrkl72m_4from15bar_from_fuzz__NtBb_4Args13auto_generateINtB5_s2_4AutoNtBd_3FooEINtB5_s2_12AutoFallbackB1q_E4autoBd_
FN:76,_RNvXs6_NvMs1_NtCs4MGHVrkl72m_4from15baz_into_fuzz__NtBb_4Args13auto_generateINtB5_s2_4AutoNtBd_3BazEINtB5_s2_12AutoFallbackB1q_E4autoBd_
FN:76,_RNvXs6_NvMs1_NtCs4MGHVrkl72m_4from19baz_try_from_fuzz__NtBb_4Args13auto_generateINtB5_s2_4AutoNtBd_3BarEINtB5_s2_12AutoFallbackB1u_E4autoBd_
FN:76,_RNvXs6_NvMs1_NtCs4jNeg51vteg_8lifetime13target_fuzz__NtBb_4Args13auto_generateINtB5_s2_4AutoNtBd_3BarEINtB5_s2_12AutoFallbackB1s_E4autoBd_
FN:76,_RNvXs6_NvMs1_NtCs5fNIG3PZaJo_11hello_world19intermediary_fuzz__NtBb_4Args13auto_generateINtB5_s2_4AutoNtNtCsgag4BwXrjBQ_5alloc6string6StringEINtB5_s2_12AutoFallbackB1C_E4autoBd_
FN:76,_RNvXs6_NvMs1_NtCs6ZJvwNFZ5Lo_11return_type16swap_swap_fuzz__INtBb_4ArgsppE13auto_generateINtB5_s2_4AutoINtBd_4SwapubEEINtB5_s2_12AutoFallbackB1D_E4autoBd_
FN:76,_RNvXs6_NvMs1_NtCs6fBdTSegfKf_14test_fuzz_impl17struct_bar_fuzz__NtBb_4Args13auto_generateINtB5_s2_4AutoNtBd_6StructEINtB5_s2_12AutoFallbackB1D_E4autoBd_
FN:76,_RNvXs6_NvMs1_NtCs6fBdTSegfKf_14test_fuzz_impl17struct_foo_fuzz__NtBb_4Args13auto_generateINtB5_s2_4AutoNtBd_6StructEINtB5_s2_12AutoFallbackB1D_E4autoBd_
FN:76,_RNvXs6_NvMs1_NtCs6z3aMDs3O5H_14parse_duration12parse_fuzz__NtBb_4Args13auto_generateINtB5_s2_4AutoNtNtCsgag4BwXrjBQ_5alloc6string6StringEINtB5_s2_12AutoFallbackB1y_E4autoBd_
FN:76,_RNvXs6_NvMs1_NtCs9i11WczUoNj_7profile13target_fuzz__NtBb_4Args13auto_generateINtB5_s2_4AutobEINtB5_s2_12AutoFallbackbE4autoBd_
FN:76,_RNvXs6_NvMs1_NtCsaVSfY7O0uYs_7generic14baz_qux_fuzz__INtBb_4ArgspE13auto_generateINtB5_s2_4AutoINtNtCs3XFJfFEDSOQ_4core6marker11PhantomDataNtBd_3BarEEINtB5_s2_12AutoFallbackB1v_E4autoBd_
FN:76,_RNvXs6_NvMs1_NtCsaVSfY7O0uYs_7generic20struct_target_fuzz__INtBb_4ArgspE13auto_generateINtB5_s2_4AutoNtBd_6StructEINtB5_s2_12AutoFallbackB1B_E4autoBd_
FN:76,_RNvXs6_NvMs1_NtCsaVSfY7O0uYs_7generic26struct_target_bound_fuzz__INtBb_4ArgsppE13auto_generateINtB5_s2_4AutoNtBd_6StructEINtB5_s2_12AutoFallbackB1I_E4autoBd_
FN:76,_RNvXs6_NvMs1_NtCsaVSfY7O0uYs_7generic33struct_target_where_clause_fuzz__INtBb_4ArgsppE13auto_generateINtB5_s2_4AutoNtBd_6StructEINtB5_s2_12AutoFallbackB1P_E4autoBd_
FN:76,_RNvXs6_NvMs1_NtCsb7JfYwj8ipQ_10serde_attr13target_fuzz__NtBb_4Args13auto_generateINtB5_s2_4AutoNtBd_7ContextEINtB5_s2_12AutoFallbackB1v_E4autoBd_
FN:76,_RNvXs6_NvMs1_NtCsbupd9d71YLx_16calm_and_panicky11calm_fuzz__NtBb_4Args13auto_generateINtB5_s2_4AutoNtBd_4CalmEINtB5_s2_12AutoFallbackB1z_E4autoBd_
FN:76,_RNvXs6_NvMs1_NtCsbupd9d71YLx_16calm_and_panicky14panicky_fuzz__NtBb_4Args13auto_generateINtB5_s2_4AutoNtBd_7PanickyEINtB5_s2_12AutoFallbackB1C_E4autoBd_
FN:76,_RNvXs6_NvMs1_NtCscaf2gEuSGn5_6qwerty13target_fuzz__NtBb_4Args13auto_generateINtB5_s2_4AutoNtNtCsgag4BwXrjBQ_5alloc6string6StringEINtB5_s2_12AutoFallbackB1q_E4autoBd_
FN:76,_RNvXs6_NvMs1_NtCsfEcBWhN4Na3_3arc13target_fuzz__NtBb_4Args13auto_generateINtB5_s2_4AutoINtNtCsgag4BwXrjBQ_5alloc4sync3ArcINtNtNtNtCsHIej2QEFI5_3std11collections4hash3set7HashSetmEEEINtB5_s2_12AutoFallbackB1n_E4autoBd_
FN:76,_RNvXs6_NvMs1_NtCsfODoU0UL7aq_11manual_leak23wrapped_key_dump_fuzz__NtBb_4Args13auto_generateINtB5_s2_4AutoNtBd_10WrappedKeyEINtB5_s2_12AutoFallbackB1G_E4autoBd_
FN:76,_RNvXs6_NvMs1_NtCsfOIDT8lUV2L_7mut_ref17target_str_fuzz__NtBb_4Args13auto_generateINtB5_s2_4AutoNtNtCsgag4BwXrjBQ_5alloc6string6StringEINtB5_s2_12AutoFallbackB1v_E4autoBd_
FN:76,_RNvXs6_NvMs1_NtCsfOIDT8lUV2L_7mut_ref19target_slice_fuzz__NtBb_4Args13auto_generateINtB5_s2_4AutoINtNtCsgag4BwXrjBQ_5alloc3vec3VechEEINtB5_s2_12AutoFallbackB1x_E4autoBd_
FN:76,_RNvXs6_NvMs1_NtCsgZ69XjcSWhh_6assert13target_fuzz__NtBb_4Args13auto_generateINtB5_s2_4AutobEINtB5_s2_12AutoFallbackbE4autoBd_
FN:76,_RNvXs6_NvMs1_NtCsjk8KY6qq2Wr_8parallel15target_0_fuzz__NtBb_4Args13auto_generateINtB5_s2_4AutobEINtB5_s2_12AutoFallbackbE4autoBd_
FN:76,_RNvXs6_NvMs1_NtCsjk8KY6qq2Wr_8parallel15target_1_fuzz__NtBb_4Args13auto_generateINtB5_s2_4AutobEINtB5_s2_12AutoFallbackbE4autoBd_
FN:76,_RNvXs6_NvMs1_NtCsjk8KY6qq2Wr_8parallel15target_2_fuzz__NtBb_4Args13auto_generateINtB5_s2_4AutobEINtB5_s2_12AutoFallbackbE4autoBd_
FN:76,_RNvXs6_NvMs1_NtCsjk8KY6qq2Wr_8parallel15target_3_fuzz__NtBb_4Args13auto_generateINtB5_s2_4AutobEINtB5_s2_12AutoFallbackbE4autoBd_
FN:76,_RNvXs6_NvMs1_NtCsjk8KY6qq2Wr_8parallel15target_4_fuzz__NtBb_4Args13auto_generateINtB5_s2_4AutobEINtB5_s2_12AutoFallbackbE4autoBd_
FN:76,_RNvXs6_NvMs1_NtCsjk8KY6qq2Wr_8parallel15target_5_fuzz__NtBb_4Args13auto_generateINtB5_s2_4AutobEINtB5_s2_12AutoFallbackbE4autoBd_
FN:76,_RNvXs6_NvMs1_NtCskkeazd6lurB_15associated_type20serializes_to_fuzz__INtBb_4ArgspE13auto_generateINtB5_s2_4AutoNtBd_7AddressEINtB5_s2_12AutoFallbackB1K_E4autoBd_
FN:76,_RNvXs6_NvMs1_NtNtCs4RwwcRvri8p_7default10no_default13target_fuzz__NtBb_4Args13auto_generateINtB5_s2_4AutoNtBd_6StructEINtB5_s2_12AutoFallbackB1F_E4autoBf_
FN:76,_RNvXs6_NvMs1_NtNtCs4RwwcRvri8p_7default7default13target_fuzz__NtBb_4Args13auto_generateINtB5_s2_4AutoNtBd_6StructEINtB5_s2_12AutoFallbackB1B_E4autoBf_
FN:76,_RNvXs6_NvMs1_NtNtCsaVSfY7O0uYs_7generic27receiverless_trait_function20struct_target_fuzz__INtBb_4ArgspE13auto_generateINtB5_s2_4AutoNtBf_3BarEINtB5_s2_12AutoFallbackB26_E4autoBf_
FN:76,_RNvXs6_NvMs1_NtNtCsbZ6qTFMlSKY_5serde10byte_array13target_fuzz__NtBb_4Args13auto_generateINtB5_s2_4AutoAhj0_EINtB5_s2_12AutoFallbackB1D_E4autoBf_
FN:76,_RNvXs6_NvMs1_NtNtCsbZ6qTFMlSKY_5serde11unit_struct13target_fuzz__NtBb_4Args13auto_generateINtB5_s2_4AutoNtBd_10UnitStructEINtB5_s2_12AutoFallbackB1E_E4autoBf_
FN:76,_RNvXs6_NvMs1_NtNtCsbZ6qTFMlSKY_5serde12tuple_struct13target_fuzz__NtBb_4Args13auto_generateINtB5_s2_4AutoNtBd_11TupleStructEINtB5_s2_12AutoFallbackB1F_E4autoBf_
FN:76,_RNvXs6_NvMs1_NtNtCsbZ6qTFMlSKY_5serde12unit_variant13target_fuzz__NtBb_4Args13auto_generateINtB5_s2_4AutoNtBd_11UnitVariantEINtB5_s2_12AutoFallbackB1F_E4autoBf_
FN:76,_RNvXs6_NvMs1_NtNtCsbZ6qTFMlSKY_5serde13tuple_variant13target_fuzz__NtBb_4Args13auto_generateINtB5_s2_4AutoNtBd_12TupleVariantEINtB5_s2_12AutoFallbackB1G_E4autoBf_
FN:76,_RNvXs6_NvMs1_NtNtCsbZ6qTFMlSKY_5serde14newtype_struct13target_fuzz__NtBb_4Args13auto_generateINtB5_s2_4AutoNtBd_13NewtypeStructEINtB5_s2_12AutoFallbackB1H_E4autoBf_
FN:76,_RNvXs6_NvMs1_NtNtCsbZ6qTFMlSKY_5serde14struct_variant13target_fuzz__NtBb_4Args13auto_generateINtB5_s2_4AutoNtBd_13StructVariantEINtB5_s2_12AutoFallbackB1H_E4autoBf_
FN:76,_RNvXs6_NvMs1_NtNtCsbZ6qTFMlSKY_5serde15newtype_variant13target_fuzz__NtBb_4Args13auto_generateINtB5_s2_4AutoNtBd_14NewtypeVariantEINtB5_s2_12AutoFallbackB1I_E4autoBf_
FN:76,_RNvXs6_NvMs1_NtNtCsbZ6qTFMlSKY_5serde3map13target_fuzz__NtBb_4Args13auto_generateINtB5_s2_4AutoINtNtNtNtCsgag4BwXrjBQ_5alloc11collections5btree3map8BTreeMaphhEEINtB5_s2_12AutoFallbackB1v_E4autoBf_
FN:76,_RNvXs6_NvMs1_NtNtCsbZ6qTFMlSKY_5serde3seq13target_fuzz__NtBb_4Args13auto_generateINtB5_s2_4AutoINtNtCsgag4BwXrjBQ_5alloc3vec3VechEEINtB5_s2_12AutoFallbackB1v_E4autoBf_
FN:76,_RNvXs6_NvMs1_NtNtCsbZ6qTFMlSKY_5serde4unit13target_fuzz__NtBb_4Args13auto_generateINtB5_s2_4AutouEINtB5_s2_12AutoFallbackuE4autoBf_
FN:76,_RNvXs6_NvMs1_NtNtCsbZ6qTFMlSKY_5serde5tuple13target_fuzz__NtBb_4Args13auto_generateINtB5_s2_4AutoThEEINtB5_s2_12AutoFallbackB1x_E4autoBf_
FN:76,_RNvXs6_NvMs1_NtNtCsbZ6qTFMlSKY_5serde6option13target_fuzz__NtBb_4Args13auto_generateINtB5_s2_4AutoINtNtCs3XFJfFEDSOQ_4core6option6OptionhEEINtB5_s2_12AutoFallbackB1y_E4autoBf_
FN:76,_RNvXs6_NvMs1_NtNtCsbZ6qTFMlSKY_5serde6string13target_fuzz__NtBb_4Args13auto_generateINtB5_s2_4AutoNtNtCsgag4BwXrjBQ_5alloc6string6StringEINtB5_s2_12AutoFallbackB1y_E4autoBf_
FN:76,_RNvXs6_NvMs1_NtNtCsbZ6qTFMlSKY_5serde6strukt13target_fuzz__NtBb_4Args13auto_generateINtB5_s2_4AutoNtBd_6StructEINtB5_s2_12AutoFallbackB1y_E4autoBf_
FN:76,_RNvXs6_NvMs1_NtNtCsfL22ijsdh9Q_5debug4hang13target_fuzz__NtBb_4Args13auto_generateINtB5_s2_4AutoNtBd_6StructEINtB5_s2_12AutoFallbackB1w_E4autoBf_
FN:76,_RNvXs6_NvMs1_NtNtCsfL22ijsdh9Q_5debug5crash13target_fuzz__NtBb_4Args13auto_generateINtB5_s2_4AutoNtBd_6StructEINtB5_s2_12AutoFallbackB1x_E4autoBf_
FN:76,_RNvXs6_NvMs1_NtNtCsgyJtF4GtVdY_10conversion11uncloneable13target_fuzz__NtBb_4Args13auto_generateINtB5_s2_4AutoNtBd_1YEINtB5_s2_12AutoFallbackB1K_E4autoBf_
FN:76,_RNvXs6_NvMs1_NtNtCsgyJtF4GtVdY_10conversion4path13target_fuzz__NtBb_4Args13auto_generateINtB5_s2_4AutoNtBd_10LeakedPathEINtB5_s2_12AutoFallbackB1C_E4autoBf_
FN:76,_RNvXs6_NvMs1_NtNtCsgyJtF4GtVdY_10conversion5array13target_fuzz__NtBb_4Args13auto_generateINtB5_s2_4AutoNtBd_11LeakedArrayEINtB5_s2_12AutoFallbackB1D_E4autoBf_
FN:76,_RNvXs6_NvMs1_NtNtCsgyJtF4GtVdY_10conversion7mutable13target_fuzz__NtBb_4Args13auto_generateINtB5_s2_4AutoNtBd_1YEINtB5_s2_12AutoFallbackB1F_E4autoBf_
FN:76,_RNvXs6_NvMs1_NtNtCsgyJtF4GtVdY_10conversion8lifetime13target_fuzz__NtBb_4Args13auto_generateINtB5_s2_4AutoNtBd_1YEINtB5_s2_12AutoFallbackB1G_E4autoBf_
FN:76,_RNvXs6_NvMs1_NtNtCsgyJtF4GtVdY_10conversion8receiver20x_target_self_fuzz__NtBb_4Args13auto_generateINtB5_s2_4AutoNtBd_1YEINtB5_s2_12AutoFallbackB1N_E4autoBf_
FN:76,_RNvXs6_NvMs1_NtNtCsgyJtF4GtVdY_10conversion8receiver21x_target_other_fuzz__NtBb_4Args13auto_generateINtB5_s2_4AutoNtBd_1YEINtB5_s2_12AutoFallbackB1O_E4autoBf_
FN:76,_RNvXs8_NvMs1_NtCs4jNeg51vteg_8lifetime13target_fuzz__NtBb_4Args13auto_generateINtB5_s3_4AutoINtNtCs3XFJfFEDSOQ_4core6marker11PhantomDataRuEEINtB5_s3_12AutoFallbackB1s_E4autoBd_
FN:76,_RNvXs8_NvMs1_NtCs6ZJvwNFZ5Lo_11return_type16swap_swap_fuzz__INtBb_4ArgsppE13auto_generateINtB5_s3_4AutoINtNtCs3XFJfFEDSOQ_4core6marker11PhantomDatauEEINtB5_s3_12AutoFallbackB1D_E4autoBd_
FN:76,_RNvXs8_NvMs1_NtCsaVSfY7O0uYs_7generic20struct_target_fuzz__INtBb_4ArgspE13auto_generateINtB5_s3_4AutoNtBd_3BarEINtB5_s3_12AutoFallbackB1B_E4autoBd_
FN:76,_RNvXs8_NvMs1_NtCsaVSfY7O0uYs_7generic26struct_target_bound_fuzz__INtBb_4ArgsppE13auto_generateINtB5_s3_4AutoNtBd_3BarEINtB5_s3_12AutoFallbackB1I_E4autoBd_
FN:76,_RNvXs8_NvMs1_NtCsaVSfY7O0uYs_7generic33struct_target_where_clause_fuzz__INtBb_4ArgsppE13auto_generateINtB5_s3_4AutoNtBd_3BarEINtB5_s3_12AutoFallbackB1P_E4autoBd_
FN:76,_RNvXs8_NvMs1_NtCsfODoU0UL7aq_11manual_leak23wrapped_key_dump_fuzz__NtBb_4Args13auto_generateINtB5_s3_4AutoINtNtCs3XFJfFEDSOQ_4core6marker11PhantomDataRuEEINtB5_s3_12AutoFallbackB1G_E4autoBd_
FN:76,_RNvXs8_NvMs1_NtCskkeazd6lurB_15associated_type20serializes_to_fuzz__INtBb_4ArgspE13auto_generateINtB5_s3_4AutoNtNtCsgag4BwXrjBQ_5alloc6string6StringEINtB5_s3_12AutoFallbackB1K_E4autoBd_
FN:76,_RNvXs8_NvMs1_NtNtCsaVSfY7O0uYs_7generic27receiverless_trait_function20struct_target_fuzz__INtBb_4ArgspE13auto_generateINtB5_s3_4AutoINtNtCs3XFJfFEDSOQ_4core6marker11PhantomDataNtBf_3BarEEINtB5_s3_12AutoFallbackB26_E4autoBf_
FN:76,_RNvXs8_NvMs1_NtNtCsbZ6qTFMlSKY_5serde10byte_array13target_fuzz__NtBb_4Args13auto_generateINtB5_s3_4AutoAhj0_EINtB5_s3_12AutoFallbackB1D_E4autoBf_
FN:76,_RNvXs8_NvMs1_NtNtCsbZ6qTFMlSKY_5serde11unit_struct13target_fuzz__NtBb_4Args13auto_generateINtB5_s3_4AutoNtBd_10UnitStructEINtB5_s3_12AutoFallbackB1E_E4autoBf_
FN:76,_RNvXs8_NvMs1_NtNtCsbZ6qTFMlSKY_5serde12tuple_struct13target_fuzz__NtBb_4Args13auto_generateINtB5_s3_4AutoNtBd_11TupleStructEINtB5_s3_12AutoFallbackB1F_E4autoBf_
FN:76,_RNvXs8_NvMs1_NtNtCsbZ6qTFMlSKY_5serde12unit_variant13target_fuzz__NtBb_4Args13auto_generateINtB5_s3_4AutoNtBd_11UnitVariantEINtB5_s3_12AutoFallbackB1F_E4autoBf_
FN:76,_RNvXs8_NvMs1_NtNtCsbZ6qTFMlSKY_5serde13tuple_variant13target_fuzz__NtBb_4Args13auto_generateINtB5_s3_4AutoNtBd_12TupleVariantEINtB5_s3_12AutoFallbackB1G_E4autoBf_
FN:76,_RNvXs8_NvMs1_NtNtCsbZ6qTFMlSKY_5serde14newtype_struct13target_fuzz__NtBb_4Args13auto_generateINtB5_s3_4AutoNtBd_13NewtypeStructEINtB5_s3_12AutoFallbackB1H_E4autoBf_
FN:76,_RNvXs8_NvMs1_NtNtCsbZ6qTFMlSKY_5serde14struct_variant13target_fuzz__NtBb_4Args13auto_generateINtB5_s3_4AutoNtBd_13StructVariantEINtB5_s3_12AutoFallbackB1H_E4autoBf_
FN:76,_RNvXs8_NvMs1_NtNtCsbZ6qTFMlSKY_5serde15newtype_variant13target_fuzz__NtBb_4Args13auto_generateINtB5_s3_4AutoNtBd_14NewtypeVariantEINtB5_s3_12AutoFallbackB1I_E4autoBf_
FN:76,_RNvXs8_NvMs1_NtNtCsbZ6qTFMlSKY_5serde3map13target_fuzz__NtBb_4Args13auto_generateINtB5_s3_4AutoINtNtNtNtCsgag4BwXrjBQ_5alloc11collections5btree3map8BTreeMaphhEEINtB5_s3_12AutoFallbackB1v_E4autoBf_
FN:76,_RNvXs8_NvMs1_NtNtCsbZ6qTFMlSKY_5serde3seq13target_fuzz__NtBb_4Args13auto_generateINtB5_s3_4AutoINtNtCsgag4BwXrjBQ_5alloc3vec3VechEEINtB5_s3_12AutoFallbackB1v_E4autoBf_
FN:76,_RNvXs8_NvMs1_NtNtCsbZ6qTFMlSKY_5serde6option13target_fuzz__NtBb_4Args13auto_generateINtB5_s3_4AutoINtNtCs3XFJfFEDSOQ_4core6option6OptionhEEINtB5_s3_12AutoFallbackB1y_E4autoBf_
FN:76,_RNvXs8_NvMs1_NtNtCsbZ6qTFMlSKY_5serde6string13target_fuzz__NtBb_4Args13auto_generateINtB5_s3_4AutoNtNtCsgag4BwXrjBQ_5alloc6string6StringEINtB5_s3_12AutoFallbackB1y_E4autoBf_
FN:76,_RNvXs8_NvMs1_NtNtCsbZ6qTFMlSKY_5serde6strukt13target_fuzz__NtBb_4Args13auto_generateINtB5_s3_4AutoNtBd_6StructEINtB5_s3_12AutoFallbackB1y_E4autoBf_
FN:76,_RNvXs8_NvMs1_NtNtCsgyJtF4GtVdY_10conversion8lifetime13target_fuzz__NtBb_4Args13auto_generateINtB5_s3_4AutoINtNtCs3XFJfFEDSOQ_4core6marker11PhantomDataRuEEINtB5_s3_12AutoFallbackB1G_E4autoBf_
FN:76,_RNvXsA_NvMs1_NtCsaVSfY7O0uYs_7generic26struct_target_bound_fuzz__INtBb_4ArgsppE13auto_generateINtB5_sh_4AutoINtNtCs3XFJfFEDSOQ_4core6marker11PhantomDataNtBd_3BarEEINtB5_sh_12AutoFallbackB1I_E4autoBd_
FN:76,_RNvXsA_NvMs1_NtCsaVSfY7O0uYs_7generic33struct_target_where_clause_fuzz__INtBb_4ArgsppE13auto_generateINtB5_sh_4AutoINtNtCs3XFJfFEDSOQ_4core6marker11PhantomDataNtBd_3BarEEINtB5_sh_12AutoFallbackB1P_E4autoBd_
FN:76,_RNvXsA_NvMs1_NtNtCsbZ6qTFMlSKY_5serde10byte_array13target_fuzz__NtBb_4Args13auto_generateINtB5_sh_4AutoAhj1_EINtB5_sh_12AutoFallbackB1D_E4autoBf_
FN:76,_RNvXsA_NvMs1_NtNtCsbZ6qTFMlSKY_5serde3seq13target_fuzz__NtBb_4Args13auto_generateINtB5_sh_4AutoINtNtCsgag4BwXrjBQ_5alloc3vec3VechEEINtB5_sh_12AutoFallbackB1v_E4autoBf_
FN:76,_RNvXsA_NvMs1_NtNtCsbZ6qTFMlSKY_5serde5tuple13target_fuzz__NtBb_4Args13auto_generateINtB5_sh_4AutoThhEEINtB5_sh_12AutoFallbackB1x_E4autoBf_
FN:76,_RNvXsA_NvMs1_NtNtCsbZ6qTFMlSKY_5serde6string13target_fuzz__NtBb_4Args13auto_generateINtB5_sh_4AutoNtNtCsgag4BwXrjBQ_5alloc6string6StringEINtB5_sh_12AutoFallbackB1y_E4autoBf_
FN:76,_RNvXsC_NvMs1_NtCsaVSfY7O0uYs_7generic26struct_target_bound_fuzz__INtBb_4ArgsppE13auto_generateINtB5_si_4AutoINtNtCs3XFJfFEDSOQ_4core6marker11PhantomDataINtBd_3BazNtBd_3BarEEEINtB5_si_12AutoFallbackB1I_E4autoBd_
FN:76,_RNvXsC_NvMs1_NtCsaVSfY7O0uYs_7generic33struct_target_where_clause_fuzz__INtBb_4ArgsppE13auto_generateINtB5_si_4AutoINtNtCs3XFJfFEDSOQ_4core6marker11PhantomDataINtBd_3BazNtBd_3BarEEEINtB5_si_12AutoFallbackB1P_E4autoBd_
FN:76,_RNvXsC_NvMs1_NtNtCsbZ6qTFMlSKY_5serde10byte_array13target_fuzz__NtBb_4Args13auto_generateINtB5_si_4AutoAhj1_EINtB5_si_12AutoFallbackB1D_E4autoBf_
FN:76,_RNvXsC_NvMs1_NtNtCsbZ6qTFMlSKY_5serde3seq13target_fuzz__NtBb_4Args13auto_generateINtB5_si_4AutoINtNtNtNtCsHIej2QEFI5_3std11collections4hash3set7HashSethEEINtB5_si_12AutoFallbackB1v_E4autoBf_
FN:76,_RNvXsG_NvMs1_NtCsaVSfY7O0uYs_7generic26struct_target_bound_fuzz__INtBb_4ArgsppE13auto_generateINtB5_sk_4AutoINtNtCs3XFJfFEDSOQ_4core6marker11PhantomDataINtBd_3BazNtBd_3BarEEEINtB5_sk_12AutoFallbackB1I_E4autoBd_
FN:76,_RNvXsG_NvMs1_NtCsaVSfY7O0uYs_7generic33struct_target_where_clause_fuzz__INtBb_4ArgsppE13auto_generateINtB5_sk_4AutoINtNtCs3XFJfFEDSOQ_4core6marker11PhantomDataINtBd_3BazNtBd_3BarEEEINtB5_sk_12AutoFallbackB1P_E4autoBd_
FN:76,_RNvXsG_NvMs1_NtNtCsbZ6qTFMlSKY_5serde10byte_array13target_fuzz__NtBb_4Args13auto_generateINtB5_sk_4AutoAhj1_EINtB5_sk_12AutoFallbackB1D_E4autoBf_
FN:76,_RNvXsG_NvMs1_NtNtCsbZ6qTFMlSKY_5serde3seq13target_fuzz__NtBb_4Args13auto_generateINtB5_sk_4AutoINtNtNtNtCsHIej2QEFI5_3std11collections4hash3set7HashSethEEINtB5_sk_12AutoFallbackB1v_E4autoBf_
FN:76,_RNvXsG_NvMs1_NtNtCsbZ6qTFMlSKY_5serde5tuple13target_fuzz__NtBb_4Args13auto_generateINtB5_sk_4AutoThhEEINtB5_sk_12AutoFallbackB1x_E4autoBf_
FN:76,_RNvXsI_NvMs1_NtCsaVSfY7O0uYs_7generic26struct_target_bound_fuzz__INtBb_4ArgsppE13auto_generateINtB5_sl_4AutoINtNtCs3XFJfFEDSOQ_4core6marker11PhantomDataINtBd_3BazNtBd_3BarEEEINtB5_sl_12AutoFallbackB1I_E4autoBd_
FN:76,_RNvXsI_NvMs1_NtCsaVSfY7O0uYs_7generic33struct_target_where_clause_fuzz__INtBb_4ArgsppE13auto_generateINtB5_sl_4AutoINtNtCs3XFJfFEDSOQ_4core6marker11PhantomDataINtBd_3BazNtBd_3BarEEEINtB5_sl_12AutoFallbackB1P_E4autoBd_
FN:76,_RNvXsI_NvMs1_NtNtCsbZ6qTFMlSKY_5serde10byte_array13target_fuzz__NtBb_4Args13auto_generateINtB5_sl_4AutoAhj1_EINtB5_sl_12AutoFallbackB1D_E4autoBf_
FN:76,_RNvXsI_NvMs1_NtNtCsbZ6qTFMlSKY_5serde3seq13target_fuzz__NtBb_4Args13auto_generateINtB5_sl_4AutoINtNtNtNtCsHIej2QEFI5_3std11collections4hash3set7HashSethEEINtB5_sl_12AutoFallbackB1v_E4autoBf_
FN:76,_RNvXsI_NvMs1_NtNtCsbZ6qTFMlSKY_5serde5tuple13target_fuzz__NtBb_4Args13auto_generateINtB5_sl_4AutoThhEEINtB5_sl_12AutoFallbackB1x_E4autoBf_
FN:76,_RNvXsK_NvMs1_NtCsaVSfY7O0uYs_7generic26struct_target_bound_fuzz__INtBb_4ArgsppE13auto_generateINtB5_sm_4AutoINtNtCs3XFJfFEDSOQ_4core6marker11PhantomDataINtBd_3BazNtBd_3BarEEEINtB5_sm_12AutoFallbackB1I_E4autoBd_
FN:76,_RNvXsK_NvMs1_NtCsaVSfY7O0uYs_7generic33struct_target_where_clause_fuzz__INtBb_4ArgsppE13auto_generateINtB5_sm_4AutoINtNtCs3XFJfFEDSOQ_4core6marker11PhantomDataINtBd_3BazNtBd_3BarEEEINtB5_sm_12AutoFallbackB1P_E4autoBd_
FN:76,_RNvXsK_NvMs1_NtNtCsbZ6qTFMlSKY_5serde10byte_array13target_fuzz__NtBb_4Args13auto_generateINtB5_sm_4AutoAhj1_EINtB5_sm_12AutoFallbackB1D_E4autoBf_
FN:76,_RNvXsK_NvMs1_NtNtCsbZ6qTFMlSKY_5serde3seq13target_fuzz__NtBb_4Args13auto_generateINtB5_sm_4AutoINtNtNtNtCsHIej2QEFI5_3std11collections4hash3set7HashSethEEINtB5_sm_12AutoFallbackB1v_E4autoBf_
FN:76,_RNvXsK_NvMs1_NtNtCsbZ6qTFMlSKY_5serde5tuple13target_fuzz__NtBb_4Args13auto_generateINtB5_sm_4AutoThhEEINtB5_sm_12AutoFallbackB1x_E4autoBf_
FN:76,_RNvXsM_NvMs1_NtNtCsbZ6qTFMlSKY_5serde10byte_array13target_fuzz__NtBb_4Args13auto_generateINtB5_sn_4AutoAhj1_EINtB5_sn_12AutoFallbackB1D_E4autoBf_
FN:76,_RNvXsM_NvMs1_NtNtCsbZ6qTFMlSKY_5serde3seq13target_fuzz__NtBb_4Args13auto_generateINtB5_sn_4AutoINtNtNtNtCsHIej2QEFI5_3std11collections4hash3set7HashSethEEINtB5_sn_12AutoFallbackB1v_E4autoBf_
FN:76,_RNvXsQ_NvMs1_NtNtCsbZ6qTFMlSKY_5serde10byte_array13target_fuzz__NtBb_4Args13auto_generateINtB5_sp_4AutoAhj1_EINtB5_sp_12AutoFallbackB1D_E4autoBf_
FN:76,_RNvXsQ_NvMs1_NtNtCsbZ6qTFMlSKY_5serde3seq13target_fuzz__NtBb_4Args13auto_generateINtB5_sp_4AutoINtNtNtNtCsHIej2QEFI5_3std11collections4hash3set7HashSethEEINtB5_sp_12AutoFallbackB1v_E4autoBf_
FN:76,_RNvXsQ_NvMs1_NtNtCsbZ6qTFMlSKY_5serde5tuple13target_fuzz__NtBb_4Args13auto_generateINtB5_sp_4AutoThhEEINtB5_sp_12AutoFallbackB1x_E4autoBf_
FN:76,_RNvXsS_NvMs1_NtNtCsbZ6qTFMlSKY_5serde10byte_array13target_fuzz__NtBb_4Args13auto_generateINtB5_sq_4AutoAhj1_EINtB5_sq_12AutoFallbackB1D_E4autoBf_
FN:76,_RNvXsS_NvMs1_NtNtCsbZ6qTFMlSKY_5serde3seq13target_fuzz__NtBb_4Args13auto_generateINtB5_sq_4AutoINtNtNtNtCsHIej2QEFI5_3std11collections4hash3set7HashSethEEINtB5_sq_12AutoFallbackB1v_E4autoBf_
FN:76,_RNvXsS_NvMs1_NtNtCsbZ6qTFMlSKY_5serde5tuple13target_fuzz__NtBb_4Args13auto_generateINtB5_sq_4AutoThhEEINtB5_sq_12AutoFallbackB1x_E4autoBf_
FN:76,_RNvXsU_NvMs1_NtNtCsbZ6qTFMlSKY_5serde10byte_array13target_fuzz__NtBb_4Args13auto_generateINtB5_sr_4AutoAhj1_EINtB5_sr_12AutoFallbackB1D_E4autoBf_
FN:76,_RNvXsU_NvMs1_NtNtCsbZ6qTFMlSKY_5serde3seq13target_fuzz__NtBb_4Args13auto_generateINtB5_sr_4AutoINtNtNtNtCsHIej2QEFI5_3std11collections4hash3set7HashSethEEINtB5_sr_12AutoFallbackB1v_E4autoBf_
FN:76,_RNvXsU_NvMs1_NtNtCsbZ6qTFMlSKY_5serde5tuple13target_fuzz__NtBb_4Args13auto_generateINtB5_sr_4AutoThhEEINtB5_sr_12AutoFallbackB1x_E4autoBf_
FN:76,_RNvXsW_NvMs1_NtNtCsbZ6qTFMlSKY_5serde10byte_array13target_fuzz__NtBb_4Args13auto_generateINtB5_ss_4AutoAhj2_EINtB5_ss_12AutoFallbackB1D_E4autoBf_
FN:76,_RNvXsW_NvMs1_NtNtCsbZ6qTFMlSKY_5serde3seq13target_fuzz__NtBb_4Args13auto_generateINtB5_ss_4AutoINtNtNtNtCsHIej2QEFI5_3std11collections4hash3set7HashSethEEINtB5_ss_12AutoFallbackB1v_E4autoBf_
FN:76,_RNvXsa_NvMs1_NtCsaVSfY7O0uYs_7generic20struct_target_fuzz__INtBb_4ArgspE13auto_generateINtB5_s4_4AutoNtBd_3BarEINtB5_s4_12AutoFallbackB1B_E4autoBd_
FN:76,_RNvXsa_NvMs1_NtCsaVSfY7O0uYs_7generic26struct_target_bound_fuzz__INtBb_4ArgsppE13auto_generateINtB5_s4_4AutoNtBd_3BarEINtB5_s4_12AutoFallbackB1I_E4autoBd_
FN:76,_RNvXsa_NvMs1_NtCsaVSfY7O0uYs_7generic33struct_target_where_clause_fuzz__INtBb_4ArgsppE13auto_generateINtB5_s4_4AutoNtBd_3BarEINtB5_s4_12AutoFallbackB1P_E4autoBd_
FN:76,_RNvXsa_NvMs1_NtCskkeazd6lurB_15associated_type20serializes_to_fuzz__INtBb_4ArgspE13auto_generateINtB5_s4_4AutoNtNtCsgag4BwXrjBQ_5alloc6string6StringEINtB5_s4_12AutoFallbackB1K_E4autoBd_
FN:76,_RNvXsa_NvMs1_NtNtCsbZ6qTFMlSKY_5serde12unit_variant13target_fuzz__NtBb_4Args13auto_generateINtB5_s4_4AutoNtBd_11UnitVariantEINtB5_s4_12AutoFallbackB1F_E4autoBf_
FN:76,_RNvXsc_NvMs1_NtCs4jNeg51vteg_8lifetime13target_fuzz__NtBb_4Args13auto_generateINtB5_s5_4AutoINtNtCs3XFJfFEDSOQ_4core6marker11PhantomDataRuEEINtB5_s5_12AutoFallbackB1s_E4autoBd_
FN:76,_RNvXsc_NvMs1_NtCs6ZJvwNFZ5Lo_11return_type16swap_swap_fuzz__INtBb_4ArgsppE13auto_generateINtB5_s5_4AutoINtNtCs3XFJfFEDSOQ_4core6marker11PhantomDatauEEINtB5_s5_12AutoFallbackB1D_E4autoBd_
FN:76,_RNvXsc_NvMs1_NtCsaVSfY7O0uYs_7generic20struct_target_fuzz__INtBb_4ArgspE13auto_generateINtB5_s5_4AutoNtBd_3BarEINtB5_s5_12AutoFallbackB1B_E4autoBd_
FN:76,_RNvXsc_NvMs1_NtCsaVSfY7O0uYs_7generic26struct_target_bound_fuzz__INtBb_4ArgsppE13auto_generateINtB5_s5_4AutoNtBd_3BarEINtB5_s5_12AutoFallbackB1I_E4autoBd_
FN:76,_RNvXsc_NvMs1_NtCsaVSfY7O0uYs_7generic33struct_target_where_clause_fuzz__INtBb_4ArgsppE13auto_generateINtB5_s5_4AutoNtBd_3BarEINtB5_s5_12AutoFallbackB1P_E4autoBd_
FN:76,_RNvXsc_NvMs1_NtCsfODoU0UL7aq_11manual_leak23wrapped_key_dump_fuzz__NtBb_4Args13auto_generateINtB5_s5_4AutoINtNtCs3XFJfFEDSOQ_4core6marker11PhantomDataRuEEINtB5_s5_12AutoFallbackB1G_E4autoBd_
FN:76,_RNvXsc_NvMs1_NtCskkeazd6lurB_15associated_type20serializes_to_fuzz__INtBb_4ArgspE13auto_generateINtB5_s5_4AutoNtNtCsgag4BwXrjBQ_5alloc6string6StringEINtB5_s5_12AutoFallbackB1K_E4autoBd_
FN:76,_RNvXsc_NvMs1_NtNtCsaVSfY7O0uYs_7generic27receiverless_trait_function20struct_target_fuzz__INtBb_4ArgspE13auto_generateINtB5_s5_4AutoINtNtCs3XFJfFEDSOQ_4core6marker11PhantomDataNtBf_3BarEEINtB5_s5_12AutoFallbackB26_E4autoBf_
FN:76,_RNvXsc_NvMs1_NtNtCsbZ6qTFMlSKY_5serde10byte_array13target_fuzz__NtBb_4Args13auto_generateINtB5_s5_4AutoAhj0_EINtB5_s5_12AutoFallbackB1D_E4autoBf_
FN:76,_RNvXsc_NvMs1_NtNtCsbZ6qTFMlSKY_5serde11unit_struct13target_fuzz__NtBb_4Args13auto_generateINtB5_s5_4AutoNtBd_10UnitStructEINtB5_s5_12AutoFallbackB1E_E4autoBf_
FN:76,_RNvXsc_NvMs1_NtNtCsbZ6qTFMlSKY_5serde12tuple_struct13target_fuzz__NtBb_4Args13auto_generateINtB5_s5_4AutoNtBd_11TupleStructEINtB5_s5_12AutoFallbackB1F_E4autoBf_
FN:76,_RNvXsc_NvMs1_NtNtCsbZ6qTFMlSKY_5serde12unit_variant13target_fuzz__NtBb_4Args13auto_generateINtB5_s5_4AutoNtBd_11UnitVariantEINtB5_s5_12AutoFallbackB1F_E4autoBf_
FN:76,_RNvXsc_NvMs1_NtNtCsbZ6qTFMlSKY_5serde13tuple_variant13target_fuzz__NtBb_4Args13auto_generateINtB5_s5_4AutoNtBd_12TupleVariantEINtB5_s5_12AutoFallbackB1G_E4autoBf_
FN:76,_RNvXsc_NvMs1_NtNtCsbZ6qTFMlSKY_5serde14newtype_struct13target_fuzz__NtBb_4Args13auto_generateINtB5_s5_4AutoNtBd_13NewtypeStructEINtB5_s5_12AutoFallbackB1H_E4autoBf_
FN:76,_RNvXsc_NvMs1_NtNtCsbZ6qTFMlSKY_5serde14struct_variant13target_fuzz__NtBb_4Args13auto_generateINtB5_s5_4AutoNtBd_13StructVariantEINtB5_s5_12AutoFallbackB1H_E4autoBf_
FN:76,_RNvXsc_NvMs1_NtNtCsbZ6qTFMlSKY_5serde15newtype_variant13target_fuzz__NtBb_4Args13auto_generateINtB5_s5_4AutoNtBd_14NewtypeVariantEINtB5_s5_12AutoFallbackB1I_E4autoBf_
FN:76,_RNvXsc_NvMs1_NtNtCsbZ6qTFMlSKY_5serde3map13target_fuzz__NtBb_4Args13auto_generateINtB5_s5_4AutoINtNtNtNtCsgag4BwXrjBQ_5alloc11collections5btree3map8BTreeMaphhEEINtB5_s5_12AutoFallbackB1v_E4autoBf_
FN:76,_RNvXsc_NvMs1_NtNtCsbZ6qTFMlSKY_5serde3seq13target_fuzz__NtBb_4Args13auto_generateINtB5_s5_4AutoINtNtCsgag4BwXrjBQ_5alloc3vec3VechEEINtB5_s5_12AutoFallbackB1v_E4autoBf_
FN:76,_RNvXsc_NvMs1_NtNtCsbZ6qTFMlSKY_5serde4unit13target_fuzz__NtBb_4Args13auto_generateINtB5_s5_4AutouEINtB5_s5_12AutoFallbackuE4autoBf_
FN:76,_RNvXsc_NvMs1_NtNtCsbZ6qTFMlSKY_5serde5tuple13target_fuzz__NtBb_4Args13auto_generateINtB5_s5_4AutoThEEINtB5_s5_12AutoFallbackB1x_E4autoBf_
FN:76,_RNvXsc_NvMs1_NtNtCsbZ6qTFMlSKY_5serde6option13target_fuzz__NtBb_4Args13auto_generateINtB5_s5_4AutoINtNtCs3XFJfFEDSOQ_4core6option6OptionhEEINtB5_s5_12AutoFallbackB1y_E4autoBf_
FN:76,_RNvXsc_NvMs1_NtNtCsbZ6qTFMlSKY_5serde6string13target_fuzz__NtBb_4Args13auto_generateINtB5_s5_4AutoNtNtCsgag4BwXrjBQ_5alloc6string6StringEINtB5_s5_12AutoFallbackB1y_E4autoBf_
FN:76,_RNvXsc_NvMs1_NtNtCsbZ6qTFMlSKY_5serde6strukt13target_fuzz__NtBb_4Args13auto_generateINtB5_s5_4AutoNtBd_6StructEINtB5_s5_12AutoFallbackB1y_E4autoBf_
FN:76,_RNvXsc_NvMs1_NtNtCsgyJtF4GtVdY_10conversion8lifetime13target_fuzz__NtBb_4Args13auto_generateINtB5_s5_4AutoINtNtCs3XFJfFEDSOQ_4core6marker11PhantomDataRuEEINtB5_s5_12AutoFallbackB1G_E4autoBf_
FN:76,_RNvXse_NvMs1_NtCs4jNeg51vteg_8lifetime13target_fuzz__NtBb_4Args13auto_generateINtB5_s6_4AutoINtNtCs3XFJfFEDSOQ_4core6marker11PhantomDataRuEEINtB5_s6_12AutoFallbackB1s_E4autoBd_
FN:76,_RNvXse_NvMs1_NtCs6ZJvwNFZ5Lo_11return_type16swap_swap_fuzz__INtBb_4ArgsppE13auto_generateINtB5_s6_4AutoINtNtCs3XFJfFEDSOQ_4core6marker11PhantomDatauEEINtB5_s6_12AutoFallbackB1D_E4autoBd_
FN:76,_RNvXse_NvMs1_NtCsaVSfY7O0uYs_7generic20struct_target_fuzz__INtBb_4ArgspE13auto_generateINtB5_s6_4AutoNtBd_3BarEINtB5_s6_12AutoFallbackB1B_E4autoBd_
FN:76,_RNvXse_NvMs1_NtCsaVSfY7O0uYs_7generic26struct_target_bound_fuzz__INtBb_4ArgsppE13auto_generateINtB5_s6_4AutoNtBd_3BarEINtB5_s6_12AutoFallbackB1I_E4autoBd_
FN:76,_RNvXse_NvMs1_NtCsaVSfY7O0uYs_7generic33struct_target_where_clause_fuzz__INtBb_4ArgsppE13auto_generateINtB5_s6_4AutoNtBd_3BarEINtB5_s6_12AutoFallbackB1P_E4autoBd_
FN:76,_RNvXse_NvMs1_NtCsfODoU0UL7aq_11manual_leak23wrapped_key_dump_fuzz__NtBb_4Args13auto_generateINtB5_s6_4AutoINtNtCs3XFJfFEDSOQ_4core6marker11PhantomDataRuEEINtB5_s6_12AutoFallbackB1G_E4autoBd_
FN:76,_RNvXse_NvMs1_NtCskkeazd6lurB_15associated_type20serializes_to_fuzz__INtBb_4ArgspE13auto_generateINtB5_s6_4AutoNtNtCsgag4BwXrjBQ_5alloc6string6StringEINtB5_s6_12AutoFallbackB1K_E4autoBd_
FN:76,_RNvXse_NvMs1_NtNtCsaVSfY7O0uYs_7generic27receiverless_trait_function20struct_target_fuzz__INtBb_4ArgspE13auto_generateINtB5_s6_4AutoINtNtCs3XFJfFEDSOQ_4core6marker11PhantomDataNtBf_3BarEEINtB5_s6_12AutoFallbackB26_E4autoBf_
FN:76,_RNvXse_NvMs1_NtNtCsbZ6qTFMlSKY_5serde10byte_array13target_fuzz__NtBb_4Args13auto_generateINtB5_s6_4AutoAhj0_EINtB5_s6_12AutoFallbackB1D_E4autoBf_
FN:76,_RNvXse_NvMs1_NtNtCsbZ6qTFMlSKY_5serde11unit_struct13target_fuzz__NtBb_4Args13auto_generateINtB5_s6_4AutoNtBd_10UnitStructEINtB5_s6_12AutoFallbackB1E_E4autoBf_
FN:76,_RNvXse_NvMs1_NtNtCsbZ6qTFMlSKY_5serde12tuple_struct13target_fuzz__NtBb_4Args13auto_generateINtB5_s6_4AutoNtBd_11TupleStructEINtB5_s6_12AutoFallbackB1F_E4autoBf_
FN:76,_RNvXse_NvMs1_NtNtCsbZ6qTFMlSKY_5serde12unit_variant13target_fuzz__NtBb_4Args13auto_generateINtB5_s6_4AutoNtBd_11UnitVariantEINtB5_s6_12AutoFallbackB1F_E4autoBf_
FN:76,_RNvXse_NvMs1_NtNtCsbZ6qTFMlSKY_5serde13tuple_variant13target_fuzz__NtBb_4Args13auto_generateINtB5_s6_4AutoNtBd_12TupleVariantEINtB5_s6_12AutoFallbackB1G_E4autoBf_
FN:76,_RNvXse_NvMs1_NtNtCsbZ6qTFMlSKY_5serde14newtype_struct13target_fuzz__NtBb_4Args13auto_generateINtB5_s6_4AutoNtBd_13NewtypeStructEINtB5_s6_12AutoFallbackB1H_E4autoBf_
FN:76,_RNvXse_NvMs1_NtNtCsbZ6qTFMlSKY_5serde14struct_variant13target_fuzz__NtBb_4Args13auto_generateINtB5_s6_4AutoNtBd_13StructVariantEINtB5_s6_12AutoFallbackB1H_E4autoBf_
FN:76,_RNvXse_NvMs1_NtNtCsbZ6qTFMlSKY_5serde15newtype_variant13target_fuzz__NtBb_4Args13auto_generateINtB5_s6_4AutoNtBd_14NewtypeVariantEINtB5_s6_12AutoFallbackB1I_E4autoBf_
FN:76,_RNvXse_NvMs1_NtNtCsbZ6qTFMlSKY_5serde3map13target_fuzz__NtBb_4Args13auto_generateINtB5_s6_4AutoINtNtNtNtCsgag4BwXrjBQ_5alloc11collections5btree3map8BTreeMaphhEEINtB5_s6_12AutoFallbackB1v_E4autoBf_
FN:76,_RNvXse_NvMs1_NtNtCsbZ6qTFMlSKY_5serde3seq13target_fuzz__NtBb_4Args13auto_generateINtB5_s6_4AutoINtNtCsgag4BwXrjBQ_5alloc3vec3VechEEINtB5_s6_12AutoFallbackB1v_E4autoBf_
FN:76,_RNvXse_NvMs1_NtNtCsbZ6qTFMlSKY_5serde4unit13target_fuzz__NtBb_4Args13auto_generateINtB5_s6_4AutouEINtB5_s6_12AutoFallbackuE4autoBf_
FN:76,_RNvXse_NvMs1_NtNtCsbZ6qTFMlSKY_5serde5tuple13target_fuzz__NtBb_4Args13auto_generateINtB5_s6_4AutoThEEINtB5_s6_12AutoFallbackB1x_E4autoBf_
FN:76,_RNvXse_NvMs1_NtNtCsbZ6qTFMlSKY_5serde6option13target_fuzz__NtBb_4Args13auto_generateINtB5_s6_4AutoINtNtCs3XFJfFEDSOQ_4core6option6OptionhEEINtB5_s6_12AutoFallbackB1y_E4autoBf_
FN:76,_RNvXse_NvMs1_NtNtCsbZ6qTFMlSKY_5serde6string13target_fuzz__NtBb_4Args13auto_generateINtB5_s6_4AutoNtNtCsgag4BwXrjBQ_5alloc6string6StringEINtB5_s6_12AutoFallbackB1y_E4autoBf_
FN:76,_RNvXse_NvMs1_NtNtCsbZ6qTFMlSKY_5serde6strukt13target_fuzz__NtBb_4Args13auto_generateINtB5_s6_4AutoNtBd_6StructEINtB5_s6_12AutoFallbackB1y_E4autoBf_
FN:76,_RNvXse_NvMs1_NtNtCsgyJtF4GtVdY_10conversion8lifetime13target_fuzz__NtBb_4Args13auto_generateINtB5_s6_4AutoINtNtCs3XFJfFEDSOQ_4core6marker11PhantomDataRuEEINtB5_s6_12AutoFallbackB1G_E4autoBf_
FN:76,_RNvXsg_NvMs1_NtCs4jNeg51vteg_8lifetime13target_fuzz__NtBb_4Args13auto_generateINtB5_s7_4AutoINtNtCs3XFJfFEDSOQ_4core6marker11PhantomDataRuEEINtB5_s7_12AutoFallbackB1s_E4autoBd_
FN:76,_RNvXsg_NvMs1_NtCs6ZJvwNFZ5Lo_11return_type16swap_swap_fuzz__INtBb_4ArgsppE13auto_generateINtB5_s7_4AutoINtNtCs3XFJfFEDSOQ_4core6marker11PhantomDatauEEINtB5_s7_12AutoFallbackB1D_E4autoBd_
FN:76,_RNvXsg_NvMs1_NtCsaVSfY7O0uYs_7generic20struct_target_fuzz__INtBb_4ArgspE13auto_generateINtB5_s7_4AutoNtBd_3BarEINtB5_s7_12AutoFallbackB1B_E4autoBd_
FN:76,_RNvXsg_NvMs1_NtCsaVSfY7O0uYs_7generic26struct_target_bound_fuzz__INtBb_4ArgsppE13auto_generateINtB5_s7_4AutoNtBd_3BarEINtB5_s7_12AutoFallbackB1I_E4autoBd_
FN:76,_RNvXsg_NvMs1_NtCsaVSfY7O0uYs_7generic33struct_target_where_clause_fuzz__INtBb_4ArgsppE13auto_generateINtB5_s7_4AutoNtBd_3BarEINtB5_s7_12AutoFallbackB1P_E4autoBd_
FN:76,_RNvXsg_NvMs1_NtCsfODoU0UL7aq_11manual_leak23wrapped_key_dump_fuzz__NtBb_4Args13auto_generateINtB5_s7_4AutoINtNtCs3XFJfFEDSOQ_4core6marker11PhantomDataRuEEINtB5_s7_12AutoFallbackB1G_E4autoBd_
FN:76,_RNvXsg_NvMs1_NtCskkeazd6lurB_15associated_type20serializes_to_fuzz__INtBb_4ArgspE13auto_generateINtB5_s7_4AutoNtNtCsgag4BwXrjBQ_5alloc6string6StringEINtB5_s7_12AutoFallbackB1K_E4autoBd_
FN:76,_RNvXsg_NvMs1_NtNtCsaVSfY7O0uYs_7generic27receiverless_trait_function20struct_target_fuzz__INtBb_4ArgspE13auto_generateINtB5_s7_4AutoINtNtCs3XFJfFEDSOQ_4core6marker11PhantomDataNtBf_3BarEEINtB5_s7_12AutoFallbackB26_E4autoBf_
FN:76,_RNvXsg_NvMs1_NtNtCsbZ6qTFMlSKY_5serde10byte_array13target_fuzz__NtBb_4Args13auto_generateINtB5_s7_4AutoAhj0_EINtB5_s7_12AutoFallbackB1D_E4autoBf_
FN:76,_RNvXsg_NvMs1_NtNtCsbZ6qTFMlSKY_5serde11unit_struct13target_fuzz__NtBb_4Args13auto_generateINtB5_s7_4AutoNtBd_10UnitStructEINtB5_s7_12AutoFallbackB1E_E4autoBf_
FN:76,_RNvXsg_NvMs1_NtNtCsbZ6qTFMlSKY_5serde12tuple_struct13target_fuzz__NtBb_4Args13auto_generateINtB5_s7_4AutoNtBd_11TupleStructEINtB5_s7_12AutoFallbackB1F_E4autoBf_
FN:76,_RNvXsg_NvMs1_NtNtCsbZ6qTFMlSKY_5serde12unit_variant13target_fuzz__NtBb_4Args13auto_generateINtB5_s7_4AutoNtBd_11UnitVariantEINtB5_s7_12AutoFallbackB1F_E4autoBf_
FN:76,_RNvXsg_NvMs1_NtNtCsbZ6qTFMlSKY_5serde13tuple_variant13target_fuzz__NtBb_4Args13auto_generateINtB5_s7_4AutoNtBd_12TupleVariantEINtB5_s7_12AutoFallbackB1G_E4autoBf_
FN:76,_RNvXsg_NvMs1_NtNtCsbZ6qTFMlSKY_5serde14newtype_struct13target_fuzz__NtBb_4Args13auto_generateINtB5_s7_4AutoNtBd_13NewtypeStructEINtB5_s7_12AutoFallbackB1H_E4autoBf_
FN:76,_RNvXsg_NvMs1_NtNtCsbZ6qTFMlSKY_5serde14struct_variant13target_fuzz__NtBb_4Args13auto_generateINtB5_s7_4AutoNtBd_13StructVariantEINtB5_s7_12AutoFallbackB1H_E4autoBf_
FN:76,_RNvXsg_NvMs1_NtNtCsbZ6qTFMlSKY_5serde15newtype_variant13target_fuzz__NtBb_4Args13auto_generateINtB5_s7_4AutoNtBd_14NewtypeVariantEINtB5_s7_12AutoFallbackB1I_E4autoBf_
FN:76,_RNvXsg_NvMs1_NtNtCsbZ6qTFMlSKY_5serde3map13target_fuzz__NtBb_4Args13auto_generateINtB5_s7_4AutoINtNtNtNtCsgag4BwXrjBQ_5alloc11collections5btree3map8BTreeMaphhEEINtB5_s7_12AutoFallbackB1v_E4autoBf_
FN:76,_RNvXsg_NvMs1_NtNtCsbZ6qTFMlSKY_5serde3seq13target_fuzz__NtBb_4Args13auto_generateINtB5_s7_4AutoINtNtCsgag4BwXrjBQ_5alloc3vec3VechEEINtB5_s7_12AutoFallbackB1v_E4autoBf_
FN:76,_RNvXsg_NvMs1_NtNtCsbZ6qTFMlSKY_5serde4unit13target_fuzz__NtBb_4Args13auto_generateINtB5_s7_4AutouEINtB5_s7_12AutoFallbackuE4autoBf_
FN:76,_RNvXsg_NvMs1_NtNtCsbZ6qTFMlSKY_5serde5tuple13target_fuzz__NtBb_4Args13auto_generateINtB5_s7_4AutoThEEINtB5_s7_12AutoFallbackB1x_E4autoBf_
FN:76,_RNvXsg_NvMs1_NtNtCsbZ6qTFMlSKY_5serde6option13target_fuzz__NtBb_4Args13auto_generateINtB5_s7_4AutoINtNtCs3XFJfFEDSOQ_4core6option6OptionhEEINtB5_s7_12AutoFallbackB1y_E4autoBf_
FN:76,_RNvXsg_NvMs1_NtNtCsbZ6qTFMlSKY_5serde6string13target_fuzz__NtBb_4Args13auto_generateINtB5_s7_4AutoNtNtCsgag4BwXrjBQ_5alloc6string6StringEINtB5_s7_12AutoFallbackB1y_E4autoBf_
FN:76,_RNvXsg_NvMs1_NtNtCsbZ6qTFMlSKY_5serde6strukt13target_fuzz__NtBb_4Args13auto_generateINtB5_s7_4AutoNtBd_6StructEINtB5_s7_12AutoFallbackB1y_E4autoBf_
FN:76,_RNvXsg_NvMs1_NtNtCsgyJtF4GtVdY_10conversion8lifetime13target_fuzz__NtBb_4Args13auto_generateINtB5_s7_4AutoINtNtCs3XFJfFEDSOQ_4core6marker11PhantomDataRuEEINtB5_s7_12AutoFallbackB1G_E4autoBf_
FN:76,_RNvXsi_NvMs1_NtCs6ZJvwNFZ5Lo_11return_type16swap_swap_fuzz__INtBb_4ArgsppE13auto_generateINtB5_s8_4AutoINtNtCs3XFJfFEDSOQ_4core6marker11PhantomDatabEEINtB5_s8_12AutoFallbackB1D_E4autoBd_
FN:76,_RNvXsi_NvMs1_NtCsaVSfY7O0uYs_7generic20struct_target_fuzz__INtBb_4ArgspE13auto_generateINtB5_s8_4AutoINtNtCs3XFJfFEDSOQ_4core6marker11PhantomDataNtBd_3BarEEINtB5_s8_12AutoFallbackB1B_E4autoBd_
FN:76,_RNvXsi_NvMs1_NtCsaVSfY7O0uYs_7generic26struct_target_bound_fuzz__INtBb_4ArgsppE13auto_generateINtB5_s8_4AutoINtBd_3BazNtBd_3BarEEINtB5_s8_12AutoFallbackB1I_E4autoBd_
FN:76,_RNvXsi_NvMs1_NtCsaVSfY7O0uYs_7generic33struct_target_where_clause_fuzz__INtBb_4ArgsppE13auto_generateINtB5_s8_4AutoINtBd_3BazNtBd_3BarEEINtB5_s8_12AutoFallbackB1P_E4autoBd_
FN:76,_RNvXsi_NvMs1_NtCskkeazd6lurB_15associated_type20serializes_to_fuzz__INtBb_4ArgspE13auto_generateINtB5_s8_4AutoINtNtCs3XFJfFEDSOQ_4core6marker11PhantomDataNtBd_7AddressEEINtB5_s8_12AutoFallbackB1K_E4autoBd_
FN:76,_RNvXsi_NvMs1_NtNtCsbZ6qTFMlSKY_5serde10byte_array13target_fuzz__NtBb_4Args13auto_generateINtB5_s8_4AutoAhj0_EINtB5_s8_12AutoFallbackB1D_E4autoBf_
FN:76,_RNvXsi_NvMs1_NtNtCsbZ6qTFMlSKY_5serde11unit_struct13target_fuzz__NtBb_4Args13auto_generateINtB5_s8_4AutoNtBd_10UnitStructEINtB5_s8_12AutoFallbackB1E_E4autoBf_
FN:76,_RNvXsi_NvMs1_NtNtCsbZ6qTFMlSKY_5serde12tuple_struct13target_fuzz__NtBb_4Args13auto_generateINtB5_s8_4AutoNtBd_11TupleStructEINtB5_s8_12AutoFallbackB1F_E4autoBf_
FN:76,_RNvXsi_NvMs1_NtNtCsbZ6qTFMlSKY_5serde12unit_variant13target_fuzz__NtBb_4Args13auto_generateINtB5_s8_4AutoNtBd_11UnitVariantEINtB5_s8_12AutoFallbackB1F_E4autoBf_
FN:76,_RNvXsi_NvMs1_NtNtCsbZ6qTFMlSKY_5serde13tuple_variant13target_fuzz__NtBb_4Args13auto_generateINtB5_s8_4AutoNtBd_12TupleVariantEINtB5_s8_12AutoFallbackB1G_E4autoBf_
FN:76,_RNvXsi_NvMs1_NtNtCsbZ6qTFMlSKY_5serde14newtype_struct13target_fuzz__NtBb_4Args13auto_generateINtB5_s8_4AutoNtBd_13NewtypeStructEINtB5_s8_12AutoFallbackB1H_E4autoBf_
FN:76,_RNvXsi_NvMs1_NtNtCsbZ6qTFMlSKY_5serde14struct_variant13target_fuzz__NtBb_4Args13auto_generateINtB5_s8_4AutoNtBd_13StructVariantEINtB5_s8_12AutoFallbackB1H_E4autoBf_
FN:76,_RNvXsi_NvMs1_NtNtCsbZ6qTFMlSKY_5serde15newtype_variant13target_fuzz__NtBb_4Args13auto_generateINtB5_s8_4AutoNtBd_14NewtypeVariantEINtB5_s8_12AutoFallbackB1I_E4autoBf_
FN:76,_RNvXsi_NvMs1_NtNtCsbZ6qTFMlSKY_5serde3map13target_fuzz__NtBb_4Args13auto_generateINtB5_s8_4AutoINtNtNtNtCsgag4BwXrjBQ_5alloc11collections5btree3map8BTreeMaphhEEINtB5_s8_12AutoFallbackB1v_E4autoBf_
FN:76,_RNvXsi_NvMs1_NtNtCsbZ6qTFMlSKY_5serde3seq13target_fuzz__NtBb_4Args13auto_generateINtB5_s8_4AutoINtNtCsgag4BwXrjBQ_5alloc3vec3VechEEINtB5_s8_12AutoFallbackB1v_E4autoBf_
FN:76,_RNvXsi_NvMs1_NtNtCsbZ6qTFMlSKY_5serde6option13target_fuzz__NtBb_4Args13auto_generateINtB5_s8_4AutoINtNtCs3XFJfFEDSOQ_4core6option6OptionhEEINtB5_s8_12AutoFallbackB1y_E4autoBf_
FN:76,_RNvXsi_NvMs1_NtNtCsbZ6qTFMlSKY_5serde6string13target_fuzz__NtBb_4Args13auto_generateINtB5_s8_4AutoNtNtCsgag4BwXrjBQ_5alloc6string6StringEINtB5_s8_12AutoFallbackB1y_E4autoBf_
FN:76,_RNvXsi_NvMs1_NtNtCsbZ6qTFMlSKY_5serde6strukt13target_fuzz__NtBb_4Args13auto_generateINtB5_s8_4AutoNtBd_6StructEINtB5_s8_12AutoFallbackB1y_E4autoBf_
FN:76,_RNvXsk_NvMs1_NtCsaVSfY7O0uYs_7generic26struct_target_bound_fuzz__INtBb_4ArgsppE13auto_generateINtB5_s9_4AutoINtBd_3BazNtBd_3BarEEINtB5_s9_12AutoFallbackB1I_E4autoBd_
FN:76,_RNvXsk_NvMs1_NtCsaVSfY7O0uYs_7generic33struct_target_where_clause_fuzz__INtBb_4ArgsppE13auto_generateINtB5_s9_4AutoINtBd_3BazNtBd_3BarEEINtB5_s9_12AutoFallbackB1P_E4autoBd_
FN:76,_RNvXsk_NvMs1_NtNtCsbZ6qTFMlSKY_5serde12unit_variant13target_fuzz__NtBb_4Args13auto_generateINtB5_s9_4AutoNtBd_11UnitVariantEINtB5_s9_12AutoFallbackB1F_E4autoBf_
FN:76,_RNvXsm_NvMs1_NtCs6ZJvwNFZ5Lo_11return_type16swap_swap_fuzz__INtBb_4ArgsppE13auto_generateINtB5_sa_4AutoINtNtCs3XFJfFEDSOQ_4core6marker11PhantomDatabEEINtB5_sa_12AutoFallbackB1D_E4autoBd_
FN:76,_RNvXsm_NvMs1_NtCsaVSfY7O0uYs_7generic20struct_target_fuzz__INtBb_4ArgspE13auto_generateINtB5_sa_4AutoINtNtCs3XFJfFEDSOQ_4core6marker11PhantomDataNtBd_3BarEEINtB5_sa_12AutoFallbackB1B_E4autoBd_
FN:76,_RNvXsm_NvMs1_NtCsaVSfY7O0uYs_7generic26struct_target_bound_fuzz__INtBb_4ArgsppE13auto_generateINtB5_sa_4AutoINtBd_3BazNtBd_3BarEEINtB5_sa_12AutoFallbackB1I_E4autoBd_
FN:76,_RNvXsm_NvMs1_NtCsaVSfY7O0uYs_7generic33struct_target_where_clause_fuzz__INtBb_4ArgsppE13auto_generateINtB5_sa_4AutoINtBd_3BazNtBd_3BarEEINtB5_sa_12AutoFallbackB1P_E4autoBd_
FN:76,_RNvXsm_NvMs1_NtCskkeazd6lurB_15associated_type20serializes_to_fuzz__INtBb_4ArgspE13auto_generateINtB5_sa_4AutoINtNtCs3XFJfFEDSOQ_4core6marker11PhantomDataNtBd_7AddressEEINtB5_sa_12AutoFallbackB1K_E4autoBd_
FN:76,_RNvXsm_NvMs1_NtNtCsbZ6qTFMlSKY_5serde10byte_array13target_fuzz__NtBb_4Args13auto_generateINtB5_sa_4AutoAhj0_EINtB5_sa_12AutoFallbackB1D_E4autoBf_
FN:76,_RNvXsm_NvMs1_NtNtCsbZ6qTFMlSKY_5serde11unit_struct13target_fuzz__NtBb_4Args13auto_generateINtB5_sa_4AutoNtBd_10UnitStructEINtB5_sa_12AutoFallbackB1E_E4autoBf_
FN:76,_RNvXsm_NvMs1_NtNtCsbZ6qTFMlSKY_5serde12tuple_struct13target_fuzz__NtBb_4Args13auto_generateINtB5_sa_4AutoNtBd_11TupleStructEINtB5_sa_12AutoFallbackB1F_E4autoBf_
FN:76,_RNvXsm_NvMs1_NtNtCsbZ6qTFMlSKY_5serde12unit_variant13target_fuzz__NtBb_4Args13auto_generateINtB5_sa_4AutoNtBd_11UnitVariantEINtB5_sa_12AutoFallbackB1F_E4autoBf_
FN:76,_RNvXsm_NvMs1_NtNtCsbZ6qTFMlSKY_5serde13tuple_variant13target_fuzz__NtBb_4Args13auto_generateINtB5_sa_4AutoNtBd_12TupleVariantEINtB5_sa_12AutoFallbackB1G_E4autoBf_
FN:76,_RNvXsm_NvMs1_NtNtCsbZ6qTFMlSKY_5serde14newtype_struct13target_fuzz__NtBb_4Args13auto_generateINtB5_sa_4AutoNtBd_13NewtypeStructEINtB5_sa_12AutoFallbackB1H_E4autoBf_
FN:76,_RNvXsm_NvMs1_NtNtCsbZ6qTFMlSKY_5serde14struct_variant13target_fuzz__NtBb_4Args13auto_generateINtB5_sa_4AutoNtBd_13StructVariantEINtB5_sa_12AutoFallbackB1H_E4autoBf_
FN:76,_RNvXsm_NvMs1_NtNtCsbZ6qTFMlSKY_5serde15newtype_variant13target_fuzz__NtBb_4Args13auto_generateINtB5_sa_4AutoNtBd_14NewtypeVariantEINtB5_sa_12AutoFallbackB1I_E4autoBf_
FN:76,_RNvXsm_NvMs1_NtNtCsbZ6qTFMlSKY_5serde3map13target_fuzz__NtBb_4Args13auto_generateINtB5_sa_4AutoINtNtNtNtCsgag4BwXrjBQ_5alloc11collections5btree3map8BTreeMaphhEEINtB5_sa_12AutoFallbackB1v_E4autoBf_
FN:76,_RNvXsm_NvMs1_NtNtCsbZ6qTFMlSKY_5serde3seq13target_fuzz__NtBb_4Args13auto_generateINtB5_sa_4AutoINtNtCsgag4BwXrjBQ_5alloc3vec3VechEEINtB5_sa_12AutoFallbackB1v_E4autoBf_
FN:76,_RNvXsm_NvMs1_NtNtCsbZ6qTFMlSKY_5serde4unit13target_fuzz__NtBb_4Args13auto_generateINtB5_sa_4AutouEINtB5_sa_12AutoFallbackuE4autoBf_
FN:76,_RNvXsm_NvMs1_NtNtCsbZ6qTFMlSKY_5serde5tuple13target_fuzz__NtBb_4Args13auto_generateINtB5_sa_4AutoThEEINtB5_sa_12AutoFallbackB1x_E4autoBf_
FN:76,_RNvXsm_NvMs1_NtNtCsbZ6qTFMlSKY_5serde6option13target_fuzz__NtBb_4Args13auto_generateINtB5_sa_4AutoINtNtCs3XFJfFEDSOQ_4core6option6OptionhEEINtB5_sa_12AutoFallbackB1y_E4autoBf_
FN:76,_RNvXsm_NvMs1_NtNtCsbZ6qTFMlSKY_5serde6string13target_fuzz__NtBb_4Args13auto_generateINtB5_sa_4AutoNtNtCsgag4BwXrjBQ_5alloc6string6StringEINtB5_sa_12AutoFallbackB1y_E4autoBf_
FN:76,_RNvXsm_NvMs1_NtNtCsbZ6qTFMlSKY_5serde6strukt13target_fuzz__NtBb_4Args13auto_generateINtB5_sa_4AutoNtBd_6StructEINtB5_sa_12AutoFallbackB1y_E4autoBf_
FN:76,_RNvXso_NvMs1_NtCs6ZJvwNFZ5Lo_11return_type16swap_swap_fuzz__INtBb_4ArgsppE13auto_generateINtB5_sb_4AutoINtNtCs3XFJfFEDSOQ_4core6marker11PhantomDatabEEINtB5_sb_12AutoFallbackB1D_E4autoBd_
FN:76,_RNvXso_NvMs1_NtCsaVSfY7O0uYs_7generic20struct_target_fuzz__INtBb_4ArgspE13auto_generateINtB5_sb_4AutoINtNtCs3XFJfFEDSOQ_4core6marker11PhantomDataNtBd_3BarEEINtB5_sb_12AutoFallbackB1B_E4autoBd_
FN:76,_RNvXso_NvMs1_NtCsaVSfY7O0uYs_7generic26struct_target_bound_fuzz__INtBb_4ArgsppE13auto_generateINtB5_sb_4AutoINtBd_3BazNtBd_3BarEEINtB5_sb_12AutoFallbackB1I_E4autoBd_
FN:76,_RNvXso_NvMs1_NtCsaVSfY7O0uYs_7generic33struct_target_where_clause_fuzz__INtBb_4ArgsppE13auto_generateINtB5_sb_4AutoINtBd_3BazNtBd_3BarEEINtB5_sb_12AutoFallbackB1P_E4autoBd_
FN:76,_RNvXso_NvMs1_NtCskkeazd6lurB_15associated_type20serializes_to_fuzz__INtBb_4ArgspE13auto_generateINtB5_sb_4AutoINtNtCs3XFJfFEDSOQ_4core6marker11PhantomDataNtBd_7AddressEEINtB5_sb_12AutoFallbackB1K_E4autoBd_
FN:76,_RNvXso_NvMs1_NtNtCsbZ6qTFMlSKY_5serde10byte_array13target_fuzz__NtBb_4Args13auto_generateINtB5_sb_4AutoAhj0_EINtB5_sb_12AutoFallbackB1D_E4autoBf_
FN:76,_RNvXso_NvMs1_NtNtCsbZ6qTFMlSKY_5serde11unit_struct13target_fuzz__NtBb_4Args13auto_generateINtB5_sb_4AutoNtBd_10UnitStructEINtB5_sb_12AutoFallbackB1E_E4autoBf_
FN:76,_RNvXso_NvMs1_NtNtCsbZ6qTFMlSKY_5serde12tuple_struct13target_fuzz__NtBb_4Args13auto_generateINtB5_sb_4AutoNtBd_11TupleStructEINtB5_sb_12AutoFallbackB1F_E4autoBf_
FN:76,_RNvXso_NvMs1_NtNtCsbZ6qTFMlSKY_5serde12unit_variant13target_fuzz__NtBb_4Args13auto_generateINtB5_sb_4AutoNtBd_11UnitVariantEINtB5_sb_12AutoFallbackB1F_E4autoBf_
FN:76,_RNvXso_NvMs1_NtNtCsbZ6qTFMlSKY_5serde13tuple_variant13target_fuzz__NtBb_4Args13auto_generateINtB5_sb_4AutoNtBd_12TupleVariantEINtB5_sb_12AutoFallbackB1G_E4autoBf_
FN:76,_RNvXso_NvMs1_NtNtCsbZ6qTFMlSKY_5serde14newtype_struct13target_fuzz__NtBb_4Args13auto_generateINtB5_sb_4AutoNtBd_13NewtypeStructEINtB5_sb_12AutoFallbackB1H_E4autoBf_
FN:76,_RNvXso_NvMs1_NtNtCsbZ6qTFMlSKY_5serde14struct_variant13target_fuzz__NtBb_4Args13auto_generateINtB5_sb_4AutoNtBd_13StructVariantEINtB5_sb_12AutoFallbackB1H_E4autoBf_
FN:76,_RNvXso_NvMs1_NtNtCsbZ6qTFMlSKY_5serde15newtype_variant13target_fuzz__NtBb_4Args13auto_generateINtB5_sb_4AutoNtBd_14NewtypeVariantEINtB5_sb_12AutoFallbackB1I_E4autoBf_
FN:76,_RNvXso_NvMs1_NtNtCsbZ6qTFMlSKY_5serde3map13target_fuzz__NtBb_4Args13auto_generateINtB5_sb_4AutoINtNtNtNtCsgag4BwXrjBQ_5alloc11collections5btree3map8BTreeMaphhEEINtB5_sb_12AutoFallbackB1v_E4autoBf_
FN:76,_RNvXso_NvMs1_NtNtCsbZ6qTFMlSKY_5serde3seq13target_fuzz__NtBb_4Args13auto_generateINtB5_sb_4AutoINtNtCsgag4BwXrjBQ_5alloc3vec3VechEEINtB5_sb_12AutoFallbackB1v_E4autoBf_
FN:76,_RNvXso_NvMs1_NtNtCsbZ6qTFMlSKY_5serde4unit13target_fuzz__NtBb_4Args13auto_generateINtB5_sb_4AutouEINtB5_sb_12AutoFallbackuE4autoBf_
FN:76,_RNvXso_NvMs1_NtNtCsbZ6qTFMlSKY_5serde5tuple13target_fuzz__NtBb_4Args13auto_generateINtB5_sb_4AutoThEEINtB5_sb_12AutoFallbackB1x_E4autoBf_
FN:76,_RNvXso_NvMs1_NtNtCsbZ6qTFMlSKY_5serde6option13target_fuzz__NtBb_4Args13auto_generateINtB5_sb_4AutoINtNtCs3XFJfFEDSOQ_4core6option6OptionhEEINtB5_sb_12AutoFallbackB1y_E4autoBf_
FN:76,_RNvXso_NvMs1_NtNtCsbZ6qTFMlSKY_5serde6string13target_fuzz__NtBb_4Args13auto_generateINtB5_sb_4AutoNtNtCsgag4BwXrjBQ_5alloc6string6StringEINtB5_sb_12AutoFallbackB1y_E4autoBf_
FN:76,_RNvXso_NvMs1_NtNtCsbZ6qTFMlSKY_5serde6strukt13target_fuzz__NtBb_4Args13auto_generateINtB5_sb_4AutoNtBd_6StructEINtB5_sb_12AutoFallbackB1y_E4autoBf_
FN:76,_RNvXsq_NvMs1_NtCs6ZJvwNFZ5Lo_11return_type16swap_swap_fuzz__INtBb_4ArgsppE13auto_generateINtB5_sc_4AutoINtNtCs3XFJfFEDSOQ_4core6marker11PhantomDatabEEINtB5_sc_12AutoFallbackB1D_E4autoBd_
FN:76,_RNvXsq_NvMs1_NtCsaVSfY7O0uYs_7generic20struct_target_fuzz__INtBb_4ArgspE13auto_generateINtB5_sc_4AutoINtNtCs3XFJfFEDSOQ_4core6marker11PhantomDataNtBd_3BarEEINtB5_sc_12AutoFallbackB1B_E4autoBd_
FN:76,_RNvXsq_NvMs1_NtCsaVSfY7O0uYs_7generic26struct_target_bound_fuzz__INtBb_4ArgsppE13auto_generateINtB5_sc_4AutoINtBd_3BazNtBd_3BarEEINtB5_sc_12AutoFallbackB1I_E4autoBd_
FN:76,_RNvXsq_NvMs1_NtCsaVSfY7O0uYs_7generic33struct_target_where_clause_fuzz__INtBb_4ArgsppE13auto_generateINtB5_sc_4AutoINtBd_3BazNtBd_3BarEEINtB5_sc_12AutoFallbackB1P_E4autoBd_
FN:76,_RNvXsq_NvMs1_NtCskkeazd6lurB_15associated_type20serializes_to_fuzz__INtBb_4ArgspE13auto_generateINtB5_sc_4AutoINtNtCs3XFJfFEDSOQ_4core6marker11PhantomDataNtBd_7AddressEEINtB5_sc_12AutoFallbackB1K_E4autoBd_
FN:76,_RNvXsq_NvMs1_NtNtCsbZ6qTFMlSKY_5serde10byte_array13target_fuzz__NtBb_4Args13auto_generateINtB5_sc_4AutoAhj0_EINtB5_sc_12AutoFallbackB1D_E4autoBf_
FN:76,_RNvXsq_NvMs1_NtNtCsbZ6qTFMlSKY_5serde11unit_struct13target_fuzz__NtBb_4Args13auto_generateINtB5_sc_4AutoNtBd_10UnitStructEINtB5_sc_12AutoFallbackB1E_E4autoBf_
FN:76,_RNvXsq_NvMs1_NtNtCsbZ6qTFMlSKY_5serde12tuple_struct13target_fuzz__NtBb_4Args13auto_generateINtB5_sc_4AutoNtBd_11TupleStructEINtB5_sc_12AutoFallbackB1F_E4autoBf_
FN:76,_RNvXsq_NvMs1_NtNtCsbZ6qTFMlSKY_5serde12unit_variant13target_fuzz__NtBb_4Args13auto_generateINtB5_sc_4AutoNtBd_11UnitVariantEINtB5_sc_12AutoFallbackB1F_E4autoBf_
FN:76,_RNvXsq_NvMs1_NtNtCsbZ6qTFMlSKY_5serde13tuple_variant13target_fuzz__NtBb_4Args13auto_generateINtB5_sc_4AutoNtBd_12TupleVariantEINtB5_sc_12AutoFallbackB1G_E4autoBf_
FN:76,_RNvXsq_NvMs1_NtNtCsbZ6qTFMlSKY_5serde14newtype_struct13target_fuzz__NtBb_4Args13auto_generateINtB5_sc_4AutoNtBd_13NewtypeStructEINtB5_sc_12AutoFallbackB1H_E4autoBf_
FN:76,_RNvXsq_NvMs1_NtNtCsbZ6qTFMlSKY_5serde14struct_variant13target_fuzz__NtBb_4Args13auto_generateINtB5_sc_4AutoNtBd_13StructVariantEINtB5_sc_12AutoFallbackB1H_E4autoBf_
FN:76,_RNvXsq_NvMs1_NtNtCsbZ6qTFMlSKY_5serde15newtype_variant13target_fuzz__NtBb_4Args13auto_generateINtB5_sc_4AutoNtBd_14NewtypeVariantEINtB5_sc_12AutoFallbackB1I_E4autoBf_
FN:76,_RNvXsq_NvMs1_NtNtCsbZ6qTFMlSKY_5serde3map13target_fuzz__NtBb_4Args13auto_generateINtB5_sc_4AutoINtNtNtNtCsgag4BwXrjBQ_5alloc11collections5btree3map8BTreeMaphhEEINtB5_sc_12AutoFallbackB1v_E4autoBf_
FN:76,_RNvXsq_NvMs1_NtNtCsbZ6qTFMlSKY_5serde3seq13target_fuzz__NtBb_4Args13auto_generateINtB5_sc_4AutoINtNtCsgag4BwXrjBQ_5alloc3vec3VechEEINtB5_sc_12AutoFallbackB1v_E4autoBf_
FN:76,_RNvXsq_NvMs1_NtNtCsbZ6qTFMlSKY_5serde4unit13target_fuzz__NtBb_4Args13auto_generateINtB5_sc_4AutouEINtB5_sc_12AutoFallbackuE4autoBf_
FN:76,_RNvXsq_NvMs1_NtNtCsbZ6qTFMlSKY_5serde5tuple13target_fuzz__NtBb_4Args13auto_generateINtB5_sc_4AutoThEEINtB5_sc_12AutoFallbackB1x_E4autoBf_
FN:76,_RNvXsq_NvMs1_NtNtCsbZ6qTFMlSKY_5serde6option13target_fuzz__NtBb_4Args13auto_generateINtB5_sc_4AutoINtNtCs3XFJfFEDSOQ_4core6option6OptionhEEINtB5_sc_12AutoFallbackB1y_E4autoBf_
FN:76,_RNvXsq_NvMs1_NtNtCsbZ6qTFMlSKY_5serde6string13target_fuzz__NtBb_4Args13auto_generateINtB5_sc_4AutoNtNtCsgag4BwXrjBQ_5alloc6string6StringEINtB5_sc_12AutoFallbackB1y_E4autoBf_
FN:76,_RNvXsq_NvMs1_NtNtCsbZ6qTFMlSKY_5serde6strukt13target_fuzz__NtBb_4Args13auto_generateINtB5_sc_4AutoNtBd_6StructEINtB5_sc_12AutoFallbackB1y_E4autoBf_
FN:76,_RNvXss_NvMs1_NtCsaVSfY7O0uYs_7generic26struct_target_bound_fuzz__INtBb_4ArgsppE13auto_generateINtB5_sd_4AutoINtNtCs3XFJfFEDSOQ_4core6marker11PhantomDataNtBd_3BarEEINtB5_sd_12AutoFallbackB1I_E4autoBd_
FN:76,_RNvXss_NvMs1_NtCsaVSfY7O0uYs_7generic33struct_target_where_clause_fuzz__INtBb_4ArgsppE13auto_generateINtB5_sd_4AutoINtNtCs3XFJfFEDSOQ_4core6marker11PhantomDataNtBd_3BarEEINtB5_sd_12AutoFallbackB1P_E4autoBd_
FN:76,_RNvXss_NvMs1_NtNtCsbZ6qTFMlSKY_5serde10byte_array13target_fuzz__NtBb_4Args13auto_generateINtB5_sd_4AutoAhj1_EINtB5_sd_12AutoFallbackB1D_E4autoBf_
FN:76,_RNvXss_NvMs1_NtNtCsbZ6qTFMlSKY_5serde3seq13target_fuzz__NtBb_4Args13auto_generateINtB5_sd_4AutoINtNtCsgag4BwXrjBQ_5alloc3vec3VechEEINtB5_sd_12AutoFallbackB1v_E4autoBf_
FN:76,_RNvXss_NvMs1_NtNtCsbZ6qTFMlSKY_5serde6string13target_fuzz__NtBb_4Args13auto_generateINtB5_sd_4AutoNtNtCsgag4BwXrjBQ_5alloc6string6StringEINtB5_sd_12AutoFallbackB1y_E4autoBf_
FN:76,_RNvXsw_NvMs1_NtCsaVSfY7O0uYs_7generic26struct_target_bound_fuzz__INtBb_4ArgsppE13auto_generateINtB5_sf_4AutoINtNtCs3XFJfFEDSOQ_4core6marker11PhantomDataNtBd_3BarEEINtB5_sf_12AutoFallbackB1I_E4autoBd_
FN:76,_RNvXsw_NvMs1_NtCsaVSfY7O0uYs_7generic33struct_target_where_clause_fuzz__INtBb_4ArgsppE13auto_generateINtB5_sf_4AutoINtNtCs3XFJfFEDSOQ_4core6marker11PhantomDataNtBd_3BarEEINtB5_sf_12AutoFallbackB1P_E4autoBd_
FN:76,_RNvXsw_NvMs1_NtNtCsbZ6qTFMlSKY_5serde10byte_array13target_fuzz__NtBb_4Args13auto_generateINtB5_sf_4AutoAhj1_EINtB5_sf_12AutoFallbackB1D_E4autoBf_
FN:76,_RNvXsw_NvMs1_NtNtCsbZ6qTFMlSKY_5serde3seq13target_fuzz__NtBb_4Args13auto_generateINtB5_sf_4AutoINtNtCsgag4BwXrjBQ_5alloc3vec3VechEEINtB5_sf_12AutoFallbackB1v_E4autoBf_
FN:76,_RNvXsw_NvMs1_NtNtCsbZ6qTFMlSKY_5serde5tuple13target_fuzz__NtBb_4Args13auto_generateINtB5_sf_4AutoThhEEINtB5_sf_12AutoFallbackB1x_E4autoBf_
FN:76,_RNvXsw_NvMs1_NtNtCsbZ6qTFMlSKY_5serde6string13target_fuzz__NtBb_4Args13auto_generateINtB5_sf_4AutoNtNtCsgag4BwXrjBQ_5alloc6string6StringEINtB5_sf_12AutoFallbackB1y_E4autoBf_
FN:76,_RNvXsy_NvMs1_NtCsaVSfY7O0uYs_7generic26struct_target_bound_fuzz__INtBb_4ArgsppE13auto_generateINtB5_sg_4AutoINtNtCs3XFJfFEDSOQ_4core6marker11PhantomDataNtBd_3BarEEINtB5_sg_12AutoFallbackB1I_E4autoBd_
FN:76,_RNvXsy_NvMs1_NtCsaVSfY7O0uYs_7generic33struct_target_where_clause_fuzz__INtBb_4ArgsppE13auto_generateINtB5_sg_4AutoINtNtCs3XFJfFEDSOQ_4core6marker11PhantomDataNtBd_3BarEEINtB5_sg_12AutoFallbackB1P_E4autoBd_
FN:76,_RNvXsy_NvMs1_NtNtCsbZ6qTFMlSKY_5serde10byte_array13target_fuzz__NtBb_4Args13auto_generateINtB5_sg_4AutoAhj1_EINtB5_sg_12AutoFallbackB1D_E4autoBf_
FN:76,_RNvXsy_NvMs1_NtNtCsbZ6qTFMlSKY_5serde3seq13target_fuzz__NtBb_4Args13auto_generateINtB5_sg_4AutoINtNtCsgag4BwXrjBQ_5alloc3vec3VechEEINtB5_sg_12AutoFallbackB1v_E4autoBf_
FN:76,_RNvXsy_NvMs1_NtNtCsbZ6qTFMlSKY_5serde5tuple13target_fuzz__NtBb_4Args13auto_generateINtB5_sg_4AutoThhEEINtB5_sg_12AutoFallbackB1x_E4autoBf_
FN:76,_RNvXsy_NvMs1_NtNtCsbZ6qTFMlSKY_5serde6string13target_fuzz__NtBb_4Args13auto_generateINtB5_sg_4AutoNtNtCsgag4BwXrjBQ_5alloc6string6StringEINtB5_sg_12AutoFallbackB1y_E4autoBf_
FN:768,_RNvCs4oWu7nXEoFY_15test_fuzz_macro18generic_params_map
FN:776,_RNCNvCs4oWu7nXEoFY_15test_fuzz_macro18generic_params_map0B3_
FN:787,_RNCNvCs4oWu7nXEoFY_15test_fuzz_macro18generic_params_maps_0B3_
FN:798,_RINvCs4oWu7nXEoFY_15test_fuzz_macro8map_argsINtNtCsdIfci7uKNPV_3syn10punctuated7IterMutNtNtBL_4item5FnArgEEB2_
FN:80,_RINvCsh5MssUcn8TK_17serde_combinators19compose_deserializeINtNtNtNtCskruJqO5s2DS_7bincode8features5serde8de_owned12SerdeDecoderINtNtNtB13_2de7decoder11DecoderImplINtNtB11_8impl_std8IoReaderQNtNtNtCsHIej2QEFI5_3std2io5stdio5StdinEINtNtB13_6config13ConfigurationNtB3I_12LittleEndianNtB3I_6VarintINtB3I_5LimitKj40000000_EEuEERAhj20_B5b_INvYINtNtB2_5type_4TypeB5b_ENtB2_15DeserializeWith11deserializeBU_ENCINvXs_NtB2_4ref_INtB6y_4RefFB5p_EB5N_11deserializeBU_E0ECsfODoU0UL7aq_11manual_leak
FN:80,_RNvNtCs2XBbTT2Tgsj_18test_fuzz_internal4dirs16output_directory
FN:823,_RNvCs4oWu7nXEoFY_15test_fuzz_macro7map_arg
FN:829,_RNCNvCs4oWu7nXEoFY_15test_fuzz_macro7map_arg0B3_
FN:84,_RNvCs4oWu7nXEoFY_15test_fuzz_macro14map_impl_items
FN:841,_RNCNCNvCs4oWu7nXEoFY_15test_fuzz_macro7map_arg00B5_
FN:85,_RNvMs11_NvMs1_NtNtCsbZ6qTFMlSKY_5serde10byte_array13target_fuzz__NtBc_4Args13auto_generateINtB6_su_4AutopE4autoBg_
FN:85,_RNvMs11_NvMs1_NtNtCsbZ6qTFMlSKY_5serde3seq13target_fuzz__NtBc_4Args13auto_generateINtB6_su_4AutopE4autoBg_
FN:85,_RNvMs13_NvMs1_NtNtCsbZ6qTFMlSKY_5serde10byte_array13target_fuzz__NtBc_4Args13auto_generateINtB6_sv_4AutopE4autoBg_
FN:85,_RNvMs13_NvMs1_NtNtCsbZ6qTFMlSKY_5serde3seq13target_fuzz__NtBc_4Args13auto_generateINtB6_sv_4AutopE4autoBg_
FN:85,_RNvMs15_NvMs1_NtNtCsbZ6qTFMlSKY_5serde10byte_array13target_fuzz__NtBc_4Args13auto_generateINtB6_sw_4AutopE4autoBg_
FN:85,_RNvMs15_NvMs1_NtNtCsbZ6qTFMlSKY_5serde3seq13target_fuzz__NtBc_4Args13auto_generateINtB6_sw_4AutopE4autoBg_
FN:85,_RNvMs17_NvMs1_NtNtCsbZ6qTFMlSKY_5serde10byte_array13target_fuzz__NtBc_4Args13auto_generateINtB6_sx_4AutopE4autoBg_
FN:85,_RNvMs19_NvMs1_NtNtCsbZ6qTFMlSKY_5serde10byte_array13target_fuzz__NtBc_4Args13auto_generateINtB6_sy_4AutoAhj2_E4autoBg_
FN:85,_RNvMs1_NvMs1_NtCs2zeNb6jgslg_19self_ty_in_mod_name20struct_target_fuzz__NtBb_4Args13auto_generateINtB5_s_4AutopE4autoBd_
FN:85,_RNvMs1_NvMs1_NtCs4MGHVrkl72m_4from15bar_from_fuzz__NtBb_4Args13auto_generateINtB5_s_4AutopE4autoBd_
FN:85,_RNvMs1_NvMs1_NtCs4MGHVrkl72m_4from15baz_into_fuzz__NtBb_4Args13auto_generateINtB5_s_4AutopE4autoBd_
FN:85,_RNvMs1_NvMs1_NtCs4MGHVrkl72m_4from19baz_try_from_fuzz__NtBb_4Args13auto_generateINtB5_s_4AutopE4autoBd_
FN:85,_RNvMs1_NvMs1_NtCs4jNeg51vteg_8lifetime13target_fuzz__NtBb_4Args13auto_generateINtB5_s_4AutopE4autoBd_
FN:85,_RNvMs1_NvMs1_NtCs5fNIG3PZaJo_11hello_world19intermediary_fuzz__NtBb_4Args13auto_generateINtB5_s_4AutoNtNtCsgag4BwXrjBQ_5alloc6string6StringE4autoBd_
FN:85,_RNvMs1_NvMs1_NtCs6ZJvwNFZ5Lo_11return_type16swap_swap_fuzz__INtBb_4ArgsppE13auto_generateINtB5_s_4AutopE4autoBd_
FN:85,_RNvMs1_NvMs1_NtCs6fBdTSegfKf_14test_fuzz_impl17struct_bar_fuzz__NtBb_4Args13auto_generateINtB5_s_4AutopE4autoBd_
FN:85,_RNvMs1_NvMs1_NtCs6fBdTSegfKf_14test_fuzz_impl17struct_foo_fuzz__NtBb_4Args13auto_generateINtB5_s_4AutopE4autoBd_
FN:85,_RNvMs1_NvMs1_NtCs6z3aMDs3O5H_14parse_duration12parse_fuzz__NtBb_4Args13auto_generateINtB5_s_4AutoNtNtCsgag4BwXrjBQ_5alloc6string6StringE4autoBd_
FN:85,_RNvMs1_NvMs1_NtCs7l6y1YLWhzH_5alloc13target_fuzz__NtBb_4Args13auto_generateINtB5_s_4AutopE4autoBd_
FN:85,_RNvMs1_NvMs1_NtCs8VL8JzDaoWz_11hello_world19intermediary_fuzz__NtBb_4Args13auto_generateINtB5_s_4AutopE4autoBd_
FN:85,_RNvMs1_NvMs1_NtCs9i11WczUoNj_7profile13target_fuzz__NtBb_4Args13auto_generateINtB5_s_4AutobE4autoBd_
FN:85,_RNvMs1_NvMs1_NtCsaVSfY7O0uYs_7generic14baz_qux_fuzz__INtBb_4ArgspE13auto_generateINtB5_s_4AutoINtNtCs3XFJfFEDSOQ_4core6marker11PhantomDataNtBd_3BarEE4autoBd_
FN:85,_RNvMs1_NvMs1_NtCsaVSfY7O0uYs_7generic20struct_target_fuzz__INtBb_4ArgspE13auto_generateINtB5_s_4AutopE4autoBd_
FN:85,_RNvMs1_NvMs1_NtCsaVSfY7O0uYs_7generic26struct_target_bound_fuzz__INtBb_4ArgsppE13auto_generateINtB5_s_4AutopE4autoBd_
FN:85,_RNvMs1_NvMs1_NtCsaVSfY7O0uYs_7generic33struct_target_where_clause_fuzz__INtBb_4ArgsppE13auto_generateINtB5_s_4AutopE4autoBd_
FN:85,_RNvMs1_NvMs1_NtCsb7JfYwj8ipQ_10serde_attr13target_fuzz__NtBb_4Args13auto_generateINtB5_s_4AutoNtBd_7ContextE4autoBd_
FN:85,_RNvMs1_NvMs1_NtCsbupd9d71YLx_16calm_and_panicky11calm_fuzz__NtBb_4Args13auto_generateINtB5_s_4AutopE4autoBd_
FN:85,_RNvMs1_NvMs1_NtCsbupd9d71YLx_16calm_and_panicky14panicky_fuzz__NtBb_4Args13auto_generateINtB5_s_4AutopE4autoBd_
FN:85,_RNvMs1_NvMs1_NtCscaf2gEuSGn5_6qwerty13target_fuzz__NtBb_4Args13auto_generateINtB5_s_4AutoNtNtCsgag4BwXrjBQ_5alloc6string6StringE4autoBd_
FN:85,_RNvMs1_NvMs1_NtCsfEcBWhN4Na3_3arc13target_fuzz__NtBb_4Args13auto_generateINtB5_s_4AutoINtNtCsgag4BwXrjBQ_5alloc4sync3ArcINtNtNtNtCsHIej2QEFI5_3std11collections4hash3set7HashSetmEEE4autoBd_
FN:85,_RNvMs1_NvMs1_NtCsfODoU0UL7aq_11manual_leak23wrapped_key_dump_fuzz__NtBb_4Args13auto_generateINtB5_s_4AutopE4autoBd_
FN:85,_RNvMs1_NvMs1_NtCsfOIDT8lUV2L_7mut_ref17target_str_fuzz__NtBb_4Args13auto_generateINtB5_s_4AutoNtNtCsgag4BwXrjBQ_5alloc6string6StringE4autoBd_
FN:85,_RNvMs1_NvMs1_NtCsfOIDT8lUV2L_7mut_ref19target_slice_fuzz__NtBb_4Args13auto_generateINtB5_s_4AutoINtNtCsgag4BwXrjBQ_5alloc3vec3VechEE4autoBd_
FN:85,_RNvMs1_NvMs1_NtCsgZ69XjcSWhh_6assert13target_fuzz__NtBb_4Args13auto_generateINtB5_s_4AutobE4autoBd_
FN:85,_RNvMs1_NvMs1_NtCsikhsy0ZvG4z_4cast13target_fuzz__NtBb_4Args13auto_generateINtB5_s_4AutoyE4autoBd_
FN:85,_RNvMs1_NvMs1_NtCsjk8KY6qq2Wr_8parallel15target_0_fuzz__NtBb_4Args13auto_generateINtB5_s_4AutobE4autoBd_
FN:85,_RNvMs1_NvMs1_NtCsjk8KY6qq2Wr_8parallel15target_1_fuzz__NtBb_4Args13auto_generateINtB5_s_4AutobE4autoBd_
FN:85,_RNvMs1_NvMs1_NtCsjk8KY6qq2Wr_8parallel15target_2_fuzz__NtBb_4Args13auto_generateINtB5_s_4AutobE4autoBd_
FN:85,_RNvMs1_NvMs1_NtCsjk8KY6qq2Wr_8parallel15target_3_fuzz__NtBb_4Args13auto_generateINtB5_s_4AutobE4autoBd_
FN:85,_RNvMs1_NvMs1_NtCsjk8KY6qq2Wr_8parallel15target_4_fuzz__NtBb_4Args13auto_generateINtB5_s_4AutobE4autoBd_
FN:85,_RNvMs1_NvMs1_NtCsjk8KY6qq2Wr_8parallel15target_5_fuzz__NtBb_4Args13auto_generateINtB5_s_4AutobE4autoBd_
FN:85,_RNvMs1_NvMs1_NtCskkeazd6lurB_15associated_type20serializes_to_fuzz__INtBb_4ArgspE13auto_generateINtB5_s_4AutopE4autoBd_
FN:85,_RNvMs1_NvMs1_NtNtCs4RwwcRvri8p_7default10no_default13target_fuzz__NtBb_4Args13auto_generateINtB5_s_4AutopE4autoBf_
FN:85,_RNvMs1_NvMs1_NtNtCs4RwwcRvri8p_7default7default13target_fuzz__NtBb_4Args13auto_generateINtB5_s_4AutoNtBd_6StructE4autoBf_
FN:85,_RNvMs1_NvMs1_NtNtCsaVSfY7O0uYs_7generic27receiverless_trait_function20struct_target_fuzz__INtBb_4ArgspE13auto_generateINtB5_s_4AutopE4autoBf_
FN:85,_RNvMs1_NvMs1_NtNtCsbZ6qTFMlSKY_5serde10byte_array13target_fuzz__NtBb_4Args13auto_generateINtB5_s_4AutoAhj0_E4autoBf_
FN:85,_RNvMs1_NvMs1_NtNtCsbZ6qTFMlSKY_5serde11unit_struct13target_fuzz__NtBb_4Args13auto_generateINtB5_s_4AutoNtBd_10UnitStructE4autoBf_
FN:85,_RNvMs1_NvMs1_NtNtCsbZ6qTFMlSKY_5serde12tuple_struct13target_fuzz__NtBb_4Args13auto_generateINtB5_s_4AutoNtBd_11TupleStructE4autoBf_
FN:85,_RNvMs1_NvMs1_NtNtCsbZ6qTFMlSKY_5serde12unit_variant13target_fuzz__NtBb_4Args13auto_generateINtB5_s_4AutopE4autoBf_
FN:85,_RNvMs1_NvMs1_NtNtCsbZ6qTFMlSKY_5serde13tuple_variant13target_fuzz__NtBb_4Args13auto_generateINtB5_s_4AutoNtBd_12TupleVariantE4autoBf_
FN:85,_RNvMs1_NvMs1_NtNtCsbZ6qTFMlSKY_5serde14newtype_struct13target_fuzz__NtBb_4Args13auto_generateINtB5_s_4AutoNtBd_13NewtypeStructE4autoBf_
FN:85,_RNvMs1_NvMs1_NtNtCsbZ6qTFMlSKY_5serde14struct_variant13target_fuzz__NtBb_4Args13auto_generateINtB5_s_4AutoNtBd_13StructVariantE4autoBf_
FN:85,_RNvMs1_NvMs1_NtNtCsbZ6qTFMlSKY_5serde15newtype_variant13target_fuzz__NtBb_4Args13auto_generateINtB5_s_4AutoNtBd_14NewtypeVariantE4autoBf_
FN:85,_RNvMs1_NvMs1_NtNtCsbZ6qTFMlSKY_5serde3map13target_fuzz__NtBb_4Args13auto_generateINtB5_s_4AutoINtNtNtNtCsgag4BwXrjBQ_5alloc11collections5btree3map8BTreeMaphhEE4autoBf_
FN:85,_RNvMs1_NvMs1_NtNtCsbZ6qTFMlSKY_5serde3seq13target_fuzz__NtBb_4Args13auto_generateINtB5_s_4AutoINtNtCsgag4BwXrjBQ_5alloc3vec3VechEE4autoBf_
FN:85,_RNvMs1_NvMs1_NtNtCsbZ6qTFMlSKY_5serde4unit13target_fuzz__NtBb_4Args13auto_generateINtB5_s_4AutouE4autoBf_
FN:85,_RNvMs1_NvMs1_NtNtCsbZ6qTFMlSKY_5serde5tuple13target_fuzz__NtBb_4Args13auto_generateINtB5_s_4AutoThEE4autoBf_
FN:85,_RNvMs1_NvMs1_NtNtCsbZ6qTFMlSKY_5serde6option13target_fuzz__NtBb_4Args13auto_generateINtB5_s_4AutoINtNtCs3XFJfFEDSOQ_4core6option6OptionhEE4autoBf_
FN:85,_RNvMs1_NvMs1_NtNtCsbZ6qTFMlSKY_5serde6string13target_fuzz__NtBb_4Args13auto_generateINtB5_s_4AutoNtNtCsgag4BwXrjBQ_5alloc6string6StringE4autoBf_
FN:85,_RNvMs1_NvMs1_NtNtCsbZ6qTFMlSKY_5serde6strukt13target_fuzz__NtBb_4Args13auto_generateINtB5_s_4AutoNtBd_6StructE4autoBf_
FN:85,_RNvMs1_NvMs1_NtNtCsfL22ijsdh9Q_5debug4hang13target_fuzz__NtBb_4Args13auto_generateINtB5_s_4AutoNtBd_6StructE4autoBf_
FN:85,_RNvMs1_NvMs1_NtNtCsfL22ijsdh9Q_5debug5crash13target_fuzz__NtBb_4Args13auto_generateINtB5_s_4AutoNtBd_6StructE4autoBf_
FN:85,_RNvMs1_NvMs1_NtNtCsgyJtF4GtVdY_10conversion11uncloneable13target_fuzz__NtBb_4Args13auto_generateINtB5_s_4AutopE4autoBf_
FN:85,_RNvMs1_NvMs1_NtNtCsgyJtF4GtVdY_10conversion4path13target_fuzz__NtBb_4Args13auto_generateINtB5_s_4AutopE4autoBf_
FN:85,_RNvMs1_NvMs1_NtNtCsgyJtF4GtVdY_10conversion5array13target_fuzz__NtBb_4Args13auto_generateINtB5_s_4AutopE4autoBf_
FN:85,_RNvMs1_NvMs1_NtNtCsgyJtF4GtVdY_10conversion7mutable13target_fuzz__NtBb_4Args13auto_generateINtB5_s_4AutopE4autoBf_
FN:85,_RNvMs1_NvMs1_NtNtCsgyJtF4GtVdY_10conversion8lifetime13target_fuzz__NtBb_4Args13auto_generateINtB5_s_4AutopE4autoBf_
FN:85,_RNvMs1_NvMs1_NtNtCsgyJtF4GtVdY_10conversion8receiver20x_target_self_fuzz__NtBb_4Args13auto_generateINtB5_s_4AutopE4autoBf_
FN:85,_RNvMs1_NvMs1_NtNtCsgyJtF4GtVdY_10conversion8receiver21x_target_other_fuzz__NtBb_4Args13auto_generateINtB5_s_4AutopE4autoBf_
FN:85,_RNvMs1_NvMs1_NtNtCsiGGxYnMUpAI_13auto_generate6signed13target_fuzz__NtBb_4Args13auto_generateINtB5_s_4AutoxE4autoBf_
FN:85,_RNvMs1_NvMs1_NtNtCsiGGxYnMUpAI_13auto_generate8unsigned13target_fuzz__NtBb_4Args13auto_generateINtB5_s_4AutoyE4autoBf_
FN:85,_RNvMs1b_NvMs1_NtNtCsbZ6qTFMlSKY_5serde10byte_array13target_fuzz__NtBc_4Args13auto_generateINtB6_sz_4AutopE4autoBg_
FN:85,_RNvMs1d_NvMs1_NtNtCsbZ6qTFMlSKY_5serde10byte_array13target_fuzz__NtBc_4Args13auto_generateINtB6_sA_4AutopE4autoBg_
FN:85,_RNvMs1f_NvMs1_NtNtCsbZ6qTFMlSKY_5serde10byte_array13target_fuzz__NtBc_4Args13auto_generateINtB6_sB_4AutopE4autoBg_
FN:85,_RNvMs1h_NvMs1_NtNtCsbZ6qTFMlSKY_5serde10byte_array13target_fuzz__NtBc_4Args13auto_generateINtB6_sC_4AutopE4autoBg_
FN:85,_RNvMs1j_NvMs1_NtNtCsbZ6qTFMlSKY_5serde10byte_array13target_fuzz__NtBc_4Args13auto_generateINtB6_sD_4AutoAhj2_E4autoBg_
FN:85,_RNvMs1l_NvMs1_NtNtCsbZ6qTFMlSKY_5serde10byte_array13target_fuzz__NtBc_4Args13auto_generateINtB6_sE_4AutopE4autoBg_
FN:85,_RNvMs1n_NvMs1_NtNtCsbZ6qTFMlSKY_5serde10byte_array13target_fuzz__NtBc_4Args13auto_generateINtB6_sF_4AutopE4autoBg_
FN:85,_RNvMs1p_NvMs1_NtNtCsbZ6qTFMlSKY_5serde10byte_array13target_fuzz__NtBc_4Args13auto_generateINtB6_sG_4AutopE4autoBg_
FN:85,_RNvMs3_NvMs1_NtCs2zeNb6jgslg_19self_ty_in_mod_name20struct_target_fuzz__NtBb_4Args13auto_generateINtB5_s0_4AutopE4autoBd_
FN:85,_RNvMs3_NvMs1_NtCs4MGHVrkl72m_4from15bar_from_fuzz__NtBb_4Args13auto_generateINtB5_s0_4AutopE4autoBd_
FN:85,_RNvMs3_NvMs1_NtCs4MGHVrkl72m_4from15baz_into_fuzz__NtBb_4Args13auto_generateINtB5_s0_4AutopE4autoBd_
FN:85,_RNvMs3_NvMs1_NtCs4MGHVrkl72m_4from19baz_try_from_fuzz__NtBb_4Args13auto_generateINtB5_s0_4AutopE4autoBd_
FN:85,_RNvMs3_NvMs1_NtCs4jNeg51vteg_8lifetime13target_fuzz__NtBb_4Args13auto_generateINtB5_s0_4AutopE4autoBd_
FN:85,_RNvMs3_NvMs1_NtCs5fNIG3PZaJo_11hello_world19intermediary_fuzz__NtBb_4Args13auto_generateINtB5_s0_4AutopE4autoBd_
FN:85,_RNvMs3_NvMs1_NtCs6ZJvwNFZ5Lo_11return_type16swap_swap_fuzz__INtBb_4ArgsppE13auto_generateINtB5_s0_4AutopE4autoBd_
FN:85,_RNvMs3_NvMs1_NtCs6fBdTSegfKf_14test_fuzz_impl17struct_bar_fuzz__NtBb_4Args13auto_generateINtB5_s0_4AutopE4autoBd_
FN:85,_RNvMs3_NvMs1_NtCs6fBdTSegfKf_14test_fuzz_impl17struct_foo_fuzz__NtBb_4Args13auto_generateINtB5_s0_4AutopE4autoBd_
FN:85,_RNvMs3_NvMs1_NtCs6z3aMDs3O5H_14parse_duration12parse_fuzz__NtBb_4Args13auto_generateINtB5_s0_4AutopE4autoBd_
FN:85,_RNvMs3_NvMs1_NtCs7l6y1YLWhzH_5alloc13target_fuzz__NtBb_4Args13auto_generateINtB5_s0_4AutopE4autoBd_
FN:85,_RNvMs3_NvMs1_NtCs8VL8JzDaoWz_11hello_world19intermediary_fuzz__NtBb_4Args13auto_generateINtB5_s0_4AutopE4autoBd_
FN:85,_RNvMs3_NvMs1_NtCs9i11WczUoNj_7profile13target_fuzz__NtBb_4Args13auto_generateINtB5_s0_4AutopE4autoBd_
FN:85,_RNvMs3_NvMs1_NtCsaVSfY7O0uYs_7generic14baz_qux_fuzz__INtBb_4ArgspE13auto_generateINtB5_s0_4AutopE4autoBd_
FN:85,_RNvMs3_NvMs1_NtCsaVSfY7O0uYs_7generic20struct_target_fuzz__INtBb_4ArgspE13auto_generateINtB5_s0_4AutopE4autoBd_
FN:85,_RNvMs3_NvMs1_NtCsaVSfY7O0uYs_7generic26struct_target_bound_fuzz__INtBb_4ArgsppE13auto_generateINtB5_s0_4AutopE4autoBd_
FN:85,_RNvMs3_NvMs1_NtCsaVSfY7O0uYs_7generic33struct_target_where_clause_fuzz__INtBb_4ArgsppE13auto_generateINtB5_s0_4AutopE4autoBd_
FN:85,_RNvMs3_NvMs1_NtCsb7JfYwj8ipQ_10serde_attr13target_fuzz__NtBb_4Args13auto_generateINtB5_s0_4AutopE4autoBd_
FN:85,_RNvMs3_NvMs1_NtCsbupd9d71YLx_16calm_and_panicky11calm_fuzz__NtBb_4Args13auto_generateINtB5_s0_4AutopE4autoBd_
FN:85,_RNvMs3_NvMs1_NtCsbupd9d71YLx_16calm_and_panicky14panicky_fuzz__NtBb_4Args13auto_generateINtB5_s0_4AutopE4autoBd_
FN:85,_RNvMs3_NvMs1_NtCscaf2gEuSGn5_6qwerty13target_fuzz__NtBb_4Args13auto_generateINtB5_s0_4AutopE4autoBd_
FN:85,_RNvMs3_NvMs1_NtCsfEcBWhN4Na3_3arc13target_fuzz__NtBb_4Args13auto_generateINtB5_s0_4AutopE4autoBd_
FN:85,_RNvMs3_NvMs1_NtCsfODoU0UL7aq_11manual_leak23wrapped_key_dump_fuzz__NtBb_4Args13auto_generateINtB5_s0_4AutopE4autoBd_
FN:85,_RNvMs3_NvMs1_NtCsfOIDT8lUV2L_7mut_ref17target_str_fuzz__NtBb_4Args13auto_generateINtB5_s0_4AutopE4autoBd_
FN:85,_RNvMs3_NvMs1_NtCsfOIDT8lUV2L_7mut_ref19target_slice_fuzz__NtBb_4Args13auto_generateINtB5_s0_4AutopE4autoBd_
FN:85,_RNvMs3_NvMs1_NtCsgZ69XjcSWhh_6assert13target_fuzz__NtBb_4Args13auto_generateINtB5_s0_4AutopE4autoBd_
FN:85,_RNvMs3_NvMs1_NtCsikhsy0ZvG4z_4cast13target_fuzz__NtBb_4Args13auto_generateINtB5_s0_4AutoyE4autoBd_
FN:85,_RNvMs3_NvMs1_NtCsjk8KY6qq2Wr_8parallel15target_0_fuzz__NtBb_4Args13auto_generateINtB5_s0_4AutopE4autoBd_
FN:85,_RNvMs3_NvMs1_NtCsjk8KY6qq2Wr_8parallel15target_1_fuzz__NtBb_4Args13auto_generateINtB5_s0_4AutopE4autoBd_
FN:85,_RNvMs3_NvMs1_NtCsjk8KY6qq2Wr_8parallel15target_2_fuzz__NtBb_4Args13auto_generateINtB5_s0_4AutopE4autoBd_
FN:85,_RNvMs3_NvMs1_NtCsjk8KY6qq2Wr_8parallel15target_3_fuzz__NtBb_4Args13auto_generateINtB5_s0_4AutopE4autoBd_
FN:85,_RNvMs3_NvMs1_NtCsjk8KY6qq2Wr_8parallel15target_4_fuzz__NtBb_4Args13auto_generateINtB5_s0_4AutopE4autoBd_
FN:85,_RNvMs3_NvMs1_NtCsjk8KY6qq2Wr_8parallel15target_5_fuzz__NtBb_4Args13auto_generateINtB5_s0_4AutopE4autoBd_
FN:85,_RNvMs3_NvMs1_NtCskkeazd6lurB_15associated_type20serializes_to_fuzz__INtBb_4ArgspE13auto_generateINtB5_s0_4AutopE4autoBd_
FN:85,_RNvMs3_NvMs1_NtNtCs4RwwcRvri8p_7default10no_default13target_fuzz__NtBb_4Args13auto_generateINtB5_s0_4AutopE4autoBf_
FN:85,_RNvMs3_NvMs1_NtNtCs4RwwcRvri8p_7default7default13target_fuzz__NtBb_4Args13auto_generateINtB5_s0_4AutopE4autoBf_
FN:85,_RNvMs3_NvMs1_NtNtCsaVSfY7O0uYs_7generic27receiverless_trait_function20struct_target_fuzz__INtBb_4ArgspE13auto_generateINtB5_s0_4AutopE4autoBf_
FN:85,_RNvMs3_NvMs1_NtNtCsbZ6qTFMlSKY_5serde10byte_array13target_fuzz__NtBb_4Args13auto_generateINtB5_s0_4AutopE4autoBf_
FN:85,_RNvMs3_NvMs1_NtNtCsbZ6qTFMlSKY_5serde11unit_struct13target_fuzz__NtBb_4Args13auto_generateINtB5_s0_4AutopE4autoBf_
FN:85,_RNvMs3_NvMs1_NtNtCsbZ6qTFMlSKY_5serde12tuple_struct13target_fuzz__NtBb_4Args13auto_generateINtB5_s0_4AutopE4autoBf_
FN:85,_RNvMs3_NvMs1_NtNtCsbZ6qTFMlSKY_5serde12unit_variant13target_fuzz__NtBb_4Args13auto_generateINtB5_s0_4AutopE4autoBf_
FN:85,_RNvMs3_NvMs1_NtNtCsbZ6qTFMlSKY_5serde13tuple_variant13target_fuzz__NtBb_4Args13auto_generateINtB5_s0_4AutopE4autoBf_
FN:85,_RNvMs3_NvMs1_NtNtCsbZ6qTFMlSKY_5serde14newtype_struct13target_fuzz__NtBb_4Args13auto_generateINtB5_s0_4AutopE4autoBf_
FN:85,_RNvMs3_NvMs1_NtNtCsbZ6qTFMlSKY_5serde14struct_variant13target_fuzz__NtBb_4Args13auto_generateINtB5_s0_4AutopE4autoBf_
FN:85,_RNvMs3_NvMs1_NtNtCsbZ6qTFMlSKY_5serde15newtype_variant13target_fuzz__NtBb_4Args13auto_generateINtB5_s0_4AutopE4autoBf_
FN:85,_RNvMs3_NvMs1_NtNtCsbZ6qTFMlSKY_5serde3map13target_fuzz__NtBb_4Args13auto_generateINtB5_s0_4AutopE4autoBf_
FN:85,_RNvMs3_NvMs1_NtNtCsbZ6qTFMlSKY_5serde3seq13target_fuzz__NtBb_4Args13auto_generateINtB5_s0_4AutopE4autoBf_
FN:85,_RNvMs3_NvMs1_NtNtCsbZ6qTFMlSKY_5serde4unit13target_fuzz__NtBb_4Args13auto_generateINtB5_s0_4AutopE4autoBf_
FN:85,_RNvMs3_NvMs1_NtNtCsbZ6qTFMlSKY_5serde5tuple13target_fuzz__NtBb_4Args13auto_generateINtB5_s0_4AutopE4autoBf_
FN:85,_RNvMs3_NvMs1_NtNtCsbZ6qTFMlSKY_5serde6option13target_fuzz__NtBb_4Args13auto_generateINtB5_s0_4AutopE4autoBf_
FN:85,_RNvMs3_NvMs1_NtNtCsbZ6qTFMlSKY_5serde6string13target_fuzz__NtBb_4Args13auto_generateINtB5_s0_4AutopE4autoBf_
FN:85,_RNvMs3_NvMs1_NtNtCsbZ6qTFMlSKY_5serde6strukt13target_fuzz__NtBb_4Args13auto_generateINtB5_s0_4AutopE4autoBf_
FN:85,_RNvMs3_NvMs1_NtNtCsfL22ijsdh9Q_5debug4hang13target_fuzz__NtBb_4Args13auto_generateINtB5_s0_4AutopE4autoBf_
FN:85,_RNvMs3_NvMs1_NtNtCsfL22ijsdh9Q_5debug5crash13target_fuzz__NtBb_4Args13auto_generateINtB5_s0_4AutopE4autoBf_
FN:85,_RNvMs3_NvMs1_NtNtCsgyJtF4GtVdY_10conversion11uncloneable13target_fuzz__NtBb_4Args13auto_generateINtB5_s0_4AutopE4autoBf_
FN:85,_RNvMs3_NvMs1_NtNtCsgyJtF4GtVdY_10conversion4path13target_fuzz__NtBb_4Args13auto_generateINtB5_s0_4AutopE4autoBf_
FN:85,_RNvMs3_NvMs1_NtNtCsgyJtF4GtVdY_10conversion5array13target_fuzz__NtBb_4Args13auto_generateINtB5_s0_4AutopE4autoBf_
FN:85,_RNvMs3_NvMs1_NtNtCsgyJtF4GtVdY_10conversion7mutable13target_fuzz__NtBb_4Args13auto_generateINtB5_s0_4AutopE4autoBf_
FN:85,_RNvMs3_NvMs1_NtNtCsgyJtF4GtVdY_10conversion8lifetime13target_fuzz__NtBb_4Args13auto_generateINtB5_s0_4AutopE4autoBf_
FN:85,_RNvMs3_NvMs1_NtNtCsgyJtF4GtVdY_10conversion8receiver20x_target_self_fuzz__NtBb_4Args13auto_generateINtB5_s0_4AutopE4autoBf_
FN:85,_RNvMs3_NvMs1_NtNtCsgyJtF4GtVdY_10conversion8receiver21x_target_other_fuzz__NtBb_4Args13auto_generateINtB5_s0_4AutopE4autoBf_
FN:85,_RNvMs3_NvMs1_NtNtCsiGGxYnMUpAI_13auto_generate6signed13target_fuzz__NtBb_4Args13auto_generateINtB5_s0_4AutoxE4autoBf_
FN:85,_RNvMs3_NvMs1_NtNtCsiGGxYnMUpAI_13auto_generate8unsigned13target_fuzz__NtBb_4Args13auto_generateINtB5_s0_4AutoyE4autoBf_
FN:85,_RNvMs5_NvMs1_NtCs2zeNb6jgslg_19self_ty_in_mod_name20struct_target_fuzz__NtBb_4Args13auto_generateINtB5_s1_4AutopE4autoBd_
FN:85,_RNvMs5_NvMs1_NtCs4MGHVrkl72m_4from15bar_from_fuzz__NtBb_4Args13auto_generateINtB5_s1_4AutopE4autoBd_
FN:85,_RNvMs5_NvMs1_NtCs4MGHVrkl72m_4from15baz_into_fuzz__NtBb_4Args13auto_generateINtB5_s1_4AutopE4autoBd_
FN:85,_RNvMs5_NvMs1_NtCs4MGHVrkl72m_4from19baz_try_from_fuzz__NtBb_4Args13auto_generateINtB5_s1_4AutopE4autoBd_
FN:85,_RNvMs5_NvMs1_NtCs4jNeg51vteg_8lifetime13target_fuzz__NtBb_4Args13auto_generateINtB5_s1_4AutopE4autoBd_
FN:85,_RNvMs5_NvMs1_NtCs5fNIG3PZaJo_11hello_world19intermediary_fuzz__NtBb_4Args13auto_generateINtB5_s1_4AutopE4autoBd_
FN:85,_RNvMs5_NvMs1_NtCs6ZJvwNFZ5Lo_11return_type16swap_swap_fuzz__INtBb_4ArgsppE13auto_generateINtB5_s1_4AutopE4autoBd_
FN:85,_RNvMs5_NvMs1_NtCs6fBdTSegfKf_14test_fuzz_impl17struct_bar_fuzz__NtBb_4Args13auto_generateINtB5_s1_4AutopE4autoBd_
FN:85,_RNvMs5_NvMs1_NtCs6fBdTSegfKf_14test_fuzz_impl17struct_foo_fuzz__NtBb_4Args13auto_generateINtB5_s1_4AutopE4autoBd_
FN:85,_RNvMs5_NvMs1_NtCs6z3aMDs3O5H_14parse_duration12parse_fuzz__NtBb_4Args13auto_generateINtB5_s1_4AutopE4autoBd_
FN:85,_RNvMs5_NvMs1_NtCs7l6y1YLWhzH_5alloc13target_fuzz__NtBb_4Args13auto_generateINtB5_s1_4AutopE4autoBd_
FN:85,_RNvMs5_NvMs1_NtCs8VL8JzDaoWz_11hello_world19intermediary_fuzz__NtBb_4Args13auto_generateINtB5_s1_4AutopE4autoBd_
FN:85,_RNvMs5_NvMs1_NtCs9i11WczUoNj_7profile13target_fuzz__NtBb_4Args13auto_generateINtB5_s1_4AutopE4autoBd_
FN:85,_RNvMs5_NvMs1_NtCsaVSfY7O0uYs_7generic14baz_qux_fuzz__INtBb_4ArgspE13auto_generateINtB5_s1_4AutopE4autoBd_
FN:85,_RNvMs5_NvMs1_NtCsaVSfY7O0uYs_7generic20struct_target_fuzz__INtBb_4ArgspE13auto_generateINtB5_s1_4AutopE4autoBd_
FN:85,_RNvMs5_NvMs1_NtCsaVSfY7O0uYs_7generic26struct_target_bound_fuzz__INtBb_4ArgsppE13auto_generateINtB5_s1_4AutopE4autoBd_
FN:85,_RNvMs5_NvMs1_NtCsaVSfY7O0uYs_7generic33struct_target_where_clause_fuzz__INtBb_4ArgsppE13auto_generateINtB5_s1_4AutopE4autoBd_
FN:85,_RNvMs5_NvMs1_NtCsb7JfYwj8ipQ_10serde_attr13target_fuzz__NtBb_4Args13auto_generateINtB5_s1_4AutopE4autoBd_
FN:85,_RNvMs5_NvMs1_NtCsbupd9d71YLx_16calm_and_panicky11calm_fuzz__NtBb_4Args13auto_generateINtB5_s1_4AutopE4autoBd_
FN:85,_RNvMs5_NvMs1_NtCsbupd9d71YLx_16calm_and_panicky14panicky_fuzz__NtBb_4Args13auto_generateINtB5_s1_4AutopE4autoBd_
FN:85,_RNvMs5_NvMs1_NtCscaf2gEuSGn5_6qwerty13target_fuzz__NtBb_4Args13auto_generateINtB5_s1_4AutopE4autoBd_
FN:85,_RNvMs5_NvMs1_NtCsfEcBWhN4Na3_3arc13target_fuzz__NtBb_4Args13auto_generateINtB5_s1_4AutopE4autoBd_
FN:85,_RNvMs5_NvMs1_NtCsfODoU0UL7aq_11manual_leak23wrapped_key_dump_fuzz__NtBb_4Args13auto_generateINtB5_s1_4AutopE4autoBd_
FN:85,_RNvMs5_NvMs1_NtCsfOIDT8lUV2L_7mut_ref17target_str_fuzz__NtBb_4Args13auto_generateINtB5_s1_4AutopE4autoBd_
FN:85,_RNvMs5_NvMs1_NtCsfOIDT8lUV2L_7mut_ref19target_slice_fuzz__NtBb_4Args13auto_generateINtB5_s1_4AutopE4autoBd_
FN:85,_RNvMs5_NvMs1_NtCsgZ69XjcSWhh_6assert13target_fuzz__NtBb_4Args13auto_generateINtB5_s1_4AutopE4autoBd_
FN:85,_RNvMs5_NvMs1_NtCsikhsy0ZvG4z_4cast13target_fuzz__NtBb_4Args13auto_generateINtB5_s1_4AutoyE4autoBd_
FN:85,_RNvMs5_NvMs1_NtCsjk8KY6qq2Wr_8parallel15target_0_fuzz__NtBb_4Args13auto_generateINtB5_s1_4AutopE4autoBd_
FN:85,_RNvMs5_NvMs1_NtCsjk8KY6qq2Wr_8parallel15target_1_fuzz__NtBb_4Args13auto_generateINtB5_s1_4AutopE4autoBd_
FN:85,_RNvMs5_NvMs1_NtCsjk8KY6qq2Wr_8parallel15target_2_fuzz__NtBb_4Args13auto_generateINtB5_s1_4AutopE4autoBd_
FN:85,_RNvMs5_NvMs1_NtCsjk8KY6qq2Wr_8parallel15target_3_fuzz__NtBb_4Args13auto_generateINtB5_s1_4AutopE4autoBd_
FN:85,_RNvMs5_NvMs1_NtCsjk8KY6qq2Wr_8parallel15target_4_fuzz__NtBb_4Args13auto_generateINtB5_s1_4AutopE4autoBd_
FN:85,_RNvMs5_NvMs1_NtCsjk8KY6qq2Wr_8parallel15target_5_fuzz__NtBb_4Args13auto_generateINtB5_s1_4AutopE4autoBd_
FN:85,_RNvMs5_NvMs1_NtCskkeazd6lurB_15associated_type20serializes_to_fuzz__INtBb_4ArgspE13auto_generateINtB5_s1_4AutopE4autoBd_
FN:85,_RNvMs5_NvMs1_NtNtCs4RwwcRvri8p_7default10no_default13target_fuzz__NtBb_4Args13auto_generateINtB5_s1_4AutopE4autoBf_
FN:85,_RNvMs5_NvMs1_NtNtCs4RwwcRvri8p_7default7default13target_fuzz__NtBb_4Args13auto_generateINtB5_s1_4AutopE4autoBf_
FN:85,_RNvMs5_NvMs1_NtNtCsaVSfY7O0uYs_7generic27receiverless_trait_function20struct_target_fuzz__INtBb_4ArgspE13auto_generateINtB5_s1_4AutopE4autoBf_
FN:85,_RNvMs5_NvMs1_NtNtCsbZ6qTFMlSKY_5serde10byte_array13target_fuzz__NtBb_4Args13auto_generateINtB5_s1_4AutopE4autoBf_
FN:85,_RNvMs5_NvMs1_NtNtCsbZ6qTFMlSKY_5serde11unit_struct13target_fuzz__NtBb_4Args13auto_generateINtB5_s1_4AutopE4autoBf_
FN:85,_RNvMs5_NvMs1_NtNtCsbZ6qTFMlSKY_5serde12tuple_struct13target_fuzz__NtBb_4Args13auto_generateINtB5_s1_4AutopE4autoBf_
FN:85,_RNvMs5_NvMs1_NtNtCsbZ6qTFMlSKY_5serde12unit_variant13target_fuzz__NtBb_4Args13auto_generateINtB5_s1_4AutopE4autoBf_
FN:85,_RNvMs5_NvMs1_NtNtCsbZ6qTFMlSKY_5serde13tuple_variant13target_fuzz__NtBb_4Args13auto_generateINtB5_s1_4AutopE4autoBf_
FN:85,_RNvMs5_NvMs1_NtNtCsbZ6qTFMlSKY_5serde14newtype_struct13target_fuzz__NtBb_4Args13auto_generateINtB5_s1_4AutopE4autoBf_
FN:85,_RNvMs5_NvMs1_NtNtCsbZ6qTFMlSKY_5serde14struct_variant13target_fuzz__NtBb_4Args13auto_generateINtB5_s1_4AutopE4autoBf_
FN:85,_RNvMs5_NvMs1_NtNtCsbZ6qTFMlSKY_5serde15newtype_variant13target_fuzz__NtBb_4Args13auto_generateINtB5_s1_4AutopE4autoBf_
FN:85,_RNvMs5_NvMs1_NtNtCsbZ6qTFMlSKY_5serde3map13target_fuzz__NtBb_4Args13auto_generateINtB5_s1_4AutopE4autoBf_
FN:85,_RNvMs5_NvMs1_NtNtCsbZ6qTFMlSKY_5serde3seq13target_fuzz__NtBb_4Args13auto_generateINtB5_s1_4AutopE4autoBf_
FN:85,_RNvMs5_NvMs1_NtNtCsbZ6qTFMlSKY_5serde4unit13target_fuzz__NtBb_4Args13auto_generateINtB5_s1_4AutopE4autoBf_
FN:85,_RNvMs5_NvMs1_NtNtCsbZ6qTFMlSKY_5serde5tuple13target_fuzz__NtBb_4Args13auto_generateINtB5_s1_4AutopE4autoBf_
FN:85,_RNvMs5_NvMs1_NtNtCsbZ6qTFMlSKY_5serde6option13target_fuzz__NtBb_4Args13auto_generateINtB5_s1_4AutopE4autoBf_
FN:85,_RNvMs5_NvMs1_NtNtCsbZ6qTFMlSKY_5serde6string13target_fuzz__NtBb_4Args13auto_generateINtB5_s1_4AutopE4autoBf_
FN:85,_RNvMs5_NvMs1_NtNtCsbZ6qTFMlSKY_5serde6strukt13target_fuzz__NtBb_4Args13auto_generateINtB5_s1_4AutopE4autoBf_
FN:85,_RNvMs5_NvMs1_NtNtCsfL22ijsdh9Q_5debug4hang13target_fuzz__NtBb_4Args13auto_generateINtB5_s1_4AutopE4autoBf_
FN:85,_RNvMs5_NvMs1_NtNtCsfL22ijsdh9Q_5debug5crash13target_fuzz__NtBb_4Args13auto_generateINtB5_s1_4AutopE4autoBf_
FN:85,_RNvMs5_NvMs1_NtNtCsgyJtF4GtVdY_10conversion11uncloneable13target_fuzz__NtBb_4Args13auto_generateINtB5_s1_4AutopE4autoBf_
FN:85,_RNvMs5_NvMs1_NtNtCsgyJtF4GtVdY_10conversion4path13target_fuzz__NtBb_4Args13auto_generateINtB5_s1_4AutopE4autoBf_
FN:85,_RNvMs5_NvMs1_NtNtCsgyJtF4GtVdY_10conversion5array13target_fuzz__NtBb_4Args13auto_generateINtB5_s1_4AutopE4autoBf_
FN:85,_RNvMs5_NvMs1_NtNtCsgyJtF4GtVdY_10conversion7mutable13target_fuzz__NtBb_4Args13auto_generateINtB5_s1_4AutopE4autoBf_
FN:85,_RNvMs5_NvMs1_NtNtCsgyJtF4GtVdY_10conversion8lifetime13target_fuzz__NtBb_4Args13auto_generateINtB5_s1_4AutopE4autoBf_
FN:85,_RNvMs5_NvMs1_NtNtCsgyJtF4GtVdY_10conversion8receiver20x_target_self_fuzz__NtBb_4Args13auto_generateINtB5_s1_4AutopE4autoBf_
FN:85,_RNvMs5_NvMs1_NtNtCsgyJtF4GtVdY_10conversion8receiver21x_target_other_fuzz__NtBb_4Args13auto_generateINtB5_s1_4AutopE4autoBf_
FN:85,_RNvMs5_NvMs1_NtNtCsiGGxYnMUpAI_13auto_generate6signed13target_fuzz__NtBb_4Args13auto_generateINtB5_s1_4AutoxE4autoBf_
FN:85,_RNvMs5_NvMs1_NtNtCsiGGxYnMUpAI_13auto_generate8unsigned13target_fuzz__NtBb_4Args13auto_generateINtB5_s1_4AutoyE4autoBf_
FN:85,_RNvMs7_NvMs1_NtCs2zeNb6jgslg_19self_ty_in_mod_name20struct_target_fuzz__NtBb_4Args13auto_generateINtB5_s2_4AutopE4autoBd_
FN:85,_RNvMs7_NvMs1_NtCs4MGHVrkl72m_4from15bar_from_fuzz__NtBb_4Args13auto_generateINtB5_s2_4AutopE4autoBd_
FN:85,_RNvMs7_NvMs1_NtCs4MGHVrkl72m_4from15baz_into_fuzz__NtBb_4Args13auto_generateINtB5_s2_4AutopE4autoBd_
FN:85,_RNvMs7_NvMs1_NtCs4MGHVrkl72m_4from19baz_try_from_fuzz__NtBb_4Args13auto_generateINtB5_s2_4AutopE4autoBd_
FN:85,_RNvMs7_NvMs1_NtCs4jNeg51vteg_8lifetime13target_fuzz__NtBb_4Args13auto_generateINtB5_s2_4AutopE4autoBd_
FN:85,_RNvMs7_NvMs1_NtCs5fNIG3PZaJo_11hello_world19intermediary_fuzz__NtBb_4Args13auto_generateINtB5_s2_4AutopE4autoBd_
FN:85,_RNvMs7_NvMs1_NtCs6ZJvwNFZ5Lo_11return_type16swap_swap_fuzz__INtBb_4ArgsppE13auto_generateINtB5_s2_4AutopE4autoBd_
FN:85,_RNvMs7_NvMs1_NtCs6fBdTSegfKf_14test_fuzz_impl17struct_bar_fuzz__NtBb_4Args13auto_generateINtB5_s2_4AutopE4autoBd_
FN:85,_RNvMs7_NvMs1_NtCs6fBdTSegfKf_14test_fuzz_impl17struct_foo_fuzz__NtBb_4Args13auto_generateINtB5_s2_4AutopE4autoBd_
FN:85,_RNvMs7_NvMs1_NtCs6z3aMDs3O5H_14parse_duration12parse_fuzz__NtBb_4Args13auto_generateINtB5_s2_4AutopE4autoBd_
FN:85,_RNvMs7_NvMs1_NtCs7l6y1YLWhzH_5alloc13target_fuzz__NtBb_4Args13auto_generateINtB5_s2_4AutopE4autoBd_
FN:85,_RNvMs7_NvMs1_NtCs8VL8JzDaoWz_11hello_world19intermediary_fuzz__NtBb_4Args13auto_generateINtB5_s2_4AutopE4autoBd_
FN:85,_RNvMs7_NvMs1_NtCs9i11WczUoNj_7profile13target_fuzz__NtBb_4Args13auto_generateINtB5_s2_4AutopE4autoBd_
FN:85,_RNvMs7_NvMs1_NtCsaVSfY7O0uYs_7generic14baz_qux_fuzz__INtBb_4ArgspE13auto_generateINtB5_s2_4AutopE4autoBd_
FN:85,_RNvMs7_NvMs1_NtCsaVSfY7O0uYs_7generic20struct_target_fuzz__INtBb_4ArgspE13auto_generateINtB5_s2_4AutopE4autoBd_
FN:85,_RNvMs7_NvMs1_NtCsaVSfY7O0uYs_7generic26struct_target_bound_fuzz__INtBb_4ArgsppE13auto_generateINtB5_s2_4AutopE4autoBd_
FN:85,_RNvMs7_NvMs1_NtCsaVSfY7O0uYs_7generic33struct_target_where_clause_fuzz__INtBb_4ArgsppE13auto_generateINtB5_s2_4AutopE4autoBd_
FN:85,_RNvMs7_NvMs1_NtCsb7JfYwj8ipQ_10serde_attr13target_fuzz__NtBb_4Args13auto_generateINtB5_s2_4AutopE4autoBd_
FN:85,_RNvMs7_NvMs1_NtCsbupd9d71YLx_16calm_and_panicky11calm_fuzz__NtBb_4Args13auto_generateINtB5_s2_4AutopE4autoBd_
FN:85,_RNvMs7_NvMs1_NtCsbupd9d71YLx_16calm_and_panicky14panicky_fuzz__NtBb_4Args13auto_generateINtB5_s2_4AutopE4autoBd_
FN:85,_RNvMs7_NvMs1_NtCscaf2gEuSGn5_6qwerty13target_fuzz__NtBb_4Args13auto_generateINtB5_s2_4AutopE4autoBd_
FN:85,_RNvMs7_NvMs1_NtCsfEcBWhN4Na3_3arc13target_fuzz__NtBb_4Args13auto_generateINtB5_s2_4AutopE4autoBd_
FN:85,_RNvMs7_NvMs1_NtCsfODoU0UL7aq_11manual_leak23wrapped_key_dump_fuzz__NtBb_4Args13auto_generateINtB5_s2_4AutopE4autoBd_
FN:85,_RNvMs7_NvMs1_NtCsfOIDT8lUV2L_7mut_ref17target_str_fuzz__NtBb_4Args13auto_generateINtB5_s2_4AutopE4autoBd_
FN:85,_RNvMs7_NvMs1_NtCsfOIDT8lUV2L_7mut_ref19target_slice_fuzz__NtBb_4Args13auto_generateINtB5_s2_4AutopE4autoBd_
FN:85,_RNvMs7_NvMs1_NtCsgZ69XjcSWhh_6assert13target_fuzz__NtBb_4Args13auto_generateINtB5_s2_4AutopE4autoBd_
FN:85,_RNvMs7_NvMs1_NtCsikhsy0ZvG4z_4cast13target_fuzz__NtBb_4Args13auto_generateINtB5_s2_4AutoyE4autoBd_
FN:85,_RNvMs7_NvMs1_NtCsjk8KY6qq2Wr_8parallel15target_0_fuzz__NtBb_4Args13auto_generateINtB5_s2_4AutopE4autoBd_
FN:85,_RNvMs7_NvMs1_NtCsjk8KY6qq2Wr_8parallel15target_1_fuzz__NtBb_4Args13auto_generateINtB5_s2_4AutopE4autoBd_
FN:85,_RNvMs7_NvMs1_NtCsjk8KY6qq2Wr_8parallel15target_2_fuzz__NtBb_4Args13auto_generateINtB5_s2_4AutopE4autoBd_
FN:85,_RNvMs7_NvMs1_NtCsjk8KY6qq2Wr_8parallel15target_3_fuzz__NtBb_4Args13auto_generateINtB5_s2_4AutopE4autoBd_
FN:85,_RNvMs7_NvMs1_NtCsjk8KY6qq2Wr_8parallel15target_4_fuzz__NtBb_4Args13auto_generateINtB5_s2_4AutopE4autoBd_
FN:85,_RNvMs7_NvMs1_NtCsjk8KY6qq2Wr_8parallel15target_5_fuzz__NtBb_4Args13auto_generateINtB5_s2_4AutopE4autoBd_
FN:85,_RNvMs7_NvMs1_NtCskkeazd6lurB_15associated_type20serializes_to_fuzz__INtBb_4ArgspE13auto_generateINtB5_s2_4AutopE4autoBd_
FN:85,_RNvMs7_NvMs1_NtNtCs4RwwcRvri8p_7default10no_default13target_fuzz__NtBb_4Args13auto_generateINtB5_s2_4AutopE4autoBf_
FN:85,_RNvMs7_NvMs1_NtNtCs4RwwcRvri8p_7default7default13target_fuzz__NtBb_4Args13auto_generateINtB5_s2_4AutopE4autoBf_
FN:85,_RNvMs7_NvMs1_NtNtCsaVSfY7O0uYs_7generic27receiverless_trait_function20struct_target_fuzz__INtBb_4ArgspE13auto_generateINtB5_s2_4AutopE4autoBf_
FN:85,_RNvMs7_NvMs1_NtNtCsbZ6qTFMlSKY_5serde10byte_array13target_fuzz__NtBb_4Args13auto_generateINtB5_s2_4AutopE4autoBf_
FN:85,_RNvMs7_NvMs1_NtNtCsbZ6qTFMlSKY_5serde11unit_struct13target_fuzz__NtBb_4Args13auto_generateINtB5_s2_4AutopE4autoBf_
FN:85,_RNvMs7_NvMs1_NtNtCsbZ6qTFMlSKY_5serde12tuple_struct13target_fuzz__NtBb_4Args13auto_generateINtB5_s2_4AutopE4autoBf_
FN:85,_RNvMs7_NvMs1_NtNtCsbZ6qTFMlSKY_5serde12unit_variant13target_fuzz__NtBb_4Args13auto_generateINtB5_s2_4AutopE4autoBf_
FN:85,_RNvMs7_NvMs1_NtNtCsbZ6qTFMlSKY_5serde13tuple_variant13target_fuzz__NtBb_4Args13auto_generateINtB5_s2_4AutopE4autoBf_
FN:85,_RNvMs7_NvMs1_NtNtCsbZ6qTFMlSKY_5serde14newtype_struct13target_fuzz__NtBb_4Args13auto_generateINtB5_s2_4AutopE4autoBf_
FN:85,_RNvMs7_NvMs1_NtNtCsbZ6qTFMlSKY_5serde14struct_variant13target_fuzz__NtBb_4Args13auto_generateINtB5_s2_4AutopE4autoBf_
FN:85,_RNvMs7_NvMs1_NtNtCsbZ6qTFMlSKY_5serde15newtype_variant13target_fuzz__NtBb_4Args13auto_generateINtB5_s2_4AutopE4autoBf_
FN:85,_RNvMs7_NvMs1_NtNtCsbZ6qTFMlSKY_5serde3map13target_fuzz__NtBb_4Args13auto_generateINtB5_s2_4AutopE4autoBf_
FN:85,_RNvMs7_NvMs1_NtNtCsbZ6qTFMlSKY_5serde3seq13target_fuzz__NtBb_4Args13auto_generateINtB5_s2_4AutopE4autoBf_
FN:85,_RNvMs7_NvMs1_NtNtCsbZ6qTFMlSKY_5serde4unit13target_fuzz__NtBb_4Args13auto_generateINtB5_s2_4AutopE4autoBf_
FN:85,_RNvMs7_NvMs1_NtNtCsbZ6qTFMlSKY_5serde5tuple13target_fuzz__NtBb_4Args13auto_generateINtB5_s2_4AutopE4autoBf_
FN:85,_RNvMs7_NvMs1_NtNtCsbZ6qTFMlSKY_5serde6option13target_fuzz__NtBb_4Args13auto_generateINtB5_s2_4AutopE4autoBf_
FN:85,_RNvMs7_NvMs1_NtNtCsbZ6qTFMlSKY_5serde6string13target_fuzz__NtBb_4Args13auto_generateINtB5_s2_4AutopE4autoBf_
FN:85,_RNvMs7_NvMs1_NtNtCsbZ6qTFMlSKY_5serde6strukt13target_fuzz__NtBb_4Args13auto_generateINtB5_s2_4AutopE4autoBf_
FN:85,_RNvMs7_NvMs1_NtNtCsfL22ijsdh9Q_5debug4hang13target_fuzz__NtBb_4Args13auto_generateINtB5_s2_4AutopE4autoBf_
FN:85,_RNvMs7_NvMs1_NtNtCsfL22ijsdh9Q_5debug5crash13target_fuzz__NtBb_4Args13auto_generateINtB5_s2_4AutopE4autoBf_
FN:85,_RNvMs7_NvMs1_NtNtCsgyJtF4GtVdY_10conversion11uncloneable13target_fuzz__NtBb_4Args13auto_generateINtB5_s2_4AutopE4autoBf_
FN:85,_RNvMs7_NvMs1_NtNtCsgyJtF4GtVdY_10conversion4path13target_fuzz__NtBb_4Args13auto_generateINtB5_s2_4AutopE4autoBf_
FN:85,_RNvMs7_NvMs1_NtNtCsgyJtF4GtVdY_10conversion5array13target_fuzz__NtBb_4Args13auto_generateINtB5_s2_4AutopE4autoBf_
FN:85,_RNvMs7_NvMs1_NtNtCsgyJtF4GtVdY_10conversion7mutable13target_fuzz__NtBb_4Args13auto_generateINtB5_s2_4AutopE4autoBf_
FN:85,_RNvMs7_NvMs1_NtNtCsgyJtF4GtVdY_10conversion8lifetime13target_fuzz__NtBb_4Args13auto_generateINtB5_s2_4AutopE4autoBf_
FN:85,_RNvMs7_NvMs1_NtNtCsgyJtF4GtVdY_10conversion8receiver20x_target_self_fuzz__NtBb_4Args13auto_generateINtB5_s2_4AutopE4autoBf_
FN:85,_RNvMs7_NvMs1_NtNtCsgyJtF4GtVdY_10conversion8receiver21x_target_other_fuzz__NtBb_4Args13auto_generateINtB5_s2_4AutopE4autoBf_
FN:85,_RNvMs7_NvMs1_NtNtCsiGGxYnMUpAI_13auto_generate6signed13target_fuzz__NtBb_4Args13auto_generateINtB5_s2_4AutoxE4autoBf_
FN:85,_RNvMs7_NvMs1_NtNtCsiGGxYnMUpAI_13auto_generate8unsigned13target_fuzz__NtBb_4Args13auto_generateINtB5_s2_4AutoyE4autoBf_
FN:85,_RNvMs9_NvMs1_NtCs4jNeg51vteg_8lifetime13target_fuzz__NtBb_4Args13auto_generateINtB5_s3_4AutopE4autoBd_
FN:85,_RNvMs9_NvMs1_NtCs6ZJvwNFZ5Lo_11return_type16swap_swap_fuzz__INtBb_4ArgsppE13auto_generateINtB5_s3_4AutopE4autoBd_
FN:85,_RNvMs9_NvMs1_NtCsaVSfY7O0uYs_7generic20struct_target_fuzz__INtBb_4ArgspE13auto_generateINtB5_s3_4AutopE4autoBd_
FN:85,_RNvMs9_NvMs1_NtCsaVSfY7O0uYs_7generic26struct_target_bound_fuzz__INtBb_4ArgsppE13auto_generateINtB5_s3_4AutopE4autoBd_
FN:85,_RNvMs9_NvMs1_NtCsaVSfY7O0uYs_7generic33struct_target_where_clause_fuzz__INtBb_4ArgsppE13auto_generateINtB5_s3_4AutopE4autoBd_
FN:85,_RNvMs9_NvMs1_NtCsb7JfYwj8ipQ_10serde_attr13target_fuzz__NtBb_4Args13auto_generateINtB5_s3_4AutolE4autoBd_
FN:85,_RNvMs9_NvMs1_NtCsfEcBWhN4Na3_3arc13target_fuzz__NtBb_4Args13auto_generateINtB5_s3_4AutojE4autoBd_
FN:85,_RNvMs9_NvMs1_NtCsfODoU0UL7aq_11manual_leak23wrapped_key_dump_fuzz__NtBb_4Args13auto_generateINtB5_s3_4AutopE4autoBd_
FN:85,_RNvMs9_NvMs1_NtCskkeazd6lurB_15associated_type20serializes_to_fuzz__INtBb_4ArgspE13auto_generateINtB5_s3_4AutopE4autoBd_
FN:85,_RNvMs9_NvMs1_NtNtCsaVSfY7O0uYs_7generic27receiverless_trait_function20struct_target_fuzz__INtBb_4ArgspE13auto_generateINtB5_s3_4AutopE4autoBf_
FN:85,_RNvMs9_NvMs1_NtNtCsbZ6qTFMlSKY_5serde10byte_array13target_fuzz__NtBb_4Args13auto_generateINtB5_s3_4AutopE4autoBf_
FN:85,_RNvMs9_NvMs1_NtNtCsbZ6qTFMlSKY_5serde11unit_struct13target_fuzz__NtBb_4Args13auto_generateINtB5_s3_4AutopE4autoBf_
FN:85,_RNvMs9_NvMs1_NtNtCsbZ6qTFMlSKY_5serde12tuple_struct13target_fuzz__NtBb_4Args13auto_generateINtB5_s3_4AutopE4autoBf_
FN:85,_RNvMs9_NvMs1_NtNtCsbZ6qTFMlSKY_5serde12unit_variant13target_fuzz__NtBb_4Args13auto_generateINtB5_s3_4AutopE4autoBf_
FN:85,_RNvMs9_NvMs1_NtNtCsbZ6qTFMlSKY_5serde13tuple_variant13target_fuzz__NtBb_4Args13auto_generateINtB5_s3_4AutopE4autoBf_
FN:85,_RNvMs9_NvMs1_NtNtCsbZ6qTFMlSKY_5serde14newtype_struct13target_fuzz__NtBb_4Args13auto_generateINtB5_s3_4AutopE4autoBf_
FN:85,_RNvMs9_NvMs1_NtNtCsbZ6qTFMlSKY_5serde14struct_variant13target_fuzz__NtBb_4Args13auto_generateINtB5_s3_4AutopE4autoBf_
FN:85,_RNvMs9_NvMs1_NtNtCsbZ6qTFMlSKY_5serde15newtype_variant13target_fuzz__NtBb_4Args13auto_generateINtB5_s3_4AutopE4autoBf_
FN:85,_RNvMs9_NvMs1_NtNtCsbZ6qTFMlSKY_5serde3map13target_fuzz__NtBb_4Args13auto_generateINtB5_s3_4AutopE4autoBf_
FN:85,_RNvMs9_NvMs1_NtNtCsbZ6qTFMlSKY_5serde3seq13target_fuzz__NtBb_4Args13auto_generateINtB5_s3_4AutopE4autoBf_
FN:85,_RNvMs9_NvMs1_NtNtCsbZ6qTFMlSKY_5serde4unit13target_fuzz__NtBb_4Args13auto_generateINtB5_s3_4AutouE4autoBf_
FN:85,_RNvMs9_NvMs1_NtNtCsbZ6qTFMlSKY_5serde5tuple13target_fuzz__NtBb_4Args13auto_generateINtB5_s3_4AutoThEE4autoBf_
FN:85,_RNvMs9_NvMs1_NtNtCsbZ6qTFMlSKY_5serde6option13target_fuzz__NtBb_4Args13auto_generateINtB5_s3_4AutopE4autoBf_
FN:85,_RNvMs9_NvMs1_NtNtCsbZ6qTFMlSKY_5serde6string13target_fuzz__NtBb_4Args13auto_generateINtB5_s3_4AutopE4autoBf_
FN:85,_RNvMs9_NvMs1_NtNtCsbZ6qTFMlSKY_5serde6strukt13target_fuzz__NtBb_4Args13auto_generateINtB5_s3_4AutopE4autoBf_
FN:85,_RNvMs9_NvMs1_NtNtCsgyJtF4GtVdY_10conversion8lifetime13target_fuzz__NtBb_4Args13auto_generateINtB5_s3_4AutopE4autoBf_
FN:85,_RNvMsB_NvMs1_NtCsaVSfY7O0uYs_7generic26struct_target_bound_fuzz__INtBb_4ArgsppE13auto_generateINtB5_sh_4AutopE4autoBd_
FN:85,_RNvMsB_NvMs1_NtCsaVSfY7O0uYs_7generic33struct_target_where_clause_fuzz__INtBb_4ArgsppE13auto_generateINtB5_sh_4AutopE4autoBd_
FN:85,_RNvMsB_NvMs1_NtNtCsbZ6qTFMlSKY_5serde10byte_array13target_fuzz__NtBb_4Args13auto_generateINtB5_sh_4AutopE4autoBf_
FN:85,_RNvMsB_NvMs1_NtNtCsbZ6qTFMlSKY_5serde3seq13target_fuzz__NtBb_4Args13auto_generateINtB5_sh_4AutopE4autoBf_
FN:85,_RNvMsB_NvMs1_NtNtCsbZ6qTFMlSKY_5serde5tuple13target_fuzz__NtBb_4Args13auto_generateINtB5_sh_4AutopE4autoBf_
FN:85,_RNvMsB_NvMs1_NtNtCsbZ6qTFMlSKY_5serde6string13target_fuzz__NtBb_4Args13auto_generateINtB5_sh_4AutopE4autoBf_
FN:85,_RNvMsD_NvMs1_NtCsaVSfY7O0uYs_7generic26struct_target_bound_fuzz__INtBb_4ArgsppE13auto_generateINtB5_si_4AutopE4autoBd_
FN:85,_RNvMsD_NvMs1_NtCsaVSfY7O0uYs_7generic33struct_target_where_clause_fuzz__INtBb_4ArgsppE13auto_generateINtB5_si_4AutopE4autoBd_
FN:85,_RNvMsD_NvMs1_NtNtCsbZ6qTFMlSKY_5serde10byte_array13target_fuzz__NtBb_4Args13auto_generateINtB5_si_4AutopE4autoBf_
FN:85,_RNvMsD_NvMs1_NtNtCsbZ6qTFMlSKY_5serde3seq13target_fuzz__NtBb_4Args13auto_generateINtB5_si_4AutopE4autoBf_
FN:85,_RNvMsD_NvMs1_NtNtCsbZ6qTFMlSKY_5serde5tuple13target_fuzz__NtBb_4Args13auto_generateINtB5_si_4AutoThhEE4autoBf_
FN:85,_RNvMsF_NvMs1_NtCsaVSfY7O0uYs_7generic26struct_target_bound_fuzz__INtBb_4ArgsppE13auto_generateINtB5_sj_4AutoINtNtCs3XFJfFEDSOQ_4core6marker11PhantomDataINtBd_3BazNtBd_3BarEEE4autoBd_
FN:85,_RNvMsF_NvMs1_NtCsaVSfY7O0uYs_7generic33struct_target_where_clause_fuzz__INtBb_4ArgsppE13auto_generateINtB5_sj_4AutoINtNtCs3XFJfFEDSOQ_4core6marker11PhantomDataINtBd_3BazNtBd_3BarEEE4autoBd_
FN:85,_RNvMsF_NvMs1_NtNtCsbZ6qTFMlSKY_5serde10byte_array13target_fuzz__NtBb_4Args13auto_generateINtB5_sj_4AutoAhj1_E4autoBf_
FN:85,_RNvMsF_NvMs1_NtNtCsbZ6qTFMlSKY_5serde3seq13target_fuzz__NtBb_4Args13auto_generateINtB5_sj_4AutoINtNtNtNtCsHIej2QEFI5_3std11collections4hash3set7HashSethEE4autoBf_
FN:85,_RNvMsF_NvMs1_NtNtCsbZ6qTFMlSKY_5serde5tuple13target_fuzz__NtBb_4Args13auto_generateINtB5_sj_4AutoThhEE4autoBf_
FN:85,_RNvMsH_NvMs1_NtCsaVSfY7O0uYs_7generic26struct_target_bound_fuzz__INtBb_4ArgsppE13auto_generateINtB5_sk_4AutopE4autoBd_
FN:85,_RNvMsH_NvMs1_NtCsaVSfY7O0uYs_7generic33struct_target_where_clause_fuzz__INtBb_4ArgsppE13auto_generateINtB5_sk_4AutopE4autoBd_
FN:85,_RNvMsH_NvMs1_NtNtCsbZ6qTFMlSKY_5serde10byte_array13target_fuzz__NtBb_4Args13auto_generateINtB5_sk_4AutopE4autoBf_
FN:85,_RNvMsH_NvMs1_NtNtCsbZ6qTFMlSKY_5serde3seq13target_fuzz__NtBb_4Args13auto_generateINtB5_sk_4AutopE4autoBf_
FN:85,_RNvMsH_NvMs1_NtNtCsbZ6qTFMlSKY_5serde5tuple13target_fuzz__NtBb_4Args13auto_generateINtB5_sk_4AutopE4autoBf_
FN:85,_RNvMsJ_NvMs1_NtCsaVSfY7O0uYs_7generic26struct_target_bound_fuzz__INtBb_4ArgsppE13auto_generateINtB5_sl_4AutopE4autoBd_
FN:85,_RNvMsJ_NvMs1_NtCsaVSfY7O0uYs_7generic33struct_target_where_clause_fuzz__INtBb_4ArgsppE13auto_generateINtB5_sl_4AutopE4autoBd_
FN:85,_RNvMsJ_NvMs1_NtNtCsbZ6qTFMlSKY_5serde10byte_array13target_fuzz__NtBb_4Args13auto_generateINtB5_sl_4AutopE4autoBf_
FN:85,_RNvMsJ_NvMs1_NtNtCsbZ6qTFMlSKY_5serde3seq13target_fuzz__NtBb_4Args13auto_generateINtB5_sl_4AutopE4autoBf_
FN:85,_RNvMsJ_NvMs1_NtNtCsbZ6qTFMlSKY_5serde5tuple13target_fuzz__NtBb_4Args13auto_generateINtB5_sl_4AutopE4autoBf_
FN:85,_RNvMsL_NvMs1_NtCsaVSfY7O0uYs_7generic26struct_target_bound_fuzz__INtBb_4ArgsppE13auto_generateINtB5_sm_4AutopE4autoBd_
FN:85,_RNvMsL_NvMs1_NtCsaVSfY7O0uYs_7generic33struct_target_where_clause_fuzz__INtBb_4ArgsppE13auto_generateINtB5_sm_4AutopE4autoBd_
FN:85,_RNvMsL_NvMs1_NtNtCsbZ6qTFMlSKY_5serde10byte_array13target_fuzz__NtBb_4Args13auto_generateINtB5_sm_4AutopE4autoBf_
FN:85,_RNvMsL_NvMs1_NtNtCsbZ6qTFMlSKY_5serde3seq13target_fuzz__NtBb_4Args13auto_generateINtB5_sm_4AutopE4autoBf_
FN:85,_RNvMsL_NvMs1_NtNtCsbZ6qTFMlSKY_5serde5tuple13target_fuzz__NtBb_4Args13auto_generateINtB5_sm_4AutopE4autoBf_
FN:85,_RNvMsN_NvMs1_NtNtCsbZ6qTFMlSKY_5serde10byte_array13target_fuzz__NtBb_4Args13auto_generateINtB5_sn_4AutopE4autoBf_
FN:85,_RNvMsN_NvMs1_NtNtCsbZ6qTFMlSKY_5serde3seq13target_fuzz__NtBb_4Args13auto_generateINtB5_sn_4AutopE4autoBf_
FN:85,_RNvMsN_NvMs1_NtNtCsbZ6qTFMlSKY_5serde5tuple13target_fuzz__NtBb_4Args13auto_generateINtB5_sn_4AutoThhEE4autoBf_
FN:85,_RNvMsP_NvMs1_NtNtCsbZ6qTFMlSKY_5serde10byte_array13target_fuzz__NtBb_4Args13auto_generateINtB5_so_4AutoAhj1_E4autoBf_
FN:85,_RNvMsP_NvMs1_NtNtCsbZ6qTFMlSKY_5serde3seq13target_fuzz__NtBb_4Args13auto_generateINtB5_so_4AutoINtNtNtNtCsHIej2QEFI5_3std11collections4hash3set7HashSethEE4autoBf_
FN:85,_RNvMsP_NvMs1_NtNtCsbZ6qTFMlSKY_5serde5tuple13target_fuzz__NtBb_4Args13auto_generateINtB5_so_4AutoThhEE4autoBf_
FN:85,_RNvMsR_NvMs1_NtNtCsbZ6qTFMlSKY_5serde10byte_array13target_fuzz__NtBb_4Args13auto_generateINtB5_sp_4AutopE4autoBf_
FN:85,_RNvMsR_NvMs1_NtNtCsbZ6qTFMlSKY_5serde3seq13target_fuzz__NtBb_4Args13auto_generateINtB5_sp_4AutopE4autoBf_
FN:85,_RNvMsR_NvMs1_NtNtCsbZ6qTFMlSKY_5serde5tuple13target_fuzz__NtBb_4Args13auto_generateINtB5_sp_4AutopE4autoBf_
FN:85,_RNvMsT_NvMs1_NtNtCsbZ6qTFMlSKY_5serde10byte_array13target_fuzz__NtBb_4Args13auto_generateINtB5_sq_4AutopE4autoBf_
FN:85,_RNvMsT_NvMs1_NtNtCsbZ6qTFMlSKY_5serde3seq13target_fuzz__NtBb_4Args13auto_generateINtB5_sq_4AutopE4autoBf_
FN:85,_RNvMsT_NvMs1_NtNtCsbZ6qTFMlSKY_5serde5tuple13target_fuzz__NtBb_4Args13auto_generateINtB5_sq_4AutopE4autoBf_
FN:85,_RNvMsV_NvMs1_NtNtCsbZ6qTFMlSKY_5serde10byte_array13target_fuzz__NtBb_4Args13auto_generateINtB5_sr_4AutopE4autoBf_
FN:85,_RNvMsV_NvMs1_NtNtCsbZ6qTFMlSKY_5serde3seq13target_fuzz__NtBb_4Args13auto_generateINtB5_sr_4AutopE4autoBf_
FN:85,_RNvMsV_NvMs1_NtNtCsbZ6qTFMlSKY_5serde5tuple13target_fuzz__NtBb_4Args13auto_generateINtB5_sr_4AutopE4autoBf_
FN:85,_RNvMsX_NvMs1_NtNtCsbZ6qTFMlSKY_5serde10byte_array13target_fuzz__NtBb_4Args13auto_generateINtB5_ss_4AutopE4autoBf_
FN:85,_RNvMsX_NvMs1_NtNtCsbZ6qTFMlSKY_5serde3seq13target_fuzz__NtBb_4Args13auto_generateINtB5_ss_4AutopE4autoBf_
FN:85,_RNvMsZ_NvMs1_NtNtCsbZ6qTFMlSKY_5serde10byte_array13target_fuzz__NtBb_4Args13auto_generateINtB5_st_4AutoAhj2_E4autoBf_
FN:85,_RNvMsZ_NvMs1_NtNtCsbZ6qTFMlSKY_5serde3seq13target_fuzz__NtBb_4Args13auto_generateINtB5_st_4AutoINtNtNtNtCsHIej2QEFI5_3std11collections4hash3set7HashSethEE4autoBf_
FN:85,_RNvMs_NvMs1_NtCs2zeNb6jgslg_19self_ty_in_mod_name20struct_target_fuzz__NtBa_4Args13auto_generateINtB4_4AutopE4autoBc_
FN:85,_RNvMs_NvMs1_NtCs4MGHVrkl72m_4from15bar_from_fuzz__NtBa_4Args13auto_generateINtB4_4AutopE4autoBc_
FN:85,_RNvMs_NvMs1_NtCs4MGHVrkl72m_4from15baz_into_fuzz__NtBa_4Args13auto_generateINtB4_4AutopE4autoBc_
FN:85,_RNvMs_NvMs1_NtCs4MGHVrkl72m_4from19baz_try_from_fuzz__NtBa_4Args13auto_generateINtB4_4AutopE4autoBc_
FN:85,_RNvMs_NvMs1_NtCs4jNeg51vteg_8lifetime13target_fuzz__NtBa_4Args13auto_generateINtB4_4AutopE4autoBc_
FN:85,_RNvMs_NvMs1_NtCs5fNIG3PZaJo_11hello_world19intermediary_fuzz__NtBa_4Args13auto_generateINtB4_4AutopE4autoBc_
FN:85,_RNvMs_NvMs1_NtCs6ZJvwNFZ5Lo_11return_type16swap_swap_fuzz__INtBa_4ArgsppE13auto_generateINtB4_4AutopE4autoBc_
FN:85,_RNvMs_NvMs1_NtCs6fBdTSegfKf_14test_fuzz_impl17struct_bar_fuzz__NtBa_4Args13auto_generateINtB4_4AutopE4autoBc_
FN:85,_RNvMs_NvMs1_NtCs6fBdTSegfKf_14test_fuzz_impl17struct_foo_fuzz__NtBa_4Args13auto_generateINtB4_4AutopE4autoBc_
FN:85,_RNvMs_NvMs1_NtCs6z3aMDs3O5H_14parse_duration12parse_fuzz__NtBa_4Args13auto_generateINtB4_4AutopE4autoBc_
FN:85,_RNvMs_NvMs1_NtCs7l6y1YLWhzH_5alloc13target_fuzz__NtBa_4Args13auto_generateINtB4_4AutopE4autoBc_
FN:85,_RNvMs_NvMs1_NtCs8VL8JzDaoWz_11hello_world19intermediary_fuzz__NtBa_4Args13auto_generateINtB4_4AutopE4autoBc_
FN:85,_RNvMs_NvMs1_NtCs9i11WczUoNj_7profile13target_fuzz__NtBa_4Args13auto_generateINtB4_4AutopE4autoBc_
FN:85,_RNvMs_NvMs1_NtCsaVSfY7O0uYs_7generic14baz_qux_fuzz__INtBa_4ArgspE13auto_generateINtB4_4AutopE4autoBc_
FN:85,_RNvMs_NvMs1_NtCsaVSfY7O0uYs_7generic20struct_target_fuzz__INtBa_4ArgspE13auto_generateINtB4_4AutopE4autoBc_
FN:85,_RNvMs_NvMs1_NtCsaVSfY7O0uYs_7generic26struct_target_bound_fuzz__INtBa_4ArgsppE13auto_generateINtB4_4AutopE4autoBc_
FN:85,_RNvMs_NvMs1_NtCsaVSfY7O0uYs_7generic33struct_target_where_clause_fuzz__INtBa_4ArgsppE13auto_generateINtB4_4AutopE4autoBc_
FN:85,_RNvMs_NvMs1_NtCsb7JfYwj8ipQ_10serde_attr13target_fuzz__NtBa_4Args13auto_generateINtB4_4AutopE4autoBc_
FN:85,_RNvMs_NvMs1_NtCsbupd9d71YLx_16calm_and_panicky11calm_fuzz__NtBa_4Args13auto_generateINtB4_4AutopE4autoBc_
FN:85,_RNvMs_NvMs1_NtCsbupd9d71YLx_16calm_and_panicky14panicky_fuzz__NtBa_4Args13auto_generateINtB4_4AutopE4autoBc_
FN:85,_RNvMs_NvMs1_NtCscaf2gEuSGn5_6qwerty13target_fuzz__NtBa_4Args13auto_generateINtB4_4AutopE4autoBc_
FN:85,_RNvMs_NvMs1_NtCsfEcBWhN4Na3_3arc13target_fuzz__NtBa_4Args13auto_generateINtB4_4AutopE4autoBc_
FN:85,_RNvMs_NvMs1_NtCsfODoU0UL7aq_11manual_leak23wrapped_key_dump_fuzz__NtBa_4Args13auto_generateINtB4_4AutopE4autoBc_
FN:85,_RNvMs_NvMs1_NtCsfOIDT8lUV2L_7mut_ref17target_str_fuzz__NtBa_4Args13auto_generateINtB4_4AutopE4autoBc_
FN:85,_RNvMs_NvMs1_NtCsfOIDT8lUV2L_7mut_ref19target_slice_fuzz__NtBa_4Args13auto_generateINtB4_4AutopE4autoBc_
FN:85,_RNvMs_NvMs1_NtCsgZ69XjcSWhh_6assert13target_fuzz__NtBa_4Args13auto_generateINtB4_4AutopE4autoBc_
FN:85,_RNvMs_NvMs1_NtCsikhsy0ZvG4z_4cast13target_fuzz__NtBa_4Args13auto_generateINtB4_4AutoyE4autoBc_
FN:85,_RNvMs_NvMs1_NtCsjk8KY6qq2Wr_8parallel15target_0_fuzz__NtBa_4Args13auto_generateINtB4_4AutopE4autoBc_
FN:85,_RNvMs_NvMs1_NtCsjk8KY6qq2Wr_8parallel15target_1_fuzz__NtBa_4Args13auto_generateINtB4_4AutopE4autoBc_
FN:85,_RNvMs_NvMs1_NtCsjk8KY6qq2Wr_8parallel15target_2_fuzz__NtBa_4Args13auto_generateINtB4_4AutopE4autoBc_
FN:85,_RNvMs_NvMs1_NtCsjk8KY6qq2Wr_8parallel15target_3_fuzz__NtBa_4Args13auto_generateINtB4_4AutopE4autoBc_
FN:85,_RNvMs_NvMs1_NtCsjk8KY6qq2Wr_8parallel15target_4_fuzz__NtBa_4Args13auto_generateINtB4_4AutopE4autoBc_
FN:85,_RNvMs_NvMs1_NtCsjk8KY6qq2Wr_8parallel15target_5_fuzz__NtBa_4Args13auto_generateINtB4_4AutopE4autoBc_
FN:85,_RNvMs_NvMs1_NtCskkeazd6lurB_15associated_type20serializes_to_fuzz__INtBa_4ArgspE13auto_generateINtB4_4AutopE4autoBc_
FN:85,_RNvMs_NvMs1_NtNtCs4RwwcRvri8p_7default10no_default13target_fuzz__NtBa_4Args13auto_generateINtB4_4AutopE4autoBe_
FN:85,_RNvMs_NvMs1_NtNtCs4RwwcRvri8p_7default7default13target_fuzz__NtBa_4Args13auto_generateINtB4_4AutopE4autoBe_
FN:85,_RNvMs_NvMs1_NtNtCsaVSfY7O0uYs_7generic27receiverless_trait_function20struct_target_fuzz__INtBa_4ArgspE13auto_generateINtB4_4AutopE4autoBe_
FN:85,_RNvMs_NvMs1_NtNtCsbZ6qTFMlSKY_5serde10byte_array13target_fuzz__NtBa_4Args13auto_generateINtB4_4AutopE4autoBe_
FN:85,_RNvMs_NvMs1_NtNtCsbZ6qTFMlSKY_5serde11unit_struct13target_fuzz__NtBa_4Args13auto_generateINtB4_4AutopE4autoBe_
FN:85,_RNvMs_NvMs1_NtNtCsbZ6qTFMlSKY_5serde12tuple_struct13target_fuzz__NtBa_4Args13auto_generateINtB4_4AutopE4autoBe_
FN:85,_RNvMs_NvMs1_NtNtCsbZ6qTFMlSKY_5serde12unit_variant13target_fuzz__NtBa_4Args13auto_generateINtB4_4AutopE4autoBe_
FN:85,_RNvMs_NvMs1_NtNtCsbZ6qTFMlSKY_5serde13tuple_variant13target_fuzz__NtBa_4Args13auto_generateINtB4_4AutopE4autoBe_
FN:85,_RNvMs_NvMs1_NtNtCsbZ6qTFMlSKY_5serde14newtype_struct13target_fuzz__NtBa_4Args13auto_generateINtB4_4AutopE4autoBe_
FN:85,_RNvMs_NvMs1_NtNtCsbZ6qTFMlSKY_5serde14struct_variant13target_fuzz__NtBa_4Args13auto_generateINtB4_4AutopE4autoBe_
FN:85,_RNvMs_NvMs1_NtNtCsbZ6qTFMlSKY_5serde15newtype_variant13target_fuzz__NtBa_4Args13auto_generateINtB4_4AutopE4autoBe_
FN:85,_RNvMs_NvMs1_NtNtCsbZ6qTFMlSKY_5serde3map13target_fuzz__NtBa_4Args13auto_generateINtB4_4AutopE4autoBe_
FN:85,_RNvMs_NvMs1_NtNtCsbZ6qTFMlSKY_5serde3seq13target_fuzz__NtBa_4Args13auto_generateINtB4_4AutopE4autoBe_
FN:85,_RNvMs_NvMs1_NtNtCsbZ6qTFMlSKY_5serde4unit13target_fuzz__NtBa_4Args13auto_generateINtB4_4AutouE4autoBe_
FN:85,_RNvMs_NvMs1_NtNtCsbZ6qTFMlSKY_5serde5tuple13target_fuzz__NtBa_4Args13auto_generateINtB4_4AutoThEE4autoBe_
FN:85,_RNvMs_NvMs1_NtNtCsbZ6qTFMlSKY_5serde6option13target_fuzz__NtBa_4Args13auto_generateINtB4_4AutopE4autoBe_
FN:85,_RNvMs_NvMs1_NtNtCsbZ6qTFMlSKY_5serde6string13target_fuzz__NtBa_4Args13auto_generateINtB4_4AutopE4autoBe_
FN:85,_RNvMs_NvMs1_NtNtCsbZ6qTFMlSKY_5serde6strukt13target_fuzz__NtBa_4Args13auto_generateINtB4_4AutopE4autoBe_
FN:85,_RNvMs_NvMs1_NtNtCsfL22ijsdh9Q_5debug4hang13target_fuzz__NtBa_4Args13auto_generateINtB4_4AutopE4autoBe_
FN:85,_RNvMs_NvMs1_NtNtCsfL22ijsdh9Q_5debug5crash13target_fuzz__NtBa_4Args13auto_generateINtB4_4AutopE4autoBe_
FN:85,_RNvMs_NvMs1_NtNtCsgyJtF4GtVdY_10conversion11uncloneable13target_fuzz__NtBa_4Args13auto_generateINtB4_4AutopE4autoBe_
FN:85,_RNvMs_NvMs1_NtNtCsgyJtF4GtVdY_10conversion4path13target_fuzz__NtBa_4Args13auto_generateINtB4_4AutopE4autoBe_
FN:85,_RNvMs_NvMs1_NtNtCsgyJtF4GtVdY_10conversion5array13target_fuzz__NtBa_4Args13auto_generateINtB4_4AutopE4autoBe_
FN:85,_RNvMs_NvMs1_NtNtCsgyJtF4GtVdY_10conversion7mutable13target_fuzz__NtBa_4Args13auto_generateINtB4_4AutopE4autoBe_
FN:85,_RNvMs_NvMs1_NtNtCsgyJtF4GtVdY_10conversion8lifetime13target_fuzz__NtBa_4Args13auto_generateINtB4_4AutopE4autoBe_
FN:85,_RNvMs_NvMs1_NtNtCsgyJtF4GtVdY_10conversion8receiver20x_target_self_fuzz__NtBa_4Args13auto_generateINtB4_4AutopE4autoBe_
FN:85,_RNvMs_NvMs1_NtNtCsgyJtF4GtVdY_10conversion8receiver21x_target_other_fuzz__NtBa_4Args13auto_generateINtB4_4AutopE4autoBe_
FN:85,_RNvMs_NvMs1_NtNtCsiGGxYnMUpAI_13auto_generate6signed13target_fuzz__NtBa_4Args13auto_generateINtB4_4AutoxE4autoBe_
FN:85,_RNvMs_NvMs1_NtNtCsiGGxYnMUpAI_13auto_generate8unsigned13target_fuzz__NtBa_4Args13auto_generateINtB4_4AutoyE4autoBe_
FN:85,_RNvMsb_NvMs1_NtCs4jNeg51vteg_8lifetime13target_fuzz__NtBb_4Args13auto_generateINtB5_s4_4AutoINtNtCs3XFJfFEDSOQ_4core6marker11PhantomDataRuEE4autoBd_
FN:85,_RNvMsb_NvMs1_NtCs6ZJvwNFZ5Lo_11return_type16swap_swap_fuzz__INtBb_4ArgsppE13auto_generateINtB5_s4_4AutoINtNtCs3XFJfFEDSOQ_4core6marker11PhantomDatauEE4autoBd_
FN:85,_RNvMsb_NvMs1_NtCsaVSfY7O0uYs_7generic20struct_target_fuzz__INtBb_4ArgspE13auto_generateINtB5_s4_4AutopE4autoBd_
FN:85,_RNvMsb_NvMs1_NtCsaVSfY7O0uYs_7generic26struct_target_bound_fuzz__INtBb_4ArgsppE13auto_generateINtB5_s4_4AutopE4autoBd_
FN:85,_RNvMsb_NvMs1_NtCsaVSfY7O0uYs_7generic33struct_target_where_clause_fuzz__INtBb_4ArgsppE13auto_generateINtB5_s4_4AutopE4autoBd_
FN:85,_RNvMsb_NvMs1_NtCsb7JfYwj8ipQ_10serde_attr13target_fuzz__NtBb_4Args13auto_generateINtB5_s4_4AutolE4autoBd_
FN:85,_RNvMsb_NvMs1_NtCsfEcBWhN4Na3_3arc13target_fuzz__NtBb_4Args13auto_generateINtB5_s4_4AutojE4autoBd_
FN:85,_RNvMsb_NvMs1_NtCsfODoU0UL7aq_11manual_leak23wrapped_key_dump_fuzz__NtBb_4Args13auto_generateINtB5_s4_4AutoINtNtCs3XFJfFEDSOQ_4core6marker11PhantomDataRuEE4autoBd_
FN:85,_RNvMsb_NvMs1_NtCskkeazd6lurB_15associated_type20serializes_to_fuzz__INtBb_4ArgspE13auto_generateINtB5_s4_4AutopE4autoBd_
FN:85,_RNvMsb_NvMs1_NtNtCsaVSfY7O0uYs_7generic27receiverless_trait_function20struct_target_fuzz__INtBb_4ArgspE13auto_generateINtB5_s4_4AutoINtNtCs3XFJfFEDSOQ_4core6marker11PhantomDataNtBf_3BarEE4autoBf_
FN:85,_RNvMsb_NvMs1_NtNtCsbZ6qTFMlSKY_5serde10byte_array13target_fuzz__NtBb_4Args13auto_generateINtB5_s4_4AutoAhj0_E4autoBf_
FN:85,_RNvMsb_NvMs1_NtNtCsbZ6qTFMlSKY_5serde11unit_struct13target_fuzz__NtBb_4Args13auto_generateINtB5_s4_4AutoNtBd_10UnitStructE4autoBf_
FN:85,_RNvMsb_NvMs1_NtNtCsbZ6qTFMlSKY_5serde12tuple_struct13target_fuzz__NtBb_4Args13auto_generateINtB5_s4_4AutoNtBd_11TupleStructE4autoBf_
FN:85,_RNvMsb_NvMs1_NtNtCsbZ6qTFMlSKY_5serde12unit_variant13target_fuzz__NtBb_4Args13auto_generateINtB5_s4_4AutopE4autoBf_
FN:85,_RNvMsb_NvMs1_NtNtCsbZ6qTFMlSKY_5serde13tuple_variant13target_fuzz__NtBb_4Args13auto_generateINtB5_s4_4AutoNtBd_12TupleVariantE4autoBf_
FN:85,_RNvMsb_NvMs1_NtNtCsbZ6qTFMlSKY_5serde14newtype_struct13target_fuzz__NtBb_4Args13auto_generateINtB5_s4_4AutoNtBd_13NewtypeStructE4autoBf_
FN:85,_RNvMsb_NvMs1_NtNtCsbZ6qTFMlSKY_5serde14struct_variant13target_fuzz__NtBb_4Args13auto_generateINtB5_s4_4AutoNtBd_13StructVariantE4autoBf_
FN:85,_RNvMsb_NvMs1_NtNtCsbZ6qTFMlSKY_5serde15newtype_variant13target_fuzz__NtBb_4Args13auto_generateINtB5_s4_4AutoNtBd_14NewtypeVariantE4autoBf_
FN:85,_RNvMsb_NvMs1_NtNtCsbZ6qTFMlSKY_5serde3map13target_fuzz__NtBb_4Args13auto_generateINtB5_s4_4AutoINtNtNtNtCsgag4BwXrjBQ_5alloc11collections5btree3map8BTreeMaphhEE4autoBf_
FN:85,_RNvMsb_NvMs1_NtNtCsbZ6qTFMlSKY_5serde3seq13target_fuzz__NtBb_4Args13auto_generateINtB5_s4_4AutoINtNtCsgag4BwXrjBQ_5alloc3vec3VechEE4autoBf_
FN:85,_RNvMsb_NvMs1_NtNtCsbZ6qTFMlSKY_5serde4unit13target_fuzz__NtBb_4Args13auto_generateINtB5_s4_4AutouE4autoBf_
FN:85,_RNvMsb_NvMs1_NtNtCsbZ6qTFMlSKY_5serde5tuple13target_fuzz__NtBb_4Args13auto_generateINtB5_s4_4AutoThEE4autoBf_
FN:85,_RNvMsb_NvMs1_NtNtCsbZ6qTFMlSKY_5serde6option13target_fuzz__NtBb_4Args13auto_generateINtB5_s4_4AutoINtNtCs3XFJfFEDSOQ_4core6option6OptionhEE4autoBf_
FN:85,_RNvMsb_NvMs1_NtNtCsbZ6qTFMlSKY_5serde6string13target_fuzz__NtBb_4Args13auto_generateINtB5_s4_4AutoNtNtCsgag4BwXrjBQ_5alloc6string6StringE4autoBf_
FN:85,_RNvMsb_NvMs1_NtNtCsbZ6qTFMlSKY_5serde6strukt13target_fuzz__NtBb_4Args13auto_generateINtB5_s4_4AutoNtBd_6StructE4autoBf_
FN:85,_RNvMsb_NvMs1_NtNtCsgyJtF4GtVdY_10conversion8lifetime13target_fuzz__NtBb_4Args13auto_generateINtB5_s4_4AutoINtNtCs3XFJfFEDSOQ_4core6marker11PhantomDataRuEE4autoBf_
FN:85,_RNvMsd_NvMs1_NtCs4jNeg51vteg_8lifetime13target_fuzz__NtBb_4Args13auto_generateINtB5_s5_4AutopE4autoBd_
FN:85,_RNvMsd_NvMs1_NtCs6ZJvwNFZ5Lo_11return_type16swap_swap_fuzz__INtBb_4ArgsppE13auto_generateINtB5_s5_4AutopE4autoBd_
FN:85,_RNvMsd_NvMs1_NtCsaVSfY7O0uYs_7generic20struct_target_fuzz__INtBb_4ArgspE13auto_generateINtB5_s5_4AutopE4autoBd_
FN:85,_RNvMsd_NvMs1_NtCsaVSfY7O0uYs_7generic26struct_target_bound_fuzz__INtBb_4ArgsppE13auto_generateINtB5_s5_4AutopE4autoBd_
FN:85,_RNvMsd_NvMs1_NtCsaVSfY7O0uYs_7generic33struct_target_where_clause_fuzz__INtBb_4ArgsppE13auto_generateINtB5_s5_4AutopE4autoBd_
FN:85,_RNvMsd_NvMs1_NtCsb7JfYwj8ipQ_10serde_attr13target_fuzz__NtBb_4Args13auto_generateINtB5_s5_4AutolE4autoBd_
FN:85,_RNvMsd_NvMs1_NtCsfEcBWhN4Na3_3arc13target_fuzz__NtBb_4Args13auto_generateINtB5_s5_4AutojE4autoBd_
FN:85,_RNvMsd_NvMs1_NtCsfODoU0UL7aq_11manual_leak23wrapped_key_dump_fuzz__NtBb_4Args13auto_generateINtB5_s5_4AutopE4autoBd_
FN:85,_RNvMsd_NvMs1_NtCskkeazd6lurB_15associated_type20serializes_to_fuzz__INtBb_4ArgspE13auto_generateINtB5_s5_4AutopE4autoBd_
FN:85,_RNvMsd_NvMs1_NtNtCsaVSfY7O0uYs_7generic27receiverless_trait_function20struct_target_fuzz__INtBb_4ArgspE13auto_generateINtB5_s5_4AutopE4autoBf_
FN:85,_RNvMsd_NvMs1_NtNtCsbZ6qTFMlSKY_5serde10byte_array13target_fuzz__NtBb_4Args13auto_generateINtB5_s5_4AutopE4autoBf_
FN:85,_RNvMsd_NvMs1_NtNtCsbZ6qTFMlSKY_5serde11unit_struct13target_fuzz__NtBb_4Args13auto_generateINtB5_s5_4AutopE4autoBf_
FN:85,_RNvMsd_NvMs1_NtNtCsbZ6qTFMlSKY_5serde12tuple_struct13target_fuzz__NtBb_4Args13auto_generateINtB5_s5_4AutopE4autoBf_
FN:85,_RNvMsd_NvMs1_NtNtCsbZ6qTFMlSKY_5serde12unit_variant13target_fuzz__NtBb_4Args13auto_generateINtB5_s5_4AutopE4autoBf_
FN:85,_RNvMsd_NvMs1_NtNtCsbZ6qTFMlSKY_5serde13tuple_variant13target_fuzz__NtBb_4Args13auto_generateINtB5_s5_4AutopE4autoBf_
FN:85,_RNvMsd_NvMs1_NtNtCsbZ6qTFMlSKY_5serde14newtype_struct13target_fuzz__NtBb_4Args13auto_generateINtB5_s5_4AutopE4autoBf_
FN:85,_RNvMsd_NvMs1_NtNtCsbZ6qTFMlSKY_5serde14struct_variant13target_fuzz__NtBb_4Args13auto_generateINtB5_s5_4AutopE4autoBf_
FN:85,_RNvMsd_NvMs1_NtNtCsbZ6qTFMlSKY_5serde15newtype_variant13target_fuzz__NtBb_4Args13auto_generateINtB5_s5_4AutopE4autoBf_
FN:85,_RNvMsd_NvMs1_NtNtCsbZ6qTFMlSKY_5serde3map13target_fuzz__NtBb_4Args13auto_generateINtB5_s5_4AutopE4autoBf_
FN:85,_RNvMsd_NvMs1_NtNtCsbZ6qTFMlSKY_5serde3seq13target_fuzz__NtBb_4Args13auto_generateINtB5_s5_4AutopE4autoBf_
FN:85,_RNvMsd_NvMs1_NtNtCsbZ6qTFMlSKY_5serde4unit13target_fuzz__NtBb_4Args13auto_generateINtB5_s5_4AutopE4autoBf_
FN:85,_RNvMsd_NvMs1_NtNtCsbZ6qTFMlSKY_5serde5tuple13target_fuzz__NtBb_4Args13auto_generateINtB5_s5_4AutopE4autoBf_
FN:85,_RNvMsd_NvMs1_NtNtCsbZ6qTFMlSKY_5serde6option13target_fuzz__NtBb_4Args13auto_generateINtB5_s5_4AutopE4autoBf_
FN:85,_RNvMsd_NvMs1_NtNtCsbZ6qTFMlSKY_5serde6string13target_fuzz__NtBb_4Args13auto_generateINtB5_s5_4AutopE4autoBf_
FN:85,_RNvMsd_NvMs1_NtNtCsbZ6qTFMlSKY_5serde6strukt13target_fuzz__NtBb_4Args13auto_generateINtB5_s5_4AutopE4autoBf_
FN:85,_RNvMsd_NvMs1_NtNtCsgyJtF4GtVdY_10conversion8lifetime13target_fuzz__NtBb_4Args13auto_generateINtB5_s5_4AutopE4autoBf_
FN:85,_RNvMsf_NvMs1_NtCs4jNeg51vteg_8lifetime13target_fuzz__NtBb_4Args13auto_generateINtB5_s6_4AutopE4autoBd_
FN:85,_RNvMsf_NvMs1_NtCs6ZJvwNFZ5Lo_11return_type16swap_swap_fuzz__INtBb_4ArgsppE13auto_generateINtB5_s6_4AutopE4autoBd_
FN:85,_RNvMsf_NvMs1_NtCsaVSfY7O0uYs_7generic20struct_target_fuzz__INtBb_4ArgspE13auto_generateINtB5_s6_4AutopE4autoBd_
FN:85,_RNvMsf_NvMs1_NtCsaVSfY7O0uYs_7generic26struct_target_bound_fuzz__INtBb_4ArgsppE13auto_generateINtB5_s6_4AutopE4autoBd_
FN:85,_RNvMsf_NvMs1_NtCsaVSfY7O0uYs_7generic33struct_target_where_clause_fuzz__INtBb_4ArgsppE13auto_generateINtB5_s6_4AutopE4autoBd_
FN:85,_RNvMsf_NvMs1_NtCsb7JfYwj8ipQ_10serde_attr13target_fuzz__NtBb_4Args13auto_generateINtB5_s6_4AutolE4autoBd_
FN:85,_RNvMsf_NvMs1_NtCsfEcBWhN4Na3_3arc13target_fuzz__NtBb_4Args13auto_generateINtB5_s6_4AutojE4autoBd_
FN:85,_RNvMsf_NvMs1_NtCsfODoU0UL7aq_11manual_leak23wrapped_key_dump_fuzz__NtBb_4Args13auto_generateINtB5_s6_4AutopE4autoBd_
FN:85,_RNvMsf_NvMs1_NtCskkeazd6lurB_15associated_type20serializes_to_fuzz__INtBb_4ArgspE13auto_generateINtB5_s6_4AutopE4autoBd_
FN:85,_RNvMsf_NvMs1_NtNtCsaVSfY7O0uYs_7generic27receiverless_trait_function20struct_target_fuzz__INtBb_4ArgspE13auto_generateINtB5_s6_4AutopE4autoBf_
FN:85,_RNvMsf_NvMs1_NtNtCsbZ6qTFMlSKY_5serde10byte_array13target_fuzz__NtBb_4Args13auto_generateINtB5_s6_4AutopE4autoBf_
FN:85,_RNvMsf_NvMs1_NtNtCsbZ6qTFMlSKY_5serde11unit_struct13target_fuzz__NtBb_4Args13auto_generateINtB5_s6_4AutopE4autoBf_
FN:85,_RNvMsf_NvMs1_NtNtCsbZ6qTFMlSKY_5serde12tuple_struct13target_fuzz__NtBb_4Args13auto_generateINtB5_s6_4AutopE4autoBf_
FN:85,_RNvMsf_NvMs1_NtNtCsbZ6qTFMlSKY_5serde12unit_variant13target_fuzz__NtBb_4Args13auto_generateINtB5_s6_4AutopE4autoBf_
FN:85,_RNvMsf_NvMs1_NtNtCsbZ6qTFMlSKY_5serde13tuple_variant13target_fuzz__NtBb_4Args13auto_generateINtB5_s6_4AutopE4autoBf_
FN:85,_RNvMsf_NvMs1_NtNtCsbZ6qTFMlSKY_5serde14newtype_struct13target_fuzz__NtBb_4Args13auto_generateINtB5_s6_4AutopE4autoBf_
FN:85,_RNvMsf_NvMs1_NtNtCsbZ6qTFMlSKY_5serde14struct_variant13target_fuzz__NtBb_4Args13auto_generateINtB5_s6_4AutopE4autoBf_
FN:85,_RNvMsf_NvMs1_NtNtCsbZ6qTFMlSKY_5serde15newtype_variant13target_fuzz__NtBb_4Args13auto_generateINtB5_s6_4AutopE4autoBf_
FN:85,_RNvMsf_NvMs1_NtNtCsbZ6qTFMlSKY_5serde3map13target_fuzz__NtBb_4Args13auto_generateINtB5_s6_4AutopE4autoBf_
FN:85,_RNvMsf_NvMs1_NtNtCsbZ6qTFMlSKY_5serde3seq13target_fuzz__NtBb_4Args13auto_generateINtB5_s6_4AutopE4autoBf_
FN:85,_RNvMsf_NvMs1_NtNtCsbZ6qTFMlSKY_5serde4unit13target_fuzz__NtBb_4Args13auto_generateINtB5_s6_4AutopE4autoBf_
FN:85,_RNvMsf_NvMs1_NtNtCsbZ6qTFMlSKY_5serde5tuple13target_fuzz__NtBb_4Args13auto_generateINtB5_s6_4AutopE4autoBf_
FN:85,_RNvMsf_NvMs1_NtNtCsbZ6qTFMlSKY_5serde6option13target_fuzz__NtBb_4Args13auto_generateINtB5_s6_4AutopE4autoBf_
FN:85,_RNvMsf_NvMs1_NtNtCsbZ6qTFMlSKY_5serde6string13target_fuzz__NtBb_4Args13auto_generateINtB5_s6_4AutopE4autoBf_
FN:85,_RNvMsf_NvMs1_NtNtCsbZ6qTFMlSKY_5serde6strukt13target_fuzz__NtBb_4Args13auto_generateINtB5_s6_4AutopE4autoBf_
FN:85,_RNvMsf_NvMs1_NtNtCsgyJtF4GtVdY_10conversion8lifetime13target_fuzz__NtBb_4Args13auto_generateINtB5_s6_4AutopE4autoBf_
FN:85,_RNvMsh_NvMs1_NtCs4jNeg51vteg_8lifetime13target_fuzz__NtBb_4Args13auto_generateINtB5_s7_4AutopE4autoBd_
FN:85,_RNvMsh_NvMs1_NtCs6ZJvwNFZ5Lo_11return_type16swap_swap_fuzz__INtBb_4ArgsppE13auto_generateINtB5_s7_4AutopE4autoBd_
FN:85,_RNvMsh_NvMs1_NtCsaVSfY7O0uYs_7generic20struct_target_fuzz__INtBb_4ArgspE13auto_generateINtB5_s7_4AutopE4autoBd_
FN:85,_RNvMsh_NvMs1_NtCsaVSfY7O0uYs_7generic26struct_target_bound_fuzz__INtBb_4ArgsppE13auto_generateINtB5_s7_4AutopE4autoBd_
FN:85,_RNvMsh_NvMs1_NtCsaVSfY7O0uYs_7generic33struct_target_where_clause_fuzz__INtBb_4ArgsppE13auto_generateINtB5_s7_4AutopE4autoBd_
FN:85,_RNvMsh_NvMs1_NtCsb7JfYwj8ipQ_10serde_attr13target_fuzz__NtBb_4Args13auto_generateINtB5_s7_4AutolE4autoBd_
FN:85,_RNvMsh_NvMs1_NtCsfEcBWhN4Na3_3arc13target_fuzz__NtBb_4Args13auto_generateINtB5_s7_4AutojE4autoBd_
FN:85,_RNvMsh_NvMs1_NtCsfODoU0UL7aq_11manual_leak23wrapped_key_dump_fuzz__NtBb_4Args13auto_generateINtB5_s7_4AutopE4autoBd_
FN:85,_RNvMsh_NvMs1_NtCskkeazd6lurB_15associated_type20serializes_to_fuzz__INtBb_4ArgspE13auto_generateINtB5_s7_4AutopE4autoBd_
FN:85,_RNvMsh_NvMs1_NtNtCsaVSfY7O0uYs_7generic27receiverless_trait_function20struct_target_fuzz__INtBb_4ArgspE13auto_generateINtB5_s7_4AutopE4autoBf_
FN:85,_RNvMsh_NvMs1_NtNtCsbZ6qTFMlSKY_5serde10byte_array13target_fuzz__NtBb_4Args13auto_generateINtB5_s7_4AutopE4autoBf_
FN:85,_RNvMsh_NvMs1_NtNtCsbZ6qTFMlSKY_5serde11unit_struct13target_fuzz__NtBb_4Args13auto_generateINtB5_s7_4AutopE4autoBf_
FN:85,_RNvMsh_NvMs1_NtNtCsbZ6qTFMlSKY_5serde12tuple_struct13target_fuzz__NtBb_4Args13auto_generateINtB5_s7_4AutopE4autoBf_
FN:85,_RNvMsh_NvMs1_NtNtCsbZ6qTFMlSKY_5serde12unit_variant13target_fuzz__NtBb_4Args13auto_generateINtB5_s7_4AutopE4autoBf_
FN:85,_RNvMsh_NvMs1_NtNtCsbZ6qTFMlSKY_5serde13tuple_variant13target_fuzz__NtBb_4Args13auto_generateINtB5_s7_4AutopE4autoBf_
FN:85,_RNvMsh_NvMs1_NtNtCsbZ6qTFMlSKY_5serde14newtype_struct13target_fuzz__NtBb_4Args13auto_generateINtB5_s7_4AutopE4autoBf_
FN:85,_RNvMsh_NvMs1_NtNtCsbZ6qTFMlSKY_5serde14struct_variant13target_fuzz__NtBb_4Args13auto_generateINtB5_s7_4AutopE4autoBf_
FN:85,_RNvMsh_NvMs1_NtNtCsbZ6qTFMlSKY_5serde15newtype_variant13target_fuzz__NtBb_4Args13auto_generateINtB5_s7_4AutopE4autoBf_
FN:85,_RNvMsh_NvMs1_NtNtCsbZ6qTFMlSKY_5serde3map13target_fuzz__NtBb_4Args13auto_generateINtB5_s7_4AutopE4autoBf_
FN:85,_RNvMsh_NvMs1_NtNtCsbZ6qTFMlSKY_5serde3seq13target_fuzz__NtBb_4Args13auto_generateINtB5_s7_4AutopE4autoBf_
FN:85,_RNvMsh_NvMs1_NtNtCsbZ6qTFMlSKY_5serde4unit13target_fuzz__NtBb_4Args13auto_generateINtB5_s7_4AutopE4autoBf_
FN:85,_RNvMsh_NvMs1_NtNtCsbZ6qTFMlSKY_5serde5tuple13target_fuzz__NtBb_4Args13auto_generateINtB5_s7_4AutopE4autoBf_
FN:85,_RNvMsh_NvMs1_NtNtCsbZ6qTFMlSKY_5serde6option13target_fuzz__NtBb_4Args13auto_generateINtB5_s7_4AutopE4autoBf_
FN:85,_RNvMsh_NvMs1_NtNtCsbZ6qTFMlSKY_5serde6string13target_fuzz__NtBb_4Args13auto_generateINtB5_s7_4AutopE4autoBf_
FN:85,_RNvMsh_NvMs1_NtNtCsbZ6qTFMlSKY_5serde6strukt13target_fuzz__NtBb_4Args13auto_generateINtB5_s7_4AutopE4autoBf_
FN:85,_RNvMsh_NvMs1_NtNtCsgyJtF4GtVdY_10conversion8lifetime13target_fuzz__NtBb_4Args13auto_generateINtB5_s7_4AutopE4autoBf_
FN:85,_RNvMsj_NvMs1_NtCs6ZJvwNFZ5Lo_11return_type16swap_swap_fuzz__INtBb_4ArgsppE13auto_generateINtB5_s8_4AutopE4autoBd_
FN:85,_RNvMsj_NvMs1_NtCsaVSfY7O0uYs_7generic20struct_target_fuzz__INtBb_4ArgspE13auto_generateINtB5_s8_4AutopE4autoBd_
FN:85,_RNvMsj_NvMs1_NtCsaVSfY7O0uYs_7generic26struct_target_bound_fuzz__INtBb_4ArgsppE13auto_generateINtB5_s8_4AutopE4autoBd_
FN:85,_RNvMsj_NvMs1_NtCsaVSfY7O0uYs_7generic33struct_target_where_clause_fuzz__INtBb_4ArgsppE13auto_generateINtB5_s8_4AutopE4autoBd_
FN:85,_RNvMsj_NvMs1_NtCskkeazd6lurB_15associated_type20serializes_to_fuzz__INtBb_4ArgspE13auto_generateINtB5_s8_4AutopE4autoBd_
FN:85,_RNvMsj_NvMs1_NtNtCsbZ6qTFMlSKY_5serde10byte_array13target_fuzz__NtBb_4Args13auto_generateINtB5_s8_4AutopE4autoBf_
FN:85,_RNvMsj_NvMs1_NtNtCsbZ6qTFMlSKY_5serde11unit_struct13target_fuzz__NtBb_4Args13auto_generateINtB5_s8_4AutopE4autoBf_
FN:85,_RNvMsj_NvMs1_NtNtCsbZ6qTFMlSKY_5serde12tuple_struct13target_fuzz__NtBb_4Args13auto_generateINtB5_s8_4AutopE4autoBf_
FN:85,_RNvMsj_NvMs1_NtNtCsbZ6qTFMlSKY_5serde12unit_variant13target_fuzz__NtBb_4Args13auto_generateINtB5_s8_4AutopE4autoBf_
FN:85,_RNvMsj_NvMs1_NtNtCsbZ6qTFMlSKY_5serde13tuple_variant13target_fuzz__NtBb_4Args13auto_generateINtB5_s8_4AutopE4autoBf_
FN:85,_RNvMsj_NvMs1_NtNtCsbZ6qTFMlSKY_5serde14newtype_struct13target_fuzz__NtBb_4Args13auto_generateINtB5_s8_4AutopE4autoBf_
FN:85,_RNvMsj_NvMs1_NtNtCsbZ6qTFMlSKY_5serde14struct_variant13target_fuzz__NtBb_4Args13auto_generateINtB5_s8_4AutopE4autoBf_
FN:85,_RNvMsj_NvMs1_NtNtCsbZ6qTFMlSKY_5serde15newtype_variant13target_fuzz__NtBb_4Args13auto_generateINtB5_s8_4AutopE4autoBf_
FN:85,_RNvMsj_NvMs1_NtNtCsbZ6qTFMlSKY_5serde3map13target_fuzz__NtBb_4Args13auto_generateINtB5_s8_4AutopE4autoBf_
FN:85,_RNvMsj_NvMs1_NtNtCsbZ6qTFMlSKY_5serde3seq13target_fuzz__NtBb_4Args13auto_generateINtB5_s8_4AutopE4autoBf_
FN:85,_RNvMsj_NvMs1_NtNtCsbZ6qTFMlSKY_5serde4unit13target_fuzz__NtBb_4Args13auto_generateINtB5_s8_4AutouE4autoBf_
FN:85,_RNvMsj_NvMs1_NtNtCsbZ6qTFMlSKY_5serde5tuple13target_fuzz__NtBb_4Args13auto_generateINtB5_s8_4AutoThEE4autoBf_
FN:85,_RNvMsj_NvMs1_NtNtCsbZ6qTFMlSKY_5serde6option13target_fuzz__NtBb_4Args13auto_generateINtB5_s8_4AutopE4autoBf_
FN:85,_RNvMsj_NvMs1_NtNtCsbZ6qTFMlSKY_5serde6string13target_fuzz__NtBb_4Args13auto_generateINtB5_s8_4AutopE4autoBf_
FN:85,_RNvMsj_NvMs1_NtNtCsbZ6qTFMlSKY_5serde6strukt13target_fuzz__NtBb_4Args13auto_generateINtB5_s8_4AutopE4autoBf_
FN:85,_RNvMsl_NvMs1_NtCs6ZJvwNFZ5Lo_11return_type16swap_swap_fuzz__INtBb_4ArgsppE13auto_generateINtB5_s9_4AutoINtNtCs3XFJfFEDSOQ_4core6marker11PhantomDatabEE4autoBd_
FN:85,_RNvMsl_NvMs1_NtCsaVSfY7O0uYs_7generic20struct_target_fuzz__INtBb_4ArgspE13auto_generateINtB5_s9_4AutoINtNtCs3XFJfFEDSOQ_4core6marker11PhantomDataNtBd_3BarEE4autoBd_
FN:85,_RNvMsl_NvMs1_NtCsaVSfY7O0uYs_7generic26struct_target_bound_fuzz__INtBb_4ArgsppE13auto_generateINtB5_s9_4AutopE4autoBd_
FN:85,_RNvMsl_NvMs1_NtCsaVSfY7O0uYs_7generic33struct_target_where_clause_fuzz__INtBb_4ArgsppE13auto_generateINtB5_s9_4AutopE4autoBd_
FN:85,_RNvMsl_NvMs1_NtCskkeazd6lurB_15associated_type20serializes_to_fuzz__INtBb_4ArgspE13auto_generateINtB5_s9_4AutoINtNtCs3XFJfFEDSOQ_4core6marker11PhantomDataNtBd_7AddressEE4autoBd_
FN:85,_RNvMsl_NvMs1_NtNtCsbZ6qTFMlSKY_5serde10byte_array13target_fuzz__NtBb_4Args13auto_generateINtB5_s9_4AutoAhj0_E4autoBf_
FN:85,_RNvMsl_NvMs1_NtNtCsbZ6qTFMlSKY_5serde11unit_struct13target_fuzz__NtBb_4Args13auto_generateINtB5_s9_4AutoNtBd_10UnitStructE4autoBf_
FN:85,_RNvMsl_NvMs1_NtNtCsbZ6qTFMlSKY_5serde12tuple_struct13target_fuzz__NtBb_4Args13auto_generateINtB5_s9_4AutoNtBd_11TupleStructE4autoBf_
FN:85,_RNvMsl_NvMs1_NtNtCsbZ6qTFMlSKY_5serde12unit_variant13target_fuzz__NtBb_4Args13auto_generateINtB5_s9_4AutopE4autoBf_
FN:85,_RNvMsl_NvMs1_NtNtCsbZ6qTFMlSKY_5serde13tuple_variant13target_fuzz__NtBb_4Args13auto_generateINtB5_s9_4AutoNtBd_12TupleVariantE4autoBf_
FN:85,_RNvMsl_NvMs1_NtNtCsbZ6qTFMlSKY_5serde14newtype_struct13target_fuzz__NtBb_4Args13auto_generateINtB5_s9_4AutoNtBd_13NewtypeStructE4autoBf_
FN:85,_RNvMsl_NvMs1_NtNtCsbZ6qTFMlSKY_5serde14struct_variant13target_fuzz__NtBb_4Args13auto_generateINtB5_s9_4AutoNtBd_13StructVariantE4autoBf_
FN:85,_RNvMsl_NvMs1_NtNtCsbZ6qTFMlSKY_5serde15newtype_variant13target_fuzz__NtBb_4Args13auto_generateINtB5_s9_4AutoNtBd_14NewtypeVariantE4autoBf_
FN:85,_RNvMsl_NvMs1_NtNtCsbZ6qTFMlSKY_5serde3map13target_fuzz__NtBb_4Args13auto_generateINtB5_s9_4AutoINtNtNtNtCsgag4BwXrjBQ_5alloc11collections5btree3map8BTreeMaphhEE4autoBf_
FN:85,_RNvMsl_NvMs1_NtNtCsbZ6qTFMlSKY_5serde3seq13target_fuzz__NtBb_4Args13auto_generateINtB5_s9_4AutoINtNtCsgag4BwXrjBQ_5alloc3vec3VechEE4autoBf_
FN:85,_RNvMsl_NvMs1_NtNtCsbZ6qTFMlSKY_5serde4unit13target_fuzz__NtBb_4Args13auto_generateINtB5_s9_4AutouE4autoBf_
FN:85,_RNvMsl_NvMs1_NtNtCsbZ6qTFMlSKY_5serde5tuple13target_fuzz__NtBb_4Args13auto_generateINtB5_s9_4AutoThEE4autoBf_
FN:85,_RNvMsl_NvMs1_NtNtCsbZ6qTFMlSKY_5serde6option13target_fuzz__NtBb_4Args13auto_generateINtB5_s9_4AutoINtNtCs3XFJfFEDSOQ_4core6option6OptionhEE4autoBf_
FN:85,_RNvMsl_NvMs1_NtNtCsbZ6qTFMlSKY_5serde6string13target_fuzz__NtBb_4Args13auto_generateINtB5_s9_4AutoNtNtCsgag4BwXrjBQ_5alloc6string6StringE4autoBf_
FN:85,_RNvMsl_NvMs1_NtNtCsbZ6qTFMlSKY_5serde6strukt13target_fuzz__NtBb_4Args13auto_generateINtB5_s9_4AutoNtBd_6StructE4autoBf_
FN:85,_RNvMsn_NvMs1_NtCs6ZJvwNFZ5Lo_11return_type16swap_swap_fuzz__INtBb_4ArgsppE13auto_generateINtB5_sa_4AutopE4autoBd_
FN:85,_RNvMsn_NvMs1_NtCsaVSfY7O0uYs_7generic20struct_target_fuzz__INtBb_4ArgspE13auto_generateINtB5_sa_4AutopE4autoBd_
FN:85,_RNvMsn_NvMs1_NtCsaVSfY7O0uYs_7generic26struct_target_bound_fuzz__INtBb_4ArgsppE13auto_generateINtB5_sa_4AutopE4autoBd_
FN:85,_RNvMsn_NvMs1_NtCsaVSfY7O0uYs_7generic33struct_target_where_clause_fuzz__INtBb_4ArgsppE13auto_generateINtB5_sa_4AutopE4autoBd_
FN:85,_RNvMsn_NvMs1_NtCskkeazd6lurB_15associated_type20serializes_to_fuzz__INtBb_4ArgspE13auto_generateINtB5_sa_4AutopE4autoBd_
FN:85,_RNvMsn_NvMs1_NtNtCsbZ6qTFMlSKY_5serde10byte_array13target_fuzz__NtBb_4Args13auto_generateINtB5_sa_4AutopE4autoBf_
FN:85,_RNvMsn_NvMs1_NtNtCsbZ6qTFMlSKY_5serde11unit_struct13target_fuzz__NtBb_4Args13auto_generateINtB5_sa_4AutopE4autoBf_
FN:85,_RNvMsn_NvMs1_NtNtCsbZ6qTFMlSKY_5serde12tuple_struct13target_fuzz__NtBb_4Args13auto_generateINtB5_sa_4AutopE4autoBf_
FN:85,_RNvMsn_NvMs1_NtNtCsbZ6qTFMlSKY_5serde12unit_variant13target_fuzz__NtBb_4Args13auto_generateINtB5_sa_4AutopE4autoBf_
FN:85,_RNvMsn_NvMs1_NtNtCsbZ6qTFMlSKY_5serde13tuple_variant13target_fuzz__NtBb_4Args13auto_generateINtB5_sa_4AutopE4autoBf_
FN:85,_RNvMsn_NvMs1_NtNtCsbZ6qTFMlSKY_5serde14newtype_struct13target_fuzz__NtBb_4Args13auto_generateINtB5_sa_4AutopE4autoBf_
FN:85,_RNvMsn_NvMs1_NtNtCsbZ6qTFMlSKY_5serde14struct_variant13target_fuzz__NtBb_4Args13auto_generateINtB5_sa_4AutopE4autoBf_
FN:85,_RNvMsn_NvMs1_NtNtCsbZ6qTFMlSKY_5serde15newtype_variant13target_fuzz__NtBb_4Args13auto_generateINtB5_sa_4AutopE4autoBf_
FN:85,_RNvMsn_NvMs1_NtNtCsbZ6qTFMlSKY_5serde3map13target_fuzz__NtBb_4Args13auto_generateINtB5_sa_4AutopE4autoBf_
FN:85,_RNvMsn_NvMs1_NtNtCsbZ6qTFMlSKY_5serde3seq13target_fuzz__NtBb_4Args13auto_generateINtB5_sa_4AutopE4autoBf_
FN:85,_RNvMsn_NvMs1_NtNtCsbZ6qTFMlSKY_5serde4unit13target_fuzz__NtBb_4Args13auto_generateINtB5_sa_4AutopE4autoBf_
FN:85,_RNvMsn_NvMs1_NtNtCsbZ6qTFMlSKY_5serde5tuple13target_fuzz__NtBb_4Args13auto_generateINtB5_sa_4AutopE4autoBf_
FN:85,_RNvMsn_NvMs1_NtNtCsbZ6qTFMlSKY_5serde6option13target_fuzz__NtBb_4Args13auto_generateINtB5_sa_4AutopE4autoBf_
FN:85,_RNvMsn_NvMs1_NtNtCsbZ6qTFMlSKY_5serde6string13target_fuzz__NtBb_4Args13auto_generateINtB5_sa_4AutopE4autoBf_
FN:85,_RNvMsn_NvMs1_NtNtCsbZ6qTFMlSKY_5serde6strukt13target_fuzz__NtBb_4Args13auto_generateINtB5_sa_4AutopE4autoBf_
FN:85,_RNvMsp_NvMs1_NtCs6ZJvwNFZ5Lo_11return_type16swap_swap_fuzz__INtBb_4ArgsppE13auto_generateINtB5_sb_4AutopE4autoBd_
FN:85,_RNvMsp_NvMs1_NtCsaVSfY7O0uYs_7generic20struct_target_fuzz__INtBb_4ArgspE13auto_generateINtB5_sb_4AutopE4autoBd_
FN:85,_RNvMsp_NvMs1_NtCsaVSfY7O0uYs_7generic26struct_target_bound_fuzz__INtBb_4ArgsppE13auto_generateINtB5_sb_4AutopE4autoBd_
FN:85,_RNvMsp_NvMs1_NtCsaVSfY7O0uYs_7generic33struct_target_where_clause_fuzz__INtBb_4ArgsppE13auto_generateINtB5_sb_4AutopE4autoBd_
FN:85,_RNvMsp_NvMs1_NtCskkeazd6lurB_15associated_type20serializes_to_fuzz__INtBb_4ArgspE13auto_generateINtB5_sb_4AutopE4autoBd_
FN:85,_RNvMsp_NvMs1_NtNtCsbZ6qTFMlSKY_5serde10byte_array13target_fuzz__NtBb_4Args13auto_generateINtB5_sb_4AutopE4autoBf_
FN:85,_RNvMsp_NvMs1_NtNtCsbZ6qTFMlSKY_5serde11unit_struct13target_fuzz__NtBb_4Args13auto_generateINtB5_sb_4AutopE4autoBf_
FN:85,_RNvMsp_NvMs1_NtNtCsbZ6qTFMlSKY_5serde12tuple_struct13target_fuzz__NtBb_4Args13auto_generateINtB5_sb_4AutopE4autoBf_
FN:85,_RNvMsp_NvMs1_NtNtCsbZ6qTFMlSKY_5serde12unit_variant13target_fuzz__NtBb_4Args13auto_generateINtB5_sb_4AutopE4autoBf_
FN:85,_RNvMsp_NvMs1_NtNtCsbZ6qTFMlSKY_5serde13tuple_variant13target_fuzz__NtBb_4Args13auto_generateINtB5_sb_4AutopE4autoBf_
FN:85,_RNvMsp_NvMs1_NtNtCsbZ6qTFMlSKY_5serde14newtype_struct13target_fuzz__NtBb_4Args13auto_generateINtB5_sb_4AutopE4autoBf_
FN:85,_RNvMsp_NvMs1_NtNtCsbZ6qTFMlSKY_5serde14struct_variant13target_fuzz__NtBb_4Args13auto_generateINtB5_sb_4AutopE4autoBf_
FN:85,_RNvMsp_NvMs1_NtNtCsbZ6qTFMlSKY_5serde15newtype_variant13target_fuzz__NtBb_4Args13auto_generateINtB5_sb_4AutopE4autoBf_
FN:85,_RNvMsp_NvMs1_NtNtCsbZ6qTFMlSKY_5serde3map13target_fuzz__NtBb_4Args13auto_generateINtB5_sb_4AutopE4autoBf_
FN:85,_RNvMsp_NvMs1_NtNtCsbZ6qTFMlSKY_5serde3seq13target_fuzz__NtBb_4Args13auto_generateINtB5_sb_4AutopE4autoBf_
FN:85,_RNvMsp_NvMs1_NtNtCsbZ6qTFMlSKY_5serde4unit13target_fuzz__NtBb_4Args13auto_generateINtB5_sb_4AutopE4autoBf_
FN:85,_RNvMsp_NvMs1_NtNtCsbZ6qTFMlSKY_5serde5tuple13target_fuzz__NtBb_4Args13auto_generateINtB5_sb_4AutopE4autoBf_
FN:85,_RNvMsp_NvMs1_NtNtCsbZ6qTFMlSKY_5serde6option13target_fuzz__NtBb_4Args13auto_generateINtB5_sb_4AutopE4autoBf_
FN:85,_RNvMsp_NvMs1_NtNtCsbZ6qTFMlSKY_5serde6string13target_fuzz__NtBb_4Args13auto_generateINtB5_sb_4AutopE4autoBf_
FN:85,_RNvMsp_NvMs1_NtNtCsbZ6qTFMlSKY_5serde6strukt13target_fuzz__NtBb_4Args13auto_generateINtB5_sb_4AutopE4autoBf_
FN:85,_RNvMsr_NvMs1_NtCs6ZJvwNFZ5Lo_11return_type16swap_swap_fuzz__INtBb_4ArgsppE13auto_generateINtB5_sc_4AutopE4autoBd_
FN:85,_RNvMsr_NvMs1_NtCsaVSfY7O0uYs_7generic20struct_target_fuzz__INtBb_4ArgspE13auto_generateINtB5_sc_4AutopE4autoBd_
FN:85,_RNvMsr_NvMs1_NtCsaVSfY7O0uYs_7generic26struct_target_bound_fuzz__INtBb_4ArgsppE13auto_generateINtB5_sc_4AutopE4autoBd_
FN:85,_RNvMsr_NvMs1_NtCsaVSfY7O0uYs_7generic33struct_target_where_clause_fuzz__INtBb_4ArgsppE13auto_generateINtB5_sc_4AutopE4autoBd_
FN:85,_RNvMsr_NvMs1_NtCskkeazd6lurB_15associated_type20serializes_to_fuzz__INtBb_4ArgspE13auto_generateINtB5_sc_4AutopE4autoBd_
FN:85,_RNvMsr_NvMs1_NtNtCsbZ6qTFMlSKY_5serde10byte_array13target_fuzz__NtBb_4Args13auto_generateINtB5_sc_4AutopE4autoBf_
FN:85,_RNvMsr_NvMs1_NtNtCsbZ6qTFMlSKY_5serde11unit_struct13target_fuzz__NtBb_4Args13auto_generateINtB5_sc_4AutopE4autoBf_
FN:85,_RNvMsr_NvMs1_NtNtCsbZ6qTFMlSKY_5serde12tuple_struct13target_fuzz__NtBb_4Args13auto_generateINtB5_sc_4AutopE4autoBf_
FN:85,_RNvMsr_NvMs1_NtNtCsbZ6qTFMlSKY_5serde12unit_variant13target_fuzz__NtBb_4Args13auto_generateINtB5_sc_4AutopE4autoBf_
FN:85,_RNvMsr_NvMs1_NtNtCsbZ6qTFMlSKY_5serde13tuple_variant13target_fuzz__NtBb_4Args13auto_generateINtB5_sc_4AutopE4autoBf_
FN:85,_RNvMsr_NvMs1_NtNtCsbZ6qTFMlSKY_5serde14newtype_struct13target_fuzz__NtBb_4Args13auto_generateINtB5_sc_4AutopE4autoBf_
FN:85,_RNvMsr_NvMs1_NtNtCsbZ6qTFMlSKY_5serde14struct_variant13target_fuzz__NtBb_4Args13auto_generateINtB5_sc_4AutopE4autoBf_
FN:85,_RNvMsr_NvMs1_NtNtCsbZ6qTFMlSKY_5serde15newtype_variant13target_fuzz__NtBb_4Args13auto_generateINtB5_sc_4AutopE4autoBf_
FN:85,_RNvMsr_NvMs1_NtNtCsbZ6qTFMlSKY_5serde3map13target_fuzz__NtBb_4Args13auto_generateINtB5_sc_4AutopE4autoBf_
FN:85,_RNvMsr_NvMs1_NtNtCsbZ6qTFMlSKY_5serde3seq13target_fuzz__NtBb_4Args13auto_generateINtB5_sc_4AutopE4autoBf_
FN:85,_RNvMsr_NvMs1_NtNtCsbZ6qTFMlSKY_5serde4unit13target_fuzz__NtBb_4Args13auto_generateINtB5_sc_4AutopE4autoBf_
FN:85,_RNvMsr_NvMs1_NtNtCsbZ6qTFMlSKY_5serde5tuple13target_fuzz__NtBb_4Args13auto_generateINtB5_sc_4AutopE4autoBf_
FN:85,_RNvMsr_NvMs1_NtNtCsbZ6qTFMlSKY_5serde6option13target_fuzz__NtBb_4Args13auto_generateINtB5_sc_4AutopE4autoBf_
FN:85,_RNvMsr_NvMs1_NtNtCsbZ6qTFMlSKY_5serde6string13target_fuzz__NtBb_4Args13auto_generateINtB5_sc_4AutopE4autoBf_
FN:85,_RNvMsr_NvMs1_NtNtCsbZ6qTFMlSKY_5serde6strukt13target_fuzz__NtBb_4Args13auto_generateINtB5_sc_4AutopE4autoBf_
FN:85,_RNvMst_NvMs1_NtCsaVSfY7O0uYs_7generic26struct_target_bound_fuzz__INtBb_4ArgsppE13auto_generateINtB5_sd_4AutopE4autoBd_
FN:85,_RNvMst_NvMs1_NtCsaVSfY7O0uYs_7generic33struct_target_where_clause_fuzz__INtBb_4ArgsppE13auto_generateINtB5_sd_4AutopE4autoBd_
FN:85,_RNvMst_NvMs1_NtNtCsbZ6qTFMlSKY_5serde10byte_array13target_fuzz__NtBb_4Args13auto_generateINtB5_sd_4AutopE4autoBf_
FN:85,_RNvMst_NvMs1_NtNtCsbZ6qTFMlSKY_5serde3seq13target_fuzz__NtBb_4Args13auto_generateINtB5_sd_4AutopE4autoBf_
FN:85,_RNvMst_NvMs1_NtNtCsbZ6qTFMlSKY_5serde5tuple13target_fuzz__NtBb_4Args13auto_generateINtB5_sd_4AutoThhEE4autoBf_
FN:85,_RNvMst_NvMs1_NtNtCsbZ6qTFMlSKY_5serde6string13target_fuzz__NtBb_4Args13auto_generateINtB5_sd_4AutopE4autoBf_
FN:85,_RNvMsv_NvMs1_NtCsaVSfY7O0uYs_7generic26struct_target_bound_fuzz__INtBb_4ArgsppE13auto_generateINtB5_se_4AutoINtNtCs3XFJfFEDSOQ_4core6marker11PhantomDataNtBd_3BarEE4autoBd_
FN:85,_RNvMsv_NvMs1_NtCsaVSfY7O0uYs_7generic33struct_target_where_clause_fuzz__INtBb_4ArgsppE13auto_generateINtB5_se_4AutoINtNtCs3XFJfFEDSOQ_4core6marker11PhantomDataNtBd_3BarEE4autoBd_
FN:85,_RNvMsv_NvMs1_NtNtCsbZ6qTFMlSKY_5serde10byte_array13target_fuzz__NtBb_4Args13auto_generateINtB5_se_4AutoAhj1_E4autoBf_
FN:85,_RNvMsv_NvMs1_NtNtCsbZ6qTFMlSKY_5serde3seq13target_fuzz__NtBb_4Args13auto_generateINtB5_se_4AutoINtNtCsgag4BwXrjBQ_5alloc3vec3VechEE4autoBf_
FN:85,_RNvMsv_NvMs1_NtNtCsbZ6qTFMlSKY_5serde5tuple13target_fuzz__NtBb_4Args13auto_generateINtB5_se_4AutoThhEE4autoBf_
FN:85,_RNvMsv_NvMs1_NtNtCsbZ6qTFMlSKY_5serde6string13target_fuzz__NtBb_4Args13auto_generateINtB5_se_4AutoNtNtCsgag4BwXrjBQ_5alloc6string6StringE4autoBf_
FN:85,_RNvMsx_NvMs1_NtCsaVSfY7O0uYs_7generic26struct_target_bound_fuzz__INtBb_4ArgsppE13auto_generateINtB5_sf_4AutopE4autoBd_
FN:85,_RNvMsx_NvMs1_NtCsaVSfY7O0uYs_7generic33struct_target_where_clause_fuzz__INtBb_4ArgsppE13auto_generateINtB5_sf_4AutopE4autoBd_
FN:85,_RNvMsx_NvMs1_NtNtCsbZ6qTFMlSKY_5serde10byte_array13target_fuzz__NtBb_4Args13auto_generateINtB5_sf_4AutopE4autoBf_
FN:85,_RNvMsx_NvMs1_NtNtCsbZ6qTFMlSKY_5serde3seq13target_fuzz__NtBb_4Args13auto_generateINtB5_sf_4AutopE4autoBf_
FN:85,_RNvMsx_NvMs1_NtNtCsbZ6qTFMlSKY_5serde5tuple13target_fuzz__NtBb_4Args13auto_generateINtB5_sf_4AutopE4autoBf_
FN:85,_RNvMsx_NvMs1_NtNtCsbZ6qTFMlSKY_5serde6string13target_fuzz__NtBb_4Args13auto_generateINtB5_sf_4AutopE4autoBf_
FN:85,_RNvMsz_NvMs1_NtCsaVSfY7O0uYs_7generic26struct_target_bound_fuzz__INtBb_4ArgsppE13auto_generateINtB5_sg_4AutopE4autoBd_
FN:85,_RNvMsz_NvMs1_NtCsaVSfY7O0uYs_7generic33struct_target_where_clause_fuzz__INtBb_4ArgsppE13auto_generateINtB5_sg_4AutopE4autoBd_
FN:85,_RNvMsz_NvMs1_NtNtCsbZ6qTFMlSKY_5serde10byte_array13target_fuzz__NtBb_4Args13auto_generateINtB5_sg_4AutopE4autoBf_
FN:85,_RNvMsz_NvMs1_NtNtCsbZ6qTFMlSKY_5serde3seq13target_fuzz__NtBb_4Args13auto_generateINtB5_sg_4AutopE4autoBf_
FN:85,_RNvMsz_NvMs1_NtNtCsbZ6qTFMlSKY_5serde5tuple13target_fuzz__NtBb_4Args13auto_generateINtB5_sg_4AutopE4autoBf_
FN:85,_RNvMsz_NvMs1_NtNtCsbZ6qTFMlSKY_5serde6string13target_fuzz__NtBb_4Args13auto_generateINtB5_sg_4AutopE4autoBf_
FN:858,_RNCNCNvCs4oWu7nXEoFY_15test_fuzz_macro7map_arg0s_0B5_
FN:859,_RNCNCNvCs4oWu7nXEoFY_15test_fuzz_macro7map_arg0s0_0B5_
FN:86,_RNvNtCs2XBbTT2Tgsj_18test_fuzz_internal4dirs12path_segment
FN:87,_RNCINvCsh5MssUcn8TK_17serde_combinators19compose_deserializeINtNtNtNtCskruJqO5s2DS_7bincode8features5serde8de_owned12SerdeDecoderINtNtNtB15_2de7decoder11DecoderImplINtNtB13_8impl_std8IoReaderQNtNtNtCsHIej2QEFI5_3std2io5stdio5StdinEINtNtB15_6config13ConfigurationNtB3K_12LittleEndianNtB3K_6VarintINtB3K_5LimitKj40000000_EEuEERAhj20_B5d_INvYINtNtB4_5type_4TypeB5d_ENtB4_15DeserializeWith11deserializeBW_ENCINvXs_NtB4_4ref_INtB6A_4RefFB5r_EB5P_11deserializeBW_E0E0CsfODoU0UL7aq_11manual_leak
FN:884,_RNvCs4oWu7nXEoFY_15test_fuzz_macro13map_typed_arg
FN:9,_RNvXNtCs4oWu7nXEoFY_15test_fuzz_macro8ord_typeNtB2_7OrdTypeNtNtCs3XFJfFEDSOQ_4core3fmt7Display3fmt
FN:911,_RNvCs4oWu7nXEoFY_15test_fuzz_macro12map_path_arg
FN:925,_RNvCs4oWu7nXEoFY_15test_fuzz_macro11map_ref_arg
FN:95,_RNvNtCs2XBbTT2Tgsj_18test_fuzz_internal4dirs8maybe_id
FN:96,_RNCNvNtCs2XBbTT2Tgsj_18test_fuzz_internal4dirs8maybe_id0B5_
FN:96,_RNvNtCs4oWu7nXEoFY_15test_fuzz_macro10type_utils13token_strings
FN:969,_RNvCs4oWu7nXEoFY_15test_fuzz_macro14opts_from_attr
FN:971,_RNCNvCs4oWu7nXEoFY_15test_fuzz_macro14opts_from_attr0B3_
FN:972,_RNCNvCs4oWu7nXEoFY_15test_fuzz_macro14opts_from_attrs_0B3_
FN:980,_RNvCs4oWu7nXEoFY_15test_fuzz_macro12is_test_fuzz
FN:984,_RNCNvCs4oWu7nXEoFY_15test_fuzz_macro12is_test_fuzz0B3_
FN:987,_RNvCs4oWu7nXEoFY_15test_fuzz_macro23parse_generic_arguments
FNDA:0,_RINvCs4oWu7nXEoFY_15test_fuzz_macro15combine_optionsINtNtCsdIfci7uKNPV_3syn10punctuated10PunctuatedNtNtBT_4path15GenericArgumentNtNtBT_5token5CommaENCNvB2_16map_method_or_fns3_0EB2_
FNDA:0,_RINvCs4oWu7nXEoFY_15test_fuzz_macro15combine_optionsNtNtCsdIfci7uKNPV_3syn8generics11WhereClauseNCNvB2_16combine_generics0EB2_
FNDA:0,_RINvCs4oWu7nXEoFY_15test_fuzz_macro8map_argsINtNtCsdIfci7uKNPV_3syn10punctuated7IterMutNtNtBL_4item5FnArgEEB2_
FNDA:0,_RINvCseNzKavzW6Gi_17test_fuzz_runtime10write_argsINtNvNtCs6ZJvwNFZ5Lo_11return_type16swap_swap_fuzz__10write_args4ArgsubEEBS_
FNDA:0,_RINvCseNzKavzW6Gi_17test_fuzz_runtime10write_argsINtNvNtCsaVSfY7O0uYs_7generic14baz_qux_fuzz__10write_args4ArgsNtBS_3BarEEBS_
FNDA:0,_RINvCseNzKavzW6Gi_17test_fuzz_runtime10write_argsINtNvNtCsaVSfY7O0uYs_7generic20struct_target_fuzz__10write_args4ArgsNtBS_3BarEEBS_
FNDA:0,_RINvCseNzKavzW6Gi_17test_fuzz_runtime10write_argsINtNvNtCsaVSfY7O0uYs_7generic20struct_target_fuzz__10write_args4ArgsNtBS_3FooEEBS_
FNDA:0,_RINvCseNzKavzW6Gi_17test_fuzz_runtime10write_argsINtNvNtCsaVSfY7O0uYs_7generic26struct_target_bound_fuzz__10write_args4ArgsNtBS_3BarINtBS_3BazB1X_EEEBS_
FNDA:0,_RINvCseNzKavzW6Gi_17test_fuzz_runtime10write_argsINtNvNtCsaVSfY7O0uYs_7generic26struct_target_bound_fuzz__10write_args4ArgsNtBS_3FooINtBS_3BazB1X_EEEBS_
FNDA:0,_RINvCseNzKavzW6Gi_17test_fuzz_runtime10write_argsINtNvNtCsaVSfY7O0uYs_7generic33struct_target_where_clause_fuzz__10write_args4ArgsNtBS_3BarINtBS_3BazB24_EEEBS_
FNDA:0,_RINvCseNzKavzW6Gi_17test_fuzz_runtime10write_argsINtNvNtCsaVSfY7O0uYs_7generic33struct_target_where_clause_fuzz__10write_args4ArgsNtBS_3FooINtBS_3BazB24_EEEBS_
FNDA:0,_RINvCseNzKavzW6Gi_17test_fuzz_runtime10write_argsINtNvNtCskkeazd6lurB_15associated_type20serializes_to_fuzz__10write_args4ArgsNtBS_7AddressEEBS_
FNDA:0,_RINvCseNzKavzW6Gi_17test_fuzz_runtime10write_argsINtNvNtNtCsaVSfY7O0uYs_7generic27receiverless_trait_function20struct_target_fuzz__10write_args4ArgsNtBU_3BarEEBU_
FNDA:0,_RINvCseNzKavzW6Gi_17test_fuzz_runtime10write_argsNtNvNtCs2zeNb6jgslg_19self_ty_in_mod_name20struct_target_fuzz__10write_args4ArgsEBR_
FNDA:0,_RINvCseNzKavzW6Gi_17test_fuzz_runtime10write_argsNtNvNtCs4MGHVrkl72m_4from15bar_from_fuzz__10write_args4ArgsEBR_
FNDA:0,_RINvCseNzKavzW6Gi_17test_fuzz_runtime10write_argsNtNvNtCs4MGHVrkl72m_4from15baz_into_fuzz__10write_args4ArgsEBR_
FNDA:0,_RINvCseNzKavzW6Gi_17test_fuzz_runtime10write_argsNtNvNtCs4MGHVrkl72m_4from19baz_try_from_fuzz__10write_args4ArgsEBR_
FNDA:0,_RINvCseNzKavzW6Gi_17test_fuzz_runtime10write_argsNtNvNtCs4jNeg51vteg_8lifetime13target_fuzz__10write_args4ArgsEBR_
FNDA:0,_RINvCseNzKavzW6Gi_17test_fuzz_runtime10write_argsNtNvNtCs5fNIG3PZaJo_11hello_world19intermediary_fuzz__10write_args4ArgsEBR_
FNDA:0,_RINvCseNzKavzW6Gi_17test_fuzz_runtime10write_argsNtNvNtCs6fBdTSegfKf_14test_fuzz_impl17struct_bar_fuzz__10write_args4ArgsEBR_
FNDA:0,_RINvCseNzKavzW6Gi_17test_fuzz_runtime10write_argsNtNvNtCs6fBdTSegfKf_14test_fuzz_impl17struct_foo_fuzz__10write_args4ArgsEBR_
FNDA:0,_RINvCseNzKavzW6Gi_17test_fuzz_runtime10write_argsNtNvNtCs6z3aMDs3O5H_14parse_duration12parse_fuzz__10write_args4ArgsEBR_
FNDA:0,_RINvCseNzKavzW6Gi_17test_fuzz_runtime10write_argsNtNvNtCs7l6y1YLWhzH_5alloc13target_fuzz__10write_args4ArgsEBR_
FNDA:0,_RINvCseNzKavzW6Gi_17test_fuzz_runtime10write_argsNtNvNtCs8VL8JzDaoWz_11hello_world19intermediary_fuzz__10write_args4ArgsEBR_
FNDA:0,_RINvCseNzKavzW6Gi_17test_fuzz_runtime10write_argsNtNvNtCs9i11WczUoNj_7profile13target_fuzz__10write_args4ArgsEBR_
FNDA:0,_RINvCseNzKavzW6Gi_17test_fuzz_runtime10write_argsNtNvNtCsb7JfYwj8ipQ_10serde_attr13target_fuzz__10write_args4ArgsEBR_
FNDA:0,_RINvCseNzKavzW6Gi_17test_fuzz_runtime10write_argsNtNvNtCsbupd9d71YLx_16calm_and_panicky11calm_fuzz__10write_args4ArgsEBR_
FNDA:0,_RINvCseNzKavzW6Gi_17test_fuzz_runtime10write_argsNtNvNtCsbupd9d71YLx_16calm_and_panicky14panicky_fuzz__10write_args4ArgsEBR_
FNDA:0,_RINvCseNzKavzW6Gi_17test_fuzz_runtime10write_argsNtNvNtCscaf2gEuSGn5_6qwerty13target_fuzz__10write_args4ArgsEBR_
FNDA:0,_RINvCseNzKavzW6Gi_17test_fuzz_runtime10write_argsNtNvNtCsfEcBWhN4Na3_3arc13target_fuzz__10write_args4ArgsEBR_
FNDA:0,_RINvCseNzKavzW6Gi_17test_fuzz_runtime10write_argsNtNvNtCsfODoU0UL7aq_11manual_leak23wrapped_key_dump_fuzz__10write_args4ArgsEBR_
FNDA:0,_RINvCseNzKavzW6Gi_17test_fuzz_runtime10write_argsNtNvNtCsfOIDT8lUV2L_7mut_ref17target_str_fuzz__10write_args4ArgsEBR_
FNDA:0,_RINvCseNzKavzW6Gi_17test_fuzz_runtime10write_argsNtNvNtCsfOIDT8lUV2L_7mut_ref19target_slice_fuzz__10write_args4ArgsEBR_
FNDA:0,_RINvCseNzKavzW6Gi_17test_fuzz_runtime10write_argsNtNvNtCsfrSB0FWCrTD_6rename10bar_fuzz__10write_args4ArgsEBR_
FNDA:0,_RINvCseNzKavzW6Gi_17test_fuzz_runtime10write_argsNtNvNtCsgZ69XjcSWhh_6assert13target_fuzz__10write_args4ArgsEBR_
FNDA:0,_RINvCseNzKavzW6Gi_17test_fuzz_runtime10write_argsNtNvNtCsikhsy0ZvG4z_4cast13target_fuzz__10write_args4ArgsEBR_
FNDA:0,_RINvCseNzKavzW6Gi_17test_fuzz_runtime10write_argsNtNvNtCsjk8KY6qq2Wr_8parallel15target_0_fuzz__10write_args4ArgsEBR_
FNDA:0,_RINvCseNzKavzW6Gi_17test_fuzz_runtime10write_argsNtNvNtCsjk8KY6qq2Wr_8parallel15target_1_fuzz__10write_args4ArgsEBR_
FNDA:0,_RINvCseNzKavzW6Gi_17test_fuzz_runtime10write_argsNtNvNtCsjk8KY6qq2Wr_8parallel15target_2_fuzz__10write_args4ArgsEBR_
FNDA:0,_RINvCseNzKavzW6Gi_17test_fuzz_runtime10write_argsNtNvNtCsjk8KY6qq2Wr_8parallel15target_3_fuzz__10write_args4ArgsEBR_
FNDA:0,_RINvCseNzKavzW6Gi_17test_fuzz_runtime10write_argsNtNvNtCsjk8KY6qq2Wr_8parallel15target_4_fuzz__10write_args4ArgsEBR_
FNDA:0,_RINvCseNzKavzW6Gi_17test_fuzz_runtime10write_argsNtNvNtCsjk8KY6qq2Wr_8parallel15target_5_fuzz__10write_args4ArgsEBR_
FNDA:0,_RINvCseNzKavzW6Gi_17test_fuzz_runtime10write_argsNtNvNtCskPkSWzOTnW2_9collision11test_fuzz__10write_args4ArgsEBR_
FNDA:0,_RINvCseNzKavzW6Gi_17test_fuzz_runtime10write_argsNtNvNtNtCs4RwwcRvri8p_7default10no_default13target_fuzz__10write_args4ArgsEBT_
FNDA:0,_RINvCseNzKavzW6Gi_17test_fuzz_runtime10write_argsNtNvNtNtCs4RwwcRvri8p_7default7default13target_fuzz__10write_args4ArgsEBT_
FNDA:0,_RINvCseNzKavzW6Gi_17test_fuzz_runtime10write_argsNtNvNtNtCsbZ6qTFMlSKY_5serde10byte_array13target_fuzz__10write_args4ArgsEBT_
FNDA:0,_RINvCseNzKavzW6Gi_17test_fuzz_runtime10write_argsNtNvNtNtCsbZ6qTFMlSKY_5serde11unit_struct13target_fuzz__10write_args4ArgsEBT_
FNDA:0,_RINvCseNzKavzW6Gi_17test_fuzz_runtime10write_argsNtNvNtNtCsbZ6qTFMlSKY_5serde12tuple_struct13target_fuzz__10write_args4ArgsEBT_
FNDA:0,_RINvCseNzKavzW6Gi_17test_fuzz_runtime10write_argsNtNvNtNtCsbZ6qTFMlSKY_5serde12unit_variant13target_fuzz__10write_args4ArgsEBT_
FNDA:0,_RINvCseNzKavzW6Gi_17test_fuzz_runtime10write_argsNtNvNtNtCsbZ6qTFMlSKY_5serde13tuple_variant13target_fuzz__10write_args4ArgsEBT_
FNDA:0,_RINvCseNzKavzW6Gi_17test_fuzz_runtime10write_argsNtNvNtNtCsbZ6qTFMlSKY_5serde14newtype_struct13target_fuzz__10write_args4ArgsEBT_
FNDA:0,_RINvCseNzKavzW6Gi_17test_fuzz_runtime10write_argsNtNvNtNtCsbZ6qTFMlSKY_5serde14struct_variant13target_fuzz__10write_args4ArgsEBT_
FNDA:0,_RINvCseNzKavzW6Gi_17test_fuzz_runtime10write_argsNtNvNtNtCsbZ6qTFMlSKY_5serde15newtype_variant13target_fuzz__10write_args4ArgsEBT_
FNDA:0,_RINvCseNzKavzW6Gi_17test_fuzz_runtime10write_argsNtNvNtNtCsbZ6qTFMlSKY_5serde3map13target_fuzz__10write_args4ArgsEBT_
FNDA:0,_RINvCseNzKavzW6Gi_17test_fuzz_runtime10write_argsNtNvNtNtCsbZ6qTFMlSKY_5serde3seq13target_fuzz__10write_args4ArgsEBT_
FNDA:0,_RINvCseNzKavzW6Gi_17test_fuzz_runtime10write_argsNtNvNtNtCsbZ6qTFMlSKY_5serde4unit13target_fuzz__10write_args4ArgsEBT_
FNDA:0,_RINvCseNzKavzW6Gi_17test_fuzz_runtime10write_argsNtNvNtNtCsbZ6qTFMlSKY_5serde5tuple13target_fuzz__10write_args4ArgsEBT_
FNDA:0,_RINvCseNzKavzW6Gi_17test_fuzz_runtime10write_argsNtNvNtNtCsbZ6qTFMlSKY_5serde6option13target_fuzz__10write_args4ArgsEBT_
FNDA:0,_RINvCseNzKavzW6Gi_17test_fuzz_runtime10write_argsNtNvNtNtCsbZ6qTFMlSKY_5serde6string13target_fuzz__10write_args4ArgsEBT_
FNDA:0,_RINvCseNzKavzW6Gi_17test_fuzz_runtime10write_argsNtNvNtNtCsbZ6qTFMlSKY_5serde6strukt13target_fuzz__10write_args4ArgsEBT_
FNDA:0,_RINvCseNzKavzW6Gi_17test_fuzz_runtime10write_argsNtNvNtNtCsfL22ijsdh9Q_5debug4hang13target_fuzz__10write_args4ArgsEBT_
FNDA:0,_RINvCseNzKavzW6Gi_17test_fuzz_runtime10write_argsNtNvNtNtCsfL22ijsdh9Q_5debug5crash13target_fuzz__10write_args4ArgsEBT_
FNDA:0,_RINvCseNzKavzW6Gi_17test_fuzz_runtime10write_argsNtNvNtNtCsgyJtF4GtVdY_10conversion11uncloneable13target_fuzz__10write_args4ArgsEBT_
FNDA:0,_RINvCseNzKavzW6Gi_17test_fuzz_runtime10write_argsNtNvNtNtCsgyJtF4GtVdY_10conversion4path13target_fuzz__10write_args4ArgsEBT_
FNDA:0,_RINvCseNzKavzW6Gi_17test_fuzz_runtime10write_argsNtNvNtNtCsgyJtF4GtVdY_10conversion5array13target_fuzz__10write_args4ArgsEBT_
FNDA:0,_RINvCseNzKavzW6Gi_17test_fuzz_runtime10write_argsNtNvNtNtCsgyJtF4GtVdY_10conversion7mutable13target_fuzz__10write_args4ArgsEBT_
FNDA:0,_RINvCseNzKavzW6Gi_17test_fuzz_runtime10write_argsNtNvNtNtCsgyJtF4GtVdY_10conversion8lifetime13target_fuzz__10write_args4ArgsEBT_
FNDA:0,_RINvCseNzKavzW6Gi_17test_fuzz_runtime10write_argsNtNvNtNtCsgyJtF4GtVdY_10conversion8receiver20x_target_self_fuzz__10write_args4ArgsEBT_
FNDA:0,_RINvCseNzKavzW6Gi_17test_fuzz_runtime10write_argsNtNvNtNtCsgyJtF4GtVdY_10conversion8receiver21x_target_other_fuzz__10write_args4ArgsEBT_
FNDA:0,_RINvCseNzKavzW6Gi_17test_fuzz_runtime10write_argsNtNvNtNtCsiGGxYnMUpAI_13auto_generate6signed13target_fuzz__10write_args4ArgsEBT_
FNDA:0,_RINvCseNzKavzW6Gi_17test_fuzz_runtime10write_argsNtNvNtNtCsiGGxYnMUpAI_13auto_generate8unsigned13target_fuzz__10write_args4ArgsEBT_
FNDA:0,_RINvCseNzKavzW6Gi_17test_fuzz_runtime10write_argspEB2_
FNDA:0,_RINvCseNzKavzW6Gi_17test_fuzz_runtime18write_generic_argsINtNtCs6ZJvwNFZ5Lo_11return_type16swap_swap_fuzz__4ArgsubEEBY_
FNDA:0,_RINvCseNzKavzW6Gi_17test_fuzz_runtime18write_generic_argsINtNtCsaVSfY7O0uYs_7generic14baz_qux_fuzz__4ArgsNtBY_3BarEEBY_
FNDA:0,_RINvCseNzKavzW6Gi_17test_fuzz_runtime18write_generic_argsINtNtCsaVSfY7O0uYs_7generic20struct_target_fuzz__4ArgsNtBY_3BarEEBY_
FNDA:0,_RINvCseNzKavzW6Gi_17test_fuzz_runtime18write_generic_argsINtNtCsaVSfY7O0uYs_7generic20struct_target_fuzz__4ArgsNtBY_3FooEEBY_
FNDA:0,_RINvCseNzKavzW6Gi_17test_fuzz_runtime18write_generic_argsINtNtCsaVSfY7O0uYs_7generic26struct_target_bound_fuzz__4ArgsNtBY_3BarINtBY_3BazB1R_EEEBY_
FNDA:0,_RINvCseNzKavzW6Gi_17test_fuzz_runtime18write_generic_argsINtNtCsaVSfY7O0uYs_7generic26struct_target_bound_fuzz__4ArgsNtBY_3FooINtBY_3BazB1R_EEEBY_
FNDA:0,_RINvCseNzKavzW6Gi_17test_fuzz_runtime18write_generic_argsINtNtCsaVSfY7O0uYs_7generic33struct_target_where_clause_fuzz__4ArgsNtBY_3BarINtBY_3BazB1Y_EEEBY_
FNDA:0,_RINvCseNzKavzW6Gi_17test_fuzz_runtime18write_generic_argsINtNtCsaVSfY7O0uYs_7generic33struct_target_where_clause_fuzz__4ArgsNtBY_3FooINtBY_3BazB1Y_EEEBY_
FNDA:0,_RINvCseNzKavzW6Gi_17test_fuzz_runtime18write_generic_argsINtNtCskkeazd6lurB_15associated_type20serializes_to_fuzz__4ArgsNtBY_7AddressEEBY_
FNDA:0,_RINvCseNzKavzW6Gi_17test_fuzz_runtime18write_generic_argsINtNtNtCsaVSfY7O0uYs_7generic27receiverless_trait_function20struct_target_fuzz__4ArgsNtB10_3BarEEB10_
FNDA:0,_RINvCseNzKavzW6Gi_17test_fuzz_runtime18write_generic_argsNtNtCs2zeNb6jgslg_19self_ty_in_mod_name20struct_target_fuzz__4ArgsEBX_
FNDA:0,_RINvCseNzKavzW6Gi_17test_fuzz_runtime18write_generic_argsNtNtCs4MGHVrkl72m_4from15bar_from_fuzz__4ArgsEBX_
FNDA:0,_RINvCseNzKavzW6Gi_17test_fuzz_runtime18write_generic_argsNtNtCs4MGHVrkl72m_4from15baz_into_fuzz__4ArgsEBX_
FNDA:0,_RINvCseNzKavzW6Gi_17test_fuzz_runtime18write_generic_argsNtNtCs4MGHVrkl72m_4from19baz_try_from_fuzz__4ArgsEBX_
FNDA:0,_RINvCseNzKavzW6Gi_17test_fuzz_runtime18write_generic_argsNtNtCs4hte0XrDpp0_7unserde13target_fuzz__4ArgsEBX_
FNDA:0,_RINvCseNzKavzW6Gi_17test_fuzz_runtime18write_generic_argsNtNtCs4hte0XrDpp0_7unserde27target_in_production_fuzz__4ArgsEBX_
FNDA:0,_RINvCseNzKavzW6Gi_17test_fuzz_runtime18write_generic_argsNtNtCs4jNeg51vteg_8lifetime13target_fuzz__4ArgsEBX_
FNDA:0,_RINvCseNzKavzW6Gi_17test_fuzz_runtime18write_generic_argsNtNtCs5fNIG3PZaJo_11hello_world19intermediary_fuzz__4ArgsEBX_
FNDA:0,_RINvCseNzKavzW6Gi_17test_fuzz_runtime18write_generic_argsNtNtCs6fBdTSegfKf_14test_fuzz_impl17struct_bar_fuzz__4ArgsEBX_
FNDA:0,_RINvCseNzKavzW6Gi_17test_fuzz_runtime18write_generic_argsNtNtCs6fBdTSegfKf_14test_fuzz_impl17struct_foo_fuzz__4ArgsEBX_
FNDA:0,_RINvCseNzKavzW6Gi_17test_fuzz_runtime18write_generic_argsNtNtCs6z3aMDs3O5H_14parse_duration12parse_fuzz__4ArgsEBX_
FNDA:0,_RINvCseNzKavzW6Gi_17test_fuzz_runtime18write_generic_argsNtNtCs7l6y1YLWhzH_5alloc13target_fuzz__4ArgsEBX_
FNDA:0,_RINvCseNzKavzW6Gi_17test_fuzz_runtime18write_generic_argsNtNtCs8VL8JzDaoWz_11hello_world19intermediary_fuzz__4ArgsEBX_
FNDA:0,_RINvCseNzKavzW6Gi_17test_fuzz_runtime18write_generic_argsNtNtCs9i11WczUoNj_7profile13target_fuzz__4ArgsEBX_
FNDA:0,_RINvCseNzKavzW6Gi_17test_fuzz_runtime18write_generic_argsNtNtCsaVSfY7O0uYs_7generic38struct_target_only_generic_args_fuzz__4ArgsEBX_
FNDA:0,_RINvCseNzKavzW6Gi_17test_fuzz_runtime18write_generic_argsNtNtCsb7JfYwj8ipQ_10serde_attr13target_fuzz__4ArgsEBX_
FNDA:0,_RINvCseNzKavzW6Gi_17test_fuzz_runtime18write_generic_argsNtNtCsbupd9d71YLx_16calm_and_panicky11calm_fuzz__4ArgsEBX_
FNDA:0,_RINvCseNzKavzW6Gi_17test_fuzz_runtime18write_generic_argsNtNtCsbupd9d71YLx_16calm_and_panicky14panicky_fuzz__4ArgsEBX_
FNDA:0,_RINvCseNzKavzW6Gi_17test_fuzz_runtime18write_generic_argsNtNtCscaf2gEuSGn5_6qwerty13target_fuzz__4ArgsEBX_
FNDA:0,_RINvCseNzKavzW6Gi_17test_fuzz_runtime18write_generic_argsNtNtCsfEcBWhN4Na3_3arc13target_fuzz__4ArgsEBX_
FNDA:0,_RINvCseNzKavzW6Gi_17test_fuzz_runtime18write_generic_argsNtNtCsfODoU0UL7aq_11manual_leak23wrapped_key_dump_fuzz__4ArgsEBX_
FNDA:0,_RINvCseNzKavzW6Gi_17test_fuzz_runtime18write_generic_argsNtNtCsfOIDT8lUV2L_7mut_ref17target_str_fuzz__4ArgsEBX_
FNDA:0,_RINvCseNzKavzW6Gi_17test_fuzz_runtime18write_generic_argsNtNtCsfOIDT8lUV2L_7mut_ref19target_slice_fuzz__4ArgsEBX_
FNDA:0,_RINvCseNzKavzW6Gi_17test_fuzz_runtime18write_generic_argsNtNtCsfrSB0FWCrTD_6rename10bar_fuzz__4ArgsEBX_
FNDA:0,_RINvCseNzKavzW6Gi_17test_fuzz_runtime18write_generic_argsNtNtCsgZ69XjcSWhh_6assert13target_fuzz__4ArgsEBX_
FNDA:0,_RINvCseNzKavzW6Gi_17test_fuzz_runtime18write_generic_argsNtNtCsikhsy0ZvG4z_4cast13target_fuzz__4ArgsEBX_
FNDA:0,_RINvCseNzKavzW6Gi_17test_fuzz_runtime18write_generic_argsNtNtCsjk8KY6qq2Wr_8parallel15target_0_fuzz__4ArgsEBX_
FNDA:0,_RINvCseNzKavzW6Gi_17test_fuzz_runtime18write_generic_argsNtNtCsjk8KY6qq2Wr_8parallel15target_1_fuzz__4ArgsEBX_
FNDA:0,_RINvCseNzKavzW6Gi_17test_fuzz_runtime18write_generic_argsNtNtCsjk8KY6qq2Wr_8parallel15target_2_fuzz__4ArgsEBX_
FNDA:0,_RINvCseNzKavzW6Gi_17test_fuzz_runtime18write_generic_argsNtNtCsjk8KY6qq2Wr_8parallel15target_3_fuzz__4ArgsEBX_
FNDA:0,_RINvCseNzKavzW6Gi_17test_fuzz_runtime18write_generic_argsNtNtCsjk8KY6qq2Wr_8parallel15target_4_fuzz__4ArgsEBX_
FNDA:0,_RINvCseNzKavzW6Gi_17test_fuzz_runtime18write_generic_argsNtNtCsjk8KY6qq2Wr_8parallel15target_5_fuzz__4ArgsEBX_
FNDA:0,_RINvCseNzKavzW6Gi_17test_fuzz_runtime18write_generic_argsNtNtCskPkSWzOTnW2_9collision11test_fuzz__4ArgsEBX_
FNDA:0,_RINvCseNzKavzW6Gi_17test_fuzz_runtime18write_generic_argsNtNtNtCs4RwwcRvri8p_7default10no_default13target_fuzz__4ArgsEBZ_
FNDA:0,_RINvCseNzKavzW6Gi_17test_fuzz_runtime18write_generic_argsNtNtNtCs4RwwcRvri8p_7default7default13target_fuzz__4ArgsEBZ_
FNDA:0,_RINvCseNzKavzW6Gi_17test_fuzz_runtime18write_generic_argsNtNtNtCsbZ6qTFMlSKY_5serde10byte_array13target_fuzz__4ArgsEBZ_
FNDA:0,_RINvCseNzKavzW6Gi_17test_fuzz_runtime18write_generic_argsNtNtNtCsbZ6qTFMlSKY_5serde11unit_struct13target_fuzz__4ArgsEBZ_
FNDA:0,_RINvCseNzKavzW6Gi_17test_fuzz_runtime18write_generic_argsNtNtNtCsbZ6qTFMlSKY_5serde12tuple_struct13target_fuzz__4ArgsEBZ_
FNDA:0,_RINvCseNzKavzW6Gi_17test_fuzz_runtime18write_generic_argsNtNtNtCsbZ6qTFMlSKY_5serde12unit_variant13target_fuzz__4ArgsEBZ_
FNDA:0,_RINvCseNzKavzW6Gi_17test_fuzz_runtime18write_generic_argsNtNtNtCsbZ6qTFMlSKY_5serde13tuple_variant13target_fuzz__4ArgsEBZ_
FNDA:0,_RINvCseNzKavzW6Gi_17test_fuzz_runtime18write_generic_argsNtNtNtCsbZ6qTFMlSKY_5serde14newtype_struct13target_fuzz__4ArgsEBZ_
FNDA:0,_RINvCseNzKavzW6Gi_17test_fuzz_runtime18write_generic_argsNtNtNtCsbZ6qTFMlSKY_5serde14struct_variant13target_fuzz__4ArgsEBZ_
FNDA:0,_RINvCseNzKavzW6Gi_17test_fuzz_runtime18write_generic_argsNtNtNtCsbZ6qTFMlSKY_5serde15newtype_variant13target_fuzz__4ArgsEBZ_
FNDA:0,_RINvCseNzKavzW6Gi_17test_fuzz_runtime18write_generic_argsNtNtNtCsbZ6qTFMlSKY_5serde3map13target_fuzz__4ArgsEBZ_
FNDA:0,_RINvCseNzKavzW6Gi_17test_fuzz_runtime18write_generic_argsNtNtNtCsbZ6qTFMlSKY_5serde3seq13target_fuzz__4ArgsEBZ_
FNDA:0,_RINvCseNzKavzW6Gi_17test_fuzz_runtime18write_generic_argsNtNtNtCsbZ6qTFMlSKY_5serde4unit13target_fuzz__4ArgsEBZ_
FNDA:0,_RINvCseNzKavzW6Gi_17test_fuzz_runtime18write_generic_argsNtNtNtCsbZ6qTFMlSKY_5serde5tuple13target_fuzz__4ArgsEBZ_
FNDA:0,_RINvCseNzKavzW6Gi_17test_fuzz_runtime18write_generic_argsNtNtNtCsbZ6qTFMlSKY_5serde6option13target_fuzz__4ArgsEBZ_
FNDA:0,_RINvCseNzKavzW6Gi_17test_fuzz_runtime18write_generic_argsNtNtNtCsbZ6qTFMlSKY_5serde6string13target_fuzz__4ArgsEBZ_
FNDA:0,_RINvCseNzKavzW6Gi_17test_fuzz_runtime18write_generic_argsNtNtNtCsbZ6qTFMlSKY_5serde6strukt13target_fuzz__4ArgsEBZ_
FNDA:0,_RINvCseNzKavzW6Gi_17test_fuzz_runtime18write_generic_argsNtNtNtCsfL22ijsdh9Q_5debug4hang13target_fuzz__4ArgsEBZ_
FNDA:0,_RINvCseNzKavzW6Gi_17test_fuzz_runtime18write_generic_argsNtNtNtCsfL22ijsdh9Q_5debug5crash13target_fuzz__4ArgsEBZ_
FNDA:0,_RINvCseNzKavzW6Gi_17test_fuzz_runtime18write_generic_argsNtNtNtCsgyJtF4GtVdY_10conversion11uncloneable13target_fuzz__4ArgsEBZ_
FNDA:0,_RINvCseNzKavzW6Gi_17test_fuzz_runtime18write_generic_argsNtNtNtCsgyJtF4GtVdY_10conversion4path13target_fuzz__4ArgsEBZ_
FNDA:0,_RINvCseNzKavzW6Gi_17test_fuzz_runtime18write_generic_argsNtNtNtCsgyJtF4GtVdY_10conversion5array13target_fuzz__4ArgsEBZ_
FNDA:0,_RINvCseNzKavzW6Gi_17test_fuzz_runtime18write_generic_argsNtNtNtCsgyJtF4GtVdY_10conversion7mutable13target_fuzz__4ArgsEBZ_
FNDA:0,_RINvCseNzKavzW6Gi_17test_fuzz_runtime18write_generic_argsNtNtNtCsgyJtF4GtVdY_10conversion8lifetime13target_fuzz__4ArgsEBZ_
FNDA:0,_RINvCseNzKavzW6Gi_17test_fuzz_runtime18write_generic_argsNtNtNtCsgyJtF4GtVdY_10conversion8receiver20x_target_self_fuzz__4ArgsEBZ_
FNDA:0,_RINvCseNzKavzW6Gi_17test_fuzz_runtime18write_generic_argsNtNtNtCsgyJtF4GtVdY_10conversion8receiver21x_target_other_fuzz__4ArgsEBZ_
FNDA:0,_RINvCseNzKavzW6Gi_17test_fuzz_runtime18write_generic_argsNtNtNtCsiGGxYnMUpAI_13auto_generate6signed13target_fuzz__4ArgsEBZ_
FNDA:0,_RINvCseNzKavzW6Gi_17test_fuzz_runtime18write_generic_argsNtNtNtCsiGGxYnMUpAI_13auto_generate8unsigned13target_fuzz__4ArgsEBZ_
FNDA:0,_RINvCseNzKavzW6Gi_17test_fuzz_runtime18write_generic_argspEB2_
FNDA:0,_RINvCseNzKavzW6Gi_17test_fuzz_runtime23write_impl_generic_argsINtNtCs6ZJvwNFZ5Lo_11return_type16swap_swap_fuzz__4ArgsubEEB13_
FNDA:0,_RINvCseNzKavzW6Gi_17test_fuzz_runtime23write_impl_generic_argsINtNtCsaVSfY7O0uYs_7generic14baz_qux_fuzz__4ArgsNtB13_3BarEEB13_
FNDA:0,_RINvCseNzKavzW6Gi_17test_fuzz_runtime23write_impl_generic_argsINtNtCsaVSfY7O0uYs_7generic20struct_target_fuzz__4ArgsNtB13_3BarEEB13_
FNDA:0,_RINvCseNzKavzW6Gi_17test_fuzz_runtime23write_impl_generic_argsINtNtCsaVSfY7O0uYs_7generic20struct_target_fuzz__4ArgsNtB13_3FooEEB13_
FNDA:0,_RINvCseNzKavzW6Gi_17test_fuzz_runtime23write_impl_generic_argsINtNtCsaVSfY7O0uYs_7generic26struct_target_bound_fuzz__4ArgsNtB13_3BarINtB13_3BazB1W_EEEB13_
FNDA:0,_RINvCseNzKavzW6Gi_17test_fuzz_runtime23write_impl_generic_argsINtNtCsaVSfY7O0uYs_7generic26struct_target_bound_fuzz__4ArgsNtB13_3FooINtB13_3BazB1W_EEEB13_
FNDA:0,_RINvCseNzKavzW6Gi_17test_fuzz_runtime23write_impl_generic_argsINtNtCsaVSfY7O0uYs_7generic33struct_target_where_clause_fuzz__4ArgsNtB13_3BarINtB13_3BazB23_EEEB13_
FNDA:0,_RINvCseNzKavzW6Gi_17test_fuzz_runtime23write_impl_generic_argsINtNtCsaVSfY7O0uYs_7generic33struct_target_where_clause_fuzz__4ArgsNtB13_3FooINtB13_3BazB23_EEEB13_
FNDA:0,_RINvCseNzKavzW6Gi_17test_fuzz_runtime23write_impl_generic_argsINtNtCskkeazd6lurB_15associated_type20serializes_to_fuzz__4ArgsNtB13_7AddressEEB13_
FNDA:0,_RINvCseNzKavzW6Gi_17test_fuzz_runtime23write_impl_generic_argsINtNtNtCsaVSfY7O0uYs_7generic27receiverless_trait_function20struct_target_fuzz__4ArgsNtB15_3BarEEB15_
FNDA:0,_RINvCseNzKavzW6Gi_17test_fuzz_runtime23write_impl_generic_argsNtNtCs2zeNb6jgslg_19self_ty_in_mod_name20struct_target_fuzz__4ArgsEB12_
FNDA:0,_RINvCseNzKavzW6Gi_17test_fuzz_runtime23write_impl_generic_argsNtNtCs4MGHVrkl72m_4from15bar_from_fuzz__4ArgsEB12_
FNDA:0,_RINvCseNzKavzW6Gi_17test_fuzz_runtime23write_impl_generic_argsNtNtCs4MGHVrkl72m_4from15baz_into_fuzz__4ArgsEB12_
FNDA:0,_RINvCseNzKavzW6Gi_17test_fuzz_runtime23write_impl_generic_argsNtNtCs4MGHVrkl72m_4from19baz_try_from_fuzz__4ArgsEB12_
FNDA:0,_RINvCseNzKavzW6Gi_17test_fuzz_runtime23write_impl_generic_argsNtNtCs4hte0XrDpp0_7unserde13target_fuzz__4ArgsEB12_
FNDA:0,_RINvCseNzKavzW6Gi_17test_fuzz_runtime23write_impl_generic_argsNtNtCs4hte0XrDpp0_7unserde27target_in_production_fuzz__4ArgsEB12_
FNDA:0,_RINvCseNzKavzW6Gi_17test_fuzz_runtime23write_impl_generic_argsNtNtCs4jNeg51vteg_8lifetime13target_fuzz__4ArgsEB12_
FNDA:0,_RINvCseNzKavzW6Gi_17test_fuzz_runtime23write_impl_generic_argsNtNtCs5fNIG3PZaJo_11hello_world19intermediary_fuzz__4ArgsEB12_
FNDA:0,_RINvCseNzKavzW6Gi_17test_fuzz_runtime23write_impl_generic_argsNtNtCs6fBdTSegfKf_14test_fuzz_impl17struct_bar_fuzz__4ArgsEB12_
FNDA:0,_RINvCseNzKavzW6Gi_17test_fuzz_runtime23write_impl_generic_argsNtNtCs6fBdTSegfKf_14test_fuzz_impl17struct_foo_fuzz__4ArgsEB12_
FNDA:0,_RINvCseNzKavzW6Gi_17test_fuzz_runtime23write_impl_generic_argsNtNtCs6z3aMDs3O5H_14parse_duration12parse_fuzz__4ArgsEB12_
FNDA:0,_RINvCseNzKavzW6Gi_17test_fuzz_runtime23write_impl_generic_argsNtNtCs7l6y1YLWhzH_5alloc13target_fuzz__4ArgsEB12_
FNDA:0,_RINvCseNzKavzW6Gi_17test_fuzz_runtime23write_impl_generic_argsNtNtCs8VL8JzDaoWz_11hello_world19intermediary_fuzz__4ArgsEB12_
FNDA:0,_RINvCseNzKavzW6Gi_17test_fuzz_runtime23write_impl_generic_argsNtNtCs9i11WczUoNj_7profile13target_fuzz__4ArgsEB12_
FNDA:0,_RINvCseNzKavzW6Gi_17test_fuzz_runtime23write_impl_generic_argsNtNtCsaVSfY7O0uYs_7generic38struct_target_only_generic_args_fuzz__4ArgsEB12_
FNDA:0,_RINvCseNzKavzW6Gi_17test_fuzz_runtime23write_impl_generic_argsNtNtCsb7JfYwj8ipQ_10serde_attr13target_fuzz__4ArgsEB12_
FNDA:0,_RINvCseNzKavzW6Gi_17test_fuzz_runtime23write_impl_generic_argsNtNtCsbupd9d71YLx_16calm_and_panicky11calm_fuzz__4ArgsEB12_
FNDA:0,_RINvCseNzKavzW6Gi_17test_fuzz_runtime23write_impl_generic_argsNtNtCsbupd9d71YLx_16calm_and_panicky14panicky_fuzz__4ArgsEB12_
FNDA:0,_RINvCseNzKavzW6Gi_17test_fuzz_runtime23write_impl_generic_argsNtNtCscaf2gEuSGn5_6qwerty13target_fuzz__4ArgsEB12_
FNDA:0,_RINvCseNzKavzW6Gi_17test_fuzz_runtime23write_impl_generic_argsNtNtCsfEcBWhN4Na3_3arc13target_fuzz__4ArgsEB12_
FNDA:0,_RINvCseNzKavzW6Gi_17test_fuzz_runtime23write_impl_generic_argsNtNtCsfODoU0UL7aq_11manual_leak23wrapped_key_dump_fuzz__4ArgsEB12_
FNDA:0,_RINvCseNzKavzW6Gi_17test_fuzz_runtime23write_impl_generic_argsNtNtCsfOIDT8lUV2L_7mut_ref17target_str_fuzz__4ArgsEB12_
FNDA:0,_RINvCseNzKavzW6Gi_17test_fuzz_runtime23write_impl_generic_argsNtNtCsfOIDT8lUV2L_7mut_ref19target_slice_fuzz__4ArgsEB12_
FNDA:0,_RINvCseNzKavzW6Gi_17test_fuzz_runtime23write_impl_generic_argsNtNtCsfrSB0FWCrTD_6rename10bar_fuzz__4ArgsEB12_
FNDA:0,_RINvCseNzKavzW6Gi_17test_fuzz_runtime23write_impl_generic_argsNtNtCsgZ69XjcSWhh_6assert13target_fuzz__4ArgsEB12_
FNDA:0,_RINvCseNzKavzW6Gi_17test_fuzz_runtime23write_impl_generic_argsNtNtCsikhsy0ZvG4z_4cast13target_fuzz__4ArgsEB12_
FNDA:0,_RINvCseNzKavzW6Gi_17test_fuzz_runtime23write_impl_generic_argsNtNtCsjk8KY6qq2Wr_8parallel15target_0_fuzz__4ArgsEB12_
FNDA:0,_RINvCseNzKavzW6Gi_17test_fuzz_runtime23write_impl_generic_argsNtNtCsjk8KY6qq2Wr_8parallel15target_1_fuzz__4ArgsEB12_
FNDA:0,_RINvCseNzKavzW6Gi_17test_fuzz_runtime23write_impl_generic_argsNtNtCsjk8KY6qq2Wr_8parallel15target_2_fuzz__4ArgsEB12_
FNDA:0,_RINvCseNzKavzW6Gi_17test_fuzz_runtime23write_impl_generic_argsNtNtCsjk8KY6qq2Wr_8parallel15target_3_fuzz__4ArgsEB12_
FNDA:0,_RINvCseNzKavzW6Gi_17test_fuzz_runtime23write_impl_generic_argsNtNtCsjk8KY6qq2Wr_8parallel15target_4_fuzz__4ArgsEB12_
FNDA:0,_RINvCseNzKavzW6Gi_17test_fuzz_runtime23write_impl_generic_argsNtNtCsjk8KY6qq2Wr_8parallel15target_5_fuzz__4ArgsEB12_
FNDA:0,_RINvCseNzKavzW6Gi_17test_fuzz_runtime23write_impl_generic_argsNtNtCskPkSWzOTnW2_9collision11test_fuzz__4ArgsEB12_
FNDA:0,_RINvCseNzKavzW6Gi_17test_fuzz_runtime23write_impl_generic_argsNtNtNtCs4RwwcRvri8p_7default10no_default13target_fuzz__4ArgsEB14_
FNDA:0,_RINvCseNzKavzW6Gi_17test_fuzz_runtime23write_impl_generic_argsNtNtNtCs4RwwcRvri8p_7default7default13target_fuzz__4ArgsEB14_
FNDA:0,_RINvCseNzKavzW6Gi_17test_fuzz_runtime23write_impl_generic_argsNtNtNtCsbZ6qTFMlSKY_5serde10byte_array13target_fuzz__4ArgsEB14_
FNDA:0,_RINvCseNzKavzW6Gi_17test_fuzz_runtime23write_impl_generic_argsNtNtNtCsbZ6qTFMlSKY_5serde11unit_struct13target_fuzz__4ArgsEB14_
FNDA:0,_RINvCseNzKavzW6Gi_17test_fuzz_runtime23write_impl_generic_argsNtNtNtCsbZ6qTFMlSKY_5serde12tuple_struct13target_fuzz__4ArgsEB14_
FNDA:0,_RINvCseNzKavzW6Gi_17test_fuzz_runtime23write_impl_generic_argsNtNtNtCsbZ6qTFMlSKY_5serde12unit_variant13target_fuzz__4ArgsEB14_
FNDA:0,_RINvCseNzKavzW6Gi_17test_fuzz_runtime23write_impl_generic_argsNtNtNtCsbZ6qTFMlSKY_5serde13tuple_variant13target_fuzz__4ArgsEB14_
FNDA:0,_RINvCseNzKavzW6Gi_17test_fuzz_runtime23write_impl_generic_argsNtNtNtCsbZ6qTFMlSKY_5serde14newtype_struct13target_fuzz__4ArgsEB14_
FNDA:0,_RINvCseNzKavzW6Gi_17test_fuzz_runtime23write_impl_generic_argsNtNtNtCsbZ6qTFMlSKY_5serde14struct_variant13target_fuzz__4ArgsEB14_
FNDA:0,_RINvCseNzKavzW6Gi_17test_fuzz_runtime23write_impl_generic_argsNtNtNtCsbZ6qTFMlSKY_5serde15newtype_variant13target_fuzz__4ArgsEB14_
FNDA:0,_RINvCseNzKavzW6Gi_17test_fuzz_runtime23write_impl_generic_argsNtNtNtCsbZ6qTFMlSKY_5serde3map13target_fuzz__4ArgsEB14_
FNDA:0,_RINvCseNzKavzW6Gi_17test_fuzz_runtime23write_impl_generic_argsNtNtNtCsbZ6qTFMlSKY_5serde3seq13target_fuzz__4ArgsEB14_
FNDA:0,_RINvCseNzKavzW6Gi_17test_fuzz_runtime23write_impl_generic_argsNtNtNtCsbZ6qTFMlSKY_5serde4unit13target_fuzz__4ArgsEB14_
FNDA:0,_RINvCseNzKavzW6Gi_17test_fuzz_runtime23write_impl_generic_argsNtNtNtCsbZ6qTFMlSKY_5serde5tuple13target_fuzz__4ArgsEB14_
FNDA:0,_RINvCseNzKavzW6Gi_17test_fuzz_runtime23write_impl_generic_argsNtNtNtCsbZ6qTFMlSKY_5serde6option13target_fuzz__4ArgsEB14_
FNDA:0,_RINvCseNzKavzW6Gi_17test_fuzz_runtime23write_impl_generic_argsNtNtNtCsbZ6qTFMlSKY_5serde6string13target_fuzz__4ArgsEB14_
FNDA:0,_RINvCseNzKavzW6Gi_17test_fuzz_runtime23write_impl_generic_argsNtNtNtCsbZ6qTFMlSKY_5serde6strukt13target_fuzz__4ArgsEB14_
FNDA:0,_RINvCseNzKavzW6Gi_17test_fuzz_runtime23write_impl_generic_argsNtNtNtCsfL22ijsdh9Q_5debug4hang13target_fuzz__4ArgsEB14_
FNDA:0,_RINvCseNzKavzW6Gi_17test_fuzz_runtime23write_impl_generic_argsNtNtNtCsfL22ijsdh9Q_5debug5crash13target_fuzz__4ArgsEB14_
FNDA:0,_RINvCseNzKavzW6Gi_17test_fuzz_runtime23write_impl_generic_argsNtNtNtCsgyJtF4GtVdY_10conversion11uncloneable13target_fuzz__4ArgsEB14_
FNDA:0,_RINvCseNzKavzW6Gi_17test_fuzz_runtime23write_impl_generic_argsNtNtNtCsgyJtF4GtVdY_10conversion4path13target_fuzz__4ArgsEB14_
FNDA:0,_RINvCseNzKavzW6Gi_17test_fuzz_runtime23write_impl_generic_argsNtNtNtCsgyJtF4GtVdY_10conversion5array13target_fuzz__4ArgsEB14_
FNDA:0,_RINvCseNzKavzW6Gi_17test_fuzz_runtime23write_impl_generic_argsNtNtNtCsgyJtF4GtVdY_10conversion7mutable13target_fuzz__4ArgsEB14_
FNDA:0,_RINvCseNzKavzW6Gi_17test_fuzz_runtime23write_impl_generic_argsNtNtNtCsgyJtF4GtVdY_10conversion8lifetime13target_fuzz__4ArgsEB14_
FNDA:0,_RINvCseNzKavzW6Gi_17test_fuzz_runtime23write_impl_generic_argsNtNtNtCsgyJtF4GtVdY_10conversion8receiver20x_target_self_fuzz__4ArgsEB14_
FNDA:0,_RINvCseNzKavzW6Gi_17test_fuzz_runtime23write_impl_generic_argsNtNtNtCsgyJtF4GtVdY_10conversion8receiver21x_target_other_fuzz__4ArgsEB14_
FNDA:0,_RINvCseNzKavzW6Gi_17test_fuzz_runtime23write_impl_generic_argsNtNtNtCsiGGxYnMUpAI_13auto_generate6signed13target_fuzz__4ArgsEB14_
FNDA:0,_RINvCseNzKavzW6Gi_17test_fuzz_runtime23write_impl_generic_argsNtNtNtCsiGGxYnMUpAI_13auto_generate8unsigned13target_fuzz__4ArgsEB14_
FNDA:0,_RINvCseNzKavzW6Gi_17test_fuzz_runtime23write_impl_generic_argspEB2_
FNDA:0,_RINvCseNzKavzW6Gi_17test_fuzz_runtime9read_argsINtNvMNtCs6ZJvwNFZ5Lo_11return_type16swap_swap_fuzz__INtBP_11UsingReaderpE9read_args4ArgsubENtNtNtCsHIej2QEFI5_3std2io5stdio5StdinEBR_
FNDA:0,_RINvCseNzKavzW6Gi_17test_fuzz_runtime9read_argsINtNvMNtCsaVSfY7O0uYs_7generic14baz_qux_fuzz__INtBP_11UsingReaderpE9read_args4ArgsNtBR_3BarENtNtNtCsHIej2QEFI5_3std2io5stdio5StdinEBR_
FNDA:0,_RINvCseNzKavzW6Gi_17test_fuzz_runtime9read_argsINtNvMNtCsaVSfY7O0uYs_7generic20struct_target_fuzz__INtBP_11UsingReaderpE9read_args4ArgsNtBR_3BarENtNtNtCsHIej2QEFI5_3std2io5stdio5StdinEBR_
FNDA:0,_RINvCseNzKavzW6Gi_17test_fuzz_runtime9read_argsINtNvMNtCsaVSfY7O0uYs_7generic26struct_target_bound_fuzz__INtBP_11UsingReaderpE9read_args4ArgsNtBR_3BarINtBR_3BazB2f_EENtNtNtCsHIej2QEFI5_3std2io5stdio5StdinEBR_
FNDA:0,_RINvCseNzKavzW6Gi_17test_fuzz_runtime9read_argsINtNvMNtCsaVSfY7O0uYs_7generic33struct_target_where_clause_fuzz__INtBP_11UsingReaderpE9read_args4ArgsNtBR_3BarINtBR_3BazB2m_EENtNtNtCsHIej2QEFI5_3std2io5stdio5StdinEBR_
FNDA:0,_RINvCseNzKavzW6Gi_17test_fuzz_runtime9read_argsINtNvMNtCskkeazd6lurB_15associated_type20serializes_to_fuzz__INtBP_11UsingReaderpE9read_args4ArgsNtBR_7AddressENtNtNtCsHIej2QEFI5_3std2io5stdio5StdinEBR_
FNDA:0,_RINvCseNzKavzW6Gi_17test_fuzz_runtime9read_argsINtNvMNtNtCsaVSfY7O0uYs_7generic27receiverless_trait_function20struct_target_fuzz__INtBP_11UsingReaderpE9read_args4ArgsNtBT_3BarENtNtNtCsHIej2QEFI5_3std2io5stdio5StdinEBT_
FNDA:0,_RINvCseNzKavzW6Gi_17test_fuzz_runtime9read_argsNtNvMNtCs2zeNb6jgslg_19self_ty_in_mod_name20struct_target_fuzz__INtBO_11UsingReaderpE9read_args4ArgsNtNtNtCsHIej2QEFI5_3std2io5stdio5StdinEBQ_
FNDA:0,_RINvCseNzKavzW6Gi_17test_fuzz_runtime9read_argsNtNvMNtCs4MGHVrkl72m_4from15bar_from_fuzz__INtBO_11UsingReaderpE9read_args4ArgsNtNtNtCsHIej2QEFI5_3std2io5stdio5StdinEBQ_
FNDA:0,_RINvCseNzKavzW6Gi_17test_fuzz_runtime9read_argsNtNvMNtCs4MGHVrkl72m_4from15baz_into_fuzz__INtBO_11UsingReaderpE9read_args4ArgsNtNtNtCsHIej2QEFI5_3std2io5stdio5StdinEBQ_
FNDA:0,_RINvCseNzKavzW6Gi_17test_fuzz_runtime9read_argsNtNvMNtCs4MGHVrkl72m_4from19baz_try_from_fuzz__INtBO_11UsingReaderpE9read_args4ArgsNtNtNtCsHIej2QEFI5_3std2io5stdio5StdinEBQ_
FNDA:0,_RINvCseNzKavzW6Gi_17test_fuzz_runtime9read_argsNtNvMNtCs4jNeg51vteg_8lifetime13target_fuzz__INtBO_11UsingReaderpE9read_args4ArgsNtNtNtCsHIej2QEFI5_3std2io5stdio5StdinEBQ_
FNDA:0,_RINvCseNzKavzW6Gi_17test_fuzz_runtime9read_argsNtNvMNtCs6fBdTSegfKf_14test_fuzz_impl17struct_bar_fuzz__INtBO_11UsingReaderpE9read_args4ArgsNtNtNtCsHIej2QEFI5_3std2io5stdio5StdinEBQ_
FNDA:0,_RINvCseNzKavzW6Gi_17test_fuzz_runtime9read_argsNtNvMNtCs6fBdTSegfKf_14test_fuzz_impl17struct_foo_fuzz__INtBO_11UsingReaderpE9read_args4ArgsNtNtNtCsHIej2QEFI5_3std2io5stdio5StdinEBQ_
FNDA:0,_RINvCseNzKavzW6Gi_17test_fuzz_runtime9read_argsNtNvMNtCs6z3aMDs3O5H_14parse_duration12parse_fuzz__INtBO_11UsingReaderpE9read_args4ArgsNtNtNtCsHIej2QEFI5_3std2io5stdio5StdinEBQ_
FNDA:0,_RINvCseNzKavzW6Gi_17test_fuzz_runtime9read_argsNtNvMNtCs7l6y1YLWhzH_5alloc13target_fuzz__INtBO_11UsingReaderpE9read_args4ArgsNtNtNtCsHIej2QEFI5_3std2io5stdio5StdinEBQ_
FNDA:0,_RINvCseNzKavzW6Gi_17test_fuzz_runtime9read_argsNtNvMNtCs9i11WczUoNj_7profile13target_fuzz__INtBO_11UsingReaderpE9read_args4ArgsNtNtNtCsHIej2QEFI5_3std2io5stdio5StdinEBQ_
FNDA:0,_RINvCseNzKavzW6Gi_17test_fuzz_runtime9read_argsNtNvMNtCsb7JfYwj8ipQ_10serde_attr13target_fuzz__INtBO_11UsingReaderpE9read_args4ArgsNtNtNtCsHIej2QEFI5_3std2io5stdio5StdinEBQ_
FNDA:0,_RINvCseNzKavzW6Gi_17test_fuzz_runtime9read_argsNtNvMNtCsbupd9d71YLx_16calm_and_panicky11calm_fuzz__INtBO_11UsingReaderpE9read_args4ArgsNtNtNtCsHIej2QEFI5_3std2io5stdio5StdinEBQ_
FNDA:0,_RINvCseNzKavzW6Gi_17test_fuzz_runtime9read_argsNtNvMNtCsbupd9d71YLx_16calm_and_panicky14panicky_fuzz__INtBO_11UsingReaderpE9read_args4ArgsNtNtNtCsHIej2QEFI5_3std2io5stdio5StdinEBQ_
FNDA:0,_RINvCseNzKavzW6Gi_17test_fuzz_runtime9read_argsNtNvMNtCscaf2gEuSGn5_6qwerty13target_fuzz__INtBO_11UsingReaderpE9read_args4ArgsNtNtNtCsHIej2QEFI5_3std2io5stdio5StdinEBQ_
FNDA:0,_RINvCseNzKavzW6Gi_17test_fuzz_runtime9read_argsNtNvMNtCsfEcBWhN4Na3_3arc13target_fuzz__INtBO_11UsingReaderpE9read_args4ArgsNtNtNtCsHIej2QEFI5_3std2io5stdio5StdinEBQ_
FNDA:0,_RINvCseNzKavzW6Gi_17test_fuzz_runtime9read_argsNtNvMNtCsfODoU0UL7aq_11manual_leak23wrapped_key_dump_fuzz__INtBO_11UsingReaderpE9read_args4ArgsNtNtNtCsHIej2QEFI5_3std2io5stdio5StdinEBQ_
FNDA:0,_RINvCseNzKavzW6Gi_17test_fuzz_runtime9read_argsNtNvMNtCsfOIDT8lUV2L_7mut_ref17target_str_fuzz__INtBO_11UsingReaderpE9read_args4ArgsNtNtNtCsHIej2QEFI5_3std2io5stdio5StdinEBQ_
FNDA:0,_RINvCseNzKavzW6Gi_17test_fuzz_runtime9read_argsNtNvMNtCsfOIDT8lUV2L_7mut_ref19target_slice_fuzz__INtBO_11UsingReaderpE9read_args4ArgsNtNtNtCsHIej2QEFI5_3std2io5stdio5StdinEBQ_
FNDA:0,_RINvCseNzKavzW6Gi_17test_fuzz_runtime9read_argsNtNvMNtCsfrSB0FWCrTD_6rename10bar_fuzz__INtBO_11UsingReaderpE9read_args4ArgsNtNtNtCsHIej2QEFI5_3std2io5stdio5StdinEBQ_
FNDA:0,_RINvCseNzKavzW6Gi_17test_fuzz_runtime9read_argsNtNvMNtCsgZ69XjcSWhh_6assert13target_fuzz__INtBO_11UsingReaderpE9read_args4ArgsNtNtNtCsHIej2QEFI5_3std2io5stdio5StdinEBQ_
FNDA:0,_RINvCseNzKavzW6Gi_17test_fuzz_runtime9read_argsNtNvMNtCsikhsy0ZvG4z_4cast13target_fuzz__INtBO_11UsingReaderpE9read_args4ArgsNtNtNtCsHIej2QEFI5_3std2io5stdio5StdinEBQ_
FNDA:0,_RINvCseNzKavzW6Gi_17test_fuzz_runtime9read_argsNtNvMNtCsjk8KY6qq2Wr_8parallel15target_0_fuzz__INtBO_11UsingReaderpE9read_args4ArgsNtNtNtCsHIej2QEFI5_3std2io5stdio5StdinEBQ_
FNDA:0,_RINvCseNzKavzW6Gi_17test_fuzz_runtime9read_argsNtNvMNtCsjk8KY6qq2Wr_8parallel15target_1_fuzz__INtBO_11UsingReaderpE9read_args4ArgsNtNtNtCsHIej2QEFI5_3std2io5stdio5StdinEBQ_
FNDA:0,_RINvCseNzKavzW6Gi_17test_fuzz_runtime9read_argsNtNvMNtCsjk8KY6qq2Wr_8parallel15target_2_fuzz__INtBO_11UsingReaderpE9read_args4ArgsNtNtNtCsHIej2QEFI5_3std2io5stdio5StdinEBQ_
FNDA:0,_RINvCseNzKavzW6Gi_17test_fuzz_runtime9read_argsNtNvMNtCsjk8KY6qq2Wr_8parallel15target_3_fuzz__INtBO_11UsingReaderpE9read_args4ArgsNtNtNtCsHIej2QEFI5_3std2io5stdio5StdinEBQ_
FNDA:0,_RINvCseNzKavzW6Gi_17test_fuzz_runtime9read_argsNtNvMNtCsjk8KY6qq2Wr_8parallel15target_4_fuzz__INtBO_11UsingReaderpE9read_args4ArgsNtNtNtCsHIej2QEFI5_3std2io5stdio5StdinEBQ_
FNDA:0,_RINvCseNzKavzW6Gi_17test_fuzz_runtime9read_argsNtNvMNtCsjk8KY6qq2Wr_8parallel15target_5_fuzz__INtBO_11UsingReaderpE9read_args4ArgsNtNtNtCsHIej2QEFI5_3std2io5stdio5StdinEBQ_
FNDA:0,_RINvCseNzKavzW6Gi_17test_fuzz_runtime9read_argsNtNvMNtCskPkSWzOTnW2_9collision11test_fuzz__INtBO_11UsingReaderpE9read_args4ArgsNtNtNtCsHIej2QEFI5_3std2io5stdio5StdinEBQ_
FNDA:0,_RINvCseNzKavzW6Gi_17test_fuzz_runtime9read_argsNtNvMNtNtCs4RwwcRvri8p_7default10no_default13target_fuzz__INtBO_11UsingReaderpE9read_args4ArgsNtNtNtCsHIej2QEFI5_3std2io5stdio5StdinEBS_
FNDA:0,_RINvCseNzKavzW6Gi_17test_fuzz_runtime9read_argsNtNvMNtNtCs4RwwcRvri8p_7default7default13target_fuzz__INtBO_11UsingReaderpE9read_args4ArgsNtNtNtCsHIej2QEFI5_3std2io5stdio5StdinEBS_
FNDA:0,_RINvCseNzKavzW6Gi_17test_fuzz_runtime9read_argsNtNvMNtNtCsbZ6qTFMlSKY_5serde10byte_array13target_fuzz__INtBO_11UsingReaderpE9read_args4ArgsNtNtNtCsHIej2QEFI5_3std2io5stdio5StdinEBS_
FNDA:0,_RINvCseNzKavzW6Gi_17test_fuzz_runtime9read_argsNtNvMNtNtCsbZ6qTFMlSKY_5serde11unit_struct13target_fuzz__INtBO_11UsingReaderpE9read_args4ArgsNtNtNtCsHIej2QEFI5_3std2io5stdio5StdinEBS_
FNDA:0,_RINvCseNzKavzW6Gi_17test_fuzz_runtime9read_argsNtNvMNtNtCsbZ6qTFMlSKY_5serde12tuple_struct13target_fuzz__INtBO_11UsingReaderpE9read_args4ArgsNtNtNtCsHIej2QEFI5_3std2io5stdio5StdinEBS_
FNDA:0,_RINvCseNzKavzW6Gi_17test_fuzz_runtime9read_argsNtNvMNtNtCsbZ6qTFMlSKY_5serde12unit_variant13target_fuzz__INtBO_11UsingReaderpE9read_args4ArgsNtNtNtCsHIej2QEFI5_3std2io5stdio5StdinEBS_
FNDA:0,_RINvCseNzKavzW6Gi_17test_fuzz_runtime9read_argsNtNvMNtNtCsbZ6qTFMlSKY_5serde13tuple_variant13target_fuzz__INtBO_11UsingReaderpE9read_args4ArgsNtNtNtCsHIej2QEFI5_3std2io5stdio5StdinEBS_
FNDA:0,_RINvCseNzKavzW6Gi_17test_fuzz_runtime9read_argsNtNvMNtNtCsbZ6qTFMlSKY_5serde14newtype_struct13target_fuzz__INtBO_11UsingReaderpE9read_args4ArgsNtNtNtCsHIej2QEFI5_3std2io5stdio5StdinEBS_
FNDA:0,_RINvCseNzKavzW6Gi_17test_fuzz_runtime9read_argsNtNvMNtNtCsbZ6qTFMlSKY_5serde14struct_variant13target_fuzz__INtBO_11UsingReaderpE9read_args4ArgsNtNtNtCsHIej2QEFI5_3std2io5stdio5StdinEBS_
FNDA:0,_RINvCseNzKavzW6Gi_17test_fuzz_runtime9read_argsNtNvMNtNtCsbZ6qTFMlSKY_5serde15newtype_variant13target_fuzz__INtBO_11UsingReaderpE9read_args4ArgsNtNtNtCsHIej2QEFI5_3std2io5stdio5StdinEBS_
FNDA:0,_RINvCseNzKavzW6Gi_17test_fuzz_runtime9read_argsNtNvMNtNtCsbZ6qTFMlSKY_5serde3map13target_fuzz__INtBO_11UsingReaderpE9read_args4ArgsNtNtNtCsHIej2QEFI5_3std2io5stdio5StdinEBS_
FNDA:0,_RINvCseNzKavzW6Gi_17test_fuzz_runtime9read_argsNtNvMNtNtCsbZ6qTFMlSKY_5serde3seq13target_fuzz__INtBO_11UsingReaderpE9read_args4ArgsNtNtNtCsHIej2QEFI5_3std2io5stdio5StdinEBS_
FNDA:0,_RINvCseNzKavzW6Gi_17test_fuzz_runtime9read_argsNtNvMNtNtCsbZ6qTFMlSKY_5serde4unit13target_fuzz__INtBO_11UsingReaderpE9read_args4ArgsNtNtNtCsHIej2QEFI5_3std2io5stdio5StdinEBS_
FNDA:0,_RINvCseNzKavzW6Gi_17test_fuzz_runtime9read_argsNtNvMNtNtCsbZ6qTFMlSKY_5serde5tuple13target_fuzz__INtBO_11UsingReaderpE9read_args4ArgsNtNtNtCsHIej2QEFI5_3std2io5stdio5StdinEBS_
FNDA:0,_RINvCseNzKavzW6Gi_17test_fuzz_runtime9read_argsNtNvMNtNtCsbZ6qTFMlSKY_5serde6option13target_fuzz__INtBO_11UsingReaderpE9read_args4ArgsNtNtNtCsHIej2QEFI5_3std2io5stdio5StdinEBS_
FNDA:0,_RINvCseNzKavzW6Gi_17test_fuzz_runtime9read_argsNtNvMNtNtCsbZ6qTFMlSKY_5serde6string13target_fuzz__INtBO_11UsingReaderpE9read_args4ArgsNtNtNtCsHIej2QEFI5_3std2io5stdio5StdinEBS_
FNDA:0,_RINvCseNzKavzW6Gi_17test_fuzz_runtime9read_argsNtNvMNtNtCsbZ6qTFMlSKY_5serde6strukt13target_fuzz__INtBO_11UsingReaderpE9read_args4ArgsNtNtNtCsHIej2QEFI5_3std2io5stdio5StdinEBS_
FNDA:0,_RINvCseNzKavzW6Gi_17test_fuzz_runtime9read_argsNtNvMNtNtCsfL22ijsdh9Q_5debug4hang13target_fuzz__INtBO_11UsingReaderpE9read_args4ArgsNtNtNtCsHIej2QEFI5_3std2io5stdio5StdinEBS_
FNDA:0,_RINvCseNzKavzW6Gi_17test_fuzz_runtime9read_argsNtNvMNtNtCsfL22ijsdh9Q_5debug5crash13target_fuzz__INtBO_11UsingReaderpE9read_args4ArgsNtNtNtCsHIej2QEFI5_3std2io5stdio5StdinEBS_
FNDA:0,_RINvCseNzKavzW6Gi_17test_fuzz_runtime9read_argsNtNvMNtNtCsgyJtF4GtVdY_10conversion11uncloneable13target_fuzz__INtBO_11UsingReaderpE9read_args4ArgsNtNtNtCsHIej2QEFI5_3std2io5stdio5StdinEBS_
FNDA:0,_RINvCseNzKavzW6Gi_17test_fuzz_runtime9read_argsNtNvMNtNtCsgyJtF4GtVdY_10conversion4path13target_fuzz__INtBO_11UsingReaderpE9read_args4ArgsNtNtNtCsHIej2QEFI5_3std2io5stdio5StdinEBS_
FNDA:0,_RINvCseNzKavzW6Gi_17test_fuzz_runtime9read_argsNtNvMNtNtCsgyJtF4GtVdY_10conversion5array13target_fuzz__INtBO_11UsingReaderpE9read_args4ArgsNtNtNtCsHIej2QEFI5_3std2io5stdio5StdinEBS_
FNDA:0,_RINvCseNzKavzW6Gi_17test_fuzz_runtime9read_argsNtNvMNtNtCsgyJtF4GtVdY_10conversion7mutable13target_fuzz__INtBO_11UsingReaderpE9read_args4ArgsNtNtNtCsHIej2QEFI5_3std2io5stdio5StdinEBS_
FNDA:0,_RINvCseNzKavzW6Gi_17test_fuzz_runtime9read_argsNtNvMNtNtCsgyJtF4GtVdY_10conversion8lifetime13target_fuzz__INtBO_11UsingReaderpE9read_args4ArgsNtNtNtCsHIej2QEFI5_3std2io5stdio5StdinEBS_
FNDA:0,_RINvCseNzKavzW6Gi_17test_fuzz_runtime9read_argsNtNvMNtNtCsgyJtF4GtVdY_10conversion8receiver20x_target_self_fuzz__INtBO_11UsingReaderpE9read_args4ArgsNtNtNtCsHIej2QEFI5_3std2io5stdio5StdinEBS_
FNDA:0,_RINvCseNzKavzW6Gi_17test_fuzz_runtime9read_argsNtNvMNtNtCsgyJtF4GtVdY_10conversion8receiver21x_target_other_fuzz__INtBO_11UsingReaderpE9read_args4ArgsNtNtNtCsHIej2QEFI5_3std2io5stdio5StdinEBS_
FNDA:0,_RINvCseNzKavzW6Gi_17test_fuzz_runtime9read_argsNtNvMNtNtCsiGGxYnMUpAI_13auto_generate6signed13target_fuzz__INtBO_11UsingReaderpE9read_args4ArgsNtNtNtCsHIej2QEFI5_3std2io5stdio5StdinEBS_
FNDA:0,_RINvCseNzKavzW6Gi_17test_fuzz_runtime9read_argsNtNvMNtNtCsiGGxYnMUpAI_13auto_generate8unsigned13target_fuzz__INtBO_11UsingReaderpE9read_args4ArgsNtNtNtCsHIej2QEFI5_3std2io5stdio5StdinEBS_
FNDA:0,_RINvCseNzKavzW6Gi_17test_fuzz_runtime9read_argsppEB2_
FNDA:0,_RINvCsh5MssUcn8TK_17serde_combinators17compose_serializeINtNtNtNtCskruJqO5s2DS_7bincode8features5serde3ser12SerdeEncoderINtNtNtB11_3enc7encoder11EncoderImplNtNtBZ_10impl_alloc9VecWriterINtNtB11_6config13ConfigurationNtB30_12LittleEndianNtB30_6VarintINtB30_5LimitKj40000000_EEEEAhj20_B4r_INvYINtNtB2_5type_4TypeB4r_ENtB2_13SerializeWith9serializeBS_ENCINvXNtB2_4ref_INtB5H_4RefFB4F_EB53_9serializeBS_E0ECsfODoU0UL7aq_11manual_leak
FNDA:0,_RINvCsh5MssUcn8TK_17serde_combinators19compose_deserializeINtNtNtNtCskruJqO5s2DS_7bincode8features5serde8de_owned12SerdeDecoderINtNtNtB13_2de7decoder11DecoderImplINtNtB11_8impl_std8IoReaderQNtNtNtCsHIej2QEFI5_3std2io5stdio5StdinEINtNtB13_6config13ConfigurationNtB3I_12LittleEndianNtB3I_6VarintINtB3I_5LimitKj40000000_EEuEERAhj20_B5b_INvYINtNtB2_5type_4TypeB5b_ENtB2_15DeserializeWith11deserializeBU_ENCINvXs_NtB2_4ref_INtB6y_4RefFB5p_EB5N_11deserializeBU_E0ECsfODoU0UL7aq_11manual_leak
FNDA:0,_RINvMs0_CseNzKavzW6Gi_17test_fuzz_runtimeINtB6_8TryDebugAhj0_E5applyuECsbZ6qTFMlSKY_5serde
FNDA:0,_RINvMs0_CseNzKavzW6Gi_17test_fuzz_runtimeINtB6_8TryDebugAhj1_E5applyuECsbZ6qTFMlSKY_5serde
FNDA:0,_RINvMs0_CseNzKavzW6Gi_17test_fuzz_runtimeINtB6_8TryDebugAhj2_E5applyuECsbZ6qTFMlSKY_5serde
FNDA:0,_RINvMs0_CseNzKavzW6Gi_17test_fuzz_runtimeINtB6_8TryDebugINtCsaVSfY7O0uYs_7generic3BazNtBV_3BarEE5applyuEBV_
FNDA:0,_RINvMs0_CseNzKavzW6Gi_17test_fuzz_runtimeINtB6_8TryDebugINtNtCs3XFJfFEDSOQ_4core6option6OptionhEE5applyuECsbZ6qTFMlSKY_5serde
FNDA:0,_RINvMs0_CseNzKavzW6Gi_17test_fuzz_runtimeINtB6_8TryDebugINtNtCs3XFJfFEDSOQ_4core6result6ResultNtNtBX_4time8DurationNtNtCs3mYhVbIHfbi_14parse_duration5parse5ErrorEE5applyuECs6z3aMDs3O5H_14parse_duration
FNDA:0,_RINvMs0_CseNzKavzW6Gi_17test_fuzz_runtimeINtB6_8TryDebugINtNtCsgag4BwXrjBQ_5alloc3vec3VechEE5applyuECsbZ6qTFMlSKY_5serde
FNDA:0,_RINvMs0_CseNzKavzW6Gi_17test_fuzz_runtimeINtB6_8TryDebugINtNtCsgag4BwXrjBQ_5alloc3vec3VechEE5applyuECsfOIDT8lUV2L_7mut_ref
FNDA:0,_RINvMs0_CseNzKavzW6Gi_17test_fuzz_runtimeINtB6_8TryDebugINtNtCsgag4BwXrjBQ_5alloc4sync3ArcINtNtNtNtCsHIej2QEFI5_3std11collections4hash3set7HashSetmEEE5applyuECsfEcBWhN4Na3_3arc
FNDA:0,_RINvMs0_CseNzKavzW6Gi_17test_fuzz_runtimeINtB6_8TryDebugINtNtNtNtCsHIej2QEFI5_3std11collections4hash3set7HashSethEE5applyuECsbZ6qTFMlSKY_5serde
FNDA:0,_RINvMs0_CseNzKavzW6Gi_17test_fuzz_runtimeINtB6_8TryDebugINtNtNtNtCsgag4BwXrjBQ_5alloc11collections5btree3map8BTreeMaphhEE5applyuECsbZ6qTFMlSKY_5serde
FNDA:0,_RINvMs0_CseNzKavzW6Gi_17test_fuzz_runtimeINtB6_8TryDebugNtCsaVSfY7O0uYs_7generic3BarE5applyuEBU_
FNDA:0,_RINvMs0_CseNzKavzW6Gi_17test_fuzz_runtimeINtB6_8TryDebugNtCsaVSfY7O0uYs_7generic6StructE5applyuEBU_
FNDA:0,_RINvMs0_CseNzKavzW6Gi_17test_fuzz_runtimeINtB6_8TryDebugNtCsfODoU0UL7aq_11manual_leak10WrappedKeyE5applyuEBU_
FNDA:0,_RINvMs0_CseNzKavzW6Gi_17test_fuzz_runtimeINtB6_8TryDebugNtNtCsfL22ijsdh9Q_5debug4hang6StructE5applyuEBW_
FNDA:0,_RINvMs0_CseNzKavzW6Gi_17test_fuzz_runtimeINtB6_8TryDebugNtNtCsfL22ijsdh9Q_5debug5crash6StructE5applyuEBW_
FNDA:0,_RINvMs0_CseNzKavzW6Gi_17test_fuzz_runtimeINtB6_8TryDebugNtNtCsgag4BwXrjBQ_5alloc6string6StringE5applyuECs5fNIG3PZaJo_11hello_world
FNDA:0,_RINvMs0_CseNzKavzW6Gi_17test_fuzz_runtimeINtB6_8TryDebugNtNtCsgag4BwXrjBQ_5alloc6string6StringE5applyuECs6z3aMDs3O5H_14parse_duration
FNDA:0,_RINvMs0_CseNzKavzW6Gi_17test_fuzz_runtimeINtB6_8TryDebugNtNtCsgag4BwXrjBQ_5alloc6string6StringE5applyuECsbZ6qTFMlSKY_5serde
FNDA:0,_RINvMs0_CseNzKavzW6Gi_17test_fuzz_runtimeINtB6_8TryDebugNtNtCsgag4BwXrjBQ_5alloc6string6StringE5applyuECscaf2gEuSGn5_6qwerty
FNDA:0,_RINvMs0_CseNzKavzW6Gi_17test_fuzz_runtimeINtB6_8TryDebugNtNtCsgag4BwXrjBQ_5alloc6string6StringE5applyuECsfOIDT8lUV2L_7mut_ref
FNDA:0,_RINvMs0_CseNzKavzW6Gi_17test_fuzz_runtimeINtB6_8TryDebugNtNtCsgyJtF4GtVdY_10conversion4path10LeakedPathE5applyuEBW_
FNDA:0,_RINvMs0_CseNzKavzW6Gi_17test_fuzz_runtimeINtB6_8TryDebugNtNtCsgyJtF4GtVdY_10conversion5array11LeakedArrayE5applyuEBW_
FNDA:0,_RINvMs0_CseNzKavzW6Gi_17test_fuzz_runtimeINtB6_8TryDebugThEE5applyuECsbZ6qTFMlSKY_5serde
FNDA:0,_RINvMs0_CseNzKavzW6Gi_17test_fuzz_runtimeINtB6_8TryDebugThhEE5applyuECsbZ6qTFMlSKY_5serde
FNDA:0,_RINvMs0_CseNzKavzW6Gi_17test_fuzz_runtimeINtB6_8TryDebugbE5applyuECs9i11WczUoNj_7profile
FNDA:0,_RINvMs0_CseNzKavzW6Gi_17test_fuzz_runtimeINtB6_8TryDebugbE5applyuECsgZ69XjcSWhh_6assert
FNDA:0,_RINvMs0_CseNzKavzW6Gi_17test_fuzz_runtimeINtB6_8TryDebugbE5applyuECsjk8KY6qq2Wr_8parallel
FNDA:0,_RINvMs0_CseNzKavzW6Gi_17test_fuzz_runtimeINtB6_8TryDebugbE5applyuECskkeazd6lurB_15associated_type
FNDA:0,_RINvMs0_CseNzKavzW6Gi_17test_fuzz_runtimeINtB6_8TryDebugjE5applyuECs7l6y1YLWhzH_5alloc
FNDA:0,_RINvMs0_CseNzKavzW6Gi_17test_fuzz_runtimeINtB6_8TryDebugjE5applyuECsfEcBWhN4Na3_3arc
FNDA:0,_RINvMs0_CseNzKavzW6Gi_17test_fuzz_runtimeINtB6_8TryDebuglE5applyuECsb7JfYwj8ipQ_10serde_attr
FNDA:0,_RINvMs0_CseNzKavzW6Gi_17test_fuzz_runtimeINtB6_8TryDebugpE5applypEB6_
FNDA:0,_RINvMs0_CseNzKavzW6Gi_17test_fuzz_runtimeINtB6_8TryDebuguE5applyuECs2zeNb6jgslg_19self_ty_in_mod_name
FNDA:0,_RINvMs0_CseNzKavzW6Gi_17test_fuzz_runtimeINtB6_8TryDebuguE5applyuECs4RwwcRvri8p_7default
FNDA:0,_RINvMs0_CseNzKavzW6Gi_17test_fuzz_runtimeINtB6_8TryDebuguE5applyuECs4jNeg51vteg_8lifetime
FNDA:0,_RINvMs0_CseNzKavzW6Gi_17test_fuzz_runtimeINtB6_8TryDebuguE5applyuECs5fNIG3PZaJo_11hello_world
FNDA:0,_RINvMs0_CseNzKavzW6Gi_17test_fuzz_runtimeINtB6_8TryDebuguE5applyuECs6fBdTSegfKf_14test_fuzz_impl
FNDA:0,_RINvMs0_CseNzKavzW6Gi_17test_fuzz_runtimeINtB6_8TryDebuguE5applyuECs7l6y1YLWhzH_5alloc
FNDA:0,_RINvMs0_CseNzKavzW6Gi_17test_fuzz_runtimeINtB6_8TryDebuguE5applyuECs9i11WczUoNj_7profile
FNDA:0,_RINvMs0_CseNzKavzW6Gi_17test_fuzz_runtimeINtB6_8TryDebuguE5applyuECsaVSfY7O0uYs_7generic
FNDA:0,_RINvMs0_CseNzKavzW6Gi_17test_fuzz_runtimeINtB6_8TryDebuguE5applyuECsb7JfYwj8ipQ_10serde_attr
FNDA:0,_RINvMs0_CseNzKavzW6Gi_17test_fuzz_runtimeINtB6_8TryDebuguE5applyuECsbZ6qTFMlSKY_5serde
FNDA:0,_RINvMs0_CseNzKavzW6Gi_17test_fuzz_runtimeINtB6_8TryDebuguE5applyuECsbupd9d71YLx_16calm_and_panicky
FNDA:0,_RINvMs0_CseNzKavzW6Gi_17test_fuzz_runtimeINtB6_8TryDebuguE5applyuECscaf2gEuSGn5_6qwerty
FNDA:0,_RINvMs0_CseNzKavzW6Gi_17test_fuzz_runtimeINtB6_8TryDebuguE5applyuECsfEcBWhN4Na3_3arc
FNDA:0,_RINvMs0_CseNzKavzW6Gi_17test_fuzz_runtimeINtB6_8TryDebuguE5applyuECsfL22ijsdh9Q_5debug
FNDA:0,_RINvMs0_CseNzKavzW6Gi_17test_fuzz_runtimeINtB6_8TryDebuguE5applyuECsfODoU0UL7aq_11manual_leak
FNDA:0,_RINvMs0_CseNzKavzW6Gi_17test_fuzz_runtimeINtB6_8TryDebuguE5applyuECsfOIDT8lUV2L_7mut_ref
FNDA:0,_RINvMs0_CseNzKavzW6Gi_17test_fuzz_runtimeINtB6_8TryDebuguE5applyuECsfrSB0FWCrTD_6rename
FNDA:0,_RINvMs0_CseNzKavzW6Gi_17test_fuzz_runtimeINtB6_8TryDebuguE5applyuECsgZ69XjcSWhh_6assert
FNDA:0,_RINvMs0_CseNzKavzW6Gi_17test_fuzz_runtimeINtB6_8TryDebuguE5applyuECsgyJtF4GtVdY_10conversion
FNDA:0,_RINvMs0_CseNzKavzW6Gi_17test_fuzz_runtimeINtB6_8TryDebuguE5applyuECsiGGxYnMUpAI_13auto_generate
FNDA:0,_RINvMs0_CseNzKavzW6Gi_17test_fuzz_runtimeINtB6_8TryDebuguE5applyuECsikhsy0ZvG4z_4cast
FNDA:0,_RINvMs0_CseNzKavzW6Gi_17test_fuzz_runtimeINtB6_8TryDebuguE5applyuECsjk8KY6qq2Wr_8parallel
FNDA:0,_RINvMs0_CseNzKavzW6Gi_17test_fuzz_runtimeINtB6_8TryDebuguE5applyuECskPkSWzOTnW2_9collision
FNDA:0,_RINvMs0_CseNzKavzW6Gi_17test_fuzz_runtimeINtB6_8TryDebugxE5applyuECsiGGxYnMUpAI_13auto_generate
FNDA:0,_RINvMs0_CseNzKavzW6Gi_17test_fuzz_runtimeINtB6_8TryDebugyE5applyuECsiGGxYnMUpAI_13auto_generate
FNDA:0,_RINvMs0_CseNzKavzW6Gi_17test_fuzz_runtimeINtB6_8TryDebugyE5applyuECsikhsy0ZvG4z_4cast
FNDA:0,_RINvNtCs2XBbTT2Tgsj_18test_fuzz_internal12serde_format11deserializeINtNvMNtCs6ZJvwNFZ5Lo_11return_type16swap_swap_fuzz__INtB19_11UsingReaderpE9read_args4ArgsubENtNtNtCsHIej2QEFI5_3std2io5stdio5StdinEB1b_
FNDA:0,_RINvNtCs2XBbTT2Tgsj_18test_fuzz_internal12serde_format11deserializeINtNvMNtCsaVSfY7O0uYs_7generic14baz_qux_fuzz__INtB19_11UsingReaderpE9read_args4ArgsNtB1b_3BarENtNtNtCsHIej2QEFI5_3std2io5stdio5StdinEB1b_
FNDA:0,_RINvNtCs2XBbTT2Tgsj_18test_fuzz_internal12serde_format11deserializeINtNvMNtCsaVSfY7O0uYs_7generic20struct_target_fuzz__INtB19_11UsingReaderpE9read_args4ArgsNtB1b_3BarENtNtNtCsHIej2QEFI5_3std2io5stdio5StdinEB1b_
FNDA:0,_RINvNtCs2XBbTT2Tgsj_18test_fuzz_internal12serde_format11deserializeINtNvMNtCsaVSfY7O0uYs_7generic26struct_target_bound_fuzz__INtB19_11UsingReaderpE9read_args4ArgsNtB1b_3BarINtB1b_3BazB2A_EENtNtNtCsHIej2QEFI5_3std2io5stdio5StdinEB1b_
FNDA:0,_RINvNtCs2XBbTT2Tgsj_18test_fuzz_internal12serde_format11deserializeINtNvMNtCsaVSfY7O0uYs_7generic33struct_target_where_clause_fuzz__INtB19_11UsingReaderpE9read_args4ArgsNtB1b_3BarINtB1b_3BazB2H_EENtNtNtCsHIej2QEFI5_3std2io5stdio5StdinEB1b_
FNDA:0,_RINvNtCs2XBbTT2Tgsj_18test_fuzz_internal12serde_format11deserializeINtNvMNtCskkeazd6lurB_15associated_type20serializes_to_fuzz__INtB19_11UsingReaderpE9read_args4ArgsNtB1b_7AddressENtNtNtCsHIej2QEFI5_3std2io5stdio5StdinEB1b_
FNDA:0,_RINvNtCs2XBbTT2Tgsj_18test_fuzz_internal12serde_format11deserializeINtNvMNtNtCsaVSfY7O0uYs_7generic27receiverless_trait_function20struct_target_fuzz__INtB19_11UsingReaderpE9read_args4ArgsNtB1d_3BarENtNtNtCsHIej2QEFI5_3std2io5stdio5StdinEB1d_
FNDA:0,_RINvNtCs2XBbTT2Tgsj_18test_fuzz_internal12serde_format11deserializeNtNvMNtCs2zeNb6jgslg_19self_ty_in_mod_name20struct_target_fuzz__INtB18_11UsingReaderpE9read_args4ArgsNtNtNtCsHIej2QEFI5_3std2io5stdio5StdinEB1a_
FNDA:0,_RINvNtCs2XBbTT2Tgsj_18test_fuzz_internal12serde_format11deserializeNtNvMNtCs4MGHVrkl72m_4from15bar_from_fuzz__INtB18_11UsingReaderpE9read_args4ArgsNtNtNtCsHIej2QEFI5_3std2io5stdio5StdinEB1a_
FNDA:0,_RINvNtCs2XBbTT2Tgsj_18test_fuzz_internal12serde_format11deserializeNtNvMNtCs4MGHVrkl72m_4from15baz_into_fuzz__INtB18_11UsingReaderpE9read_args4ArgsNtNtNtCsHIej2QEFI5_3std2io5stdio5StdinEB1a_
FNDA:0,_RINvNtCs2XBbTT2Tgsj_18test_fuzz_internal12serde_format11deserializeNtNvMNtCs4MGHVrkl72m_4from19baz_try_from_fuzz__INtB18_11UsingReaderpE9read_args4ArgsNtNtNtCsHIej2QEFI5_3std2io5stdio5StdinEB1a_
FNDA:0,_RINvNtCs2XBbTT2Tgsj_18test_fuzz_internal12serde_format11deserializeNtNvMNtCs4jNeg51vteg_8lifetime13target_fuzz__INtB18_11UsingReaderpE9read_args4ArgsNtNtNtCsHIej2QEFI5_3std2io5stdio5StdinEB1a_
FNDA:0,_RINvNtCs2XBbTT2Tgsj_18test_fuzz_internal12serde_format11deserializeNtNvMNtCs6fBdTSegfKf_14test_fuzz_impl17struct_bar_fuzz__INtB18_11UsingReaderpE9read_args4ArgsNtNtNtCsHIej2QEFI5_3std2io5stdio5StdinEB1a_
FNDA:0,_RINvNtCs2XBbTT2Tgsj_18test_fuzz_internal12serde_format11deserializeNtNvMNtCs6fBdTSegfKf_14test_fuzz_impl17struct_foo_fuzz__INtB18_11UsingReaderpE9read_args4ArgsNtNtNtCsHIej2QEFI5_3std2io5stdio5StdinEB1a_
FNDA:0,_RINvNtCs2XBbTT2Tgsj_18test_fuzz_internal12serde_format11deserializeNtNvMNtCs6z3aMDs3O5H_14parse_duration12parse_fuzz__INtB18_11UsingReaderpE9read_args4ArgsNtNtNtCsHIej2QEFI5_3std2io5stdio5StdinEB1a_
FNDA:0,_RINvNtCs2XBbTT2Tgsj_18test_fuzz_internal12serde_format11deserializeNtNvMNtCs7l6y1YLWhzH_5alloc13target_fuzz__INtB18_11UsingReaderpE9read_args4ArgsNtNtNtCsHIej2QEFI5_3std2io5stdio5StdinEB1a_
FNDA:0,_RINvNtCs2XBbTT2Tgsj_18test_fuzz_internal12serde_format11deserializeNtNvMNtCs9i11WczUoNj_7profile13target_fuzz__INtB18_11UsingReaderpE9read_args4ArgsNtNtNtCsHIej2QEFI5_3std2io5stdio5StdinEB1a_
FNDA:0,_RINvNtCs2XBbTT2Tgsj_18test_fuzz_internal12serde_format11deserializeNtNvMNtCsb7JfYwj8ipQ_10serde_attr13target_fuzz__INtB18_11UsingReaderpE9read_args4ArgsNtNtNtCsHIej2QEFI5_3std2io5stdio5StdinEB1a_
FNDA:0,_RINvNtCs2XBbTT2Tgsj_18test_fuzz_internal12serde_format11deserializeNtNvMNtCsbupd9d71YLx_16calm_and_panicky11calm_fuzz__INtB18_11UsingReaderpE9read_args4ArgsNtNtNtCsHIej2QEFI5_3std2io5stdio5StdinEB1a_
FNDA:0,_RINvNtCs2XBbTT2Tgsj_18test_fuzz_internal12serde_format11deserializeNtNvMNtCsbupd9d71YLx_16calm_and_panicky14panicky_fuzz__INtB18_11UsingReaderpE9read_args4ArgsNtNtNtCsHIej2QEFI5_3std2io5stdio5StdinEB1a_
FNDA:0,_RINvNtCs2XBbTT2Tgsj_18test_fuzz_internal12serde_format11deserializeNtNvMNtCscaf2gEuSGn5_6qwerty13target_fuzz__INtB18_11UsingReaderpE9read_args4ArgsNtNtNtCsHIej2QEFI5_3std2io5stdio5StdinEB1a_
FNDA:0,_RINvNtCs2XBbTT2Tgsj_18test_fuzz_internal12serde_format11deserializeNtNvMNtCsfEcBWhN4Na3_3arc13target_fuzz__INtB18_11UsingReaderpE9read_args4ArgsNtNtNtCsHIej2QEFI5_3std2io5stdio5StdinEB1a_
FNDA:0,_RINvNtCs2XBbTT2Tgsj_18test_fuzz_internal12serde_format11deserializeNtNvMNtCsfODoU0UL7aq_11manual_leak23wrapped_key_dump_fuzz__INtB18_11UsingReaderpE9read_args4ArgsNtNtNtCsHIej2QEFI5_3std2io5stdio5StdinEB1a_
FNDA:0,_RINvNtCs2XBbTT2Tgsj_18test_fuzz_internal12serde_format11deserializeNtNvMNtCsfOIDT8lUV2L_7mut_ref17target_str_fuzz__INtB18_11UsingReaderpE9read_args4ArgsNtNtNtCsHIej2QEFI5_3std2io5stdio5StdinEB1a_
FNDA:0,_RINvNtCs2XBbTT2Tgsj_18test_fuzz_internal12serde_format11deserializeNtNvMNtCsfOIDT8lUV2L_7mut_ref19target_slice_fuzz__INtB18_11UsingReaderpE9read_args4ArgsNtNtNtCsHIej2QEFI5_3std2io5stdio5StdinEB1a_
FNDA:0,_RINvNtCs2XBbTT2Tgsj_18test_fuzz_internal12serde_format11deserializeNtNvMNtCsfrSB0FWCrTD_6rename10bar_fuzz__INtB18_11UsingReaderpE9read_args4ArgsNtNtNtCsHIej2QEFI5_3std2io5stdio5StdinEB1a_
FNDA:0,_RINvNtCs2XBbTT2Tgsj_18test_fuzz_internal12serde_format11deserializeNtNvMNtCsgZ69XjcSWhh_6assert13target_fuzz__INtB18_11UsingReaderpE9read_args4ArgsNtNtNtCsHIej2QEFI5_3std2io5stdio5StdinEB1a_
FNDA:0,_RINvNtCs2XBbTT2Tgsj_18test_fuzz_internal12serde_format11deserializeNtNvMNtCsikhsy0ZvG4z_4cast13target_fuzz__INtB18_11UsingReaderpE9read_args4ArgsNtNtNtCsHIej2QEFI5_3std2io5stdio5StdinEB1a_
FNDA:0,_RINvNtCs2XBbTT2Tgsj_18test_fuzz_internal12serde_format11deserializeNtNvMNtCsjk8KY6qq2Wr_8parallel15target_0_fuzz__INtB18_11UsingReaderpE9read_args4ArgsNtNtNtCsHIej2QEFI5_3std2io5stdio5StdinEB1a_
FNDA:0,_RINvNtCs2XBbTT2Tgsj_18test_fuzz_internal12serde_format11deserializeNtNvMNtCsjk8KY6qq2Wr_8parallel15target_1_fuzz__INtB18_11UsingReaderpE9read_args4ArgsNtNtNtCsHIej2QEFI5_3std2io5stdio5StdinEB1a_
FNDA:0,_RINvNtCs2XBbTT2Tgsj_18test_fuzz_internal12serde_format11deserializeNtNvMNtCsjk8KY6qq2Wr_8parallel15target_2_fuzz__INtB18_11UsingReaderpE9read_args4ArgsNtNtNtCsHIej2QEFI5_3std2io5stdio5StdinEB1a_
FNDA:0,_RINvNtCs2XBbTT2Tgsj_18test_fuzz_internal12serde_format11deserializeNtNvMNtCsjk8KY6qq2Wr_8parallel15target_3_fuzz__INtB18_11UsingReaderpE9read_args4ArgsNtNtNtCsHIej2QEFI5_3std2io5stdio5StdinEB1a_
FNDA:0,_RINvNtCs2XBbTT2Tgsj_18test_fuzz_internal12serde_format11deserializeNtNvMNtCsjk8KY6qq2Wr_8parallel15target_4_fuzz__INtB18_11UsingReaderpE9read_args4ArgsNtNtNtCsHIej2QEFI5_3std2io5stdio5StdinEB1a_
FNDA:0,_RINvNtCs2XBbTT2Tgsj_18test_fuzz_internal12serde_format11deserializeNtNvMNtCsjk8KY6qq2Wr_8parallel15target_5_fuzz__INtB18_11UsingReaderpE9read_args4ArgsNtNtNtCsHIej2QEFI5_3std2io5stdio5StdinEB1a_
FNDA:0,_RINvNtCs2XBbTT2Tgsj_18test_fuzz_internal12serde_format11deserializeNtNvMNtCskPkSWzOTnW2_9collision11test_fuzz__INtB18_11UsingReaderpE9read_args4ArgsNtNtNtCsHIej2QEFI5_3std2io5stdio5StdinEB1a_
FNDA:0,_RINvNtCs2XBbTT2Tgsj_18test_fuzz_internal12serde_format11deserializeNtNvMNtNtCs4RwwcRvri8p_7default10no_default13target_fuzz__INtB18_11UsingReaderpE9read_args4ArgsNtNtNtCsHIej2QEFI5_3std2io5stdio5StdinEB1c_
FNDA:0,_RINvNtCs2XBbTT2Tgsj_18test_fuzz_internal12serde_format11deserializeNtNvMNtNtCs4RwwcRvri8p_7default7default13target_fuzz__INtB18_11UsingReaderpE9read_args4ArgsNtNtNtCsHIej2QEFI5_3std2io5stdio5StdinEB1c_
FNDA:0,_RINvNtCs2XBbTT2Tgsj_18test_fuzz_internal12serde_format11deserializeNtNvMNtNtCsbZ6qTFMlSKY_5serde10byte_array13target_fuzz__INtB18_11UsingReaderpE9read_args4ArgsNtNtNtCsHIej2QEFI5_3std2io5stdio5StdinEB1c_
FNDA:0,_RINvNtCs2XBbTT2Tgsj_18test_fuzz_internal12serde_format11deserializeNtNvMNtNtCsbZ6qTFMlSKY_5serde11unit_struct13target_fuzz__INtB18_11UsingReaderpE9read_args4ArgsNtNtNtCsHIej2QEFI5_3std2io5stdio5StdinEB1c_
FNDA:0,_RINvNtCs2XBbTT2Tgsj_18test_fuzz_internal12serde_format11deserializeNtNvMNtNtCsbZ6qTFMlSKY_5serde12tuple_struct13target_fuzz__INtB18_11UsingReaderpE9read_args4ArgsNtNtNtCsHIej2QEFI5_3std2io5stdio5StdinEB1c_
FNDA:0,_RINvNtCs2XBbTT2Tgsj_18test_fuzz_internal12serde_format11deserializeNtNvMNtNtCsbZ6qTFMlSKY_5serde12unit_variant13target_fuzz__INtB18_11UsingReaderpE9read_args4ArgsNtNtNtCsHIej2QEFI5_3std2io5stdio5StdinEB1c_
FNDA:0,_RINvNtCs2XBbTT2Tgsj_18test_fuzz_internal12serde_format11deserializeNtNvMNtNtCsbZ6qTFMlSKY_5serde13tuple_variant13target_fuzz__INtB18_11UsingReaderpE9read_args4ArgsNtNtNtCsHIej2QEFI5_3std2io5stdio5StdinEB1c_
FNDA:0,_RINvNtCs2XBbTT2Tgsj_18test_fuzz_internal12serde_format11deserializeNtNvMNtNtCsbZ6qTFMlSKY_5serde14newtype_struct13target_fuzz__INtB18_11UsingReaderpE9read_args4ArgsNtNtNtCsHIej2QEFI5_3std2io5stdio5StdinEB1c_
FNDA:0,_RINvNtCs2XBbTT2Tgsj_18test_fuzz_internal12serde_format11deserializeNtNvMNtNtCsbZ6qTFMlSKY_5serde14struct_variant13target_fuzz__INtB18_11UsingReaderpE9read_args4ArgsNtNtNtCsHIej2QEFI5_3std2io5stdio5StdinEB1c_
FNDA:0,_RINvNtCs2XBbTT2Tgsj_18test_fuzz_internal12serde_format11deserializeNtNvMNtNtCsbZ6qTFMlSKY_5serde15newtype_variant13target_fuzz__INtB18_11UsingReaderpE9read_args4ArgsNtNtNtCsHIej2QEFI5_3std2io5stdio5StdinEB1c_
FNDA:0,_RINvNtCs2XBbTT2Tgsj_18test_fuzz_internal12serde_format11deserializeNtNvMNtNtCsbZ6qTFMlSKY_5serde3map13target_fuzz__INtB18_11UsingReaderpE9read_args4ArgsNtNtNtCsHIej2QEFI5_3std2io5stdio5StdinEB1c_
FNDA:0,_RINvNtCs2XBbTT2Tgsj_18test_fuzz_internal12serde_format11deserializeNtNvMNtNtCsbZ6qTFMlSKY_5serde3seq13target_fuzz__INtB18_11UsingReaderpE9read_args4ArgsNtNtNtCsHIej2QEFI5_3std2io5stdio5StdinEB1c_
FNDA:0,_RINvNtCs2XBbTT2Tgsj_18test_fuzz_internal12serde_format11deserializeNtNvMNtNtCsbZ6qTFMlSKY_5serde4unit13target_fuzz__INtB18_11UsingReaderpE9read_args4ArgsNtNtNtCsHIej2QEFI5_3std2io5stdio5StdinEB1c_
FNDA:0,_RINvNtCs2XBbTT2Tgsj_18test_fuzz_internal12serde_format11deserializeNtNvMNtNtCsbZ6qTFMlSKY_5serde5tuple13target_fuzz__INtB18_11UsingReaderpE9read_args4ArgsNtNtNtCsHIej2QEFI5_3std2io5stdio5StdinEB1c_
FNDA:0,_RINvNtCs2XBbTT2Tgsj_18test_fuzz_internal12serde_format11deserializeNtNvMNtNtCsbZ6qTFMlSKY_5serde6option13target_fuzz__INtB18_11UsingReaderpE9read_args4ArgsNtNtNtCsHIej2QEFI5_3std2io5stdio5StdinEB1c_
FNDA:0,_RINvNtCs2XBbTT2Tgsj_18test_fuzz_internal12serde_format11deserializeNtNvMNtNtCsbZ6qTFMlSKY_5serde6string13target_fuzz__INtB18_11UsingReaderpE9read_args4ArgsNtNtNtCsHIej2QEFI5_3std2io5stdio5StdinEB1c_
FNDA:0,_RINvNtCs2XBbTT2Tgsj_18test_fuzz_internal12serde_format11deserializeNtNvMNtNtCsbZ6qTFMlSKY_5serde6strukt13target_fuzz__INtB18_11UsingReaderpE9read_args4ArgsNtNtNtCsHIej2QEFI5_3std2io5stdio5StdinEB1c_
FNDA:0,_RINvNtCs2XBbTT2Tgsj_18test_fuzz_internal12serde_format11deserializeNtNvMNtNtCsfL22ijsdh9Q_5debug4hang13target_fuzz__INtB18_11UsingReaderpE9read_args4ArgsNtNtNtCsHIej2QEFI5_3std2io5stdio5StdinEB1c_
FNDA:0,_RINvNtCs2XBbTT2Tgsj_18test_fuzz_internal12serde_format11deserializeNtNvMNtNtCsfL22ijsdh9Q_5debug5crash13target_fuzz__INtB18_11UsingReaderpE9read_args4ArgsNtNtNtCsHIej2QEFI5_3std2io5stdio5StdinEB1c_
FNDA:0,_RINvNtCs2XBbTT2Tgsj_18test_fuzz_internal12serde_format11deserializeNtNvMNtNtCsgyJtF4GtVdY_10conversion11uncloneable13target_fuzz__INtB18_11UsingReaderpE9read_args4ArgsNtNtNtCsHIej2QEFI5_3std2io5stdio5StdinEB1c_
FNDA:0,_RINvNtCs2XBbTT2Tgsj_18test_fuzz_internal12serde_format11deserializeNtNvMNtNtCsgyJtF4GtVdY_10conversion4path13target_fuzz__INtB18_11UsingReaderpE9read_args4ArgsNtNtNtCsHIej2QEFI5_3std2io5stdio5StdinEB1c_
FNDA:0,_RINvNtCs2XBbTT2Tgsj_18test_fuzz_internal12serde_format11deserializeNtNvMNtNtCsgyJtF4GtVdY_10conversion5array13target_fuzz__INtB18_11UsingReaderpE9read_args4ArgsNtNtNtCsHIej2QEFI5_3std2io5stdio5StdinEB1c_
FNDA:0,_RINvNtCs2XBbTT2Tgsj_18test_fuzz_internal12serde_format11deserializeNtNvMNtNtCsgyJtF4GtVdY_10conversion7mutable13target_fuzz__INtB18_11UsingReaderpE9read_args4ArgsNtNtNtCsHIej2QEFI5_3std2io5stdio5StdinEB1c_
FNDA:0,_RINvNtCs2XBbTT2Tgsj_18test_fuzz_internal12serde_format11deserializeNtNvMNtNtCsgyJtF4GtVdY_10conversion8lifetime13target_fuzz__INtB18_11UsingReaderpE9read_args4ArgsNtNtNtCsHIej2QEFI5_3std2io5stdio5StdinEB1c_
FNDA:0,_RINvNtCs2XBbTT2Tgsj_18test_fuzz_internal12serde_format11deserializeNtNvMNtNtCsgyJtF4GtVdY_10conversion8receiver20x_target_self_fuzz__INtB18_11UsingReaderpE9read_args4ArgsNtNtNtCsHIej2QEFI5_3std2io5stdio5StdinEB1c_
FNDA:0,_RINvNtCs2XBbTT2Tgsj_18test_fuzz_internal12serde_format11deserializeNtNvMNtNtCsgyJtF4GtVdY_10conversion8receiver21x_target_other_fuzz__INtB18_11UsingReaderpE9read_args4ArgsNtNtNtCsHIej2QEFI5_3std2io5stdio5StdinEB1c_
FNDA:0,_RINvNtCs2XBbTT2Tgsj_18test_fuzz_internal12serde_format11deserializeNtNvMNtNtCsiGGxYnMUpAI_13auto_generate6signed13target_fuzz__INtB18_11UsingReaderpE9read_args4ArgsNtNtNtCsHIej2QEFI5_3std2io5stdio5StdinEB1c_
FNDA:0,_RINvNtCs2XBbTT2Tgsj_18test_fuzz_internal12serde_format11deserializeNtNvMNtNtCsiGGxYnMUpAI_13auto_generate8unsigned13target_fuzz__INtB18_11UsingReaderpE9read_args4ArgsNtNtNtCsHIej2QEFI5_3std2io5stdio5StdinEB1c_
FNDA:0,_RINvNtCs2XBbTT2Tgsj_18test_fuzz_internal12serde_format11deserializeppEB4_
FNDA:0,_RINvNtCs2XBbTT2Tgsj_18test_fuzz_internal12serde_format9serializeINtNvNtCs6ZJvwNFZ5Lo_11return_type16swap_swap_fuzz__10write_args4ArgsubEEB17_
FNDA:0,_RINvNtCs2XBbTT2Tgsj_18test_fuzz_internal12serde_format9serializeINtNvNtCsaVSfY7O0uYs_7generic14baz_qux_fuzz__10write_args4ArgsNtB17_3BarEEB17_
FNDA:0,_RINvNtCs2XBbTT2Tgsj_18test_fuzz_internal12serde_format9serializeINtNvNtCsaVSfY7O0uYs_7generic20struct_target_fuzz__10write_args4ArgsNtB17_3BarEEB17_
FNDA:0,_RINvNtCs2XBbTT2Tgsj_18test_fuzz_internal12serde_format9serializeINtNvNtCsaVSfY7O0uYs_7generic20struct_target_fuzz__10write_args4ArgsNtB17_3FooEEB17_
FNDA:0,_RINvNtCs2XBbTT2Tgsj_18test_fuzz_internal12serde_format9serializeINtNvNtCsaVSfY7O0uYs_7generic26struct_target_bound_fuzz__10write_args4ArgsNtB17_3BarINtB17_3BazB2c_EEEB17_
FNDA:0,_RINvNtCs2XBbTT2Tgsj_18test_fuzz_internal12serde_format9serializeINtNvNtCsaVSfY7O0uYs_7generic26struct_target_bound_fuzz__10write_args4ArgsNtB17_3FooINtB17_3BazB2c_EEEB17_
FNDA:0,_RINvNtCs2XBbTT2Tgsj_18test_fuzz_internal12serde_format9serializeINtNvNtCsaVSfY7O0uYs_7generic33struct_target_where_clause_fuzz__10write_args4ArgsNtB17_3BarINtB17_3BazB2j_EEEB17_
FNDA:0,_RINvNtCs2XBbTT2Tgsj_18test_fuzz_internal12serde_format9serializeINtNvNtCsaVSfY7O0uYs_7generic33struct_target_where_clause_fuzz__10write_args4ArgsNtB17_3FooINtB17_3BazB2j_EEEB17_
FNDA:0,_RINvNtCs2XBbTT2Tgsj_18test_fuzz_internal12serde_format9serializeINtNvNtCskkeazd6lurB_15associated_type20serializes_to_fuzz__10write_args4ArgsNtB17_7AddressEEB17_
FNDA:0,_RINvNtCs2XBbTT2Tgsj_18test_fuzz_internal12serde_format9serializeINtNvNtNtCsaVSfY7O0uYs_7generic27receiverless_trait_function20struct_target_fuzz__10write_args4ArgsNtB19_3BarEEB19_
FNDA:0,_RINvNtCs2XBbTT2Tgsj_18test_fuzz_internal12serde_format9serializeNtNvNtCs2zeNb6jgslg_19self_ty_in_mod_name20struct_target_fuzz__10write_args4ArgsEB16_
FNDA:0,_RINvNtCs2XBbTT2Tgsj_18test_fuzz_internal12serde_format9serializeNtNvNtCs4MGHVrkl72m_4from15bar_from_fuzz__10write_args4ArgsEB16_
FNDA:0,_RINvNtCs2XBbTT2Tgsj_18test_fuzz_internal12serde_format9serializeNtNvNtCs4MGHVrkl72m_4from15baz_into_fuzz__10write_args4ArgsEB16_
FNDA:0,_RINvNtCs2XBbTT2Tgsj_18test_fuzz_internal12serde_format9serializeNtNvNtCs4MGHVrkl72m_4from19baz_try_from_fuzz__10write_args4ArgsEB16_
FNDA:0,_RINvNtCs2XBbTT2Tgsj_18test_fuzz_internal12serde_format9serializeNtNvNtCs4jNeg51vteg_8lifetime13target_fuzz__10write_args4ArgsEB16_
FNDA:0,_RINvNtCs2XBbTT2Tgsj_18test_fuzz_internal12serde_format9serializeNtNvNtCs5fNIG3PZaJo_11hello_world19intermediary_fuzz__10write_args4ArgsEB16_
FNDA:0,_RINvNtCs2XBbTT2Tgsj_18test_fuzz_internal12serde_format9serializeNtNvNtCs6fBdTSegfKf_14test_fuzz_impl17struct_bar_fuzz__10write_args4ArgsEB16_
FNDA:0,_RINvNtCs2XBbTT2Tgsj_18test_fuzz_internal12serde_format9serializeNtNvNtCs6fBdTSegfKf_14test_fuzz_impl17struct_foo_fuzz__10write_args4ArgsEB16_
FNDA:0,_RINvNtCs2XBbTT2Tgsj_18test_fuzz_internal12serde_format9serializeNtNvNtCs6z3aMDs3O5H_14parse_duration12parse_fuzz__10write_args4ArgsEB16_
FNDA:0,_RINvNtCs2XBbTT2Tgsj_18test_fuzz_internal12serde_format9serializeNtNvNtCs7l6y1YLWhzH_5alloc13target_fuzz__10write_args4ArgsEB16_
FNDA:0,_RINvNtCs2XBbTT2Tgsj_18test_fuzz_internal12serde_format9serializeNtNvNtCs8VL8JzDaoWz_11hello_world19intermediary_fuzz__10write_args4ArgsEB16_
FNDA:0,_RINvNtCs2XBbTT2Tgsj_18test_fuzz_internal12serde_format9serializeNtNvNtCs9i11WczUoNj_7profile13target_fuzz__10write_args4ArgsEB16_
FNDA:0,_RINvNtCs2XBbTT2Tgsj_18test_fuzz_internal12serde_format9serializeNtNvNtCsb7JfYwj8ipQ_10serde_attr13target_fuzz__10write_args4ArgsEB16_
FNDA:0,_RINvNtCs2XBbTT2Tgsj_18test_fuzz_internal12serde_format9serializeNtNvNtCsbupd9d71YLx_16calm_and_panicky11calm_fuzz__10write_args4ArgsEB16_
FNDA:0,_RINvNtCs2XBbTT2Tgsj_18test_fuzz_internal12serde_format9serializeNtNvNtCsbupd9d71YLx_16calm_and_panicky14panicky_fuzz__10write_args4ArgsEB16_
FNDA:0,_RINvNtCs2XBbTT2Tgsj_18test_fuzz_internal12serde_format9serializeNtNvNtCscaf2gEuSGn5_6qwerty13target_fuzz__10write_args4ArgsEB16_
FNDA:0,_RINvNtCs2XBbTT2Tgsj_18test_fuzz_internal12serde_format9serializeNtNvNtCsfEcBWhN4Na3_3arc13target_fuzz__10write_args4ArgsEB16_
FNDA:0,_RINvNtCs2XBbTT2Tgsj_18test_fuzz_internal12serde_format9serializeNtNvNtCsfODoU0UL7aq_11manual_leak23wrapped_key_dump_fuzz__10write_args4ArgsEB16_
FNDA:0,_RINvNtCs2XBbTT2Tgsj_18test_fuzz_internal12serde_format9serializeNtNvNtCsfOIDT8lUV2L_7mut_ref17target_str_fuzz__10write_args4ArgsEB16_
FNDA:0,_RINvNtCs2XBbTT2Tgsj_18test_fuzz_internal12serde_format9serializeNtNvNtCsfOIDT8lUV2L_7mut_ref19target_slice_fuzz__10write_args4ArgsEB16_
FNDA:0,_RINvNtCs2XBbTT2Tgsj_18test_fuzz_internal12serde_format9serializeNtNvNtCsfrSB0FWCrTD_6rename10bar_fuzz__10write_args4ArgsEB16_
FNDA:0,_RINvNtCs2XBbTT2Tgsj_18test_fuzz_internal12serde_format9serializeNtNvNtCsgZ69XjcSWhh_6assert13target_fuzz__10write_args4ArgsEB16_
FNDA:0,_RINvNtCs2XBbTT2Tgsj_18test_fuzz_internal12serde_format9serializeNtNvNtCsikhsy0ZvG4z_4cast13target_fuzz__10write_args4ArgsEB16_
FNDA:0,_RINvNtCs2XBbTT2Tgsj_18test_fuzz_internal12serde_format9serializeNtNvNtCsjk8KY6qq2Wr_8parallel15target_0_fuzz__10write_args4ArgsEB16_
FNDA:0,_RINvNtCs2XBbTT2Tgsj_18test_fuzz_internal12serde_format9serializeNtNvNtCsjk8KY6qq2Wr_8parallel15target_1_fuzz__10write_args4ArgsEB16_
FNDA:0,_RINvNtCs2XBbTT2Tgsj_18test_fuzz_internal12serde_format9serializeNtNvNtCsjk8KY6qq2Wr_8parallel15target_2_fuzz__10write_args4ArgsEB16_
FNDA:0,_RINvNtCs2XBbTT2Tgsj_18test_fuzz_internal12serde_format9serializeNtNvNtCsjk8KY6qq2Wr_8parallel15target_3_fuzz__10write_args4ArgsEB16_
FNDA:0,_RINvNtCs2XBbTT2Tgsj_18test_fuzz_internal12serde_format9serializeNtNvNtCsjk8KY6qq2Wr_8parallel15target_4_fuzz__10write_args4ArgsEB16_
FNDA:0,_RINvNtCs2XBbTT2Tgsj_18test_fuzz_internal12serde_format9serializeNtNvNtCsjk8KY6qq2Wr_8parallel15target_5_fuzz__10write_args4ArgsEB16_
FNDA:0,_RINvNtCs2XBbTT2Tgsj_18test_fuzz_internal12serde_format9serializeNtNvNtCskPkSWzOTnW2_9collision11test_fuzz__10write_args4ArgsEB16_
FNDA:0,_RINvNtCs2XBbTT2Tgsj_18test_fuzz_internal12serde_format9serializeNtNvNtNtCs4RwwcRvri8p_7default10no_default13target_fuzz__10write_args4ArgsEB18_
FNDA:0,_RINvNtCs2XBbTT2Tgsj_18test_fuzz_internal12serde_format9serializeNtNvNtNtCs4RwwcRvri8p_7default7default13target_fuzz__10write_args4ArgsEB18_
FNDA:0,_RINvNtCs2XBbTT2Tgsj_18test_fuzz_internal12serde_format9serializeNtNvNtNtCsbZ6qTFMlSKY_5serde10byte_array13target_fuzz__10write_args4ArgsEB18_
FNDA:0,_RINvNtCs2XBbTT2Tgsj_18test_fuzz_internal12serde_format9serializeNtNvNtNtCsbZ6qTFMlSKY_5serde11unit_struct13target_fuzz__10write_args4ArgsEB18_
FNDA:0,_RINvNtCs2XBbTT2Tgsj_18test_fuzz_internal12serde_format9serializeNtNvNtNtCsbZ6qTFMlSKY_5serde12tuple_struct13target_fuzz__10write_args4ArgsEB18_
FNDA:0,_RINvNtCs2XBbTT2Tgsj_18test_fuzz_internal12serde_format9serializeNtNvNtNtCsbZ6qTFMlSKY_5serde12unit_variant13target_fuzz__10write_args4ArgsEB18_
FNDA:0,_RINvNtCs2XBbTT2Tgsj_18test_fuzz_internal12serde_format9serializeNtNvNtNtCsbZ6qTFMlSKY_5serde13tuple_variant13target_fuzz__10write_args4ArgsEB18_
FNDA:0,_RINvNtCs2XBbTT2Tgsj_18test_fuzz_internal12serde_format9serializeNtNvNtNtCsbZ6qTFMlSKY_5serde14newtype_struct13target_fuzz__10write_args4ArgsEB18_
FNDA:0,_RINvNtCs2XBbTT2Tgsj_18test_fuzz_internal12serde_format9serializeNtNvNtNtCsbZ6qTFMlSKY_5serde14struct_variant13target_fuzz__10write_args4ArgsEB18_
FNDA:0,_RINvNtCs2XBbTT2Tgsj_18test_fuzz_internal12serde_format9serializeNtNvNtNtCsbZ6qTFMlSKY_5serde15newtype_variant13target_fuzz__10write_args4ArgsEB18_
FNDA:0,_RINvNtCs2XBbTT2Tgsj_18test_fuzz_internal12serde_format9serializeNtNvNtNtCsbZ6qTFMlSKY_5serde3map13target_fuzz__10write_args4ArgsEB18_
FNDA:0,_RINvNtCs2XBbTT2Tgsj_18test_fuzz_internal12serde_format9serializeNtNvNtNtCsbZ6qTFMlSKY_5serde3seq13target_fuzz__10write_args4ArgsEB18_
FNDA:0,_RINvNtCs2XBbTT2Tgsj_18test_fuzz_internal12serde_format9serializeNtNvNtNtCsbZ6qTFMlSKY_5serde4unit13target_fuzz__10write_args4ArgsEB18_
FNDA:0,_RINvNtCs2XBbTT2Tgsj_18test_fuzz_internal12serde_format9serializeNtNvNtNtCsbZ6qTFMlSKY_5serde5tuple13target_fuzz__10write_args4ArgsEB18_
FNDA:0,_RINvNtCs2XBbTT2Tgsj_18test_fuzz_internal12serde_format9serializeNtNvNtNtCsbZ6qTFMlSKY_5serde6option13target_fuzz__10write_args4ArgsEB18_
FNDA:0,_RINvNtCs2XBbTT2Tgsj_18test_fuzz_internal12serde_format9serializeNtNvNtNtCsbZ6qTFMlSKY_5serde6string13target_fuzz__10write_args4ArgsEB18_
FNDA:0,_RINvNtCs2XBbTT2Tgsj_18test_fuzz_internal12serde_format9serializeNtNvNtNtCsbZ6qTFMlSKY_5serde6strukt13target_fuzz__10write_args4ArgsEB18_
FNDA:0,_RINvNtCs2XBbTT2Tgsj_18test_fuzz_internal12serde_format9serializeNtNvNtNtCsfL22ijsdh9Q_5debug4hang13target_fuzz__10write_args4ArgsEB18_
FNDA:0,_RINvNtCs2XBbTT2Tgsj_18test_fuzz_internal12serde_format9serializeNtNvNtNtCsfL22ijsdh9Q_5debug5crash13target_fuzz__10write_args4ArgsEB18_
FNDA:0,_RINvNtCs2XBbTT2Tgsj_18test_fuzz_internal12serde_format9serializeNtNvNtNtCsgyJtF4GtVdY_10conversion11uncloneable13target_fuzz__10write_args4ArgsEB18_
FNDA:0,_RINvNtCs2XBbTT2Tgsj_18test_fuzz_internal12serde_format9serializeNtNvNtNtCsgyJtF4GtVdY_10conversion4path13target_fuzz__10write_args4ArgsEB18_
FNDA:0,_RINvNtCs2XBbTT2Tgsj_18test_fuzz_internal12serde_format9serializeNtNvNtNtCsgyJtF4GtVdY_10conversion5array13target_fuzz__10write_args4ArgsEB18_
FNDA:0,_RINvNtCs2XBbTT2Tgsj_18test_fuzz_internal12serde_format9serializeNtNvNtNtCsgyJtF4GtVdY_10conversion7mutable13target_fuzz__10write_args4ArgsEB18_
FNDA:0,_RINvNtCs2XBbTT2Tgsj_18test_fuzz_internal12serde_format9serializeNtNvNtNtCsgyJtF4GtVdY_10conversion8lifetime13target_fuzz__10write_args4ArgsEB18_
FNDA:0,_RINvNtCs2XBbTT2Tgsj_18test_fuzz_internal12serde_format9serializeNtNvNtNtCsgyJtF4GtVdY_10conversion8receiver20x_target_self_fuzz__10write_args4ArgsEB18_
FNDA:0,_RINvNtCs2XBbTT2Tgsj_18test_fuzz_internal12serde_format9serializeNtNvNtNtCsgyJtF4GtVdY_10conversion8receiver21x_target_other_fuzz__10write_args4ArgsEB18_
FNDA:0,_RINvNtCs2XBbTT2Tgsj_18test_fuzz_internal12serde_format9serializeNtNvNtNtCsiGGxYnMUpAI_13auto_generate6signed13target_fuzz__10write_args4ArgsEB18_
FNDA:0,_RINvNtCs2XBbTT2Tgsj_18test_fuzz_internal12serde_format9serializeNtNvNtNtCsiGGxYnMUpAI_13auto_generate8unsigned13target_fuzz__10write_args4ArgsEB18_
FNDA:0,_RINvNtCs2XBbTT2Tgsj_18test_fuzz_internal12serde_format9serializepEB4_
FNDA:0,_RINvNtCs2XBbTT2Tgsj_18test_fuzz_internal4dirs19path_from_args_typeINtNtCs6ZJvwNFZ5Lo_11return_type16swap_swap_fuzz__4ArgsubEEB17_
FNDA:0,_RINvNtCs2XBbTT2Tgsj_18test_fuzz_internal4dirs19path_from_args_typeINtNtCsaVSfY7O0uYs_7generic14baz_qux_fuzz__4ArgsNtB17_3BarEEB17_
FNDA:0,_RINvNtCs2XBbTT2Tgsj_18test_fuzz_internal4dirs19path_from_args_typeINtNtCsaVSfY7O0uYs_7generic20struct_target_fuzz__4ArgsNtB17_3BarEEB17_
FNDA:0,_RINvNtCs2XBbTT2Tgsj_18test_fuzz_internal4dirs19path_from_args_typeINtNtCsaVSfY7O0uYs_7generic20struct_target_fuzz__4ArgsNtB17_3FooEEB17_
FNDA:0,_RINvNtCs2XBbTT2Tgsj_18test_fuzz_internal4dirs19path_from_args_typeINtNtCsaVSfY7O0uYs_7generic26struct_target_bound_fuzz__4ArgsNtB17_3BarINtB17_3BazB20_EEEB17_
FNDA:0,_RINvNtCs2XBbTT2Tgsj_18test_fuzz_internal4dirs19path_from_args_typeINtNtCsaVSfY7O0uYs_7generic26struct_target_bound_fuzz__4ArgsNtB17_3FooINtB17_3BazB20_EEEB17_
FNDA:0,_RINvNtCs2XBbTT2Tgsj_18test_fuzz_internal4dirs19path_from_args_typeINtNtCsaVSfY7O0uYs_7generic33struct_target_where_clause_fuzz__4ArgsNtB17_3BarINtB17_3BazB27_EEEB17_
FNDA:0,_RINvNtCs2XBbTT2Tgsj_18test_fuzz_internal4dirs19path_from_args_typeINtNtCsaVSfY7O0uYs_7generic33struct_target_where_clause_fuzz__4ArgsNtB17_3FooINtB17_3BazB27_EEEB17_
FNDA:0,_RINvNtCs2XBbTT2Tgsj_18test_fuzz_internal4dirs19path_from_args_typeINtNtCskkeazd6lurB_15associated_type20serializes_to_fuzz__4ArgsNtB17_7AddressEEB17_
FNDA:0,_RINvNtCs2XBbTT2Tgsj_18test_fuzz_internal4dirs19path_from_args_typeINtNtNtCsaVSfY7O0uYs_7generic27receiverless_trait_function20struct_target_fuzz__4ArgsNtB19_3BarEEB19_
FNDA:0,_RINvNtCs2XBbTT2Tgsj_18test_fuzz_internal4dirs19path_from_args_typeINtNvNtCs6ZJvwNFZ5Lo_11return_type16swap_swap_fuzz__10write_args4ArgsubEEB19_
FNDA:0,_RINvNtCs2XBbTT2Tgsj_18test_fuzz_internal4dirs19path_from_args_typeINtNvNtCsaVSfY7O0uYs_7generic14baz_qux_fuzz__10write_args4ArgsNtB19_3BarEEB19_
FNDA:0,_RINvNtCs2XBbTT2Tgsj_18test_fuzz_internal4dirs19path_from_args_typeINtNvNtCsaVSfY7O0uYs_7generic20struct_target_fuzz__10write_args4ArgsNtB19_3BarEEB19_
FNDA:0,_RINvNtCs2XBbTT2Tgsj_18test_fuzz_internal4dirs19path_from_args_typeINtNvNtCsaVSfY7O0uYs_7generic20struct_target_fuzz__10write_args4ArgsNtB19_3FooEEB19_
FNDA:0,_RINvNtCs2XBbTT2Tgsj_18test_fuzz_internal4dirs19path_from_args_typeINtNvNtCsaVSfY7O0uYs_7generic26struct_target_bound_fuzz__10write_args4ArgsNtB19_3BarINtB19_3BazB2e_EEEB19_
FNDA:0,_RINvNtCs2XBbTT2Tgsj_18test_fuzz_internal4dirs19path_from_args_typeINtNvNtCsaVSfY7O0uYs_7generic26struct_target_bound_fuzz__10write_args4ArgsNtB19_3FooINtB19_3BazB2e_EEEB19_
FNDA:0,_RINvNtCs2XBbTT2Tgsj_18test_fuzz_internal4dirs19path_from_args_typeINtNvNtCsaVSfY7O0uYs_7generic33struct_target_where_clause_fuzz__10write_args4ArgsNtB19_3BarINtB19_3BazB2l_EEEB19_
FNDA:0,_RINvNtCs2XBbTT2Tgsj_18test_fuzz_internal4dirs19path_from_args_typeINtNvNtCsaVSfY7O0uYs_7generic33struct_target_where_clause_fuzz__10write_args4ArgsNtB19_3FooINtB19_3BazB2l_EEEB19_
FNDA:0,_RINvNtCs2XBbTT2Tgsj_18test_fuzz_internal4dirs19path_from_args_typeINtNvNtCskkeazd6lurB_15associated_type20serializes_to_fuzz__10write_args4ArgsNtB19_7AddressEEB19_
FNDA:0,_RINvNtCs2XBbTT2Tgsj_18test_fuzz_internal4dirs19path_from_args_typeINtNvNtNtCsaVSfY7O0uYs_7generic27receiverless_trait_function20struct_target_fuzz__10write_args4ArgsNtB1b_3BarEEB1b_
FNDA:0,_RINvNtCs2XBbTT2Tgsj_18test_fuzz_internal4dirs19path_from_args_typeNtNtCs2zeNb6jgslg_19self_ty_in_mod_name20struct_target_fuzz__4ArgsEB16_
FNDA:0,_RINvNtCs2XBbTT2Tgsj_18test_fuzz_internal4dirs19path_from_args_typeNtNtCs4MGHVrkl72m_4from15bar_from_fuzz__4ArgsEB16_
FNDA:0,_RINvNtCs2XBbTT2Tgsj_18test_fuzz_internal4dirs19path_from_args_typeNtNtCs4MGHVrkl72m_4from15baz_into_fuzz__4ArgsEB16_
FNDA:0,_RINvNtCs2XBbTT2Tgsj_18test_fuzz_internal4dirs19path_from_args_typeNtNtCs4MGHVrkl72m_4from19baz_try_from_fuzz__4ArgsEB16_
FNDA:0,_RINvNtCs2XBbTT2Tgsj_18test_fuzz_internal4dirs19path_from_args_typeNtNtCs4hte0XrDpp0_7unserde13target_fuzz__4ArgsEB16_
FNDA:0,_RINvNtCs2XBbTT2Tgsj_18test_fuzz_internal4dirs19path_from_args_typeNtNtCs4hte0XrDpp0_7unserde27target_in_production_fuzz__4ArgsEB16_
FNDA:0,_RINvNtCs2XBbTT2Tgsj_18test_fuzz_internal4dirs19path_from_args_typeNtNtCs4jNeg51vteg_8lifetime13target_fuzz__4ArgsEB16_
FNDA:0,_RINvNtCs2XBbTT2Tgsj_18test_fuzz_internal4dirs19path_from_args_typeNtNtCs5fNIG3PZaJo_11hello_world19intermediary_fuzz__4ArgsEB16_
FNDA:0,_RINvNtCs2XBbTT2Tgsj_18test_fuzz_internal4dirs19path_from_args_typeNtNtCs6fBdTSegfKf_14test_fuzz_impl17struct_bar_fuzz__4ArgsEB16_
FNDA:0,_RINvNtCs2XBbTT2Tgsj_18test_fuzz_internal4dirs19path_from_args_typeNtNtCs6fBdTSegfKf_14test_fuzz_impl17struct_foo_fuzz__4ArgsEB16_
FNDA:0,_RINvNtCs2XBbTT2Tgsj_18test_fuzz_internal4dirs19path_from_args_typeNtNtCs6z3aMDs3O5H_14parse_duration12parse_fuzz__4ArgsEB16_
FNDA:0,_RINvNtCs2XBbTT2Tgsj_18test_fuzz_internal4dirs19path_from_args_typeNtNtCs7l6y1YLWhzH_5alloc13target_fuzz__4ArgsEB16_
FNDA:0,_RINvNtCs2XBbTT2Tgsj_18test_fuzz_internal4dirs19path_from_args_typeNtNtCs8VL8JzDaoWz_11hello_world19intermediary_fuzz__4ArgsEB16_
FNDA:0,_RINvNtCs2XBbTT2Tgsj_18test_fuzz_internal4dirs19path_from_args_typeNtNtCs9i11WczUoNj_7profile13target_fuzz__4ArgsEB16_
FNDA:0,_RINvNtCs2XBbTT2Tgsj_18test_fuzz_internal4dirs19path_from_args_typeNtNtCsaVSfY7O0uYs_7generic38struct_target_only_generic_args_fuzz__4ArgsEB16_
FNDA:0,_RINvNtCs2XBbTT2Tgsj_18test_fuzz_internal4dirs19path_from_args_typeNtNtCsb7JfYwj8ipQ_10serde_attr13target_fuzz__4ArgsEB16_
FNDA:0,_RINvNtCs2XBbTT2Tgsj_18test_fuzz_internal4dirs19path_from_args_typeNtNtCsbupd9d71YLx_16calm_and_panicky11calm_fuzz__4ArgsEB16_
FNDA:0,_RINvNtCs2XBbTT2Tgsj_18test_fuzz_internal4dirs19path_from_args_typeNtNtCsbupd9d71YLx_16calm_and_panicky14panicky_fuzz__4ArgsEB16_
FNDA:0,_RINvNtCs2XBbTT2Tgsj_18test_fuzz_internal4dirs19path_from_args_typeNtNtCscaf2gEuSGn5_6qwerty13target_fuzz__4ArgsEB16_
FNDA:0,_RINvNtCs2XBbTT2Tgsj_18test_fuzz_internal4dirs19path_from_args_typeNtNtCsfEcBWhN4Na3_3arc13target_fuzz__4ArgsEB16_
FNDA:0,_RINvNtCs2XBbTT2Tgsj_18test_fuzz_internal4dirs19path_from_args_typeNtNtCsfODoU0UL7aq_11manual_leak23wrapped_key_dump_fuzz__4ArgsEB16_
FNDA:0,_RINvNtCs2XBbTT2Tgsj_18test_fuzz_internal4dirs19path_from_args_typeNtNtCsfOIDT8lUV2L_7mut_ref17target_str_fuzz__4ArgsEB16_
FNDA:0,_RINvNtCs2XBbTT2Tgsj_18test_fuzz_internal4dirs19path_from_args_typeNtNtCsfOIDT8lUV2L_7mut_ref19target_slice_fuzz__4ArgsEB16_
FNDA:0,_RINvNtCs2XBbTT2Tgsj_18test_fuzz_internal4dirs19path_from_args_typeNtNtCsfrSB0FWCrTD_6rename10bar_fuzz__4ArgsEB16_
FNDA:0,_RINvNtCs2XBbTT2Tgsj_18test_fuzz_internal4dirs19path_from_args_typeNtNtCsgZ69XjcSWhh_6assert13target_fuzz__4ArgsEB16_
FNDA:0,_RINvNtCs2XBbTT2Tgsj_18test_fuzz_internal4dirs19path_from_args_typeNtNtCsikhsy0ZvG4z_4cast13target_fuzz__4ArgsEB16_
FNDA:0,_RINvNtCs2XBbTT2Tgsj_18test_fuzz_internal4dirs19path_from_args_typeNtNtCsjk8KY6qq2Wr_8parallel15target_0_fuzz__4ArgsEB16_
FNDA:0,_RINvNtCs2XBbTT2Tgsj_18test_fuzz_internal4dirs19path_from_args_typeNtNtCsjk8KY6qq2Wr_8parallel15target_1_fuzz__4ArgsEB16_
FNDA:0,_RINvNtCs2XBbTT2Tgsj_18test_fuzz_internal4dirs19path_from_args_typeNtNtCsjk8KY6qq2Wr_8parallel15target_2_fuzz__4ArgsEB16_
FNDA:0,_RINvNtCs2XBbTT2Tgsj_18test_fuzz_internal4dirs19path_from_args_typeNtNtCsjk8KY6qq2Wr_8parallel15target_3_fuzz__4ArgsEB16_
FNDA:0,_RINvNtCs2XBbTT2Tgsj_18test_fuzz_internal4dirs19path_from_args_typeNtNtCsjk8KY6qq2Wr_8parallel15target_4_fuzz__4ArgsEB16_
FNDA:0,_RINvNtCs2XBbTT2Tgsj_18test_fuzz_internal4dirs19path_from_args_typeNtNtCsjk8KY6qq2Wr_8parallel15target_5_fuzz__4ArgsEB16_
FNDA:0,_RINvNtCs2XBbTT2Tgsj_18test_fuzz_internal4dirs19path_from_args_typeNtNtCskPkSWzOTnW2_9collision11test_fuzz__4ArgsEB16_
FNDA:0,_RINvNtCs2XBbTT2Tgsj_18test_fuzz_internal4dirs19path_from_args_typeNtNtNtCs4RwwcRvri8p_7default10no_default13target_fuzz__4ArgsEB18_
FNDA:0,_RINvNtCs2XBbTT2Tgsj_18test_fuzz_internal4dirs19path_from_args_typeNtNtNtCs4RwwcRvri8p_7default7default13target_fuzz__4ArgsEB18_
FNDA:0,_RINvNtCs2XBbTT2Tgsj_18test_fuzz_internal4dirs19path_from_args_typeNtNtNtCsbZ6qTFMlSKY_5serde10byte_array13target_fuzz__4ArgsEB18_
FNDA:0,_RINvNtCs2XBbTT2Tgsj_18test_fuzz_internal4dirs19path_from_args_typeNtNtNtCsbZ6qTFMlSKY_5serde11unit_struct13target_fuzz__4ArgsEB18_
FNDA:0,_RINvNtCs2XBbTT2Tgsj_18test_fuzz_internal4dirs19path_from_args_typeNtNtNtCsbZ6qTFMlSKY_5serde12tuple_struct13target_fuzz__4ArgsEB18_
FNDA:0,_RINvNtCs2XBbTT2Tgsj_18test_fuzz_internal4dirs19path_from_args_typeNtNtNtCsbZ6qTFMlSKY_5serde12unit_variant13target_fuzz__4ArgsEB18_
FNDA:0,_RINvNtCs2XBbTT2Tgsj_18test_fuzz_internal4dirs19path_from_args_typeNtNtNtCsbZ6qTFMlSKY_5serde13tuple_variant13target_fuzz__4ArgsEB18_
FNDA:0,_RINvNtCs2XBbTT2Tgsj_18test_fuzz_internal4dirs19path_from_args_typeNtNtNtCsbZ6qTFMlSKY_5serde14newtype_struct13target_fuzz__4ArgsEB18_
FNDA:0,_RINvNtCs2XBbTT2Tgsj_18test_fuzz_internal4dirs19path_from_args_typeNtNtNtCsbZ6qTFMlSKY_5serde14struct_variant13target_fuzz__4ArgsEB18_
FNDA:0,_RINvNtCs2XBbTT2Tgsj_18test_fuzz_internal4dirs19path_from_args_typeNtNtNtCsbZ6qTFMlSKY_5serde15newtype_variant13target_fuzz__4ArgsEB18_
FNDA:0,_RINvNtCs2XBbTT2Tgsj_18test_fuzz_internal4dirs19path_from_args_typeNtNtNtCsbZ6qTFMlSKY_5serde3map13target_fuzz__4ArgsEB18_
FNDA:0,_RINvNtCs2XBbTT2Tgsj_18test_fuzz_internal4dirs19path_from_args_typeNtNtNtCsbZ6qTFMlSKY_5serde3seq13target_fuzz__4ArgsEB18_
FNDA:0,_RINvNtCs2XBbTT2Tgsj_18test_fuzz_internal4dirs19path_from_args_typeNtNtNtCsbZ6qTFMlSKY_5serde4unit13target_fuzz__4ArgsEB18_
FNDA:0,_RINvNtCs2XBbTT2Tgsj_18test_fuzz_internal4dirs19path_from_args_typeNtNtNtCsbZ6qTFMlSKY_5serde5tuple13target_fuzz__4ArgsEB18_
FNDA:0,_RINvNtCs2XBbTT2Tgsj_18test_fuzz_internal4dirs19path_from_args_typeNtNtNtCsbZ6qTFMlSKY_5serde6option13target_fuzz__4ArgsEB18_
FNDA:0,_RINvNtCs2XBbTT2Tgsj_18test_fuzz_internal4dirs19path_from_args_typeNtNtNtCsbZ6qTFMlSKY_5serde6string13target_fuzz__4ArgsEB18_
FNDA:0,_RINvNtCs2XBbTT2Tgsj_18test_fuzz_internal4dirs19path_from_args_typeNtNtNtCsbZ6qTFMlSKY_5serde6strukt13target_fuzz__4ArgsEB18_
FNDA:0,_RINvNtCs2XBbTT2Tgsj_18test_fuzz_internal4dirs19path_from_args_typeNtNtNtCsfL22ijsdh9Q_5debug4hang13target_fuzz__4ArgsEB18_
FNDA:0,_RINvNtCs2XBbTT2Tgsj_18test_fuzz_internal4dirs19path_from_args_typeNtNtNtCsfL22ijsdh9Q_5debug5crash13target_fuzz__4ArgsEB18_
FNDA:0,_RINvNtCs2XBbTT2Tgsj_18test_fuzz_internal4dirs19path_from_args_typeNtNtNtCsgyJtF4GtVdY_10conversion11uncloneable13target_fuzz__4ArgsEB18_
FNDA:0,_RINvNtCs2XBbTT2Tgsj_18test_fuzz_internal4dirs19path_from_args_typeNtNtNtCsgyJtF4GtVdY_10conversion4path13target_fuzz__4ArgsEB18_
FNDA:0,_RINvNtCs2XBbTT2Tgsj_18test_fuzz_internal4dirs19path_from_args_typeNtNtNtCsgyJtF4GtVdY_10conversion5array13target_fuzz__4ArgsEB18_
FNDA:0,_RINvNtCs2XBbTT2Tgsj_18test_fuzz_internal4dirs19path_from_args_typeNtNtNtCsgyJtF4GtVdY_10conversion7mutable13target_fuzz__4ArgsEB18_
FNDA:0,_RINvNtCs2XBbTT2Tgsj_18test_fuzz_internal4dirs19path_from_args_typeNtNtNtCsgyJtF4GtVdY_10conversion8lifetime13target_fuzz__4ArgsEB18_
FNDA:0,_RINvNtCs2XBbTT2Tgsj_18test_fuzz_internal4dirs19path_from_args_typeNtNtNtCsgyJtF4GtVdY_10conversion8receiver20x_target_self_fuzz__4ArgsEB18_
FNDA:0,_RINvNtCs2XBbTT2Tgsj_18test_fuzz_internal4dirs19path_from_args_typeNtNtNtCsgyJtF4GtVdY_10conversion8receiver21x_target_other_fuzz__4ArgsEB18_
FNDA:0,_RINvNtCs2XBbTT2Tgsj_18test_fuzz_internal4dirs19path_from_args_typeNtNtNtCsiGGxYnMUpAI_13auto_generate6signed13target_fuzz__4ArgsEB18_
FNDA:0,_RINvNtCs2XBbTT2Tgsj_18test_fuzz_internal4dirs19path_from_args_typeNtNtNtCsiGGxYnMUpAI_13auto_generate8unsigned13target_fuzz__4ArgsEB18_
FNDA:0,_RINvNtCs2XBbTT2Tgsj_18test_fuzz_internal4dirs19path_from_args_typeNtNvNtCs2zeNb6jgslg_19self_ty_in_mod_name20struct_target_fuzz__10write_args4ArgsEB18_
FNDA:0,_RINvNtCs2XBbTT2Tgsj_18test_fuzz_internal4dirs19path_from_args_typeNtNvNtCs4MGHVrkl72m_4from15bar_from_fuzz__10write_args4ArgsEB18_
FNDA:0,_RINvNtCs2XBbTT2Tgsj_18test_fuzz_internal4dirs19path_from_args_typeNtNvNtCs4MGHVrkl72m_4from15baz_into_fuzz__10write_args4ArgsEB18_
FNDA:0,_RINvNtCs2XBbTT2Tgsj_18test_fuzz_internal4dirs19path_from_args_typeNtNvNtCs4MGHVrkl72m_4from19baz_try_from_fuzz__10write_args4ArgsEB18_
FNDA:0,_RINvNtCs2XBbTT2Tgsj_18test_fuzz_internal4dirs19path_from_args_typeNtNvNtCs4jNeg51vteg_8lifetime13target_fuzz__10write_args4ArgsEB18_
FNDA:0,_RINvNtCs2XBbTT2Tgsj_18test_fuzz_internal4dirs19path_from_args_typeNtNvNtCs5fNIG3PZaJo_11hello_world19intermediary_fuzz__10write_args4ArgsEB18_
FNDA:0,_RINvNtCs2XBbTT2Tgsj_18test_fuzz_internal4dirs19path_from_args_typeNtNvNtCs6fBdTSegfKf_14test_fuzz_impl17struct_bar_fuzz__10write_args4ArgsEB18_
FNDA:0,_RINvNtCs2XBbTT2Tgsj_18test_fuzz_internal4dirs19path_from_args_typeNtNvNtCs6fBdTSegfKf_14test_fuzz_impl17struct_foo_fuzz__10write_args4ArgsEB18_
FNDA:0,_RINvNtCs2XBbTT2Tgsj_18test_fuzz_internal4dirs19path_from_args_typeNtNvNtCs6z3aMDs3O5H_14parse_duration12parse_fuzz__10write_args4ArgsEB18_
FNDA:0,_RINvNtCs2XBbTT2Tgsj_18test_fuzz_internal4dirs19path_from_args_typeNtNvNtCs7l6y1YLWhzH_5alloc13target_fuzz__10write_args4ArgsEB18_
FNDA:0,_RINvNtCs2XBbTT2Tgsj_18test_fuzz_internal4dirs19path_from_args_typeNtNvNtCs8VL8JzDaoWz_11hello_world19intermediary_fuzz__10write_args4ArgsEB18_
FNDA:0,_RINvNtCs2XBbTT2Tgsj_18test_fuzz_internal4dirs19path_from_args_typeNtNvNtCs9i11WczUoNj_7profile13target_fuzz__10write_args4ArgsEB18_
FNDA:0,_RINvNtCs2XBbTT2Tgsj_18test_fuzz_internal4dirs19path_from_args_typeNtNvNtCsb7JfYwj8ipQ_10serde_attr13target_fuzz__10write_args4ArgsEB18_
FNDA:0,_RINvNtCs2XBbTT2Tgsj_18test_fuzz_internal4dirs19path_from_args_typeNtNvNtCsbupd9d71YLx_16calm_and_panicky11calm_fuzz__10write_args4ArgsEB18_
FNDA:0,_RINvNtCs2XBbTT2Tgsj_18test_fuzz_internal4dirs19path_from_args_typeNtNvNtCsbupd9d71YLx_16calm_and_panicky14panicky_fuzz__10write_args4ArgsEB18_
FNDA:0,_RINvNtCs2XBbTT2Tgsj_18test_fuzz_internal4dirs19path_from_args_typeNtNvNtCscaf2gEuSGn5_6qwerty13target_fuzz__10write_args4ArgsEB18_
FNDA:0,_RINvNtCs2XBbTT2Tgsj_18test_fuzz_internal4dirs19path_from_args_typeNtNvNtCsfEcBWhN4Na3_3arc13target_fuzz__10write_args4ArgsEB18_
FNDA:0,_RINvNtCs2XBbTT2Tgsj_18test_fuzz_internal4dirs19path_from_args_typeNtNvNtCsfODoU0UL7aq_11manual_leak23wrapped_key_dump_fuzz__10write_args4ArgsEB18_
FNDA:0,_RINvNtCs2XBbTT2Tgsj_18test_fuzz_internal4dirs19path_from_args_typeNtNvNtCsfOIDT8lUV2L_7mut_ref17target_str_fuzz__10write_args4ArgsEB18_
FNDA:0,_RINvNtCs2XBbTT2Tgsj_18test_fuzz_internal4dirs19path_from_args_typeNtNvNtCsfOIDT8lUV2L_7mut_ref19target_slice_fuzz__10write_args4ArgsEB18_
FNDA:0,_RINvNtCs2XBbTT2Tgsj_18test_fuzz_internal4dirs19path_from_args_typeNtNvNtCsfrSB0FWCrTD_6rename10bar_fuzz__10write_args4ArgsEB18_
FNDA:0,_RINvNtCs2XBbTT2Tgsj_18test_fuzz_internal4dirs19path_from_args_typeNtNvNtCsgZ69XjcSWhh_6assert13target_fuzz__10write_args4ArgsEB18_
FNDA:0,_RINvNtCs2XBbTT2Tgsj_18test_fuzz_internal4dirs19path_from_args_typeNtNvNtCsikhsy0ZvG4z_4cast13target_fuzz__10write_args4ArgsEB18_
FNDA:0,_RINvNtCs2XBbTT2Tgsj_18test_fuzz_internal4dirs19path_from_args_typeNtNvNtCsjk8KY6qq2Wr_8parallel15target_0_fuzz__10write_args4ArgsEB18_
FNDA:0,_RINvNtCs2XBbTT2Tgsj_18test_fuzz_internal4dirs19path_from_args_typeNtNvNtCsjk8KY6qq2Wr_8parallel15target_1_fuzz__10write_args4ArgsEB18_
FNDA:0,_RINvNtCs2XBbTT2Tgsj_18test_fuzz_internal4dirs19path_from_args_typeNtNvNtCsjk8KY6qq2Wr_8parallel15target_2_fuzz__10write_args4ArgsEB18_
FNDA:0,_RINvNtCs2XBbTT2Tgsj_18test_fuzz_internal4dirs19path_from_args_typeNtNvNtCsjk8KY6qq2Wr_8parallel15target_3_fuzz__10write_args4ArgsEB18_
FNDA:0,_RINvNtCs2XBbTT2Tgsj_18test_fuzz_internal4dirs19path_from_args_typeNtNvNtCsjk8KY6qq2Wr_8parallel15target_4_fuzz__10write_args4ArgsEB18_
FNDA:0,_RINvNtCs2XBbTT2Tgsj_18test_fuzz_internal4dirs19path_from_args_typeNtNvNtCsjk8KY6qq2Wr_8parallel15target_5_fuzz__10write_args4ArgsEB18_
FNDA:0,_RINvNtCs2XBbTT2Tgsj_18test_fuzz_internal4dirs19path_from_args_typeNtNvNtCskPkSWzOTnW2_9collision11test_fuzz__10write_args4ArgsEB18_
FNDA:0,_RINvNtCs2XBbTT2Tgsj_18test_fuzz_internal4dirs19path_from_args_typeNtNvNtNtCs4RwwcRvri8p_7default10no_default13target_fuzz__10write_args4ArgsEB1a_
FNDA:0,_RINvNtCs2XBbTT2Tgsj_18test_fuzz_internal4dirs19path_from_args_typeNtNvNtNtCs4RwwcRvri8p_7default7default13target_fuzz__10write_args4ArgsEB1a_
FNDA:0,_RINvNtCs2XBbTT2Tgsj_18test_fuzz_internal4dirs19path_from_args_typeNtNvNtNtCsbZ6qTFMlSKY_5serde10byte_array13target_fuzz__10write_args4ArgsEB1a_
FNDA:0,_RINvNtCs2XBbTT2Tgsj_18test_fuzz_internal4dirs19path_from_args_typeNtNvNtNtCsbZ6qTFMlSKY_5serde11unit_struct13target_fuzz__10write_args4ArgsEB1a_
FNDA:0,_RINvNtCs2XBbTT2Tgsj_18test_fuzz_internal4dirs19path_from_args_typeNtNvNtNtCsbZ6qTFMlSKY_5serde12tuple_struct13target_fuzz__10write_args4ArgsEB1a_
FNDA:0,_RINvNtCs2XBbTT2Tgsj_18test_fuzz_internal4dirs19path_from_args_typeNtNvNtNtCsbZ6qTFMlSKY_5serde12unit_variant13target_fuzz__10write_args4ArgsEB1a_
FNDA:0,_RINvNtCs2XBbTT2Tgsj_18test_fuzz_internal4dirs19path_from_args_typeNtNvNtNtCsbZ6qTFMlSKY_5serde13tuple_variant13target_fuzz__10write_args4ArgsEB1a_
FNDA:0,_RINvNtCs2XBbTT2Tgsj_18test_fuzz_internal4dirs19path_from_args_typeNtNvNtNtCsbZ6qTFMlSKY_5serde14newtype_struct13target_fuzz__10write_args4ArgsEB1a_
FNDA:0,_RINvNtCs2XBbTT2Tgsj_18test_fuzz_internal4dirs19path_from_args_typeNtNvNtNtCsbZ6qTFMlSKY_5serde14struct_variant13target_fuzz__10write_args4ArgsEB1a_
FNDA:0,_RINvNtCs2XBbTT2Tgsj_18test_fuzz_internal4dirs19path_from_args_typeNtNvNtNtCsbZ6qTFMlSKY_5serde15newtype_variant13target_fuzz__10write_args4ArgsEB1a_
FNDA:0,_RINvNtCs2XBbTT2Tgsj_18test_fuzz_internal4dirs19path_from_args_typeNtNvNtNtCsbZ6qTFMlSKY_5serde3map13target_fuzz__10write_args4ArgsEB1a_
FNDA:0,_RINvNtCs2XBbTT2Tgsj_18test_fuzz_internal4dirs19path_from_args_typeNtNvNtNtCsbZ6qTFMlSKY_5serde3seq13target_fuzz__10write_args4ArgsEB1a_
FNDA:0,_RINvNtCs2XBbTT2Tgsj_18test_fuzz_internal4dirs19path_from_args_typeNtNvNtNtCsbZ6qTFMlSKY_5serde4unit13target_fuzz__10write_args4ArgsEB1a_
FNDA:0,_RINvNtCs2XBbTT2Tgsj_18test_fuzz_internal4dirs19path_from_args_typeNtNvNtNtCsbZ6qTFMlSKY_5serde5tuple13target_fuzz__10write_args4ArgsEB1a_
FNDA:0,_RINvNtCs2XBbTT2Tgsj_18test_fuzz_internal4dirs19path_from_args_typeNtNvNtNtCsbZ6qTFMlSKY_5serde6option13target_fuzz__10write_args4ArgsEB1a_
FNDA:0,_RINvNtCs2XBbTT2Tgsj_18test_fuzz_internal4dirs19path_from_args_typeNtNvNtNtCsbZ6qTFMlSKY_5serde6string13target_fuzz__10write_args4ArgsEB1a_
FNDA:0,_RINvNtCs2XBbTT2Tgsj_18test_fuzz_internal4dirs19path_from_args_typeNtNvNtNtCsbZ6qTFMlSKY_5serde6strukt13target_fuzz__10write_args4ArgsEB1a_
FNDA:0,_RINvNtCs2XBbTT2Tgsj_18test_fuzz_internal4dirs19path_from_args_typeNtNvNtNtCsfL22ijsdh9Q_5debug4hang13target_fuzz__10write_args4ArgsEB1a_
FNDA:0,_RINvNtCs2XBbTT2Tgsj_18test_fuzz_internal4dirs19path_from_args_typeNtNvNtNtCsfL22ijsdh9Q_5debug5crash13target_fuzz__10write_args4ArgsEB1a_
FNDA:0,_RINvNtCs2XBbTT2Tgsj_18test_fuzz_internal4dirs19path_from_args_typeNtNvNtNtCsgyJtF4GtVdY_10conversion11uncloneable13target_fuzz__10write_args4ArgsEB1a_
FNDA:0,_RINvNtCs2XBbTT2Tgsj_18test_fuzz_internal4dirs19path_from_args_typeNtNvNtNtCsgyJtF4GtVdY_10conversion4path13target_fuzz__10write_args4ArgsEB1a_
FNDA:0,_RINvNtCs2XBbTT2Tgsj_18test_fuzz_internal4dirs19path_from_args_typeNtNvNtNtCsgyJtF4GtVdY_10conversion5array13target_fuzz__10write_args4ArgsEB1a_
FNDA:0,_RINvNtCs2XBbTT2Tgsj_18test_fuzz_internal4dirs19path_from_args_typeNtNvNtNtCsgyJtF4GtVdY_10conversion7mutable13target_fuzz__10write_args4ArgsEB1a_
FNDA:0,_RINvNtCs2XBbTT2Tgsj_18test_fuzz_internal4dirs19path_from_args_typeNtNvNtNtCsgyJtF4GtVdY_10conversion8lifetime13target_fuzz__10write_args4ArgsEB1a_
FNDA:0,_RINvNtCs2XBbTT2Tgsj_18test_fuzz_internal4dirs19path_from_args_typeNtNvNtNtCsgyJtF4GtVdY_10conversion8receiver20x_target_self_fuzz__10write_args4ArgsEB1a_
FNDA:0,_RINvNtCs2XBbTT2Tgsj_18test_fuzz_internal4dirs19path_from_args_typeNtNvNtNtCsgyJtF4GtVdY_10conversion8receiver21x_target_other_fuzz__10write_args4ArgsEB1a_
FNDA:0,_RINvNtCs2XBbTT2Tgsj_18test_fuzz_internal4dirs19path_from_args_typeNtNvNtNtCsiGGxYnMUpAI_13auto_generate6signed13target_fuzz__10write_args4ArgsEB1a_
FNDA:0,_RINvNtCs2XBbTT2Tgsj_18test_fuzz_internal4dirs19path_from_args_typeNtNvNtNtCsiGGxYnMUpAI_13auto_generate8unsigned13target_fuzz__10write_args4ArgsEB1a_
FNDA:0,_RINvNtCs2XBbTT2Tgsj_18test_fuzz_internal4dirs19path_from_args_typepEB4_
FNDA:0,_RINvNtCs2XBbTT2Tgsj_18test_fuzz_internal4dirs31corpus_directory_from_args_typeINtNvNtCs6ZJvwNFZ5Lo_11return_type16swap_swap_fuzz__10write_args4ArgsubEEB1l_
FNDA:0,_RINvNtCs2XBbTT2Tgsj_18test_fuzz_internal4dirs31corpus_directory_from_args_typeINtNvNtCsaVSfY7O0uYs_7generic14baz_qux_fuzz__10write_args4ArgsNtB1l_3BarEEB1l_
FNDA:0,_RINvNtCs2XBbTT2Tgsj_18test_fuzz_internal4dirs31corpus_directory_from_args_typeINtNvNtCsaVSfY7O0uYs_7generic20struct_target_fuzz__10write_args4ArgsNtB1l_3BarEEB1l_
FNDA:0,_RINvNtCs2XBbTT2Tgsj_18test_fuzz_internal4dirs31corpus_directory_from_args_typeINtNvNtCsaVSfY7O0uYs_7generic20struct_target_fuzz__10write_args4ArgsNtB1l_3FooEEB1l_
FNDA:0,_RINvNtCs2XBbTT2Tgsj_18test_fuzz_internal4dirs31corpus_directory_from_args_typeINtNvNtCsaVSfY7O0uYs_7generic26struct_target_bound_fuzz__10write_args4ArgsNtB1l_3BarINtB1l_3BazB2q_EEEB1l_
FNDA:0,_RINvNtCs2XBbTT2Tgsj_18test_fuzz_internal4dirs31corpus_directory_from_args_typeINtNvNtCsaVSfY7O0uYs_7generic26struct_target_bound_fuzz__10write_args4ArgsNtB1l_3FooINtB1l_3BazB2q_EEEB1l_
FNDA:0,_RINvNtCs2XBbTT2Tgsj_18test_fuzz_internal4dirs31corpus_directory_from_args_typeINtNvNtCsaVSfY7O0uYs_7generic33struct_target_where_clause_fuzz__10write_args4ArgsNtB1l_3BarINtB1l_3BazB2x_EEEB1l_
FNDA:0,_RINvNtCs2XBbTT2Tgsj_18test_fuzz_internal4dirs31corpus_directory_from_args_typeINtNvNtCsaVSfY7O0uYs_7generic33struct_target_where_clause_fuzz__10write_args4ArgsNtB1l_3FooINtB1l_3BazB2x_EEEB1l_
FNDA:0,_RINvNtCs2XBbTT2Tgsj_18test_fuzz_internal4dirs31corpus_directory_from_args_typeINtNvNtCskkeazd6lurB_15associated_type20serializes_to_fuzz__10write_args4ArgsNtB1l_7AddressEEB1l_
FNDA:0,_RINvNtCs2XBbTT2Tgsj_18test_fuzz_internal4dirs31corpus_directory_from_args_typeINtNvNtNtCsaVSfY7O0uYs_7generic27receiverless_trait_function20struct_target_fuzz__10write_args4ArgsNtB1n_3BarEEB1n_
FNDA:0,_RINvNtCs2XBbTT2Tgsj_18test_fuzz_internal4dirs31corpus_directory_from_args_typeNtNvNtCs2zeNb6jgslg_19self_ty_in_mod_name20struct_target_fuzz__10write_args4ArgsEB1k_
FNDA:0,_RINvNtCs2XBbTT2Tgsj_18test_fuzz_internal4dirs31corpus_directory_from_args_typeNtNvNtCs4MGHVrkl72m_4from15bar_from_fuzz__10write_args4ArgsEB1k_
FNDA:0,_RINvNtCs2XBbTT2Tgsj_18test_fuzz_internal4dirs31corpus_directory_from_args_typeNtNvNtCs4MGHVrkl72m_4from15baz_into_fuzz__10write_args4ArgsEB1k_
FNDA:0,_RINvNtCs2XBbTT2Tgsj_18test_fuzz_internal4dirs31corpus_directory_from_args_typeNtNvNtCs4MGHVrkl72m_4from19baz_try_from_fuzz__10write_args4ArgsEB1k_
FNDA:0,_RINvNtCs2XBbTT2Tgsj_18test_fuzz_internal4dirs31corpus_directory_from_args_typeNtNvNtCs4jNeg51vteg_8lifetime13target_fuzz__10write_args4ArgsEB1k_
FNDA:0,_RINvNtCs2XBbTT2Tgsj_18test_fuzz_internal4dirs31corpus_directory_from_args_typeNtNvNtCs5fNIG3PZaJo_11hello_world19intermediary_fuzz__10write_args4ArgsEB1k_
FNDA:0,_RINvNtCs2XBbTT2Tgsj_18test_fuzz_internal4dirs31corpus_directory_from_args_typeNtNvNtCs6fBdTSegfKf_14test_fuzz_impl17struct_bar_fuzz__10write_args4ArgsEB1k_
FNDA:0,_RINvNtCs2XBbTT2Tgsj_18test_fuzz_internal4dirs31corpus_directory_from_args_typeNtNvNtCs6fBdTSegfKf_14test_fuzz_impl17struct_foo_fuzz__10write_args4ArgsEB1k_
FNDA:0,_RINvNtCs2XBbTT2Tgsj_18test_fuzz_internal4dirs31corpus_directory_from_args_typeNtNvNtCs6z3aMDs3O5H_14parse_duration12parse_fuzz__10write_args4ArgsEB1k_
FNDA:0,_RINvNtCs2XBbTT2Tgsj_18test_fuzz_internal4dirs31corpus_directory_from_args_typeNtNvNtCs7l6y1YLWhzH_5alloc13target_fuzz__10write_args4ArgsEB1k_
FNDA:0,_RINvNtCs2XBbTT2Tgsj_18test_fuzz_internal4dirs31corpus_directory_from_args_typeNtNvNtCs8VL8JzDaoWz_11hello_world19intermediary_fuzz__10write_args4ArgsEB1k_
FNDA:0,_RINvNtCs2XBbTT2Tgsj_18test_fuzz_internal4dirs31corpus_directory_from_args_typeNtNvNtCs9i11WczUoNj_7profile13target_fuzz__10write_args4ArgsEB1k_
FNDA:0,_RINvNtCs2XBbTT2Tgsj_18test_fuzz_internal4dirs31corpus_directory_from_args_typeNtNvNtCsb7JfYwj8ipQ_10serde_attr13target_fuzz__10write_args4ArgsEB1k_
FNDA:0,_RINvNtCs2XBbTT2Tgsj_18test_fuzz_internal4dirs31corpus_directory_from_args_typeNtNvNtCsbupd9d71YLx_16calm_and_panicky11calm_fuzz__10write_args4ArgsEB1k_
FNDA:0,_RINvNtCs2XBbTT2Tgsj_18test_fuzz_internal4dirs31corpus_directory_from_args_typeNtNvNtCsbupd9d71YLx_16calm_and_panicky14panicky_fuzz__10write_args4ArgsEB1k_
FNDA:0,_RINvNtCs2XBbTT2Tgsj_18test_fuzz_internal4dirs31corpus_directory_from_args_typeNtNvNtCscaf2gEuSGn5_6qwerty13target_fuzz__10write_args4ArgsEB1k_
FNDA:0,_RINvNtCs2XBbTT2Tgsj_18test_fuzz_internal4dirs31corpus_directory_from_args_typeNtNvNtCsfEcBWhN4Na3_3arc13target_fuzz__10write_args4ArgsEB1k_
FNDA:0,_RINvNtCs2XBbTT2Tgsj_18test_fuzz_internal4dirs31corpus_directory_from_args_typeNtNvNtCsfODoU0UL7aq_11manual_leak23wrapped_key_dump_fuzz__10write_args4ArgsEB1k_
FNDA:0,_RINvNtCs2XBbTT2Tgsj_18test_fuzz_internal4dirs31corpus_directory_from_args_typeNtNvNtCsfOIDT8lUV2L_7mut_ref17target_str_fuzz__10write_args4ArgsEB1k_
FNDA:0,_RINvNtCs2XBbTT2Tgsj_18test_fuzz_internal4dirs31corpus_directory_from_args_typeNtNvNtCsfOIDT8lUV2L_7mut_ref19target_slice_fuzz__10write_args4ArgsEB1k_
FNDA:0,_RINvNtCs2XBbTT2Tgsj_18test_fuzz_internal4dirs31corpus_directory_from_args_typeNtNvNtCsfrSB0FWCrTD_6rename10bar_fuzz__10write_args4ArgsEB1k_
FNDA:0,_RINvNtCs2XBbTT2Tgsj_18test_fuzz_internal4dirs31corpus_directory_from_args_typeNtNvNtCsgZ69XjcSWhh_6assert13target_fuzz__10write_args4ArgsEB1k_
FNDA:0,_RINvNtCs2XBbTT2Tgsj_18test_fuzz_internal4dirs31corpus_directory_from_args_typeNtNvNtCsikhsy0ZvG4z_4cast13target_fuzz__10write_args4ArgsEB1k_
FNDA:0,_RINvNtCs2XBbTT2Tgsj_18test_fuzz_internal4dirs31corpus_directory_from_args_typeNtNvNtCsjk8KY6qq2Wr_8parallel15target_0_fuzz__10write_args4ArgsEB1k_
FNDA:0,_RINvNtCs2XBbTT2Tgsj_18test_fuzz_internal4dirs31corpus_directory_from_args_typeNtNvNtCsjk8KY6qq2Wr_8parallel15target_1_fuzz__10write_args4ArgsEB1k_
FNDA:0,_RINvNtCs2XBbTT2Tgsj_18test_fuzz_internal4dirs31corpus_directory_from_args_typeNtNvNtCsjk8KY6qq2Wr_8parallel15target_2_fuzz__10write_args4ArgsEB1k_
FNDA:0,_RINvNtCs2XBbTT2Tgsj_18test_fuzz_internal4dirs31corpus_directory_from_args_typeNtNvNtCsjk8KY6qq2Wr_8parallel15target_3_fuzz__10write_args4ArgsEB1k_
FNDA:0,_RINvNtCs2XBbTT2Tgsj_18test_fuzz_internal4dirs31corpus_directory_from_args_typeNtNvNtCsjk8KY6qq2Wr_8parallel15target_4_fuzz__10write_args4ArgsEB1k_
FNDA:0,_RINvNtCs2XBbTT2Tgsj_18test_fuzz_internal4dirs31corpus_directory_from_args_typeNtNvNtCsjk8KY6qq2Wr_8parallel15target_5_fuzz__10write_args4ArgsEB1k_
FNDA:0,_RINvNtCs2XBbTT2Tgsj_18test_fuzz_internal4dirs31corpus_directory_from_args_typeNtNvNtCskPkSWzOTnW2_9collision11test_fuzz__10write_args4ArgsEB1k_
FNDA:0,_RINvNtCs2XBbTT2Tgsj_18test_fuzz_internal4dirs31corpus_directory_from_args_typeNtNvNtNtCs4RwwcRvri8p_7default10no_default13target_fuzz__10write_args4ArgsEB1m_
FNDA:0,_RINvNtCs2XBbTT2Tgsj_18test_fuzz_internal4dirs31corpus_directory_from_args_typeNtNvNtNtCs4RwwcRvri8p_7default7default13target_fuzz__10write_args4ArgsEB1m_
FNDA:0,_RINvNtCs2XBbTT2Tgsj_18test_fuzz_internal4dirs31corpus_directory_from_args_typeNtNvNtNtCsbZ6qTFMlSKY_5serde10byte_array13target_fuzz__10write_args4ArgsEB1m_
FNDA:0,_RINvNtCs2XBbTT2Tgsj_18test_fuzz_internal4dirs31corpus_directory_from_args_typeNtNvNtNtCsbZ6qTFMlSKY_5serde11unit_struct13target_fuzz__10write_args4ArgsEB1m_
FNDA:0,_RINvNtCs2XBbTT2Tgsj_18test_fuzz_internal4dirs31corpus_directory_from_args_typeNtNvNtNtCsbZ6qTFMlSKY_5serde12tuple_struct13target_fuzz__10write_args4ArgsEB1m_
FNDA:0,_RINvNtCs2XBbTT2Tgsj_18test_fuzz_internal4dirs31corpus_directory_from_args_typeNtNvNtNtCsbZ6qTFMlSKY_5serde12unit_variant13target_fuzz__10write_args4ArgsEB1m_
FNDA:0,_RINvNtCs2XBbTT2Tgsj_18test_fuzz_internal4dirs31corpus_directory_from_args_typeNtNvNtNtCsbZ6qTFMlSKY_5serde13tuple_variant13target_fuzz__10write_args4ArgsEB1m_
FNDA:0,_RINvNtCs2XBbTT2Tgsj_18test_fuzz_internal4dirs31corpus_directory_from_args_typeNtNvNtNtCsbZ6qTFMlSKY_5serde14newtype_struct13target_fuzz__10write_args4ArgsEB1m_
FNDA:0,_RINvNtCs2XBbTT2Tgsj_18test_fuzz_internal4dirs31corpus_directory_from_args_typeNtNvNtNtCsbZ6qTFMlSKY_5serde14struct_variant13target_fuzz__10write_args4ArgsEB1m_
FNDA:0,_RINvNtCs2XBbTT2Tgsj_18test_fuzz_internal4dirs31corpus_directory_from_args_typeNtNvNtNtCsbZ6qTFMlSKY_5serde15newtype_variant13target_fuzz__10write_args4ArgsEB1m_
FNDA:0,_RINvNtCs2XBbTT2Tgsj_18test_fuzz_internal4dirs31corpus_directory_from_args_typeNtNvNtNtCsbZ6qTFMlSKY_5serde3map13target_fuzz__10write_args4ArgsEB1m_
FNDA:0,_RINvNtCs2XBbTT2Tgsj_18test_fuzz_internal4dirs31corpus_directory_from_args_typeNtNvNtNtCsbZ6qTFMlSKY_5serde3seq13target_fuzz__10write_args4ArgsEB1m_
FNDA:0,_RINvNtCs2XBbTT2Tgsj_18test_fuzz_internal4dirs31corpus_directory_from_args_typeNtNvNtNtCsbZ6qTFMlSKY_5serde4unit13target_fuzz__10write_args4ArgsEB1m_
FNDA:0,_RINvNtCs2XBbTT2Tgsj_18test_fuzz_internal4dirs31corpus_directory_from_args_typeNtNvNtNtCsbZ6qTFMlSKY_5serde5tuple13target_fuzz__10write_args4ArgsEB1m_
FNDA:0,_RINvNtCs2XBbTT2Tgsj_18test_fuzz_internal4dirs31corpus_directory_from_args_typeNtNvNtNtCsbZ6qTFMlSKY_5serde6option13target_fuzz__10write_args4ArgsEB1m_
FNDA:0,_RINvNtCs2XBbTT2Tgsj_18test_fuzz_internal4dirs31corpus_directory_from_args_typeNtNvNtNtCsbZ6qTFMlSKY_5serde6string13target_fuzz__10write_args4ArgsEB1m_
FNDA:0,_RINvNtCs2XBbTT2Tgsj_18test_fuzz_internal4dirs31corpus_directory_from_args_typeNtNvNtNtCsbZ6qTFMlSKY_5serde6strukt13target_fuzz__10write_args4ArgsEB1m_
FNDA:0,_RINvNtCs2XBbTT2Tgsj_18test_fuzz_internal4dirs31corpus_directory_from_args_typeNtNvNtNtCsfL22ijsdh9Q_5debug4hang13target_fuzz__10write_args4ArgsEB1m_
FNDA:0,_RINvNtCs2XBbTT2Tgsj_18test_fuzz_internal4dirs31corpus_directory_from_args_typeNtNvNtNtCsfL22ijsdh9Q_5debug5crash13target_fuzz__10write_args4ArgsEB1m_
FNDA:0,_RINvNtCs2XBbTT2Tgsj_18test_fuzz_internal4dirs31corpus_directory_from_args_typeNtNvNtNtCsgyJtF4GtVdY_10conversion11uncloneable13target_fuzz__10write_args4ArgsEB1m_
FNDA:0,_RINvNtCs2XBbTT2Tgsj_18test_fuzz_internal4dirs31corpus_directory_from_args_typeNtNvNtNtCsgyJtF4GtVdY_10conversion4path13target_fuzz__10write_args4ArgsEB1m_
FNDA:0,_RINvNtCs2XBbTT2Tgsj_18test_fuzz_internal4dirs31corpus_directory_from_args_typeNtNvNtNtCsgyJtF4GtVdY_10conversion5array13target_fuzz__10write_args4ArgsEB1m_
FNDA:0,_RINvNtCs2XBbTT2Tgsj_18test_fuzz_internal4dirs31corpus_directory_from_args_typeNtNvNtNtCsgyJtF4GtVdY_10conversion7mutable13target_fuzz__10write_args4ArgsEB1m_
FNDA:0,_RINvNtCs2XBbTT2Tgsj_18test_fuzz_internal4dirs31corpus_directory_from_args_typeNtNvNtNtCsgyJtF4GtVdY_10conversion8lifetime13target_fuzz__10write_args4ArgsEB1m_
FNDA:0,_RINvNtCs2XBbTT2Tgsj_18test_fuzz_internal4dirs31corpus_directory_from_args_typeNtNvNtNtCsgyJtF4GtVdY_10conversion8receiver20x_target_self_fuzz__10write_args4ArgsEB1m_
FNDA:0,_RINvNtCs2XBbTT2Tgsj_18test_fuzz_internal4dirs31corpus_directory_from_args_typeNtNvNtNtCsgyJtF4GtVdY_10conversion8receiver21x_target_other_fuzz__10write_args4ArgsEB1m_
FNDA:0,_RINvNtCs2XBbTT2Tgsj_18test_fuzz_internal4dirs31corpus_directory_from_args_typeNtNvNtNtCsiGGxYnMUpAI_13auto_generate6signed13target_fuzz__10write_args4ArgsEB1m_
FNDA:0,_RINvNtCs2XBbTT2Tgsj_18test_fuzz_internal4dirs31corpus_directory_from_args_typeNtNvNtNtCsiGGxYnMUpAI_13auto_generate8unsigned13target_fuzz__10write_args4ArgsEB1m_
FNDA:0,_RINvNtCs2XBbTT2Tgsj_18test_fuzz_internal4dirs31corpus_directory_from_args_typepEB4_
FNDA:0,_RINvNtCs2XBbTT2Tgsj_18test_fuzz_internal4dirs37generic_args_directory_from_args_typeINtNtCs6ZJvwNFZ5Lo_11return_type16swap_swap_fuzz__4ArgsubEEB1p_
FNDA:0,_RINvNtCs2XBbTT2Tgsj_18test_fuzz_internal4dirs37generic_args_directory_from_args_typeINtNtCsaVSfY7O0uYs_7generic14baz_qux_fuzz__4ArgsNtB1p_3BarEEB1p_
FNDA:0,_RINvNtCs2XBbTT2Tgsj_18test_fuzz_internal4dirs37generic_args_directory_from_args_typeINtNtCsaVSfY7O0uYs_7generic20struct_target_fuzz__4ArgsNtB1p_3BarEEB1p_
FNDA:0,_RINvNtCs2XBbTT2Tgsj_18test_fuzz_internal4dirs37generic_args_directory_from_args_typeINtNtCsaVSfY7O0uYs_7generic20struct_target_fuzz__4ArgsNtB1p_3FooEEB1p_
FNDA:0,_RINvNtCs2XBbTT2Tgsj_18test_fuzz_internal4dirs37generic_args_directory_from_args_typeINtNtCsaVSfY7O0uYs_7generic26struct_target_bound_fuzz__4ArgsNtB1p_3BarINtB1p_3BazB2i_EEEB1p_
FNDA:0,_RINvNtCs2XBbTT2Tgsj_18test_fuzz_internal4dirs37generic_args_directory_from_args_typeINtNtCsaVSfY7O0uYs_7generic26struct_target_bound_fuzz__4ArgsNtB1p_3FooINtB1p_3BazB2i_EEEB1p_
FNDA:0,_RINvNtCs2XBbTT2Tgsj_18test_fuzz_internal4dirs37generic_args_directory_from_args_typeINtNtCsaVSfY7O0uYs_7generic33struct_target_where_clause_fuzz__4ArgsNtB1p_3BarINtB1p_3BazB2p_EEEB1p_
FNDA:0,_RINvNtCs2XBbTT2Tgsj_18test_fuzz_internal4dirs37generic_args_directory_from_args_typeINtNtCsaVSfY7O0uYs_7generic33struct_target_where_clause_fuzz__4ArgsNtB1p_3FooINtB1p_3BazB2p_EEEB1p_
FNDA:0,_RINvNtCs2XBbTT2Tgsj_18test_fuzz_internal4dirs37generic_args_directory_from_args_typeINtNtCskkeazd6lurB_15associated_type20serializes_to_fuzz__4ArgsNtB1p_7AddressEEB1p_
FNDA:0,_RINvNtCs2XBbTT2Tgsj_18test_fuzz_internal4dirs37generic_args_directory_from_args_typeINtNtNtCsaVSfY7O0uYs_7generic27receiverless_trait_function20struct_target_fuzz__4ArgsNtB1r_3BarEEB1r_
FNDA:0,_RINvNtCs2XBbTT2Tgsj_18test_fuzz_internal4dirs37generic_args_directory_from_args_typeNtNtCs2zeNb6jgslg_19self_ty_in_mod_name20struct_target_fuzz__4ArgsEB1o_
FNDA:0,_RINvNtCs2XBbTT2Tgsj_18test_fuzz_internal4dirs37generic_args_directory_from_args_typeNtNtCs4MGHVrkl72m_4from15bar_from_fuzz__4ArgsEB1o_
FNDA:0,_RINvNtCs2XBbTT2Tgsj_18test_fuzz_internal4dirs37generic_args_directory_from_args_typeNtNtCs4MGHVrkl72m_4from15baz_into_fuzz__4ArgsEB1o_
FNDA:0,_RINvNtCs2XBbTT2Tgsj_18test_fuzz_internal4dirs37generic_args_directory_from_args_typeNtNtCs4MGHVrkl72m_4from19baz_try_from_fuzz__4ArgsEB1o_
FNDA:0,_RINvNtCs2XBbTT2Tgsj_18test_fuzz_internal4dirs37generic_args_directory_from_args_typeNtNtCs4hte0XrDpp0_7unserde13target_fuzz__4ArgsEB1o_
FNDA:0,_RINvNtCs2XBbTT2Tgsj_18test_fuzz_internal4dirs37generic_args_directory_from_args_typeNtNtCs4hte0XrDpp0_7unserde27target_in_production_fuzz__4ArgsEB1o_
FNDA:0,_RINvNtCs2XBbTT2Tgsj_18test_fuzz_internal4dirs37generic_args_directory_from_args_typeNtNtCs4jNeg51vteg_8lifetime13target_fuzz__4ArgsEB1o_
FNDA:0,_RINvNtCs2XBbTT2Tgsj_18test_fuzz_internal4dirs37generic_args_directory_from_args_typeNtNtCs5fNIG3PZaJo_11hello_world19intermediary_fuzz__4ArgsEB1o_
FNDA:0,_RINvNtCs2XBbTT2Tgsj_18test_fuzz_internal4dirs37generic_args_directory_from_args_typeNtNtCs6fBdTSegfKf_14test_fuzz_impl17struct_bar_fuzz__4ArgsEB1o_
FNDA:0,_RINvNtCs2XBbTT2Tgsj_18test_fuzz_internal4dirs37generic_args_directory_from_args_typeNtNtCs6fBdTSegfKf_14test_fuzz_impl17struct_foo_fuzz__4ArgsEB1o_
FNDA:0,_RINvNtCs2XBbTT2Tgsj_18test_fuzz_internal4dirs37generic_args_directory_from_args_typeNtNtCs6z3aMDs3O5H_14parse_duration12parse_fuzz__4ArgsEB1o_
FNDA:0,_RINvNtCs2XBbTT2Tgsj_18test_fuzz_internal4dirs37generic_args_directory_from_args_typeNtNtCs7l6y1YLWhzH_5alloc13target_fuzz__4ArgsEB1o_
FNDA:0,_RINvNtCs2XBbTT2Tgsj_18test_fuzz_internal4dirs37generic_args_directory_from_args_typeNtNtCs8VL8JzDaoWz_11hello_world19intermediary_fuzz__4ArgsEB1o_
FNDA:0,_RINvNtCs2XBbTT2Tgsj_18test_fuzz_internal4dirs37generic_args_directory_from_args_typeNtNtCs9i11WczUoNj_7profile13target_fuzz__4ArgsEB1o_
FNDA:0,_RINvNtCs2XBbTT2Tgsj_18test_fuzz_internal4dirs37generic_args_directory_from_args_typeNtNtCsaVSfY7O0uYs_7generic38struct_target_only_generic_args_fuzz__4ArgsEB1o_
FNDA:0,_RINvNtCs2XBbTT2Tgsj_18test_fuzz_internal4dirs37generic_args_directory_from_args_typeNtNtCsb7JfYwj8ipQ_10serde_attr13target_fuzz__4ArgsEB1o_
FNDA:0,_RINvNtCs2XBbTT2Tgsj_18test_fuzz_internal4dirs37generic_args_directory_from_args_typeNtNtCsbupd9d71YLx_16calm_and_panicky11calm_fuzz__4ArgsEB1o_
FNDA:0,_RINvNtCs2XBbTT2Tgsj_18test_fuzz_internal4dirs37generic_args_directory_from_args_typeNtNtCsbupd9d71YLx_16calm_and_panicky14panicky_fuzz__4ArgsEB1o_
FNDA:0,_RINvNtCs2XBbTT2Tgsj_18test_fuzz_internal4dirs37generic_args_directory_from_args_typeNtNtCscaf2gEuSGn5_6qwerty13target_fuzz__4ArgsEB1o_
FNDA:0,_RINvNtCs2XBbTT2Tgsj_18test_fuzz_internal4dirs37generic_args_directory_from_args_typeNtNtCsfEcBWhN4Na3_3arc13target_fuzz__4ArgsEB1o_
FNDA:0,_RINvNtCs2XBbTT2Tgsj_18test_fuzz_internal4dirs37generic_args_directory_from_args_typeNtNtCsfODoU0UL7aq_11manual_leak23wrapped_key_dump_fuzz__4ArgsEB1o_
FNDA:0,_RINvNtCs2XBbTT2Tgsj_18test_fuzz_internal4dirs37generic_args_directory_from_args_typeNtNtCsfOIDT8lUV2L_7mut_ref17target_str_fuzz__4ArgsEB1o_
FNDA:0,_RINvNtCs2XBbTT2Tgsj_18test_fuzz_internal4dirs37generic_args_directory_from_args_typeNtNtCsfOIDT8lUV2L_7mut_ref19target_slice_fuzz__4ArgsEB1o_
FNDA:0,_RINvNtCs2XBbTT2Tgsj_18test_fuzz_internal4dirs37generic_args_directory_from_args_typeNtNtCsfrSB0FWCrTD_6rename10bar_fuzz__4ArgsEB1o_
FNDA:0,_RINvNtCs2XBbTT2Tgsj_18test_fuzz_internal4dirs37generic_args_directory_from_args_typeNtNtCsgZ69XjcSWhh_6assert13target_fuzz__4ArgsEB1o_
FNDA:0,_RINvNtCs2XBbTT2Tgsj_18test_fuzz_internal4dirs37generic_args_directory_from_args_typeNtNtCsikhsy0ZvG4z_4cast13target_fuzz__4ArgsEB1o_
FNDA:0,_RINvNtCs2XBbTT2Tgsj_18test_fuzz_internal4dirs37generic_args_directory_from_args_typeNtNtCsjk8KY6qq2Wr_8parallel15target_0_fuzz__4ArgsEB1o_
FNDA:0,_RINvNtCs2XBbTT2Tgsj_18test_fuzz_internal4dirs37generic_args_directory_from_args_typeNtNtCsjk8KY6qq2Wr_8parallel15target_1_fuzz__4ArgsEB1o_
FNDA:0,_RINvNtCs2XBbTT2Tgsj_18test_fuzz_internal4dirs37generic_args_directory_from_args_typeNtNtCsjk8KY6qq2Wr_8parallel15target_2_fuzz__4ArgsEB1o_
FNDA:0,_RINvNtCs2XBbTT2Tgsj_18test_fuzz_internal4dirs37generic_args_directory_from_args_typeNtNtCsjk8KY6qq2Wr_8parallel15target_3_fuzz__4ArgsEB1o_
FNDA:0,_RINvNtCs2XBbTT2Tgsj_18test_fuzz_internal4dirs37generic_args_directory_from_args_typeNtNtCsjk8KY6qq2Wr_8parallel15target_4_fuzz__4ArgsEB1o_
FNDA:0,_RINvNtCs2XBbTT2Tgsj_18test_fuzz_internal4dirs37generic_args_directory_from_args_typeNtNtCsjk8KY6qq2Wr_8parallel15target_5_fuzz__4ArgsEB1o_
FNDA:0,_RINvNtCs2XBbTT2Tgsj_18test_fuzz_internal4dirs37generic_args_directory_from_args_typeNtNtCskPkSWzOTnW2_9collision11test_fuzz__4ArgsEB1o_
FNDA:0,_RINvNtCs2XBbTT2Tgsj_18test_fuzz_internal4dirs37generic_args_directory_from_args_typeNtNtNtCs4RwwcRvri8p_7default10no_default13target_fuzz__4ArgsEB1q_
FNDA:0,_RINvNtCs2XBbTT2Tgsj_18test_fuzz_internal4dirs37generic_args_directory_from_args_typeNtNtNtCs4RwwcRvri8p_7default7default13target_fuzz__4ArgsEB1q_
FNDA:0,_RINvNtCs2XBbTT2Tgsj_18test_fuzz_internal4dirs37generic_args_directory_from_args_typeNtNtNtCsbZ6qTFMlSKY_5serde10byte_array13target_fuzz__4ArgsEB1q_
FNDA:0,_RINvNtCs2XBbTT2Tgsj_18test_fuzz_internal4dirs37generic_args_directory_from_args_typeNtNtNtCsbZ6qTFMlSKY_5serde11unit_struct13target_fuzz__4ArgsEB1q_
FNDA:0,_RINvNtCs2XBbTT2Tgsj_18test_fuzz_internal4dirs37generic_args_directory_from_args_typeNtNtNtCsbZ6qTFMlSKY_5serde12tuple_struct13target_fuzz__4ArgsEB1q_
FNDA:0,_RINvNtCs2XBbTT2Tgsj_18test_fuzz_internal4dirs37generic_args_directory_from_args_typeNtNtNtCsbZ6qTFMlSKY_5serde12unit_variant13target_fuzz__4ArgsEB1q_
FNDA:0,_RINvNtCs2XBbTT2Tgsj_18test_fuzz_internal4dirs37generic_args_directory_from_args_typeNtNtNtCsbZ6qTFMlSKY_5serde13tuple_variant13target_fuzz__4ArgsEB1q_
FNDA:0,_RINvNtCs2XBbTT2Tgsj_18test_fuzz_internal4dirs37generic_args_directory_from_args_typeNtNtNtCsbZ6qTFMlSKY_5serde14newtype_struct13target_fuzz__4ArgsEB1q_
FNDA:0,_RINvNtCs2XBbTT2Tgsj_18test_fuzz_internal4dirs37generic_args_directory_from_args_typeNtNtNtCsbZ6qTFMlSKY_5serde14struct_variant13target_fuzz__4ArgsEB1q_
FNDA:0,_RINvNtCs2XBbTT2Tgsj_18test_fuzz_internal4dirs37generic_args_directory_from_args_typeNtNtNtCsbZ6qTFMlSKY_5serde15newtype_variant13target_fuzz__4ArgsEB1q_
FNDA:0,_RINvNtCs2XBbTT2Tgsj_18test_fuzz_internal4dirs37generic_args_directory_from_args_typeNtNtNtCsbZ6qTFMlSKY_5serde3map13target_fuzz__4ArgsEB1q_
FNDA:0,_RINvNtCs2XBbTT2Tgsj_18test_fuzz_internal4dirs37generic_args_directory_from_args_typeNtNtNtCsbZ6qTFMlSKY_5serde3seq13target_fuzz__4ArgsEB1q_
FNDA:0,_RINvNtCs2XBbTT2Tgsj_18test_fuzz_internal4dirs37generic_args_directory_from_args_typeNtNtNtCsbZ6qTFMlSKY_5serde4unit13target_fuzz__4ArgsEB1q_
FNDA:0,_RINvNtCs2XBbTT2Tgsj_18test_fuzz_internal4dirs37generic_args_directory_from_args_typeNtNtNtCsbZ6qTFMlSKY_5serde5tuple13target_fuzz__4ArgsEB1q_
FNDA:0,_RINvNtCs2XBbTT2Tgsj_18test_fuzz_internal4dirs37generic_args_directory_from_args_typeNtNtNtCsbZ6qTFMlSKY_5serde6option13target_fuzz__4ArgsEB1q_
FNDA:0,_RINvNtCs2XBbTT2Tgsj_18test_fuzz_internal4dirs37generic_args_directory_from_args_typeNtNtNtCsbZ6qTFMlSKY_5serde6string13target_fuzz__4ArgsEB1q_
FNDA:0,_RINvNtCs2XBbTT2Tgsj_18test_fuzz_internal4dirs37generic_args_directory_from_args_typeNtNtNtCsbZ6qTFMlSKY_5serde6strukt13target_fuzz__4ArgsEB1q_
FNDA:0,_RINvNtCs2XBbTT2Tgsj_18test_fuzz_internal4dirs37generic_args_directory_from_args_typeNtNtNtCsfL22ijsdh9Q_5debug4hang13target_fuzz__4ArgsEB1q_
FNDA:0,_RINvNtCs2XBbTT2Tgsj_18test_fuzz_internal4dirs37generic_args_directory_from_args_typeNtNtNtCsfL22ijsdh9Q_5debug5crash13target_fuzz__4ArgsEB1q_
FNDA:0,_RINvNtCs2XBbTT2Tgsj_18test_fuzz_internal4dirs37generic_args_directory_from_args_typeNtNtNtCsgyJtF4GtVdY_10conversion11uncloneable13target_fuzz__4ArgsEB1q_
FNDA:0,_RINvNtCs2XBbTT2Tgsj_18test_fuzz_internal4dirs37generic_args_directory_from_args_typeNtNtNtCsgyJtF4GtVdY_10conversion4path13target_fuzz__4ArgsEB1q_
FNDA:0,_RINvNtCs2XBbTT2Tgsj_18test_fuzz_internal4dirs37generic_args_directory_from_args_typeNtNtNtCsgyJtF4GtVdY_10conversion5array13target_fuzz__4ArgsEB1q_
FNDA:0,_RINvNtCs2XBbTT2Tgsj_18test_fuzz_internal4dirs37generic_args_directory_from_args_typeNtNtNtCsgyJtF4GtVdY_10conversion7mutable13target_fuzz__4ArgsEB1q_
FNDA:0,_RINvNtCs2XBbTT2Tgsj_18test_fuzz_internal4dirs37generic_args_directory_from_args_typeNtNtNtCsgyJtF4GtVdY_10conversion8lifetime13target_fuzz__4ArgsEB1q_
FNDA:0,_RINvNtCs2XBbTT2Tgsj_18test_fuzz_internal4dirs37generic_args_directory_from_args_typeNtNtNtCsgyJtF4GtVdY_10conversion8receiver20x_target_self_fuzz__4ArgsEB1q_
FNDA:0,_RINvNtCs2XBbTT2Tgsj_18test_fuzz_internal4dirs37generic_args_directory_from_args_typeNtNtNtCsgyJtF4GtVdY_10conversion8receiver21x_target_other_fuzz__4ArgsEB1q_
FNDA:0,_RINvNtCs2XBbTT2Tgsj_18test_fuzz_internal4dirs37generic_args_directory_from_args_typeNtNtNtCsiGGxYnMUpAI_13auto_generate6signed13target_fuzz__4ArgsEB1q_
FNDA:0,_RINvNtCs2XBbTT2Tgsj_18test_fuzz_internal4dirs37generic_args_directory_from_args_typeNtNtNtCsiGGxYnMUpAI_13auto_generate8unsigned13target_fuzz__4ArgsEB1q_
FNDA:0,_RINvNtCs2XBbTT2Tgsj_18test_fuzz_internal4dirs37generic_args_directory_from_args_typepEB4_
FNDA:0,_RINvNtCs2XBbTT2Tgsj_18test_fuzz_internal4dirs42impl_generic_args_directory_from_args_typeINtNtCs6ZJvwNFZ5Lo_11return_type16swap_swap_fuzz__4ArgsubEEB1u_
FNDA:0,_RINvNtCs2XBbTT2Tgsj_18test_fuzz_internal4dirs42impl_generic_args_directory_from_args_typeINtNtCsaVSfY7O0uYs_7generic14baz_qux_fuzz__4ArgsNtB1u_3BarEEB1u_
FNDA:0,_RINvNtCs2XBbTT2Tgsj_18test_fuzz_internal4dirs42impl_generic_args_directory_from_args_typeINtNtCsaVSfY7O0uYs_7generic20struct_target_fuzz__4ArgsNtB1u_3BarEEB1u_
FNDA:0,_RINvNtCs2XBbTT2Tgsj_18test_fuzz_internal4dirs42impl_generic_args_directory_from_args_typeINtNtCsaVSfY7O0uYs_7generic20struct_target_fuzz__4ArgsNtB1u_3FooEEB1u_
FNDA:0,_RINvNtCs2XBbTT2Tgsj_18test_fuzz_internal4dirs42impl_generic_args_directory_from_args_typeINtNtCsaVSfY7O0uYs_7generic26struct_target_bound_fuzz__4ArgsNtB1u_3BarINtB1u_3BazB2n_EEEB1u_
FNDA:0,_RINvNtCs2XBbTT2Tgsj_18test_fuzz_internal4dirs42impl_generic_args_directory_from_args_typeINtNtCsaVSfY7O0uYs_7generic26struct_target_bound_fuzz__4ArgsNtB1u_3FooINtB1u_3BazB2n_EEEB1u_
FNDA:0,_RINvNtCs2XBbTT2Tgsj_18test_fuzz_internal4dirs42impl_generic_args_directory_from_args_typeINtNtCsaVSfY7O0uYs_7generic33struct_target_where_clause_fuzz__4ArgsNtB1u_3BarINtB1u_3BazB2u_EEEB1u_
FNDA:0,_RINvNtCs2XBbTT2Tgsj_18test_fuzz_internal4dirs42impl_generic_args_directory_from_args_typeINtNtCsaVSfY7O0uYs_7generic33struct_target_where_clause_fuzz__4ArgsNtB1u_3FooINtB1u_3BazB2u_EEEB1u_
FNDA:0,_RINvNtCs2XBbTT2Tgsj_18test_fuzz_internal4dirs42impl_generic_args_directory_from_args_typeINtNtCskkeazd6lurB_15associated_type20serializes_to_fuzz__4ArgsNtB1u_7AddressEEB1u_
FNDA:0,_RINvNtCs2XBbTT2Tgsj_18test_fuzz_internal4dirs42impl_generic_args_directory_from_args_typeINtNtNtCsaVSfY7O0uYs_7generic27receiverless_trait_function20struct_target_fuzz__4ArgsNtB1w_3BarEEB1w_
FNDA:0,_RINvNtCs2XBbTT2Tgsj_18test_fuzz_internal4dirs42impl_generic_args_directory_from_args_typeNtNtCs2zeNb6jgslg_19self_ty_in_mod_name20struct_target_fuzz__4ArgsEB1t_
FNDA:0,_RINvNtCs2XBbTT2Tgsj_18test_fuzz_internal4dirs42impl_generic_args_directory_from_args_typeNtNtCs4MGHVrkl72m_4from15bar_from_fuzz__4ArgsEB1t_
FNDA:0,_RINvNtCs2XBbTT2Tgsj_18test_fuzz_internal4dirs42impl_generic_args_directory_from_args_typeNtNtCs4MGHVrkl72m_4from15baz_into_fuzz__4ArgsEB1t_
FNDA:0,_RINvNtCs2XBbTT2Tgsj_18test_fuzz_internal4dirs42impl_generic_args_directory_from_args_typeNtNtCs4MGHVrkl72m_4from19baz_try_from_fuzz__4ArgsEB1t_
FNDA:0,_RINvNtCs2XBbTT2Tgsj_18test_fuzz_internal4dirs42impl_generic_args_directory_from_args_typeNtNtCs4hte0XrDpp0_7unserde13target_fuzz__4ArgsEB1t_
FNDA:0,_RINvNtCs2XBbTT2Tgsj_18test_fuzz_internal4dirs42impl_generic_args_directory_from_args_typeNtNtCs4hte0XrDpp0_7unserde27target_in_production_fuzz__4ArgsEB1t_
FNDA:0,_RINvNtCs2XBbTT2Tgsj_18test_fuzz_internal4dirs42impl_generic_args_directory_from_args_typeNtNtCs4jNeg51vteg_8lifetime13target_fuzz__4ArgsEB1t_
FNDA:0,_RINvNtCs2XBbTT2Tgsj_18test_fuzz_internal4dirs42impl_generic_args_directory_from_args_typeNtNtCs5fNIG3PZaJo_11hello_world19intermediary_fuzz__4ArgsEB1t_
FNDA:0,_RINvNtCs2XBbTT2Tgsj_18test_fuzz_internal4dirs42impl_generic_args_directory_from_args_typeNtNtCs6fBdTSegfKf_14test_fuzz_impl17struct_bar_fuzz__4ArgsEB1t_
FNDA:0,_RINvNtCs2XBbTT2Tgsj_18test_fuzz_internal4dirs42impl_generic_args_directory_from_args_typeNtNtCs6fBdTSegfKf_14test_fuzz_impl17struct_foo_fuzz__4ArgsEB1t_
FNDA:0,_RINvNtCs2XBbTT2Tgsj_18test_fuzz_internal4dirs42impl_generic_args_directory_from_args_typeNtNtCs6z3aMDs3O5H_14parse_duration12parse_fuzz__4ArgsEB1t_
FNDA:0,_RINvNtCs2XBbTT2Tgsj_18test_fuzz_internal4dirs42impl_generic_args_directory_from_args_typeNtNtCs7l6y1YLWhzH_5alloc13target_fuzz__4ArgsEB1t_
FNDA:0,_RINvNtCs2XBbTT2Tgsj_18test_fuzz_internal4dirs42impl_generic_args_directory_from_args_typeNtNtCs8VL8JzDaoWz_11hello_world19intermediary_fuzz__4ArgsEB1t_
FNDA:0,_RINvNtCs2XBbTT2Tgsj_18test_fuzz_internal4dirs42impl_generic_args_directory_from_args_typeNtNtCs9i11WczUoNj_7profile13target_fuzz__4ArgsEB1t_
FNDA:0,_RINvNtCs2XBbTT2Tgsj_18test_fuzz_internal4dirs42impl_generic_args_directory_from_args_typeNtNtCsaVSfY7O0uYs_7generic38struct_target_only_generic_args_fuzz__4ArgsEB1t_
FNDA:0,_RINvNtCs2XBbTT2Tgsj_18test_fuzz_internal4dirs42impl_generic_args_directory_from_args_typeNtNtCsb7JfYwj8ipQ_10serde_attr13target_fuzz__4ArgsEB1t_
FNDA:0,_RINvNtCs2XBbTT2Tgsj_18test_fuzz_internal4dirs42impl_generic_args_directory_from_args_typeNtNtCsbupd9d71YLx_16calm_and_panicky11calm_fuzz__4ArgsEB1t_
FNDA:0,_RINvNtCs2XBbTT2Tgsj_18test_fuzz_internal4dirs42impl_generic_args_directory_from_args_typeNtNtCsbupd9d71YLx_16calm_and_panicky14panicky_fuzz__4ArgsEB1t_
FNDA:0,_RINvNtCs2XBbTT2Tgsj_18test_fuzz_internal4dirs42impl_generic_args_directory_from_args_typeNtNtCscaf2gEuSGn5_6qwerty13target_fuzz__4ArgsEB1t_
FNDA:0,_RINvNtCs2XBbTT2Tgsj_18test_fuzz_internal4dirs42impl_generic_args_directory_from_args_typeNtNtCsfEcBWhN4Na3_3arc13target_fuzz__4ArgsEB1t_
FNDA:0,_RINvNtCs2XBbTT2Tgsj_18test_fuzz_internal4dirs42impl_generic_args_directory_from_args_typeNtNtCsfODoU0UL7aq_11manual_leak23wrapped_key_dump_fuzz__4ArgsEB1t_
FNDA:0,_RINvNtCs2XBbTT2Tgsj_18test_fuzz_internal4dirs42impl_generic_args_directory_from_args_typeNtNtCsfOIDT8lUV2L_7mut_ref17target_str_fuzz__4ArgsEB1t_
FNDA:0,_RINvNtCs2XBbTT2Tgsj_18test_fuzz_internal4dirs42impl_generic_args_directory_from_args_typeNtNtCsfOIDT8lUV2L_7mut_ref19target_slice_fuzz__4ArgsEB1t_
FNDA:0,_RINvNtCs2XBbTT2Tgsj_18test_fuzz_internal4dirs42impl_generic_args_directory_from_args_typeNtNtCsfrSB0FWCrTD_6rename10bar_fuzz__4ArgsEB1t_
FNDA:0,_RINvNtCs2XBbTT2Tgsj_18test_fuzz_internal4dirs42impl_generic_args_directory_from_args_typeNtNtCsgZ69XjcSWhh_6assert13target_fuzz__4ArgsEB1t_
FNDA:0,_RINvNtCs2XBbTT2Tgsj_18test_fuzz_internal4dirs42impl_generic_args_directory_from_args_typeNtNtCsikhsy0ZvG4z_4cast13target_fuzz__4ArgsEB1t_
FNDA:0,_RINvNtCs2XBbTT2Tgsj_18test_fuzz_internal4dirs42impl_generic_args_directory_from_args_typeNtNtCsjk8KY6qq2Wr_8parallel15target_0_fuzz__4ArgsEB1t_
FNDA:0,_RINvNtCs2XBbTT2Tgsj_18test_fuzz_internal4dirs42impl_generic_args_directory_from_args_typeNtNtCsjk8KY6qq2Wr_8parallel15target_1_fuzz__4ArgsEB1t_
FNDA:0,_RINvNtCs2XBbTT2Tgsj_18test_fuzz_internal4dirs42impl_generic_args_directory_from_args_typeNtNtCsjk8KY6qq2Wr_8parallel15target_2_fuzz__4ArgsEB1t_
FNDA:0,_RINvNtCs2XBbTT2Tgsj_18test_fuzz_internal4dirs42impl_generic_args_directory_from_args_typeNtNtCsjk8KY6qq2Wr_8parallel15target_3_fuzz__4ArgsEB1t_
FNDA:0,_RINvNtCs2XBbTT2Tgsj_18test_fuzz_internal4dirs42impl_generic_args_directory_from_args_typeNtNtCsjk8KY6qq2Wr_8parallel15target_4_fuzz__4ArgsEB1t_
FNDA:0,_RINvNtCs2XBbTT2Tgsj_18test_fuzz_internal4dirs42impl_generic_args_directory_from_args_typeNtNtCsjk8KY6qq2Wr_8parallel15target_5_fuzz__4ArgsEB1t_
FNDA:0,_RINvNtCs2XBbTT2Tgsj_18test_fuzz_internal4dirs42impl_generic_args_directory_from_args_typeNtNtCskPkSWzOTnW2_9collision11test_fuzz__4ArgsEB1t_
FNDA:0,_RINvNtCs2XBbTT2Tgsj_18test_fuzz_internal4dirs42impl_generic_args_directory_from_args_typeNtNtNtCs4RwwcRvri8p_7default10no_default13target_fuzz__4ArgsEB1v_
FNDA:0,_RINvNtCs2XBbTT2Tgsj_18test_fuzz_internal4dirs42impl_generic_args_directory_from_args_typeNtNtNtCs4RwwcRvri8p_7default7default13target_fuzz__4ArgsEB1v_
FNDA:0,_RINvNtCs2XBbTT2Tgsj_18test_fuzz_internal4dirs42impl_generic_args_directory_from_args_typeNtNtNtCsbZ6qTFMlSKY_5serde10byte_array13target_fuzz__4ArgsEB1v_
FNDA:0,_RINvNtCs2XBbTT2Tgsj_18test_fuzz_internal4dirs42impl_generic_args_directory_from_args_typeNtNtNtCsbZ6qTFMlSKY_5serde11unit_struct13target_fuzz__4ArgsEB1v_
FNDA:0,_RINvNtCs2XBbTT2Tgsj_18test_fuzz_internal4dirs42impl_generic_args_directory_from_args_typeNtNtNtCsbZ6qTFMlSKY_5serde12tuple_struct13target_fuzz__4ArgsEB1v_
FNDA:0,_RINvNtCs2XBbTT2Tgsj_18test_fuzz_internal4dirs42impl_generic_args_directory_from_args_typeNtNtNtCsbZ6qTFMlSKY_5serde12unit_variant13target_fuzz__4ArgsEB1v_
FNDA:0,_RINvNtCs2XBbTT2Tgsj_18test_fuzz_internal4dirs42impl_generic_args_directory_from_args_typeNtNtNtCsbZ6qTFMlSKY_5serde13tuple_variant13target_fuzz__4ArgsEB1v_
FNDA:0,_RINvNtCs2XBbTT2Tgsj_18test_fuzz_internal4dirs42impl_generic_args_directory_from_args_typeNtNtNtCsbZ6qTFMlSKY_5serde14newtype_struct13target_fuzz__4ArgsEB1v_
FNDA:0,_RINvNtCs2XBbTT2Tgsj_18test_fuzz_internal4dirs42impl_generic_args_directory_from_args_typeNtNtNtCsbZ6qTFMlSKY_5serde14struct_variant13target_fuzz__4ArgsEB1v_
FNDA:0,_RINvNtCs2XBbTT2Tgsj_18test_fuzz_internal4dirs42impl_generic_args_directory_from_args_typeNtNtNtCsbZ6qTFMlSKY_5serde15newtype_variant13target_fuzz__4ArgsEB1v_
FNDA:0,_RINvNtCs2XBbTT2Tgsj_18test_fuzz_internal4dirs42impl_generic_args_directory_from_args_typeNtNtNtCsbZ6qTFMlSKY_5serde3map13target_fuzz__4ArgsEB1v_
FNDA:0,_RINvNtCs2XBbTT2Tgsj_18test_fuzz_internal4dirs42impl_generic_args_directory_from_args_typeNtNtNtCsbZ6qTFMlSKY_5serde3seq13target_fuzz__4ArgsEB1v_
FNDA:0,_RINvNtCs2XBbTT2Tgsj_18test_fuzz_internal4dirs42impl_generic_args_directory_from_args_typeNtNtNtCsbZ6qTFMlSKY_5serde4unit13target_fuzz__4ArgsEB1v_
FNDA:0,_RINvNtCs2XBbTT2Tgsj_18test_fuzz_internal4dirs42impl_generic_args_directory_from_args_typeNtNtNtCsbZ6qTFMlSKY_5serde5tuple13target_fuzz__4ArgsEB1v_
FNDA:0,_RINvNtCs2XBbTT2Tgsj_18test_fuzz_internal4dirs42impl_generic_args_directory_from_args_typeNtNtNtCsbZ6qTFMlSKY_5serde6option13target_fuzz__4ArgsEB1v_
FNDA:0,_RINvNtCs2XBbTT2Tgsj_18test_fuzz_internal4dirs42impl_generic_args_directory_from_args_typeNtNtNtCsbZ6qTFMlSKY_5serde6string13target_fuzz__4ArgsEB1v_
FNDA:0,_RINvNtCs2XBbTT2Tgsj_18test_fuzz_internal4dirs42impl_generic_args_directory_from_args_typeNtNtNtCsbZ6qTFMlSKY_5serde6strukt13target_fuzz__4ArgsEB1v_
FNDA:0,_RINvNtCs2XBbTT2Tgsj_18test_fuzz_internal4dirs42impl_generic_args_directory_from_args_typeNtNtNtCsfL22ijsdh9Q_5debug4hang13target_fuzz__4ArgsEB1v_
FNDA:0,_RINvNtCs2XBbTT2Tgsj_18test_fuzz_internal4dirs42impl_generic_args_directory_from_args_typeNtNtNtCsfL22ijsdh9Q_5debug5crash13target_fuzz__4ArgsEB1v_
FNDA:0,_RINvNtCs2XBbTT2Tgsj_18test_fuzz_internal4dirs42impl_generic_args_directory_from_args_typeNtNtNtCsgyJtF4GtVdY_10conversion11uncloneable13target_fuzz__4ArgsEB1v_
FNDA:0,_RINvNtCs2XBbTT2Tgsj_18test_fuzz_internal4dirs42impl_generic_args_directory_from_args_typeNtNtNtCsgyJtF4GtVdY_10conversion4path13target_fuzz__4ArgsEB1v_
FNDA:0,_RINvNtCs2XBbTT2Tgsj_18test_fuzz_internal4dirs42impl_generic_args_directory_from_args_typeNtNtNtCsgyJtF4GtVdY_10conversion5array13target_fuzz__4ArgsEB1v_
FNDA:0,_RINvNtCs2XBbTT2Tgsj_18test_fuzz_internal4dirs42impl_generic_args_directory_from_args_typeNtNtNtCsgyJtF4GtVdY_10conversion7mutable13target_fuzz__4ArgsEB1v_
FNDA:0,_RINvNtCs2XBbTT2Tgsj_18test_fuzz_internal4dirs42impl_generic_args_directory_from_args_typeNtNtNtCsgyJtF4GtVdY_10conversion8lifetime13target_fuzz__4ArgsEB1v_
FNDA:0,_RINvNtCs2XBbTT2Tgsj_18test_fuzz_internal4dirs42impl_generic_args_directory_from_args_typeNtNtNtCsgyJtF4GtVdY_10conversion8receiver20x_target_self_fuzz__4ArgsEB1v_
FNDA:0,_RINvNtCs2XBbTT2Tgsj_18test_fuzz_internal4dirs42impl_generic_args_directory_from_args_typeNtNtNtCsgyJtF4GtVdY_10conversion8receiver21x_target_other_fuzz__4ArgsEB1v_
FNDA:0,_RINvNtCs2XBbTT2Tgsj_18test_fuzz_internal4dirs42impl_generic_args_directory_from_args_typeNtNtNtCsiGGxYnMUpAI_13auto_generate6signed13target_fuzz__4ArgsEB1v_
FNDA:0,_RINvNtCs2XBbTT2Tgsj_18test_fuzz_internal4dirs42impl_generic_args_directory_from_args_typeNtNtNtCsiGGxYnMUpAI_13auto_generate8unsigned13target_fuzz__4ArgsEB1v_
FNDA:0,_RINvNtCs2XBbTT2Tgsj_18test_fuzz_internal4dirs42impl_generic_args_directory_from_args_typepEB4_
FNDA:0,_RINvNtCsR0Fn1Tqyat_9test_fuzz5utils13serialize_refINtNtNtNtCskruJqO5s2DS_7bincode8features5serde3ser12SerdeEncoderINtNtNtBV_3enc7encoder11EncoderImplNtNtBT_10impl_alloc9VecWriterINtNtBV_6config13ConfigurationNtB2T_12LittleEndianNtB2T_6VarintINtB2T_5LimitKj40000000_EEEEAhj20_ECsfODoU0UL7aq_11manual_leak
FNDA:0,_RINvNtCsR0Fn1Tqyat_9test_fuzz5utils15deserialize_refINtNtNtNtCskruJqO5s2DS_7bincode8features5serde8de_owned12SerdeDecoderINtNtNtBX_2de7decoder11DecoderImplINtNtBV_8impl_std8IoReaderQNtNtNtCsHIej2QEFI5_3std2io5stdio5StdinEINtNtBX_6config13ConfigurationNtB3A_12LittleEndianNtB3A_6VarintINtB3A_5LimitKj40000000_EEuEEAhj20_ECsfODoU0UL7aq_11manual_leak
FNDA:0,_RINvXINICseNzKavzW6Gi_17test_fuzz_runtimes_0pEpNtB6_16TryDebugFallback5applypEB6_
FNDA:0,_RINvXNtCsh5MssUcn8TK_17serde_combinators4ref_INtB3_4RefFINtNtB5_5type_4TypeAhj20_EENtB5_13SerializeWith9serializeINtNtNtNtCskruJqO5s2DS_7bincode8features5serde3ser12SerdeEncoderINtNtNtB1W_3enc7encoder11EncoderImplNtNtB1U_10impl_alloc9VecWriterINtNtB1W_6config13ConfigurationNtB3W_12LittleEndianNtB3W_6VarintINtB3W_5LimitKj40000000_EEEEECsfODoU0UL7aq_11manual_leak
FNDA:0,_RINvXNtCsh5MssUcn8TK_17serde_combinators5type_INtB3_4TypeAhj20_ENtB5_13SerializeWith9serializeINtNtNtNtCskruJqO5s2DS_7bincode8features5serde3ser12SerdeEncoderINtNtNtB1D_3enc7encoder11EncoderImplNtNtB1B_10impl_alloc9VecWriterINtNtB1D_6config13ConfigurationNtB3D_12LittleEndianNtB3D_6VarintINtB3D_5LimitKj40000000_EEEEECsfODoU0UL7aq_11manual_leak
FNDA:0,_RINvXs_CseNzKavzW6Gi_17test_fuzz_runtimeINtB5_8TryDebugINtCs6ZJvwNFZ5Lo_11return_type4SwapbuEENtB5_16TryDebugFallback5applyuEBU_
FNDA:0,_RINvXs_CseNzKavzW6Gi_17test_fuzz_runtimeINtB5_8TryDebugINtCs6ZJvwNFZ5Lo_11return_type4SwapubEENtB5_16TryDebugFallback5applyuEBU_
FNDA:0,_RINvXs_CseNzKavzW6Gi_17test_fuzz_runtimeINtB5_8TryDebugINtNtCs3XFJfFEDSOQ_4core6result6ResultNtCs4MGHVrkl72m_4from3BazReEENtB5_16TryDebugFallback5applyuEB1v_
FNDA:0,_RINvXs_CseNzKavzW6Gi_17test_fuzz_runtimeINtB5_8TryDebugNtCs2zeNb6jgslg_19self_ty_in_mod_name6StructENtB5_16TryDebugFallback5applyuEBT_
FNDA:0,_RINvXs_CseNzKavzW6Gi_17test_fuzz_runtimeINtB5_8TryDebugNtCs4MGHVrkl72m_4from3BarENtB5_16TryDebugFallback5applyuEBT_
FNDA:0,_RINvXs_CseNzKavzW6Gi_17test_fuzz_runtimeINtB5_8TryDebugNtCs4MGHVrkl72m_4from3BazENtB5_16TryDebugFallback5applyuEBT_
FNDA:0,_RINvXs_CseNzKavzW6Gi_17test_fuzz_runtimeINtB5_8TryDebugNtCs4MGHVrkl72m_4from3FooENtB5_16TryDebugFallback5applyuEBT_
FNDA:0,_RINvXs_CseNzKavzW6Gi_17test_fuzz_runtimeINtB5_8TryDebugNtCs4jNeg51vteg_8lifetime3BarENtB5_16TryDebugFallback5applyuEBT_
FNDA:0,_RINvXs_CseNzKavzW6Gi_17test_fuzz_runtimeINtB5_8TryDebugNtCs6fBdTSegfKf_14test_fuzz_impl6StructENtB5_16TryDebugFallback5applyuEBT_
FNDA:0,_RINvXs_CseNzKavzW6Gi_17test_fuzz_runtimeINtB5_8TryDebugNtCsaVSfY7O0uYs_7generic3BarENtB5_16TryDebugFallback5applyuEBT_
FNDA:0,_RINvXs_CseNzKavzW6Gi_17test_fuzz_runtimeINtB5_8TryDebugNtCsb7JfYwj8ipQ_10serde_attr7ContextENtB5_16TryDebugFallback5applyuEBT_
FNDA:0,_RINvXs_CseNzKavzW6Gi_17test_fuzz_runtimeINtB5_8TryDebugNtCsbupd9d71YLx_16calm_and_panicky4CalmENtB5_16TryDebugFallback5applyuEBT_
FNDA:0,_RINvXs_CseNzKavzW6Gi_17test_fuzz_runtimeINtB5_8TryDebugNtCsbupd9d71YLx_16calm_and_panicky7PanickyENtB5_16TryDebugFallback5applyuEBT_
FNDA:0,_RINvXs_CseNzKavzW6Gi_17test_fuzz_runtimeINtB5_8TryDebugNtCskkeazd6lurB_15associated_type7AddressENtB5_16TryDebugFallback5applyuEBT_
FNDA:0,_RINvXs_CseNzKavzW6Gi_17test_fuzz_runtimeINtB5_8TryDebugNtNtCs4RwwcRvri8p_7default10no_default6StructENtB5_16TryDebugFallback5applyuEBV_
FNDA:0,_RINvXs_CseNzKavzW6Gi_17test_fuzz_runtimeINtB5_8TryDebugNtNtCs4RwwcRvri8p_7default7default6StructENtB5_16TryDebugFallback5applyuEBV_
FNDA:0,_RINvXs_CseNzKavzW6Gi_17test_fuzz_runtimeINtB5_8TryDebugNtNtCsbZ6qTFMlSKY_5serde11unit_struct10UnitStructENtB5_16TryDebugFallback5applyuEBV_
FNDA:0,_RINvXs_CseNzKavzW6Gi_17test_fuzz_runtimeINtB5_8TryDebugNtNtCsbZ6qTFMlSKY_5serde12tuple_struct11TupleStructENtB5_16TryDebugFallback5applyuEBV_
FNDA:0,_RINvXs_CseNzKavzW6Gi_17test_fuzz_runtimeINtB5_8TryDebugNtNtCsbZ6qTFMlSKY_5serde12unit_variant11UnitVariantENtB5_16TryDebugFallback5applyuEBV_
FNDA:0,_RINvXs_CseNzKavzW6Gi_17test_fuzz_runtimeINtB5_8TryDebugNtNtCsbZ6qTFMlSKY_5serde13tuple_variant12TupleVariantENtB5_16TryDebugFallback5applyuEBV_
FNDA:0,_RINvXs_CseNzKavzW6Gi_17test_fuzz_runtimeINtB5_8TryDebugNtNtCsbZ6qTFMlSKY_5serde14newtype_struct13NewtypeStructENtB5_16TryDebugFallback5applyuEBV_
FNDA:0,_RINvXs_CseNzKavzW6Gi_17test_fuzz_runtimeINtB5_8TryDebugNtNtCsbZ6qTFMlSKY_5serde14struct_variant13StructVariantENtB5_16TryDebugFallback5applyuEBV_
FNDA:0,_RINvXs_CseNzKavzW6Gi_17test_fuzz_runtimeINtB5_8TryDebugNtNtCsbZ6qTFMlSKY_5serde15newtype_variant14NewtypeVariantENtB5_16TryDebugFallback5applyuEBV_
FNDA:0,_RINvXs_CseNzKavzW6Gi_17test_fuzz_runtimeINtB5_8TryDebugNtNtCsbZ6qTFMlSKY_5serde6strukt6StructENtB5_16TryDebugFallback5applyuEBV_
FNDA:0,_RINvXs_CseNzKavzW6Gi_17test_fuzz_runtimeINtB5_8TryDebugNtNtCsgag4BwXrjBQ_5alloc6string6StringENtB5_16TryDebugFallback5applyuECskkeazd6lurB_15associated_type
FNDA:0,_RINvXs_CseNzKavzW6Gi_17test_fuzz_runtimeINtB5_8TryDebugNtNtCsgyJtF4GtVdY_10conversion11uncloneable1YENtB5_16TryDebugFallback5applyuEBV_
FNDA:0,_RINvXs_CseNzKavzW6Gi_17test_fuzz_runtimeINtB5_8TryDebugNtNtCsgyJtF4GtVdY_10conversion7mutable1YENtB5_16TryDebugFallback5applyuEBV_
FNDA:0,_RINvXs_CseNzKavzW6Gi_17test_fuzz_runtimeINtB5_8TryDebugNtNtCsgyJtF4GtVdY_10conversion8lifetime1YENtB5_16TryDebugFallback5applyuEBV_
FNDA:0,_RINvXs_CseNzKavzW6Gi_17test_fuzz_runtimeINtB5_8TryDebugNtNtCsgyJtF4GtVdY_10conversion8receiver1YENtB5_16TryDebugFallback5applyuEBV_
FNDA:0,_RINvXs_NtCsh5MssUcn8TK_17serde_combinators4ref_INtB5_4RefFINtNtB7_5type_4TypeAhj20_EENtB7_15DeserializeWith11deserializeINtNtNtNtCskruJqO5s2DS_7bincode8features5serde8de_owned12SerdeDecoderINtNtNtB23_2de7decoder11DecoderImplINtNtB21_8impl_std8IoReaderQNtNtNtCsHIej2QEFI5_3std2io5stdio5StdinEINtNtB23_6config13ConfigurationNtB4I_12LittleEndianNtB4I_6VarintINtB4I_5LimitKj40000000_EEuEEECsfODoU0UL7aq_11manual_leak
FNDA:0,_RINvXs_NtCsh5MssUcn8TK_17serde_combinators5type_INtB5_4TypeAhj20_ENtB7_15DeserializeWith11deserializeINtNtNtNtCskruJqO5s2DS_7bincode8features5serde8de_owned12SerdeDecoderINtNtNtB1K_2de7decoder11DecoderImplINtNtB1I_8impl_std8IoReaderQNtNtNtCsHIej2QEFI5_3std2io5stdio5StdinEINtNtB1K_6config13ConfigurationNtB4p_12LittleEndianNtB4p_6VarintINtB4p_5LimitKj40000000_EEuEEECsfODoU0UL7aq_11manual_leak
FNDA:0,_RNCINvCsh5MssUcn8TK_17serde_combinators17compose_serializeINtNtNtNtCskruJqO5s2DS_7bincode8features5serde3ser12SerdeEncoderINtNtNtB13_3enc7encoder11EncoderImplNtNtB11_10impl_alloc9VecWriterINtNtB13_6config13ConfigurationNtB33_12LittleEndianNtB33_6VarintINtB33_5LimitKj40000000_EEEEAhj20_B4u_INvYINtNtB4_5type_4TypeB4u_ENtB4_13SerializeWith9serializeBU_ENCINvXNtB4_4ref_INtB5K_4RefFB4I_EB56_9serializeBU_E0E0CsfODoU0UL7aq_11manual_leak
FNDA:0,_RNCINvCsh5MssUcn8TK_17serde_combinators19compose_deserializeINtNtNtNtCskruJqO5s2DS_7bincode8features5serde8de_owned12SerdeDecoderINtNtNtB15_2de7decoder11DecoderImplINtNtB13_8impl_std8IoReaderQNtNtNtCsHIej2QEFI5_3std2io5stdio5StdinEINtNtB15_6config13ConfigurationNtB3K_12LittleEndianNtB3K_6VarintINtB3K_5LimitKj40000000_EEuEERAhj20_B5d_INvYINtNtB4_5type_4TypeB5d_ENtB4_15DeserializeWith11deserializeBW_ENCINvXs_NtB4_4ref_INtB6A_4RefFB5r_EB5P_11deserializeBW_E0E0CsfODoU0UL7aq_11manual_leak
FNDA:0,_RNCINvNtCs2XBbTT2Tgsj_18test_fuzz_internal4dirs19path_from_args_typeINtNtCs6ZJvwNFZ5Lo_11return_type16swap_swap_fuzz__4ArgsubEE0B19_
FNDA:0,_RNCINvNtCs2XBbTT2Tgsj_18test_fuzz_internal4dirs19path_from_args_typeINtNtCsaVSfY7O0uYs_7generic14baz_qux_fuzz__4ArgsNtB19_3BarEE0B19_
FNDA:0,_RNCINvNtCs2XBbTT2Tgsj_18test_fuzz_internal4dirs19path_from_args_typeINtNtCsaVSfY7O0uYs_7generic20struct_target_fuzz__4ArgsNtB19_3BarEE0B19_
FNDA:0,_RNCINvNtCs2XBbTT2Tgsj_18test_fuzz_internal4dirs19path_from_args_typeINtNtCsaVSfY7O0uYs_7generic20struct_target_fuzz__4ArgsNtB19_3FooEE0B19_
FNDA:0,_RNCINvNtCs2XBbTT2Tgsj_18test_fuzz_internal4dirs19path_from_args_typeINtNtCsaVSfY7O0uYs_7generic26struct_target_bound_fuzz__4ArgsNtB19_3BarINtB19_3BazB22_EEE0B19_
FNDA:0,_RNCINvNtCs2XBbTT2Tgsj_18test_fuzz_internal4dirs19path_from_args_typeINtNtCsaVSfY7O0uYs_7generic26struct_target_bound_fuzz__4ArgsNtB19_3FooINtB19_3BazB22_EEE0B19_
FNDA:0,_RNCINvNtCs2XBbTT2Tgsj_18test_fuzz_internal4dirs19path_from_args_typeINtNtCsaVSfY7O0uYs_7generic33struct_target_where_clause_fuzz__4ArgsNtB19_3BarINtB19_3BazB29_EEE0B19_
FNDA:0,_RNCINvNtCs2XBbTT2Tgsj_18test_fuzz_internal4dirs19path_from_args_typeINtNtCsaVSfY7O0uYs_7generic33struct_target_where_clause_fuzz__4ArgsNtB19_3FooINtB19_3BazB29_EEE0B19_
FNDA:0,_RNCINvNtCs2XBbTT2Tgsj_18test_fuzz_internal4dirs19path_from_args_typeINtNtCskkeazd6lurB_15associated_type20serializes_to_fuzz__4ArgsNtB19_7AddressEE0B19_
FNDA:0,_RNCINvNtCs2XBbTT2Tgsj_18test_fuzz_internal4dirs19path_from_args_typeINtNtNtCsaVSfY7O0uYs_7generic27receiverless_trait_function20struct_target_fuzz__4ArgsNtB1b_3BarEE0B1b_
FNDA:0,_RNCINvNtCs2XBbTT2Tgsj_18test_fuzz_internal4dirs19path_from_args_typeINtNvNtCs6ZJvwNFZ5Lo_11return_type16swap_swap_fuzz__10write_args4ArgsubEE0B1b_
FNDA:0,_RNCINvNtCs2XBbTT2Tgsj_18test_fuzz_internal4dirs19path_from_args_typeINtNvNtCsaVSfY7O0uYs_7generic14baz_qux_fuzz__10write_args4ArgsNtB1b_3BarEE0B1b_
FNDA:0,_RNCINvNtCs2XBbTT2Tgsj_18test_fuzz_internal4dirs19path_from_args_typeINtNvNtCsaVSfY7O0uYs_7generic20struct_target_fuzz__10write_args4ArgsNtB1b_3BarEE0B1b_
FNDA:0,_RNCINvNtCs2XBbTT2Tgsj_18test_fuzz_internal4dirs19path_from_args_typeINtNvNtCsaVSfY7O0uYs_7generic20struct_target_fuzz__10write_args4ArgsNtB1b_3FooEE0B1b_
FNDA:0,_RNCINvNtCs2XBbTT2Tgsj_18test_fuzz_internal4dirs19path_from_args_typeINtNvNtCsaVSfY7O0uYs_7generic26struct_target_bound_fuzz__10write_args4ArgsNtB1b_3BarINtB1b_3BazB2g_EEE0B1b_
FNDA:0,_RNCINvNtCs2XBbTT2Tgsj_18test_fuzz_internal4dirs19path_from_args_typeINtNvNtCsaVSfY7O0uYs_7generic26struct_target_bound_fuzz__10write_args4ArgsNtB1b_3FooINtB1b_3BazB2g_EEE0B1b_
FNDA:0,_RNCINvNtCs2XBbTT2Tgsj_18test_fuzz_internal4dirs19path_from_args_typeINtNvNtCsaVSfY7O0uYs_7generic33struct_target_where_clause_fuzz__10write_args4ArgsNtB1b_3BarINtB1b_3BazB2n_EEE0B1b_
FNDA:0,_RNCINvNtCs2XBbTT2Tgsj_18test_fuzz_internal4dirs19path_from_args_typeINtNvNtCsaVSfY7O0uYs_7generic33struct_target_where_clause_fuzz__10write_args4ArgsNtB1b_3FooINtB1b_3BazB2n_EEE0B1b_
FNDA:0,_RNCINvNtCs2XBbTT2Tgsj_18test_fuzz_internal4dirs19path_from_args_typeINtNvNtCskkeazd6lurB_15associated_type20serializes_to_fuzz__10write_args4ArgsNtB1b_7AddressEE0B1b_
FNDA:0,_RNCINvNtCs2XBbTT2Tgsj_18test_fuzz_internal4dirs19path_from_args_typeINtNvNtNtCsaVSfY7O0uYs_7generic27receiverless_trait_function20struct_target_fuzz__10write_args4ArgsNtB1d_3BarEE0B1d_
FNDA:0,_RNCINvNtCs2XBbTT2Tgsj_18test_fuzz_internal4dirs19path_from_args_typeNtNtCs2zeNb6jgslg_19self_ty_in_mod_name20struct_target_fuzz__4ArgsE0B18_
FNDA:0,_RNCINvNtCs2XBbTT2Tgsj_18test_fuzz_internal4dirs19path_from_args_typeNtNtCs4MGHVrkl72m_4from15bar_from_fuzz__4ArgsE0B18_
FNDA:0,_RNCINvNtCs2XBbTT2Tgsj_18test_fuzz_internal4dirs19path_from_args_typeNtNtCs4MGHVrkl72m_4from15baz_into_fuzz__4ArgsE0B18_
FNDA:0,_RNCINvNtCs2XBbTT2Tgsj_18test_fuzz_internal4dirs19path_from_args_typeNtNtCs4MGHVrkl72m_4from19baz_try_from_fuzz__4ArgsE0B18_
FNDA:0,_RNCINvNtCs2XBbTT2Tgsj_18test_fuzz_internal4dirs19path_from_args_typeNtNtCs4hte0XrDpp0_7unserde13target_fuzz__4ArgsE0B18_
FNDA:0,_RNCINvNtCs2XBbTT2Tgsj_18test_fuzz_internal4dirs19path_from_args_typeNtNtCs4hte0XrDpp0_7unserde27target_in_production_fuzz__4ArgsE0B18_
FNDA:0,_RNCINvNtCs2XBbTT2Tgsj_18test_fuzz_internal4dirs19path_from_args_typeNtNtCs4jNeg51vteg_8lifetime13target_fuzz__4ArgsE0B18_
FNDA:0,_RNCINvNtCs2XBbTT2Tgsj_18test_fuzz_internal4dirs19path_from_args_typeNtNtCs5fNIG3PZaJo_11hello_world19intermediary_fuzz__4ArgsE0B18_
FNDA:0,_RNCINvNtCs2XBbTT2Tgsj_18test_fuzz_internal4dirs19path_from_args_typeNtNtCs6fBdTSegfKf_14test_fuzz_impl17struct_bar_fuzz__4ArgsE0B18_
FNDA:0,_RNCINvNtCs2XBbTT2Tgsj_18test_fuzz_internal4dirs19path_from_args_typeNtNtCs6fBdTSegfKf_14test_fuzz_impl17struct_foo_fuzz__4ArgsE0B18_
FNDA:0,_RNCINvNtCs2XBbTT2Tgsj_18test_fuzz_internal4dirs19path_from_args_typeNtNtCs6z3aMDs3O5H_14parse_duration12parse_fuzz__4ArgsE0B18_
FNDA:0,_RNCINvNtCs2XBbTT2Tgsj_18test_fuzz_internal4dirs19path_from_args_typeNtNtCs7l6y1YLWhzH_5alloc13target_fuzz__4ArgsE0B18_
FNDA:0,_RNCINvNtCs2XBbTT2Tgsj_18test_fuzz_internal4dirs19path_from_args_typeNtNtCs8VL8JzDaoWz_11hello_world19intermediary_fuzz__4ArgsE0B18_
FNDA:0,_RNCINvNtCs2XBbTT2Tgsj_18test_fuzz_internal4dirs19path_from_args_typeNtNtCs9i11WczUoNj_7profile13target_fuzz__4ArgsE0B18_
FNDA:0,_RNCINvNtCs2XBbTT2Tgsj_18test_fuzz_internal4dirs19path_from_args_typeNtNtCsaVSfY7O0uYs_7generic38struct_target_only_generic_args_fuzz__4ArgsE0B18_
FNDA:0,_RNCINvNtCs2XBbTT2Tgsj_18test_fuzz_internal4dirs19path_from_args_typeNtNtCsb7JfYwj8ipQ_10serde_attr13target_fuzz__4ArgsE0B18_
FNDA:0,_RNCINvNtCs2XBbTT2Tgsj_18test_fuzz_internal4dirs19path_from_args_typeNtNtCsbupd9d71YLx_16calm_and_panicky11calm_fuzz__4ArgsE0B18_
FNDA:0,_RNCINvNtCs2XBbTT2Tgsj_18test_fuzz_internal4dirs19path_from_args_typeNtNtCsbupd9d71YLx_16calm_and_panicky14panicky_fuzz__4ArgsE0B18_
FNDA:0,_RNCINvNtCs2XBbTT2Tgsj_18test_fuzz_internal4dirs19path_from_args_typeNtNtCscaf2gEuSGn5_6qwerty13target_fuzz__4ArgsE0B18_
FNDA:0,_RNCINvNtCs2XBbTT2Tgsj_18test_fuzz_internal4dirs19path_from_args_typeNtNtCsfEcBWhN4Na3_3arc13target_fuzz__4ArgsE0B18_
FNDA:0,_RNCINvNtCs2XBbTT2Tgsj_18test_fuzz_internal4dirs19path_from_args_typeNtNtCsfODoU0UL7aq_11manual_leak23wrapped_key_dump_fuzz__4ArgsE0B18_
FNDA:0,_RNCINvNtCs2XBbTT2Tgsj_18test_fuzz_internal4dirs19path_from_args_typeNtNtCsfOIDT8lUV2L_7mut_ref17target_str_fuzz__4ArgsE0B18_
FNDA:0,_RNCINvNtCs2XBbTT2Tgsj_18test_fuzz_internal4dirs19path_from_args_typeNtNtCsfOIDT8lUV2L_7mut_ref19target_slice_fuzz__4ArgsE0B18_
